(lp0
(lp1
(iModules.cell
Cell
p2
(dp3
S'visible'
p4
I00
sS'fov'
p5
I00
sS'type'
p6
(I00
I00
tp7
sS'pc'
p8
(lp9
I10
aI5
asba(iModules.cell
Cell
p10
(dp11
g4
I00
sg6
(I00
I00
tp12
sba(iModules.cell
Cell
p13
(dp14
g4
I00
sg6
(I00
I00
tp15
sba(iModules.cell
Cell
p16
(dp17
g4
I00
sg6
(I00
I00
tp18
sba(iModules.cell
Cell
p19
(dp20
g4
I00
sg6
(I00
I00
tp21
sba(iModules.cell
Cell
p22
(dp23
g4
I00
sg6
(I00
I00
tp24
sba(iModules.cell
Cell
p25
(dp26
g4
I00
sg6
(I00
I00
tp27
sba(iModules.cell
Cell
p28
(dp29
g4
I00
sg6
(I00
I00
tp30
sba(iModules.cell
Cell
p31
(dp32
g4
I00
sg6
(I00
I00
tp33
sba(iModules.cell
Cell
p34
(dp35
g4
I00
sg6
(I00
I00
tp36
sba(iModules.cell
Cell
p37
(dp38
g4
I00
sg6
(I00
I00
tp39
sba(iModules.cell
Cell
p40
(dp41
g4
I00
sg6
(I00
I00
tp42
sba(iModules.cell
Cell
p43
(dp44
g4
I00
sg6
(I00
I00
tp45
sba(iModules.cell
Cell
p46
(dp47
g4
I00
sg6
(I00
I00
tp48
sba(iModules.cell
Cell
p49
(dp50
g4
I00
sg6
(I00
I00
tp51
sba(iModules.cell
Cell
p52
(dp53
g4
I00
sg6
(I00
I00
tp54
sba(iModules.cell
Cell
p55
(dp56
g4
I00
sg6
(I00
I00
tp57
sba(iModules.cell
Cell
p58
(dp59
g4
I00
sg6
(I00
I00
tp60
sba(iModules.cell
Cell
p61
(dp62
g4
I00
sg6
(I00
I00
tp63
sba(iModules.cell
Cell
p64
(dp65
g4
I00
sg6
(I00
I00
tp66
sba(iModules.cell
Cell
p67
(dp68
g4
I00
sg6
(I00
I00
tp69
sba(iModules.cell
Cell
p70
(dp71
g4
I00
sg6
(I00
I00
tp72
sba(iModules.cell
Cell
p73
(dp74
g4
I00
sg6
(I00
I00
tp75
sba(iModules.cell
Cell
p76
(dp77
g4
I00
sg6
(I00
I00
tp78
sba(iModules.cell
Cell
p79
(dp80
g4
I00
sg6
(I00
I00
tp81
sba(iModules.cell
Cell
p82
(dp83
g4
I00
sg6
(I00
I00
tp84
sba(iModules.cell
Cell
p85
(dp86
g4
I00
sg6
(I00
I00
tp87
sba(iModules.cell
Cell
p88
(dp89
g4
I00
sg6
(I00
I00
tp90
sba(iModules.cell
Cell
p91
(dp92
g4
I00
sg6
(I00
I00
tp93
sba(iModules.cell
Cell
p94
(dp95
g4
I00
sg6
(I00
I00
tp96
sba(iModules.cell
Cell
p97
(dp98
g4
I00
sg6
(I00
I00
tp99
sba(iModules.cell
Cell
p100
(dp101
g4
I00
sg6
(I00
I00
tp102
sba(iModules.cell
Cell
p103
(dp104
g4
I00
sg6
(I00
I00
tp105
sba(iModules.cell
Cell
p106
(dp107
g4
I00
sg6
(I00
I00
tp108
sba(iModules.cell
Cell
p109
(dp110
g4
I00
sg6
(I00
I00
tp111
sba(iModules.cell
Cell
p112
(dp113
g4
I00
sg6
(I00
I00
tp114
sba(iModules.cell
Cell
p115
(dp116
g4
I00
sg6
(I00
I00
tp117
sba(iModules.cell
Cell
p118
(dp119
g4
I00
sg6
(I00
I00
tp120
sba(iModules.cell
Cell
p121
(dp122
g4
I00
sg6
(I00
I00
tp123
sba(iModules.cell
Cell
p124
(dp125
g4
I00
sg6
(I00
I00
tp126
sba(iModules.cell
Cell
p127
(dp128
g4
I00
sg6
(I00
I00
tp129
sba(iModules.cell
Cell
p130
(dp131
g4
I00
sg6
(I00
I00
tp132
sba(iModules.cell
Cell
p133
(dp134
g4
I00
sg6
(I00
I00
tp135
sba(iModules.cell
Cell
p136
(dp137
g4
I00
sg6
(I00
I00
tp138
sba(iModules.cell
Cell
p139
(dp140
g4
I00
sg6
(I00
I00
tp141
sba(iModules.cell
Cell
p142
(dp143
g4
I00
sg6
(I00
I00
tp144
sba(iModules.cell
Cell
p145
(dp146
g4
I00
sg6
(I00
I00
tp147
sba(iModules.cell
Cell
p148
(dp149
g4
I00
sg6
(I00
I00
tp150
sba(iModules.cell
Cell
p151
(dp152
g4
I00
sg6
(I00
I00
tp153
sba(iModules.cell
Cell
p154
(dp155
g4
I00
sg6
(I00
I00
tp156
sba(iModules.cell
Cell
p157
(dp158
g4
I00
sg6
(I00
I00
tp159
sba(iModules.cell
Cell
p160
(dp161
g4
I00
sg6
(I00
I00
tp162
sba(iModules.cell
Cell
p163
(dp164
g4
I00
sg6
(I00
I00
tp165
sba(iModules.cell
Cell
p166
(dp167
g4
I00
sg6
(I00
I00
tp168
sba(iModules.cell
Cell
p169
(dp170
g4
I00
sg6
(I00
I00
tp171
sba(iModules.cell
Cell
p172
(dp173
g4
I00
sg6
(I00
I00
tp174
sba(iModules.cell
Cell
p175
(dp176
g4
I00
sg6
(I00
I00
tp177
sba(iModules.cell
Cell
p178
(dp179
g4
I00
sg6
(I00
I00
tp180
sba(iModules.cell
Cell
p181
(dp182
g4
I00
sg6
(I00
I00
tp183
sba(iModules.cell
Cell
p184
(dp185
g4
I00
sg6
(I00
I00
tp186
sba(iModules.cell
Cell
p187
(dp188
g4
I00
sg6
(I00
I00
tp189
sba(iModules.cell
Cell
p190
(dp191
g4
I00
sg6
(I00
I00
tp192
sba(iModules.cell
Cell
p193
(dp194
g4
I00
sg6
(I00
I00
tp195
sba(iModules.cell
Cell
p196
(dp197
g4
I00
sg6
(I00
I00
tp198
sba(iModules.cell
Cell
p199
(dp200
g4
I00
sg6
(I00
I00
tp201
sba(iModules.cell
Cell
p202
(dp203
g4
I00
sg6
(I00
I00
tp204
sba(iModules.cell
Cell
p205
(dp206
g4
I00
sg6
(I00
I00
tp207
sba(iModules.cell
Cell
p208
(dp209
g4
I00
sg6
(I00
I00
tp210
sba(iModules.cell
Cell
p211
(dp212
g4
I00
sg6
(I00
I00
tp213
sba(iModules.cell
Cell
p214
(dp215
g4
I00
sg6
(I00
I00
tp216
sba(iModules.cell
Cell
p217
(dp218
g4
I00
sg6
(I00
I00
tp219
sba(iModules.cell
Cell
p220
(dp221
g4
I00
sg6
(I00
I00
tp222
sba(iModules.cell
Cell
p223
(dp224
g4
I00
sg6
(I00
I00
tp225
sba(iModules.cell
Cell
p226
(dp227
g4
I00
sg6
(I00
I00
tp228
sba(iModules.cell
Cell
p229
(dp230
g4
I00
sg6
(I00
I00
tp231
sba(iModules.cell
Cell
p232
(dp233
g4
I00
sg6
(I00
I00
tp234
sba(iModules.cell
Cell
p235
(dp236
g4
I00
sg6
(I00
I00
tp237
sba(iModules.cell
Cell
p238
(dp239
g4
I00
sg6
(I00
I00
tp240
sba(iModules.cell
Cell
p241
(dp242
g4
I00
sg6
(I00
I00
tp243
sba(iModules.cell
Cell
p244
(dp245
g4
I00
sg6
(I00
I00
tp246
sba(iModules.cell
Cell
p247
(dp248
g6
(I00
I00
tp249
sbaa(lp250
(iModules.cell
Cell
p251
(dp252
g4
I00
sg6
(I00
I00
tp253
sba(iModules.cell
Cell
p254
(dp255
g4
I00
sS'explored'
p256
I01
sg6
(I00
I00
tp257
sba(iModules.cell
Cell
p258
(dp259
g4
I00
sg256
I01
sg6
(I00
I00
tp260
sba(iModules.cell
Cell
p261
(dp262
g4
I00
sg256
I01
sg6
(I00
I00
tp263
sba(iModules.cell
Cell
p264
(dp265
g4
I00
sg256
I01
sg6
(I00
I00
tp266
sba(iModules.cell
Cell
p267
(dp268
g4
I00
sg256
I01
sg6
(I00
I00
tp269
sba(iModules.cell
Cell
p270
(dp271
g4
I00
sg256
I01
sg6
(I00
I00
tp272
sba(iModules.cell
Cell
p273
(dp274
g4
I00
sg256
I01
sg6
(I00
I00
tp275
sba(iModules.cell
Cell
p276
(dp277
g4
I00
sg256
I01
sg6
(I00
I00
tp278
sba(iModules.cell
Cell
p279
(dp280
g4
I00
sg256
I01
sg6
(I00
I00
tp281
sba(iModules.cell
Cell
p282
(dp283
g4
I00
sg256
I01
sg6
(I00
I00
tp284
sba(iModules.cell
Cell
p285
(dp286
g4
I00
sg256
I01
sg6
(I00
I00
tp287
sba(iModules.cell
Cell
p288
(dp289
g4
I00
sg256
I01
sg6
(I00
I00
tp290
sba(iModules.cell
Cell
p291
(dp292
g4
I00
sg256
I01
sg6
(I00
I00
tp293
sba(iModules.cell
Cell
p294
(dp295
g4
I00
sg256
I01
sg6
(I00
I00
tp296
sba(iModules.cell
Cell
p297
(dp298
g4
I00
sS'explored'
p299
I01
sg6
(I00
I00
tp300
sba(iModules.cell
Cell
p301
(dp302
g4
I00
sg299
I01
sg6
(I00
I00
tp303
sba(iModules.cell
Cell
p304
(dp305
g4
I00
sg299
I01
sg6
(I00
I00
tp306
sba(iModules.cell
Cell
p307
(dp308
g4
I00
sg299
I01
sg6
(I00
I00
tp309
sba(iModules.cell
Cell
p310
(dp311
g4
I00
sg299
I01
sg6
(I00
I00
tp312
sba(iModules.cell
Cell
p313
(dp314
g4
I00
sg299
I01
sg6
(I00
I00
tp315
sba(iModules.cell
Cell
p316
(dp317
g4
I00
sg299
I01
sg6
(I00
I00
tp318
sba(iModules.cell
Cell
p319
(dp320
g4
I00
sg299
I01
sg6
(I00
I00
tp321
sba(iModules.cell
Cell
p322
(dp323
g4
I00
sg299
I01
sg6
(I00
I00
tp324
sba(iModules.cell
Cell
p325
(dp326
g4
I00
sg299
I01
sg6
(I00
I00
tp327
sba(iModules.cell
Cell
p328
(dp329
g4
I00
sg299
I01
sg6
(I00
I00
tp330
sba(iModules.cell
Cell
p331
(dp332
g4
I00
sg299
I01
sg6
(I00
I00
tp333
sba(iModules.cell
Cell
p334
(dp335
g4
I00
sg299
I01
sg6
(I00
I00
tp336
sba(iModules.cell
Cell
p337
(dp338
g4
I00
sg299
I01
sg6
(I00
I00
tp339
sba(iModules.cell
Cell
p340
(dp341
g4
I00
sg6
(I00
I00
tp342
sba(iModules.cell
Cell
p343
(dp344
g4
I00
sg6
(I00
I00
tp345
sba(iModules.cell
Cell
p346
(dp347
g4
I00
sg6
(I00
I00
tp348
sba(iModules.cell
Cell
p349
(dp350
g4
I00
sg6
(I00
I00
tp351
sba(iModules.cell
Cell
p352
(dp353
g4
I00
sg6
(I00
I00
tp354
sba(iModules.cell
Cell
p355
(dp356
g4
I00
sg6
(I00
I00
tp357
sba(iModules.cell
Cell
p358
(dp359
g4
I00
sg6
(I00
I00
tp360
sba(iModules.cell
Cell
p361
(dp362
g4
I00
sg6
(I00
I00
tp363
sba(iModules.cell
Cell
p364
(dp365
g4
I00
sg6
(I00
I00
tp366
sba(iModules.cell
Cell
p367
(dp368
g4
I00
sg6
(I00
I00
tp369
sba(iModules.cell
Cell
p370
(dp371
g4
I00
sg6
(I00
I00
tp372
sba(iModules.cell
Cell
p373
(dp374
g4
I00
sg6
(I00
I00
tp375
sba(iModules.cell
Cell
p376
(dp377
g4
I00
sg6
(I00
I00
tp378
sba(iModules.cell
Cell
p379
(dp380
g4
I00
sg6
(I00
I00
tp381
sba(iModules.cell
Cell
p382
(dp383
g4
I00
sg6
(I00
I00
tp384
sba(iModules.cell
Cell
p385
(dp386
g4
I00
sg6
(I00
I00
tp387
sba(iModules.cell
Cell
p388
(dp389
g4
I00
sg6
(I00
I00
tp390
sba(iModules.cell
Cell
p391
(dp392
g4
I00
sg6
(I00
I00
tp393
sba(iModules.cell
Cell
p394
(dp395
g4
I00
sg6
(I00
I00
tp396
sba(iModules.cell
Cell
p397
(dp398
g4
I00
sg6
(I00
I00
tp399
sba(iModules.cell
Cell
p400
(dp401
g4
I00
sg6
(I00
I00
tp402
sba(iModules.cell
Cell
p403
(dp404
g4
I00
sg6
(I00
I00
tp405
sba(iModules.cell
Cell
p406
(dp407
g4
I00
sg6
(I00
I00
tp408
sba(iModules.cell
Cell
p409
(dp410
g4
I00
sg6
(I00
I00
tp411
sba(iModules.cell
Cell
p412
(dp413
g4
I00
sg6
(I00
I00
tp414
sba(iModules.cell
Cell
p415
(dp416
g4
I00
sg6
(I00
I00
tp417
sba(iModules.cell
Cell
p418
(dp419
g4
I00
sg6
(I00
I00
tp420
sba(iModules.cell
Cell
p421
(dp422
g4
I00
sg6
(I00
I00
tp423
sba(iModules.cell
Cell
p424
(dp425
g4
I00
sg6
(I00
I00
tp426
sba(iModules.cell
Cell
p427
(dp428
g4
I00
sg6
(I00
I00
tp429
sba(iModules.cell
Cell
p430
(dp431
g4
I00
sg6
(I00
I00
tp432
sba(iModules.cell
Cell
p433
(dp434
g4
I00
sg6
(I00
I00
tp435
sba(iModules.cell
Cell
p436
(dp437
g4
I00
sg6
(I00
I00
tp438
sba(iModules.cell
Cell
p439
(dp440
g4
I00
sg6
(I00
I00
tp441
sba(iModules.cell
Cell
p442
(dp443
g4
I00
sg6
(I00
I00
tp444
sba(iModules.cell
Cell
p445
(dp446
g4
I00
sg6
(I00
I00
tp447
sba(iModules.cell
Cell
p448
(dp449
g4
I00
sg6
(I00
I00
tp450
sba(iModules.cell
Cell
p451
(dp452
g4
I00
sg6
(I00
I00
tp453
sba(iModules.cell
Cell
p454
(dp455
g4
I00
sg6
(I00
I00
tp456
sba(iModules.cell
Cell
p457
(dp458
g4
I00
sg6
(I00
I00
tp459
sba(iModules.cell
Cell
p460
(dp461
g4
I00
sg6
(I00
I00
tp462
sba(iModules.cell
Cell
p463
(dp464
g4
I00
sg6
(I00
I00
tp465
sba(iModules.cell
Cell
p466
(dp467
g4
I00
sg6
(I00
I00
tp468
sba(iModules.cell
Cell
p469
(dp470
g4
I00
sg6
(I00
I00
tp471
sba(iModules.cell
Cell
p472
(dp473
g4
I00
sg6
(I00
I00
tp474
sba(iModules.cell
Cell
p475
(dp476
g4
I00
sg6
(I00
I00
tp477
sba(iModules.cell
Cell
p478
(dp479
g4
I00
sg6
(I00
I00
tp480
sba(iModules.cell
Cell
p481
(dp482
g4
I00
sg6
(I00
I00
tp483
sba(iModules.cell
Cell
p484
(dp485
g4
I00
sg6
(I00
I00
tp486
sba(iModules.cell
Cell
p487
(dp488
g4
I00
sg6
(I00
I00
tp489
sba(iModules.cell
Cell
p490
(dp491
g4
I00
sg6
(I00
I00
tp492
sba(iModules.cell
Cell
p493
(dp494
g6
(I00
I00
tp495
sbaa(lp496
(iModules.cell
Cell
p497
(dp498
g4
I00
sg6
(I00
I00
tp499
sba(iModules.cell
Cell
p500
(dp501
g4
I00
sg256
I01
sg6
(I00
I00
tp502
sba(iModules.cell
Cell
p503
(dp504
g4
I00
sg256
I01
sg6
(I01
I01
tp505
sba(iModules.cell
Cell
p506
(dp507
g4
I00
sg256
I01
sg6
(I01
I01
tp508
sba(iModules.cell
Cell
p509
(dp510
g4
I00
sg256
I01
sg6
(I01
I01
tp511
sba(iModules.cell
Cell
p512
(dp513
g4
I00
sg256
I01
sg6
(I01
I01
tp514
sba(iModules.cell
Cell
p515
(dp516
g4
I00
sg256
I01
sg6
(I01
I01
tp517
sba(iModules.cell
Cell
p518
(dp519
g4
I00
sg256
I01
sg6
(I01
I01
tp520
sba(iModules.cell
Cell
p521
(dp522
g4
I00
sg256
I01
sg6
(I01
I01
tp523
sba(iModules.cell
Cell
p524
(dp525
g4
I00
sg256
I01
sg6
(I01
I01
tp526
sba(iModules.cell
Cell
p527
(dp528
g4
I00
sg256
I01
sg6
(I01
I01
tp529
sba(iModules.cell
Cell
p530
(dp531
g4
I00
sg256
I01
sg6
(I01
I01
tp532
sba(iModules.cell
Cell
p533
(dp534
g4
I00
sg256
I01
sg6
(I01
I01
tp535
sba(iModules.cell
Cell
p536
(dp537
g4
I00
sg256
I01
sg6
(I01
I01
tp538
sba(iModules.cell
Cell
p539
(dp540
g4
I00
sg256
I01
sg6
(I01
I01
tp541
sba(iModules.cell
Cell
p542
(dp543
g4
I00
sg299
I01
sg6
(I01
I01
tp544
sba(iModules.cell
Cell
p545
(dp546
g4
I00
sg299
I01
sg6
(I01
I01
tp547
sba(iModules.cell
Cell
p548
(dp549
g4
I00
sg299
I01
sg6
(I01
I01
tp550
sba(iModules.cell
Cell
p551
(dp552
g4
I00
sg299
I01
sg6
(I01
I01
tp553
sba(iModules.cell
Cell
p554
(dp555
g4
I00
sg299
I01
sg6
(I01
I01
tp556
sba(iModules.cell
Cell
p557
(dp558
g4
I00
sg299
I01
sg6
(I01
I01
tp559
sba(iModules.cell
Cell
p560
(dp561
g4
I00
sg299
I01
sg6
(I01
I01
tp562
sba(iModules.cell
Cell
p563
(dp564
g4
I00
sg299
I01
sg6
(I01
I01
tp565
sba(iModules.cell
Cell
p566
(dp567
g4
I00
sg299
I01
sg6
(I01
I01
tp568
sba(iModules.cell
Cell
p569
(dp570
g4
I00
sg299
I01
sg6
(I01
I01
tp571
sba(iModules.cell
Cell
p572
(dp573
g4
I00
sg299
I01
sg6
(I01
I01
tp574
sba(iModules.cell
Cell
p575
(dp576
g4
I00
sg299
I01
sg6
(I01
I01
tp577
sba(iModules.cell
Cell
p578
(dp579
g4
I00
sg299
I01
sg6
(I01
I01
tp580
sba(iModules.cell
Cell
p581
(dp582
g4
I00
sg299
I01
sg6
(I01
I01
tp583
sba(iModules.cell
Cell
p584
(dp585
g4
I00
sg6
(I01
I01
tp586
sba(iModules.cell
Cell
p587
(dp588
g4
I00
sg6
(I01
I01
tp589
sba(iModules.cell
Cell
p590
(dp591
g4
I00
sg6
(I01
I01
tp592
sba(iModules.cell
Cell
p593
(dp594
g4
I00
sg6
(I01
I01
tp595
sba(iModules.cell
Cell
p596
(dp597
g4
I00
sg6
(I01
I01
tp598
sba(iModules.cell
Cell
p599
(dp600
g4
I00
sg6
(I01
I01
tp601
sba(iModules.cell
Cell
p602
(dp603
g4
I00
sg6
(I01
I01
tp604
sba(iModules.cell
Cell
p605
(dp606
g4
I00
sg6
(I01
I01
tp607
sba(iModules.cell
Cell
p608
(dp609
g4
I00
sg6
(I01
I01
tp610
sba(iModules.cell
Cell
p611
(dp612
g4
I00
sg6
(I01
I01
tp613
sba(iModules.cell
Cell
p614
(dp615
g4
I00
sg6
(I01
I01
tp616
sba(iModules.cell
Cell
p617
(dp618
g4
I00
sg6
(I01
I01
tp619
sba(iModules.cell
Cell
p620
(dp621
g4
I00
sg6
(I01
I01
tp622
sba(iModules.cell
Cell
p623
(dp624
g4
I00
sg6
(I01
I01
tp625
sba(iModules.cell
Cell
p626
(dp627
g4
I00
sg6
(I01
I01
tp628
sba(iModules.cell
Cell
p629
(dp630
g4
I00
sg6
(I01
I01
tp631
sba(iModules.cell
Cell
p632
(dp633
g4
I00
sg6
(I01
I01
tp634
sba(iModules.cell
Cell
p635
(dp636
g4
I00
sg6
(I01
I01
tp637
sba(iModules.cell
Cell
p638
(dp639
g4
I00
sg6
(I01
I01
tp640
sba(iModules.cell
Cell
p641
(dp642
g4
I00
sg6
(I01
I01
tp643
sba(iModules.cell
Cell
p644
(dp645
g4
I00
sg6
(I01
I01
tp646
sba(iModules.cell
Cell
p647
(dp648
g4
I00
sg6
(I01
I01
tp649
sba(iModules.cell
Cell
p650
(dp651
g4
I00
sg6
(I01
I01
tp652
sba(iModules.cell
Cell
p653
(dp654
g4
I00
sg6
(I01
I01
tp655
sba(iModules.cell
Cell
p656
(dp657
g4
I00
sg6
(I01
I01
tp658
sba(iModules.cell
Cell
p659
(dp660
g4
I00
sg6
(I01
I01
tp661
sba(iModules.cell
Cell
p662
(dp663
g4
I00
sg6
(I01
I01
tp664
sba(iModules.cell
Cell
p665
(dp666
g4
I00
sg6
(I01
I01
tp667
sba(iModules.cell
Cell
p668
(dp669
g4
I00
sg6
(I01
I01
tp670
sba(iModules.cell
Cell
p671
(dp672
g4
I00
sg6
(I01
I01
tp673
sba(iModules.cell
Cell
p674
(dp675
g4
I00
sg6
(I01
I01
tp676
sba(iModules.cell
Cell
p677
(dp678
g4
I00
sg6
(I01
I01
tp679
sba(iModules.cell
Cell
p680
(dp681
g4
I00
sg6
(I00
I00
tp682
sba(iModules.cell
Cell
p683
(dp684
g4
I00
sg6
(I00
I00
tp685
sba(iModules.cell
Cell
p686
(dp687
g4
I00
sg6
(I00
I00
tp688
sba(iModules.cell
Cell
p689
(dp690
g4
I00
sg6
(I00
I00
tp691
sba(iModules.cell
Cell
p692
(dp693
g4
I00
sg6
(I00
I00
tp694
sba(iModules.cell
Cell
p695
(dp696
g4
I00
sg6
(I00
I00
tp697
sba(iModules.cell
Cell
p698
(dp699
g4
I00
sg6
(I00
I00
tp700
sba(iModules.cell
Cell
p701
(dp702
g4
I00
sg6
(I00
I00
tp703
sba(iModules.cell
Cell
p704
(dp705
g4
I00
sg6
(I00
I00
tp706
sba(iModules.cell
Cell
p707
(dp708
g4
I00
sg6
(I00
I00
tp709
sba(iModules.cell
Cell
p710
(dp711
g4
I00
sg6
(I00
I00
tp712
sba(iModules.cell
Cell
p713
(dp714
g4
I00
sg6
(I00
I00
tp715
sba(iModules.cell
Cell
p716
(dp717
g4
I00
sg6
(I00
I00
tp718
sba(iModules.cell
Cell
p719
(dp720
g4
I00
sg6
(I00
I00
tp721
sba(iModules.cell
Cell
p722
(dp723
g4
I00
sg6
(I00
I00
tp724
sba(iModules.cell
Cell
p725
(dp726
g4
I00
sg6
(I00
I00
tp727
sba(iModules.cell
Cell
p728
(dp729
g4
I00
sg6
(I00
I00
tp730
sba(iModules.cell
Cell
p731
(dp732
g4
I00
sg6
(I00
I00
tp733
sba(iModules.cell
Cell
p734
(dp735
g4
I00
sg6
(I00
I00
tp736
sba(iModules.cell
Cell
p737
(dp738
g6
(I00
I00
tp739
sbaa(lp740
(iModules.cell
Cell
p741
(dp742
g4
I00
sg6
(I00
I00
tp743
sba(iModules.cell
Cell
p744
(dp745
g4
I00
sg256
I01
sg6
(I00
I00
tp746
sba(iModules.cell
Cell
p747
(dp748
g4
I00
sg256
I01
sg6
(I01
I01
tp749
sba(iModules.cell
Cell
p750
(dp751
g4
I00
sg256
I01
sg6
(I01
I01
tp752
sba(iModules.cell
Cell
p753
(dp754
g4
I00
sg256
I01
sg6
(I01
I01
tp755
sba(iModules.cell
Cell
p756
(dp757
g4
I00
sg256
I01
sg6
(I01
I01
tp758
sba(iModules.cell
Cell
p759
(dp760
g4
I00
sg256
I01
sg6
(I01
I01
tp761
sba(iModules.cell
Cell
p762
(dp763
g4
I00
sg256
I01
sg6
(I01
I01
tp764
sba(iModules.cell
Cell
p765
(dp766
g4
I00
sg256
I01
sg6
(I01
I01
tp767
sba(iModules.cell
Cell
p768
(dp769
g4
I00
sg256
I01
sg6
(I01
I01
tp770
sba(iModules.cell
Cell
p771
(dp772
g4
I00
sg256
I01
sg6
(I01
I01
tp773
sba(iModules.cell
Cell
p774
(dp775
g4
I00
sg256
I01
sg6
(I01
I01
tp776
sba(iModules.cell
Cell
p777
(dp778
g4
I00
sg256
I01
sg6
(I01
I01
tp779
sba(iModules.cell
Cell
p780
(dp781
g4
I00
sg256
I01
sg6
(I01
I01
tp782
sba(iModules.cell
Cell
p783
(dp784
g4
I00
sg256
I01
sg6
(I01
I01
tp785
sba(iModules.cell
Cell
p786
(dp787
g4
I00
sg299
I01
sg6
(I01
I01
tp788
sba(iModules.cell
Cell
p789
(dp790
g4
I00
sg299
I01
sg6
(I01
I01
tp791
sba(iModules.cell
Cell
p792
(dp793
g4
I00
sg299
I01
sg6
(I01
I01
tp794
sba(iModules.cell
Cell
p795
(dp796
g4
I00
sg299
I01
sg6
(I01
I01
tp797
sba(iModules.cell
Cell
p798
(dp799
g4
I00
sg299
I01
sg6
(I01
I01
tp800
sba(iModules.cell
Cell
p801
(dp802
g4
I00
sg299
I01
sg6
(I01
I01
tp803
sba(iModules.cell
Cell
p804
(dp805
g4
I00
sg299
I01
sg6
(I01
I01
tp806
sba(iModules.cell
Cell
p807
(dp808
g4
I00
sg299
I01
sg6
(I01
I01
tp809
sba(iModules.cell
Cell
p810
(dp811
g4
I00
sg299
I01
sg6
(I01
I01
tp812
sba(iModules.cell
Cell
p813
(dp814
g4
I00
sg299
I01
sg6
(I01
I01
tp815
sba(iModules.cell
Cell
p816
(dp817
g4
I00
sg299
I01
sg6
(I01
I01
tp818
sba(iModules.cell
Cell
p819
(dp820
g4
I00
sg299
I01
sg6
(I01
I01
tp821
sba(iModules.cell
Cell
p822
(dp823
g4
I00
sg299
I01
sg6
(I01
I01
tp824
sba(iModules.cell
Cell
p825
(dp826
g4
I00
sg299
I01
sg6
(I01
I01
tp827
sba(iModules.cell
Cell
p828
(dp829
g4
I00
sg6
(I01
I01
tp830
sba(iModules.cell
Cell
p831
(dp832
g4
I00
sg6
(I01
I01
tp833
sba(iModules.cell
Cell
p834
(dp835
g4
I00
sg6
(I01
I01
tp836
sba(iModules.cell
Cell
p837
(dp838
g4
I00
sg6
(I01
I01
tp839
sba(iModules.cell
Cell
p840
(dp841
g4
I00
sg6
(I01
I01
tp842
sba(iModules.cell
Cell
p843
(dp844
g4
I00
sg6
(I01
I01
tp845
sba(iModules.cell
Cell
p846
(dp847
g4
I00
sg6
(I01
I01
tp848
sba(iModules.cell
Cell
p849
(dp850
g4
I00
sg6
(I01
I01
tp851
sba(iModules.cell
Cell
p852
(dp853
g4
I00
sg6
(I01
I01
tp854
sba(iModules.cell
Cell
p855
(dp856
g4
I00
sg6
(I01
I01
tp857
sba(iModules.cell
Cell
p858
(dp859
g4
I00
sg6
(I01
I01
tp860
sba(iModules.cell
Cell
p861
(dp862
g4
I00
sg6
(I01
I01
tp863
sba(iModules.cell
Cell
p864
(dp865
g4
I00
sg6
(I01
I01
tp866
sba(iModules.cell
Cell
p867
(dp868
g4
I00
sg6
(I01
I01
tp869
sba(iModules.cell
Cell
p870
(dp871
g4
I00
sg6
(I01
I01
tp872
sba(iModules.cell
Cell
p873
(dp874
g4
I00
sg6
(I01
I01
tp875
sba(iModules.cell
Cell
p876
(dp877
g4
I00
sg6
(I01
I01
tp878
sba(iModules.cell
Cell
p879
(dp880
g4
I00
sg6
(I01
I01
tp881
sba(iModules.cell
Cell
p882
(dp883
g4
I00
sg6
(I01
I01
tp884
sba(iModules.cell
Cell
p885
(dp886
g4
I00
sg6
(I01
I01
tp887
sba(iModules.cell
Cell
p888
(dp889
g4
I00
sg6
(I01
I01
tp890
sba(iModules.cell
Cell
p891
(dp892
g4
I00
sg6
(I01
I01
tp893
sba(iModules.cell
Cell
p894
(dp895
g4
I00
sg6
(I01
I01
tp896
sba(iModules.cell
Cell
p897
(dp898
g4
I00
sg6
(I01
I01
tp899
sba(iModules.cell
Cell
p900
(dp901
g4
I00
sg6
(I01
I01
tp902
sba(iModules.cell
Cell
p903
(dp904
g4
I00
sg6
(I01
I01
tp905
sba(iModules.cell
Cell
p906
(dp907
g4
I00
sg6
(I01
I01
tp908
sba(iModules.cell
Cell
p909
(dp910
g4
I00
sg6
(I01
I01
tp911
sba(iModules.cell
Cell
p912
(dp913
g4
I00
sg6
(I01
I01
tp914
sba(iModules.cell
Cell
p915
(dp916
g4
I00
sg6
(I01
I01
tp917
sba(iModules.cell
Cell
p918
(dp919
g4
I00
sg6
(I01
I01
tp920
sba(iModules.cell
Cell
p921
(dp922
g4
I00
sg6
(I01
I01
tp923
sba(iModules.cell
Cell
p924
(dp925
g4
I00
sg6
(I00
I00
tp926
sba(iModules.cell
Cell
p927
(dp928
g4
I00
sg6
(I00
I00
tp929
sba(iModules.cell
Cell
p930
(dp931
g4
I00
sg6
(I00
I00
tp932
sba(iModules.cell
Cell
p933
(dp934
g4
I00
sg6
(I00
I00
tp935
sba(iModules.cell
Cell
p936
(dp937
g4
I00
sg6
(I00
I00
tp938
sba(iModules.cell
Cell
p939
(dp940
g4
I00
sg6
(I00
I00
tp941
sba(iModules.cell
Cell
p942
(dp943
g4
I00
sg6
(I00
I00
tp944
sba(iModules.cell
Cell
p945
(dp946
g4
I00
sg6
(I00
I00
tp947
sba(iModules.cell
Cell
p948
(dp949
g4
I00
sg6
(I00
I00
tp950
sba(iModules.cell
Cell
p951
(dp952
g4
I00
sg6
(I00
I00
tp953
sba(iModules.cell
Cell
p954
(dp955
g4
I00
sg6
(I00
I00
tp956
sba(iModules.cell
Cell
p957
(dp958
g4
I00
sg6
(I00
I00
tp959
sba(iModules.cell
Cell
p960
(dp961
g4
I00
sg6
(I00
I00
tp962
sba(iModules.cell
Cell
p963
(dp964
g4
I00
sg6
(I00
I00
tp965
sba(iModules.cell
Cell
p966
(dp967
g4
I00
sg6
(I00
I00
tp968
sba(iModules.cell
Cell
p969
(dp970
g4
I00
sg6
(I00
I00
tp971
sba(iModules.cell
Cell
p972
(dp973
g4
I00
sg6
(I00
I00
tp974
sba(iModules.cell
Cell
p975
(dp976
g4
I00
sg6
(I00
I00
tp977
sba(iModules.cell
Cell
p978
(dp979
g4
I00
sg6
(I00
I00
tp980
sba(iModules.cell
Cell
p981
(dp982
g6
(I00
I00
tp983
sbaa(lp984
(iModules.cell
Cell
p985
(dp986
g4
I00
sg6
(I00
I00
tp987
sba(iModules.cell
Cell
p988
(dp989
g4
I00
sg256
I01
sg6
(I00
I00
tp990
sba(iModules.cell
Cell
p991
(dp992
g4
I00
sg256
I01
sg6
(I01
I01
tp993
sba(iModules.cell
Cell
p994
(dp995
g4
I00
sg256
I01
sg6
(I01
I01
tp996
sba(iModules.cell
Cell
p997
(dp998
g4
I00
sg256
I01
sg6
(I01
I01
tp999
sba(iModules.cell
Cell
p1000
(dp1001
g4
I00
sg256
I01
sg6
(I01
I01
tp1002
sba(iModules.cell
Cell
p1003
(dp1004
g4
I00
sg256
I01
sg6
(I01
I01
tp1005
sba(iModules.cell
Cell
p1006
(dp1007
g4
I00
sg256
I01
sg6
(I01
I01
tp1008
sba(iModules.cell
Cell
p1009
(dp1010
g4
I00
sg256
I01
sg6
(I01
I01
tp1011
sba(iModules.cell
Cell
p1012
(dp1013
g4
I00
sg256
I01
sg6
(I01
I01
tp1014
sba(iModules.cell
Cell
p1015
(dp1016
g4
I00
sg256
I01
sg6
(I01
I01
tp1017
sba(iModules.cell
Cell
p1018
(dp1019
g4
I00
sg256
I01
sg6
(I01
I01
tp1020
sba(iModules.cell
Cell
p1021
(dp1022
g4
I00
sg256
I01
sg6
(I01
I01
tp1023
sba(iModules.cell
Cell
p1024
(dp1025
g4
I00
sg256
I01
sg6
(I01
I01
tp1026
sba(iModules.cell
Cell
p1027
(dp1028
g4
I00
sg256
I01
sg6
(I01
I01
tp1029
sba(iModules.cell
Cell
p1030
(dp1031
g4
I00
sg299
I01
sg6
(I01
I01
tp1032
sba(iModules.cell
Cell
p1033
(dp1034
g4
I00
sg299
I01
sg6
(I01
I01
tp1035
sba(iModules.cell
Cell
p1036
(dp1037
g4
I00
sg299
I01
sg6
(I01
I01
tp1038
sba(iModules.cell
Cell
p1039
(dp1040
g4
I00
sg299
I01
sg6
(I01
I01
tp1041
sba(iModules.cell
Cell
p1042
(dp1043
g4
I00
sg299
I01
sg6
(I01
I01
tp1044
sba(iModules.cell
Cell
p1045
(dp1046
g4
I00
sg299
I01
sg6
(I01
I01
tp1047
sba(iModules.cell
Cell
p1048
(dp1049
g4
I00
sg299
I01
sg6
(I01
I01
tp1050
sba(iModules.cell
Cell
p1051
(dp1052
g4
I00
sg299
I01
sg6
(I01
I01
tp1053
sba(iModules.cell
Cell
p1054
(dp1055
g4
I00
sg299
I01
sg6
(I01
I01
tp1056
sba(iModules.cell
Cell
p1057
(dp1058
g4
I00
sg299
I01
sg6
(I01
I01
tp1059
sba(iModules.cell
Cell
p1060
(dp1061
g4
I00
sg299
I01
sg6
(I01
I01
tp1062
sba(iModules.cell
Cell
p1063
(dp1064
g4
I00
sg299
I01
sg6
(I01
I01
tp1065
sba(iModules.cell
Cell
p1066
(dp1067
g4
I00
sg299
I01
sg6
(I01
I01
tp1068
sba(iModules.cell
Cell
p1069
(dp1070
g4
I00
sg299
I01
sg6
(I01
I01
tp1071
sba(iModules.cell
Cell
p1072
(dp1073
g4
I00
sg6
(I01
I01
tp1074
sba(iModules.cell
Cell
p1075
(dp1076
g4
I00
sg6
(I01
I01
tp1077
sba(iModules.cell
Cell
p1078
(dp1079
g4
I00
sg6
(I01
I01
tp1080
sba(iModules.cell
Cell
p1081
(dp1082
g4
I00
sg6
(I01
I01
tp1083
sba(iModules.cell
Cell
p1084
(dp1085
g4
I00
sg6
(I01
I01
tp1086
sba(iModules.cell
Cell
p1087
(dp1088
g4
I00
sg6
(I01
I01
tp1089
sba(iModules.cell
Cell
p1090
(dp1091
g4
I00
sg6
(I01
I01
tp1092
sba(iModules.cell
Cell
p1093
(dp1094
g4
I00
sg6
(I01
I01
tp1095
sba(iModules.cell
Cell
p1096
(dp1097
g4
I00
sg6
(I01
I01
tp1098
sba(iModules.cell
Cell
p1099
(dp1100
g4
I00
sg6
(I01
I01
tp1101
sba(iModules.cell
Cell
p1102
(dp1103
g4
I00
sg6
(I01
I01
tp1104
sba(iModules.cell
Cell
p1105
(dp1106
g4
I00
sg6
(I01
I01
tp1107
sba(iModules.cell
Cell
p1108
(dp1109
g4
I00
sg6
(I01
I01
tp1110
sba(iModules.cell
Cell
p1111
(dp1112
g4
I00
sg6
(I01
I01
tp1113
sba(iModules.cell
Cell
p1114
(dp1115
g4
I00
sg6
(I01
I01
tp1116
sba(iModules.cell
Cell
p1117
(dp1118
g4
I00
sg6
(I01
I01
tp1119
sba(iModules.cell
Cell
p1120
(dp1121
g4
I00
sg6
(I01
I01
tp1122
sba(iModules.cell
Cell
p1123
(dp1124
g4
I00
sg6
(I01
I01
tp1125
sba(iModules.cell
Cell
p1126
(dp1127
g4
I00
sg6
(I01
I01
tp1128
sba(iModules.cell
Cell
p1129
(dp1130
g4
I00
sg6
(I01
I01
tp1131
sba(iModules.cell
Cell
p1132
(dp1133
g4
I00
sg6
(I01
I01
tp1134
sba(iModules.cell
Cell
p1135
(dp1136
g4
I00
sg6
(I01
I01
tp1137
sba(iModules.cell
Cell
p1138
(dp1139
g4
I00
sg6
(I01
I01
tp1140
sba(iModules.cell
Cell
p1141
(dp1142
g4
I00
sg6
(I01
I01
tp1143
sba(iModules.cell
Cell
p1144
(dp1145
g4
I00
sg6
(I01
I01
tp1146
sba(iModules.cell
Cell
p1147
(dp1148
g4
I00
sg6
(I01
I01
tp1149
sba(iModules.cell
Cell
p1150
(dp1151
g4
I00
sg6
(I01
I01
tp1152
sba(iModules.cell
Cell
p1153
(dp1154
g4
I00
sg6
(I01
I01
tp1155
sba(iModules.cell
Cell
p1156
(dp1157
g4
I00
sg6
(I01
I01
tp1158
sba(iModules.cell
Cell
p1159
(dp1160
g4
I00
sg6
(I01
I01
tp1161
sba(iModules.cell
Cell
p1162
(dp1163
g4
I00
sg6
(I01
I01
tp1164
sba(iModules.cell
Cell
p1165
(dp1166
g4
I00
sg6
(I01
I01
tp1167
sba(iModules.cell
Cell
p1168
(dp1169
g4
I00
sg6
(I00
I00
tp1170
sba(iModules.cell
Cell
p1171
(dp1172
g4
I00
sg6
(I00
I00
tp1173
sba(iModules.cell
Cell
p1174
(dp1175
g4
I00
sg6
(I00
I00
tp1176
sba(iModules.cell
Cell
p1177
(dp1178
g4
I00
sg6
(I00
I00
tp1179
sba(iModules.cell
Cell
p1180
(dp1181
g4
I00
sg6
(I00
I00
tp1182
sba(iModules.cell
Cell
p1183
(dp1184
g4
I00
sg6
(I00
I00
tp1185
sba(iModules.cell
Cell
p1186
(dp1187
g4
I00
sg6
(I00
I00
tp1188
sba(iModules.cell
Cell
p1189
(dp1190
g4
I00
sg6
(I00
I00
tp1191
sba(iModules.cell
Cell
p1192
(dp1193
g4
I00
sg6
(I00
I00
tp1194
sba(iModules.cell
Cell
p1195
(dp1196
g4
I00
sg6
(I00
I00
tp1197
sba(iModules.cell
Cell
p1198
(dp1199
g4
I00
sg6
(I00
I00
tp1200
sba(iModules.cell
Cell
p1201
(dp1202
g4
I00
sg6
(I00
I00
tp1203
sba(iModules.cell
Cell
p1204
(dp1205
g4
I00
sg6
(I00
I00
tp1206
sba(iModules.cell
Cell
p1207
(dp1208
g4
I00
sg6
(I00
I00
tp1209
sba(iModules.cell
Cell
p1210
(dp1211
g4
I00
sg6
(I00
I00
tp1212
sba(iModules.cell
Cell
p1213
(dp1214
g4
I00
sg6
(I00
I00
tp1215
sba(iModules.cell
Cell
p1216
(dp1217
g4
I00
sg6
(I00
I00
tp1218
sba(iModules.cell
Cell
p1219
(dp1220
g4
I00
sg6
(I00
I00
tp1221
sba(iModules.cell
Cell
p1222
(dp1223
g4
I00
sg6
(I00
I00
tp1224
sba(iModules.cell
Cell
p1225
(dp1226
g6
(I00
I00
tp1227
sbaa(lp1228
(iModules.cell
Cell
p1229
(dp1230
g4
I00
sg6
(I00
I00
tp1231
sba(iModules.cell
Cell
p1232
(dp1233
g4
I00
sg256
I01
sg6
(I00
I00
tp1234
sba(iModules.cell
Cell
p1235
(dp1236
g4
I00
sg256
I01
sg6
(I01
I01
tp1237
sba(iModules.cell
Cell
p1238
(dp1239
g4
I00
sg256
I01
sg6
(I01
I01
tp1240
sba(iModules.cell
Cell
p1241
(dp1242
g4
I00
sg256
I01
sg6
(I01
I01
tp1243
sba(iModules.cell
Cell
p1244
(dp1245
g4
I00
sg256
I01
sg6
(I01
I01
tp1246
sba(iModules.cell
Cell
p1247
(dp1248
g4
I00
sg256
I01
sg6
(I01
I01
tp1249
sba(iModules.cell
Cell
p1250
(dp1251
g4
I00
sg256
I01
sg6
(I01
I01
tp1252
sba(iModules.cell
Cell
p1253
(dp1254
g4
I00
sg256
I01
sg6
(I01
I01
tp1255
sba(iModules.cell
Cell
p1256
(dp1257
g4
I00
sg256
I01
sg6
(I01
I01
tp1258
sba(iModules.cell
Cell
p1259
(dp1260
g4
I00
sg256
I01
sg6
(I01
I01
tp1261
sba(iModules.cell
Cell
p1262
(dp1263
g4
I00
sg256
I01
sg6
(I01
I01
tp1264
sba(iModules.cell
Cell
p1265
(dp1266
g4
I00
sg256
I01
sg6
(I01
I01
tp1267
sba(iModules.cell
Cell
p1268
(dp1269
g4
I00
sg256
I01
sg6
(I01
I01
tp1270
sba(iModules.cell
Cell
p1271
(dp1272
g4
I00
sg256
I01
sg6
(I01
I01
tp1273
sba(iModules.cell
Cell
p1274
(dp1275
g4
I00
sg299
I01
sg6
(I01
I01
tp1276
sba(iModules.cell
Cell
p1277
(dp1278
g4
I00
sg299
I01
sg6
(I01
I01
tp1279
sba(iModules.cell
Cell
p1280
(dp1281
g4
I00
sg299
I01
sg6
(I01
I01
tp1282
sba(iModules.cell
Cell
p1283
(dp1284
g4
I00
sg299
I01
sg6
(I01
I01
tp1285
sba(iModules.cell
Cell
p1286
(dp1287
g4
I00
sg299
I01
sg6
(I01
I01
tp1288
sba(iModules.cell
Cell
p1289
(dp1290
g4
I00
sg299
I01
sg6
(I01
I01
tp1291
sba(iModules.cell
Cell
p1292
(dp1293
g4
I00
sg299
I01
sg6
(I01
I01
tp1294
sba(iModules.cell
Cell
p1295
(dp1296
g4
I00
sg299
I01
sg6
(I01
I01
tp1297
sba(iModules.cell
Cell
p1298
(dp1299
g4
I00
sg299
I01
sg6
(I01
I01
tp1300
sba(iModules.cell
Cell
p1301
(dp1302
g4
I00
sg299
I01
sg6
(I01
I01
tp1303
sba(iModules.cell
Cell
p1304
(dp1305
g4
I00
sg299
I01
sg6
(I01
I01
tp1306
sba(iModules.cell
Cell
p1307
(dp1308
g4
I00
sg299
I01
sg6
(I01
I01
tp1309
sba(iModules.cell
Cell
p1310
(dp1311
g4
I00
sg299
I01
sg6
(I01
I01
tp1312
sba(iModules.cell
Cell
p1313
(dp1314
g4
I00
sg299
I01
sg6
(I01
I01
tp1315
sba(iModules.cell
Cell
p1316
(dp1317
g4
I00
sg6
(I01
I01
tp1318
sba(iModules.cell
Cell
p1319
(dp1320
g4
I00
sg6
(I01
I01
tp1321
sba(iModules.cell
Cell
p1322
(dp1323
g4
I00
sg6
(I01
I01
tp1324
sba(iModules.cell
Cell
p1325
(dp1326
g4
I00
sg6
(I01
I01
tp1327
sba(iModules.cell
Cell
p1328
(dp1329
g4
I00
sg6
(I01
I01
tp1330
sba(iModules.cell
Cell
p1331
(dp1332
g4
I00
sg6
(I01
I01
tp1333
sba(iModules.cell
Cell
p1334
(dp1335
g4
I00
sg6
(I01
I01
tp1336
sba(iModules.cell
Cell
p1337
(dp1338
g4
I00
sg6
(I01
I01
tp1339
sba(iModules.cell
Cell
p1340
(dp1341
g4
I00
sg6
(I01
I01
tp1342
sba(iModules.cell
Cell
p1343
(dp1344
g4
I00
sg6
(I01
I01
tp1345
sba(iModules.cell
Cell
p1346
(dp1347
g4
I00
sg6
(I01
I01
tp1348
sba(iModules.cell
Cell
p1349
(dp1350
g4
I00
sg6
(I01
I01
tp1351
sba(iModules.cell
Cell
p1352
(dp1353
g4
I00
sg6
(I01
I01
tp1354
sba(iModules.cell
Cell
p1355
(dp1356
g4
I00
sg6
(I01
I01
tp1357
sba(iModules.cell
Cell
p1358
(dp1359
g4
I00
sg6
(I01
I01
tp1360
sba(iModules.cell
Cell
p1361
(dp1362
g4
I00
sg6
(I01
I01
tp1363
sba(iModules.cell
Cell
p1364
(dp1365
g4
I00
sg6
(I01
I01
tp1366
sba(iModules.cell
Cell
p1367
(dp1368
g4
I00
sg6
(I01
I01
tp1369
sba(iModules.cell
Cell
p1370
(dp1371
g4
I00
sg6
(I01
I01
tp1372
sba(iModules.cell
Cell
p1373
(dp1374
g4
I00
sg6
(I01
I01
tp1375
sba(iModules.cell
Cell
p1376
(dp1377
g4
I00
sg6
(I01
I01
tp1378
sba(iModules.cell
Cell
p1379
(dp1380
g4
I00
sg6
(I01
I01
tp1381
sba(iModules.cell
Cell
p1382
(dp1383
g4
I00
sg6
(I01
I01
tp1384
sba(iModules.cell
Cell
p1385
(dp1386
g4
I00
sg6
(I01
I01
tp1387
sba(iModules.cell
Cell
p1388
(dp1389
g4
I00
sg6
(I01
I01
tp1390
sba(iModules.cell
Cell
p1391
(dp1392
g4
I00
sg6
(I01
I01
tp1393
sba(iModules.cell
Cell
p1394
(dp1395
g4
I00
sg6
(I01
I01
tp1396
sba(iModules.cell
Cell
p1397
(dp1398
g4
I00
sg6
(I01
I01
tp1399
sba(iModules.cell
Cell
p1400
(dp1401
g4
I00
sg6
(I01
I01
tp1402
sba(iModules.cell
Cell
p1403
(dp1404
g4
I00
sg6
(I01
I01
tp1405
sba(iModules.cell
Cell
p1406
(dp1407
g4
I00
sg6
(I01
I01
tp1408
sba(iModules.cell
Cell
p1409
(dp1410
g4
I00
sg6
(I01
I01
tp1411
sba(iModules.cell
Cell
p1412
(dp1413
g4
I00
sg6
(I00
I00
tp1414
sba(iModules.cell
Cell
p1415
(dp1416
g4
I00
sg6
(I00
I00
tp1417
sba(iModules.cell
Cell
p1418
(dp1419
g4
I00
sg6
(I00
I00
tp1420
sba(iModules.cell
Cell
p1421
(dp1422
g4
I00
sg6
(I00
I00
tp1423
sba(iModules.cell
Cell
p1424
(dp1425
g4
I00
sg6
(I00
I00
tp1426
sba(iModules.cell
Cell
p1427
(dp1428
g4
I00
sg6
(I00
I00
tp1429
sba(iModules.cell
Cell
p1430
(dp1431
g4
I00
sg6
(I00
I00
tp1432
sba(iModules.cell
Cell
p1433
(dp1434
g4
I00
sg6
(I00
I00
tp1435
sba(iModules.cell
Cell
p1436
(dp1437
g4
I00
sg6
(I00
I00
tp1438
sba(iModules.cell
Cell
p1439
(dp1440
g4
I00
sg6
(I00
I00
tp1441
sba(iModules.cell
Cell
p1442
(dp1443
g4
I00
sg6
(I00
I00
tp1444
sba(iModules.cell
Cell
p1445
(dp1446
g4
I00
sg6
(I00
I00
tp1447
sba(iModules.cell
Cell
p1448
(dp1449
g4
I00
sg6
(I00
I00
tp1450
sba(iModules.cell
Cell
p1451
(dp1452
g4
I00
sg6
(I00
I00
tp1453
sba(iModules.cell
Cell
p1454
(dp1455
g4
I00
sg6
(I00
I00
tp1456
sba(iModules.cell
Cell
p1457
(dp1458
g4
I00
sg6
(I00
I00
tp1459
sba(iModules.cell
Cell
p1460
(dp1461
g4
I00
sg6
(I00
I00
tp1462
sba(iModules.cell
Cell
p1463
(dp1464
g4
I00
sg6
(I00
I00
tp1465
sba(iModules.cell
Cell
p1466
(dp1467
g4
I00
sg6
(I00
I00
tp1468
sba(iModules.cell
Cell
p1469
(dp1470
g6
(I00
I00
tp1471
sbaa(lp1472
(iModules.cell
Cell
p1473
(dp1474
g4
I00
sg6
(I00
I00
tp1475
sba(iModules.cell
Cell
p1476
(dp1477
g4
I00
sg256
I01
sg6
(I00
I00
tp1478
sba(iModules.cell
Cell
p1479
(dp1480
g4
I00
sg256
I01
sg6
(I01
I01
tp1481
sba(iModules.cell
Cell
p1482
(dp1483
g4
I00
sg256
I01
sg6
(I01
I01
tp1484
sba(iModules.cell
Cell
p1485
(dp1486
g4
I00
sg256
I01
sg6
(I01
I01
tp1487
sba(iModules.cell
Cell
p1488
(dp1489
g4
I00
sg256
I01
sg6
(I01
I01
tp1490
sba(iModules.cell
Cell
p1491
(dp1492
g4
I00
sg256
I01
sg6
(I01
I01
tp1493
sba(iModules.cell
Cell
p1494
(dp1495
g4
I00
sg256
I01
sg6
(I01
I01
tp1496
sba(iModules.cell
Cell
p1497
(dp1498
g4
I00
sg256
I01
sg6
(I01
I01
tp1499
sba(iModules.cell
Cell
p1500
(dp1501
g4
I00
sg256
I01
sg6
(I01
I01
tp1502
sba(iModules.cell
Cell
p1503
(dp1504
g4
I00
sg256
I01
sg6
(I01
I01
tp1505
sba(iModules.cell
Cell
p1506
(dp1507
g4
I00
sg256
I01
sg6
(I01
I01
tp1508
sba(iModules.cell
Cell
p1509
(dp1510
g4
I00
sg256
I01
sg6
(I01
I01
tp1511
sba(iModules.cell
Cell
p1512
(dp1513
g4
I00
sg256
I01
sg6
(I01
I01
tp1514
sba(iModules.cell
Cell
p1515
(dp1516
g4
I00
sg256
I01
sg6
(I01
I01
tp1517
sba(iModules.cell
Cell
p1518
(dp1519
g4
I00
sg299
I01
sg6
(I01
I01
tp1520
sba(iModules.cell
Cell
p1521
(dp1522
g4
I00
sg299
I01
sg6
(I01
I01
tp1523
sba(iModules.cell
Cell
p1524
(dp1525
g4
I00
sg299
I01
sg6
(I01
I01
tp1526
sba(iModules.cell
Cell
p1527
(dp1528
g4
I00
sg299
I01
sg6
(I01
I01
tp1529
sba(iModules.cell
Cell
p1530
(dp1531
g4
I00
sg299
I01
sg6
(I01
I01
tp1532
sba(iModules.cell
Cell
p1533
(dp1534
g4
I00
sg299
I01
sg6
(I01
I01
tp1535
sba(iModules.cell
Cell
p1536
(dp1537
g4
I00
sg299
I01
sg6
(I01
I01
tp1538
sba(iModules.cell
Cell
p1539
(dp1540
g4
I00
sg299
I01
sg6
(I01
I01
tp1541
sba(iModules.cell
Cell
p1542
(dp1543
g4
I00
sg299
I01
sg6
(I01
I01
tp1544
sba(iModules.cell
Cell
p1545
(dp1546
g4
I00
sg299
I01
sg6
(I01
I01
tp1547
sba(iModules.cell
Cell
p1548
(dp1549
g4
I00
sg299
I01
sg6
(I01
I01
tp1550
sba(iModules.cell
Cell
p1551
(dp1552
g4
I00
sg299
I01
sg6
(I01
I01
tp1553
sba(iModules.cell
Cell
p1554
(dp1555
g4
I00
sg299
I01
sg6
(I01
I01
tp1556
sba(iModules.cell
Cell
p1557
(dp1558
g4
I00
sg299
I01
sg6
(I01
I01
tp1559
sba(iModules.cell
Cell
p1560
(dp1561
g4
I00
sg6
(I01
I01
tp1562
sba(iModules.cell
Cell
p1563
(dp1564
g4
I00
sg6
(I01
I01
tp1565
sba(iModules.cell
Cell
p1566
(dp1567
g4
I00
sg6
(I01
I01
tp1568
sba(iModules.cell
Cell
p1569
(dp1570
g4
I00
sg6
(I01
I01
tp1571
sba(iModules.cell
Cell
p1572
(dp1573
g4
I00
sg6
(I01
I01
tp1574
sba(iModules.cell
Cell
p1575
(dp1576
g4
I00
sg6
(I01
I01
tp1577
sba(iModules.cell
Cell
p1578
(dp1579
g4
I00
sg6
(I01
I01
tp1580
sba(iModules.cell
Cell
p1581
(dp1582
g4
I00
sg6
(I01
I01
tp1583
sba(iModules.cell
Cell
p1584
(dp1585
g4
I00
sg6
(I01
I01
tp1586
sba(iModules.cell
Cell
p1587
(dp1588
g4
I00
sg6
(I01
I01
tp1589
sba(iModules.cell
Cell
p1590
(dp1591
g4
I00
sg6
(I01
I01
tp1592
sba(iModules.cell
Cell
p1593
(dp1594
g4
I00
sg6
(I01
I01
tp1595
sba(iModules.cell
Cell
p1596
(dp1597
g4
I00
sg6
(I01
I01
tp1598
sba(iModules.cell
Cell
p1599
(dp1600
g4
I00
sg6
(I01
I01
tp1601
sba(iModules.cell
Cell
p1602
(dp1603
g4
I00
sg6
(I01
I01
tp1604
sba(iModules.cell
Cell
p1605
(dp1606
g4
I00
sg6
(I01
I01
tp1607
sba(iModules.cell
Cell
p1608
(dp1609
g4
I00
sg6
(I01
I01
tp1610
sba(iModules.cell
Cell
p1611
(dp1612
g4
I00
sg6
(I01
I01
tp1613
sba(iModules.cell
Cell
p1614
(dp1615
g4
I00
sg6
(I01
I01
tp1616
sba(iModules.cell
Cell
p1617
(dp1618
g4
I00
sg6
(I01
I01
tp1619
sba(iModules.cell
Cell
p1620
(dp1621
g4
I00
sg6
(I01
I01
tp1622
sba(iModules.cell
Cell
p1623
(dp1624
g4
I00
sg6
(I01
I01
tp1625
sba(iModules.cell
Cell
p1626
(dp1627
g4
I00
sg6
(I01
I01
tp1628
sba(iModules.cell
Cell
p1629
(dp1630
g4
I00
sg6
(I01
I01
tp1631
sba(iModules.cell
Cell
p1632
(dp1633
g4
I00
sg6
(I01
I01
tp1634
sba(iModules.cell
Cell
p1635
(dp1636
g4
I00
sg6
(I01
I01
tp1637
sba(iModules.cell
Cell
p1638
(dp1639
g4
I00
sg6
(I01
I01
tp1640
sba(iModules.cell
Cell
p1641
(dp1642
g4
I00
sg6
(I01
I01
tp1643
sba(iModules.cell
Cell
p1644
(dp1645
g4
I00
sg6
(I01
I01
tp1646
sba(iModules.cell
Cell
p1647
(dp1648
g4
I00
sg6
(I01
I01
tp1649
sba(iModules.cell
Cell
p1650
(dp1651
g4
I00
sg6
(I01
I01
tp1652
sba(iModules.cell
Cell
p1653
(dp1654
g4
I00
sg6
(I01
I01
tp1655
sba(iModules.cell
Cell
p1656
(dp1657
g4
I00
sg6
(I00
I00
tp1658
sba(iModules.cell
Cell
p1659
(dp1660
g4
I00
sg6
(I00
I00
tp1661
sba(iModules.cell
Cell
p1662
(dp1663
g4
I00
sg6
(I00
I00
tp1664
sba(iModules.cell
Cell
p1665
(dp1666
g4
I00
sg6
(I00
I00
tp1667
sba(iModules.cell
Cell
p1668
(dp1669
g4
I00
sg6
(I00
I00
tp1670
sba(iModules.cell
Cell
p1671
(dp1672
g4
I00
sg6
(I00
I00
tp1673
sba(iModules.cell
Cell
p1674
(dp1675
g4
I00
sg6
(I00
I00
tp1676
sba(iModules.cell
Cell
p1677
(dp1678
g4
I00
sg6
(I00
I00
tp1679
sba(iModules.cell
Cell
p1680
(dp1681
g4
I00
sg6
(I00
I00
tp1682
sba(iModules.cell
Cell
p1683
(dp1684
g4
I00
sg6
(I00
I00
tp1685
sba(iModules.cell
Cell
p1686
(dp1687
g4
I00
sg6
(I00
I00
tp1688
sba(iModules.cell
Cell
p1689
(dp1690
g4
I00
sg6
(I00
I00
tp1691
sba(iModules.cell
Cell
p1692
(dp1693
g4
I00
sg6
(I00
I00
tp1694
sba(iModules.cell
Cell
p1695
(dp1696
g4
I00
sg6
(I00
I00
tp1697
sba(iModules.cell
Cell
p1698
(dp1699
g4
I00
sg6
(I00
I00
tp1700
sba(iModules.cell
Cell
p1701
(dp1702
g4
I00
sg6
(I00
I00
tp1703
sba(iModules.cell
Cell
p1704
(dp1705
g4
I00
sg6
(I00
I00
tp1706
sba(iModules.cell
Cell
p1707
(dp1708
g4
I00
sg6
(I00
I00
tp1709
sba(iModules.cell
Cell
p1710
(dp1711
g4
I00
sg6
(I00
I00
tp1712
sba(iModules.cell
Cell
p1713
(dp1714
g6
(I00
I00
tp1715
sbaa(lp1716
(iModules.cell
Cell
p1717
(dp1718
g4
I00
sg6
(I00
I00
tp1719
sba(iModules.cell
Cell
p1720
(dp1721
g4
I00
sg256
I01
sg6
(I00
I00
tp1722
sba(iModules.cell
Cell
p1723
(dp1724
g4
I00
sg256
I01
sg6
(I01
I01
tp1725
sba(iModules.cell
Cell
p1726
(dp1727
g4
I00
sg256
I01
sg6
(I01
I01
tp1728
sba(iModules.cell
Cell
p1729
(dp1730
g4
I00
sg256
I01
sg6
(I01
I01
tp1731
sba(iModules.cell
Cell
p1732
(dp1733
g4
I00
sg256
I01
sg6
(I01
I01
tp1734
sba(iModules.cell
Cell
p1735
(dp1736
g4
I00
sg256
I01
sg6
(I01
I01
tp1737
sba(iModules.cell
Cell
p1738
(dp1739
g4
I00
sg256
I01
sg6
(I01
I01
tp1740
sba(iModules.cell
Cell
p1741
(dp1742
g4
I00
sg256
I01
sg6
(I01
I01
tp1743
sba(iModules.cell
Cell
p1744
(dp1745
g4
I00
sg256
I01
sg6
(I01
I01
tp1746
sba(iModules.cell
Cell
p1747
(dp1748
g4
I00
sg256
I01
sg6
(I01
I01
tp1749
sba(iModules.cell
Cell
p1750
(dp1751
g4
I00
sg256
I01
sg6
(I01
I01
tp1752
sba(iModules.cell
Cell
p1753
(dp1754
g4
I00
sg256
I01
sg6
(I01
I01
tp1755
sba(iModules.cell
Cell
p1756
(dp1757
g4
I00
sg256
I01
sg6
(I01
I01
tp1758
sba(iModules.cell
Cell
p1759
(dp1760
g4
I00
sg256
I01
sg6
(I01
I01
tp1761
sba(iModules.cell
Cell
p1762
(dp1763
g4
I00
sg299
I01
sg6
(I01
I01
tp1764
sba(iModules.cell
Cell
p1765
(dp1766
g4
I00
sg299
I01
sg6
(I01
I01
tp1767
sba(iModules.cell
Cell
p1768
(dp1769
g4
I00
sg299
I01
sg6
(I01
I01
tp1770
sba(iModules.cell
Cell
p1771
(dp1772
g4
I00
sg299
I01
sg6
(I01
I01
tp1773
sba(iModules.cell
Cell
p1774
(dp1775
g4
I00
sg299
I01
sg6
(I01
I01
tp1776
sba(iModules.cell
Cell
p1777
(dp1778
g4
I00
sg299
I01
sg6
(I01
I01
tp1779
sba(iModules.cell
Cell
p1780
(dp1781
g4
I00
sg299
I01
sg6
(I01
I01
tp1782
sba(iModules.cell
Cell
p1783
(dp1784
g4
I00
sg299
I01
sg6
(I01
I01
tp1785
sba(iModules.cell
Cell
p1786
(dp1787
g4
I00
sg299
I01
sg6
(I01
I01
tp1788
sba(iModules.cell
Cell
p1789
(dp1790
g4
I00
sg299
I01
sg6
(I01
I01
tp1791
sba(iModules.cell
Cell
p1792
(dp1793
g4
I00
sg299
I01
sg6
(I01
I01
tp1794
sba(iModules.cell
Cell
p1795
(dp1796
g4
I00
sg299
I01
sg6
(I01
I01
tp1797
sba(iModules.cell
Cell
p1798
(dp1799
g4
I00
sg299
I01
sg6
(I01
I01
tp1800
sba(iModules.cell
Cell
p1801
(dp1802
g4
I00
sg299
I01
sg6
(I01
I01
tp1803
sba(iModules.cell
Cell
p1804
(dp1805
g4
I00
sg6
(I01
I01
tp1806
sba(iModules.cell
Cell
p1807
(dp1808
g4
I00
sg6
(I01
I01
tp1809
sba(iModules.cell
Cell
p1810
(dp1811
g4
I00
sg6
(I01
I01
tp1812
sba(iModules.cell
Cell
p1813
(dp1814
g4
I00
sg6
(I01
I01
tp1815
sba(iModules.cell
Cell
p1816
(dp1817
g4
I00
sg6
(I01
I01
tp1818
sba(iModules.cell
Cell
p1819
(dp1820
g4
I00
sg6
(I01
I01
tp1821
sba(iModules.cell
Cell
p1822
(dp1823
g4
I00
sg6
(I01
I01
tp1824
sba(iModules.cell
Cell
p1825
(dp1826
g4
I00
sg6
(I01
I01
tp1827
sba(iModules.cell
Cell
p1828
(dp1829
g4
I00
sg6
(I01
I01
tp1830
sba(iModules.cell
Cell
p1831
(dp1832
g4
I00
sg6
(I01
I01
tp1833
sba(iModules.cell
Cell
p1834
(dp1835
g4
I00
sg6
(I01
I01
tp1836
sba(iModules.cell
Cell
p1837
(dp1838
g4
I00
sg6
(I01
I01
tp1839
sba(iModules.cell
Cell
p1840
(dp1841
g4
I00
sg6
(I01
I01
tp1842
sba(iModules.cell
Cell
p1843
(dp1844
g4
I00
sg6
(I01
I01
tp1845
sba(iModules.cell
Cell
p1846
(dp1847
g4
I00
sg6
(I01
I01
tp1848
sba(iModules.cell
Cell
p1849
(dp1850
g4
I00
sg6
(I01
I01
tp1851
sba(iModules.cell
Cell
p1852
(dp1853
g4
I00
sg6
(I01
I01
tp1854
sba(iModules.cell
Cell
p1855
(dp1856
g4
I00
sg6
(I01
I01
tp1857
sba(iModules.cell
Cell
p1858
(dp1859
g4
I00
sg6
(I01
I01
tp1860
sba(iModules.cell
Cell
p1861
(dp1862
g4
I00
sg6
(I01
I01
tp1863
sba(iModules.cell
Cell
p1864
(dp1865
g4
I00
sg6
(I01
I01
tp1866
sba(iModules.cell
Cell
p1867
(dp1868
g4
I00
sg6
(I01
I01
tp1869
sba(iModules.cell
Cell
p1870
(dp1871
g4
I00
sg6
(I01
I01
tp1872
sba(iModules.cell
Cell
p1873
(dp1874
g4
I00
sg6
(I01
I01
tp1875
sba(iModules.cell
Cell
p1876
(dp1877
g4
I00
sg6
(I01
I01
tp1878
sba(iModules.cell
Cell
p1879
(dp1880
g4
I00
sg6
(I01
I01
tp1881
sba(iModules.cell
Cell
p1882
(dp1883
g4
I00
sg6
(I01
I01
tp1884
sba(iModules.cell
Cell
p1885
(dp1886
g4
I00
sg6
(I01
I01
tp1887
sba(iModules.cell
Cell
p1888
(dp1889
g4
I00
sg6
(I01
I01
tp1890
sba(iModules.cell
Cell
p1891
(dp1892
g4
I00
sg6
(I01
I01
tp1893
sba(iModules.cell
Cell
p1894
(dp1895
g4
I00
sg6
(I01
I01
tp1896
sba(iModules.cell
Cell
p1897
(dp1898
g4
I00
sg6
(I01
I01
tp1899
sba(iModules.cell
Cell
p1900
(dp1901
g4
I00
sg6
(I00
I00
tp1902
sba(iModules.cell
Cell
p1903
(dp1904
g4
I00
sg6
(I00
I00
tp1905
sba(iModules.cell
Cell
p1906
(dp1907
g4
I00
sg6
(I00
I00
tp1908
sba(iModules.cell
Cell
p1909
(dp1910
g4
I00
sg6
(I00
I00
tp1911
sba(iModules.cell
Cell
p1912
(dp1913
g4
I00
sg6
(I00
I00
tp1914
sba(iModules.cell
Cell
p1915
(dp1916
g4
I00
sg6
(I00
I00
tp1917
sba(iModules.cell
Cell
p1918
(dp1919
g4
I00
sg6
(I00
I00
tp1920
sba(iModules.cell
Cell
p1921
(dp1922
g4
I00
sg6
(I00
I00
tp1923
sba(iModules.cell
Cell
p1924
(dp1925
g4
I00
sg6
(I00
I00
tp1926
sba(iModules.cell
Cell
p1927
(dp1928
g4
I00
sg6
(I00
I00
tp1929
sba(iModules.cell
Cell
p1930
(dp1931
g4
I00
sg6
(I00
I00
tp1932
sba(iModules.cell
Cell
p1933
(dp1934
g4
I00
sg6
(I00
I00
tp1935
sba(iModules.cell
Cell
p1936
(dp1937
g4
I00
sg6
(I00
I00
tp1938
sba(iModules.cell
Cell
p1939
(dp1940
g4
I00
sg6
(I00
I00
tp1941
sba(iModules.cell
Cell
p1942
(dp1943
g4
I00
sg6
(I00
I00
tp1944
sba(iModules.cell
Cell
p1945
(dp1946
g4
I00
sg6
(I00
I00
tp1947
sba(iModules.cell
Cell
p1948
(dp1949
g4
I00
sg6
(I00
I00
tp1950
sba(iModules.cell
Cell
p1951
(dp1952
g4
I00
sg6
(I00
I00
tp1953
sba(iModules.cell
Cell
p1954
(dp1955
g4
I00
sg6
(I00
I00
tp1956
sba(iModules.cell
Cell
p1957
(dp1958
g6
(I00
I00
tp1959
sbaa(lp1960
(iModules.cell
Cell
p1961
(dp1962
g4
I00
sg6
(I00
I00
tp1963
sba(iModules.cell
Cell
p1964
(dp1965
g4
I00
sg256
I01
sg6
(I00
I00
tp1966
sba(iModules.cell
Cell
p1967
(dp1968
g4
I00
sg256
I01
sg6
(I01
I01
tp1969
sba(iModules.cell
Cell
p1970
(dp1971
g4
I00
sg256
I01
sg6
(I01
I01
tp1972
sba(iModules.cell
Cell
p1973
(dp1974
g4
I01
sg256
I01
sg6
(I00
I00
I00
tp1975
sba(iModules.cell
Cell
p1976
(dp1977
g4
I01
sg256
I01
sg6
(I00
I00
I00
tp1978
sba(iModules.cell
Cell
p1979
(dp1980
g4
I01
sg256
I01
sg6
(I00
I00
I00
tp1981
sba(iModules.cell
Cell
p1982
(dp1983
g4
I01
sg256
I01
sg6
(I00
I00
I00
tp1984
sba(iModules.cell
Cell
p1985
(dp1986
g4
I01
sg256
I01
sg6
(I00
I00
I00
tp1987
sba(iModules.cell
Cell
p1988
(dp1989
g4
I00
sg256
I01
sg6
(I01
I01
tp1990
sba(iModules.cell
Cell
p1991
(dp1992
g4
I00
sg256
I01
sg6
(I01
I01
tp1993
sba(iModules.cell
Cell
p1994
(dp1995
g4
I00
sg256
I01
sg6
(I01
I01
tp1996
sba(iModules.cell
Cell
p1997
(dp1998
g4
I00
sg256
I01
sg6
(I01
I01
tp1999
sba(iModules.cell
Cell
p2000
(dp2001
g4
I00
sg256
I01
sg6
(I01
I01
tp2002
sba(iModules.cell
Cell
p2003
(dp2004
g4
I00
sg256
I01
sg6
(I01
I01
tp2005
sba(iModules.cell
Cell
p2006
(dp2007
g4
I00
sg299
I01
sg6
(I01
I01
tp2008
sba(iModules.cell
Cell
p2009
(dp2010
g4
I00
sg299
I01
sg6
(I01
I01
tp2011
sba(iModules.cell
Cell
p2012
(dp2013
g4
I00
sg299
I01
sg6
(I01
I01
tp2014
sba(iModules.cell
Cell
p2015
(dp2016
g4
I00
sg299
I01
sg6
(I01
I01
tp2017
sba(iModules.cell
Cell
p2018
(dp2019
g4
I00
sg299
I01
sg6
(I01
I01
tp2020
sba(iModules.cell
Cell
p2021
(dp2022
g4
I00
sg299
I01
sg6
(I01
I01
tp2023
sba(iModules.cell
Cell
p2024
(dp2025
g4
I00
sg299
I01
sg6
(I01
I01
tp2026
sba(iModules.cell
Cell
p2027
(dp2028
g4
I00
sg299
I01
sg6
(I01
I01
tp2029
sba(iModules.cell
Cell
p2030
(dp2031
g4
I00
sg299
I01
sg6
(I01
I01
tp2032
sba(iModules.cell
Cell
p2033
(dp2034
g4
I00
sg299
I01
sg6
(I01
I01
tp2035
sba(iModules.cell
Cell
p2036
(dp2037
g4
I00
sg299
I01
sg6
(I01
I01
tp2038
sba(iModules.cell
Cell
p2039
(dp2040
g4
I00
sg299
I01
sg6
(I01
I01
tp2041
sba(iModules.cell
Cell
p2042
(dp2043
g4
I00
sg299
I01
sg6
(I01
I01
tp2044
sba(iModules.cell
Cell
p2045
(dp2046
g4
I00
sg299
I01
sg6
(I01
I01
tp2047
sba(iModules.cell
Cell
p2048
(dp2049
g4
I00
sg6
(I01
I01
tp2050
sba(iModules.cell
Cell
p2051
(dp2052
g4
I00
sg6
(I01
I01
tp2053
sba(iModules.cell
Cell
p2054
(dp2055
g4
I00
sg6
(I01
I01
tp2056
sba(iModules.cell
Cell
p2057
(dp2058
g4
I00
sg6
(I01
I01
tp2059
sba(iModules.cell
Cell
p2060
(dp2061
g4
I00
sg6
(I01
I01
tp2062
sba(iModules.cell
Cell
p2063
(dp2064
g4
I00
sg6
(I01
I01
tp2065
sba(iModules.cell
Cell
p2066
(dp2067
g4
I00
sg6
(I01
I01
tp2068
sba(iModules.cell
Cell
p2069
(dp2070
g4
I00
sg6
(I01
I01
tp2071
sba(iModules.cell
Cell
p2072
(dp2073
g4
I00
sg6
(I01
I01
tp2074
sba(iModules.cell
Cell
p2075
(dp2076
g4
I00
sg6
(I01
I01
tp2077
sba(iModules.cell
Cell
p2078
(dp2079
g4
I00
sg6
(I01
I01
tp2080
sba(iModules.cell
Cell
p2081
(dp2082
g4
I00
sg6
(I01
I01
tp2083
sba(iModules.cell
Cell
p2084
(dp2085
g4
I00
sg6
(I01
I01
tp2086
sba(iModules.cell
Cell
p2087
(dp2088
g4
I00
sg6
(I01
I01
tp2089
sba(iModules.cell
Cell
p2090
(dp2091
g4
I00
sg6
(I01
I01
tp2092
sba(iModules.cell
Cell
p2093
(dp2094
g4
I00
sg6
(I01
I01
tp2095
sba(iModules.cell
Cell
p2096
(dp2097
g4
I00
sg6
(I01
I01
tp2098
sba(iModules.cell
Cell
p2099
(dp2100
g4
I00
sg6
(I01
I01
tp2101
sba(iModules.cell
Cell
p2102
(dp2103
g4
I00
sg6
(I01
I01
tp2104
sba(iModules.cell
Cell
p2105
(dp2106
g4
I00
sg6
(I01
I01
tp2107
sba(iModules.cell
Cell
p2108
(dp2109
g4
I00
sg6
(I01
I01
tp2110
sba(iModules.cell
Cell
p2111
(dp2112
g4
I00
sg6
(I01
I01
tp2113
sba(iModules.cell
Cell
p2114
(dp2115
g4
I00
sg6
(I01
I01
tp2116
sba(iModules.cell
Cell
p2117
(dp2118
g4
I00
sg6
(I01
I01
tp2119
sba(iModules.cell
Cell
p2120
(dp2121
g4
I00
sg6
(I01
I01
tp2122
sba(iModules.cell
Cell
p2123
(dp2124
g4
I00
sg6
(I01
I01
tp2125
sba(iModules.cell
Cell
p2126
(dp2127
g4
I00
sg6
(I01
I01
tp2128
sba(iModules.cell
Cell
p2129
(dp2130
g4
I00
sg6
(I01
I01
tp2131
sba(iModules.cell
Cell
p2132
(dp2133
g4
I00
sg6
(I01
I01
tp2134
sba(iModules.cell
Cell
p2135
(dp2136
g4
I00
sg6
(I01
I01
tp2137
sba(iModules.cell
Cell
p2138
(dp2139
g4
I00
sg6
(I01
I01
tp2140
sba(iModules.cell
Cell
p2141
(dp2142
g4
I00
sg6
(I01
I01
tp2143
sba(iModules.cell
Cell
p2144
(dp2145
g4
I00
sg6
(I00
I00
tp2146
sba(iModules.cell
Cell
p2147
(dp2148
g4
I00
sg6
(I00
I00
tp2149
sba(iModules.cell
Cell
p2150
(dp2151
g4
I00
sg6
(I00
I00
tp2152
sba(iModules.cell
Cell
p2153
(dp2154
g4
I00
sg6
(I00
I00
tp2155
sba(iModules.cell
Cell
p2156
(dp2157
g4
I00
sg6
(I00
I00
tp2158
sba(iModules.cell
Cell
p2159
(dp2160
g4
I00
sg6
(I00
I00
tp2161
sba(iModules.cell
Cell
p2162
(dp2163
g4
I00
sg6
(I00
I00
tp2164
sba(iModules.cell
Cell
p2165
(dp2166
g4
I00
sg6
(I00
I00
tp2167
sba(iModules.cell
Cell
p2168
(dp2169
g4
I00
sg6
(I00
I00
tp2170
sba(iModules.cell
Cell
p2171
(dp2172
g4
I00
sg6
(I00
I00
tp2173
sba(iModules.cell
Cell
p2174
(dp2175
g4
I00
sg6
(I00
I00
tp2176
sba(iModules.cell
Cell
p2177
(dp2178
g4
I00
sg6
(I00
I00
tp2179
sba(iModules.cell
Cell
p2180
(dp2181
g4
I00
sg6
(I00
I00
tp2182
sba(iModules.cell
Cell
p2183
(dp2184
g4
I00
sg6
(I00
I00
tp2185
sba(iModules.cell
Cell
p2186
(dp2187
g4
I00
sg6
(I00
I00
tp2188
sba(iModules.cell
Cell
p2189
(dp2190
g4
I00
sg6
(I00
I00
tp2191
sba(iModules.cell
Cell
p2192
(dp2193
g4
I00
sg6
(I00
I00
tp2194
sba(iModules.cell
Cell
p2195
(dp2196
g4
I00
sg6
(I00
I00
tp2197
sba(iModules.cell
Cell
p2198
(dp2199
g4
I00
sg6
(I00
I00
tp2200
sba(iModules.cell
Cell
p2201
(dp2202
g6
(I00
I00
tp2203
sbaa(lp2204
(iModules.cell
Cell
p2205
(dp2206
g4
I00
sg6
(I00
I00
tp2207
sba(iModules.cell
Cell
p2208
(dp2209
g4
I00
sg256
I01
sg6
(I00
I00
tp2210
sba(iModules.cell
Cell
p2211
(dp2212
g4
I00
sg256
I01
sg6
(I01
I01
tp2213
sba(iModules.cell
Cell
p2214
(dp2215
g4
I00
sg256
I01
sg6
(I01
I01
tp2216
sba(iModules.cell
Cell
p2217
(dp2218
g4
I01
sg256
I01
sg6
(I00
I00
I00
tp2219
sba(iModules.cell
Cell
p2220
(dp2221
g4
I01
sg256
I01
sg6
(I01
I01
tp2222
sba(iModules.cell
Mob
p2223
(dp2224
S'char'
p2225
S'D'
p2226
sS'visible'
p2227
I01
sS'undercell'
p2228
(iModules.cell
Cell
p2229
(dp2230
g2227
I01
sg299
I01
sS'type'
p2231
(I01
I01
tp2232
sbsS'name'
p2233
S'Dragon'
p2234
sg299
I01
sba(iModules.cell
Cell
p2235
(dp2236
g4
I01
sg256
I01
sg6
(I01
I01
tp2237
sba(iModules.cell
Cell
p2238
(dp2239
g4
I01
sg256
I01
sg6
(I00
I00
I00
tp2240
sba(iModules.cell
Cell
p2241
(dp2242
g4
I00
sg256
I01
sg6
(I01
I01
tp2243
sba(iModules.cell
Cell
p2244
(dp2245
g4
I00
sg256
I01
sg6
(I01
I01
tp2246
sba(iModules.cell
Cell
p2247
(dp2248
g4
I00
sg256
I01
sg6
(I01
I01
tp2249
sba(iModules.cell
Cell
p2250
(dp2251
g4
I00
sg256
I01
sg6
(I01
I01
tp2252
sba(iModules.cell
Cell
p2253
(dp2254
g4
I00
sg256
I01
sg6
(I01
I01
tp2255
sba(iModules.cell
Cell
p2256
(dp2257
g4
I00
sg256
I01
sg6
(I01
I01
tp2258
sba(iModules.cell
Cell
p2259
(dp2260
g4
I00
sg299
I01
sg6
(I01
I01
tp2261
sba(iModules.cell
Cell
p2262
(dp2263
g4
I00
sg299
I01
sg6
(I01
I01
tp2264
sba(iModules.cell
Cell
p2265
(dp2266
g4
I00
sg299
I01
sg6
(I01
I01
tp2267
sba(iModules.cell
Cell
p2268
(dp2269
g4
I00
sg299
I01
sg6
(I01
I01
tp2270
sba(iModules.cell
Cell
p2271
(dp2272
g4
I00
sg299
I01
sg6
(I01
I01
tp2273
sba(iModules.cell
Cell
p2274
(dp2275
g4
I00
sg299
I01
sg6
(I01
I01
tp2276
sba(iModules.cell
Cell
p2277
(dp2278
g4
I00
sg299
I01
sg6
(I01
I01
tp2279
sba(iModules.cell
Cell
p2280
(dp2281
g4
I00
sg299
I01
sg6
(I01
I01
tp2282
sba(iModules.cell
Cell
p2283
(dp2284
g4
I00
sg299
I01
sg6
(I01
I01
tp2285
sba(iModules.cell
Cell
p2286
(dp2287
g4
I00
sg299
I01
sg6
(I01
I01
tp2288
sba(iModules.cell
Cell
p2289
(dp2290
g4
I00
sg299
I01
sg6
(I01
I01
tp2291
sba(iModules.cell
Cell
p2292
(dp2293
g4
I00
sg299
I01
sg6
(I01
I01
tp2294
sba(iModules.cell
Cell
p2295
(dp2296
g4
I00
sg299
I01
sg6
(I01
I01
tp2297
sba(iModules.cell
Cell
p2298
(dp2299
g4
I00
sg299
I01
sg6
(I01
I01
tp2300
sba(iModules.cell
Cell
p2301
(dp2302
g4
I00
sg6
(I01
I01
tp2303
sba(iModules.cell
Cell
p2304
(dp2305
g4
I00
sg6
(I01
I01
tp2306
sba(iModules.cell
Cell
p2307
(dp2308
g4
I00
sg6
(I01
I01
tp2309
sba(iModules.cell
Cell
p2310
(dp2311
g4
I00
sg6
(I01
I01
tp2312
sba(iModules.cell
Cell
p2313
(dp2314
g4
I00
sg6
(I01
I01
tp2315
sba(iModules.cell
Cell
p2316
(dp2317
g4
I00
sg6
(I01
I01
tp2318
sba(iModules.cell
Cell
p2319
(dp2320
g4
I00
sg6
(I01
I01
tp2321
sba(iModules.cell
Cell
p2322
(dp2323
g4
I00
sg6
(I01
I01
tp2324
sba(iModules.cell
Cell
p2325
(dp2326
g4
I00
sg6
(I01
I01
tp2327
sba(iModules.cell
Cell
p2328
(dp2329
g4
I00
sg6
(I01
I01
tp2330
sba(iModules.cell
Cell
p2331
(dp2332
g4
I00
sg6
(I01
I01
tp2333
sba(iModules.cell
Cell
p2334
(dp2335
g4
I00
sg6
(I01
I01
tp2336
sba(iModules.cell
Cell
p2337
(dp2338
g4
I00
sg6
(I01
I01
tp2339
sba(iModules.cell
Cell
p2340
(dp2341
g4
I00
sg6
(I01
I01
tp2342
sba(iModules.cell
Cell
p2343
(dp2344
g4
I00
sg6
(I01
I01
tp2345
sba(iModules.cell
Cell
p2346
(dp2347
g4
I00
sg6
(I01
I01
tp2348
sba(iModules.cell
Cell
p2349
(dp2350
g4
I00
sg6
(I01
I01
tp2351
sba(iModules.cell
Cell
p2352
(dp2353
g4
I00
sg6
(I01
I01
tp2354
sba(iModules.cell
Cell
p2355
(dp2356
g4
I00
sg6
(I01
I01
tp2357
sba(iModules.cell
Cell
p2358
(dp2359
g4
I00
sg6
(I01
I01
tp2360
sba(iModules.cell
Cell
p2361
(dp2362
g4
I00
sg6
(I01
I01
tp2363
sba(iModules.cell
Cell
p2364
(dp2365
g4
I00
sg6
(I01
I01
tp2366
sba(iModules.cell
Cell
p2367
(dp2368
g4
I00
sg6
(I01
I01
tp2369
sba(iModules.cell
Cell
p2370
(dp2371
g4
I00
sg6
(I01
I01
tp2372
sba(iModules.cell
Cell
p2373
(dp2374
g4
I00
sg6
(I01
I01
tp2375
sba(iModules.cell
Cell
p2376
(dp2377
g4
I00
sg6
(I01
I01
tp2378
sba(iModules.cell
Cell
p2379
(dp2380
g4
I00
sg6
(I01
I01
tp2381
sba(iModules.cell
Cell
p2382
(dp2383
g4
I00
sg6
(I01
I01
tp2384
sba(iModules.cell
Cell
p2385
(dp2386
g4
I00
sg6
(I01
I01
tp2387
sba(iModules.cell
Cell
p2388
(dp2389
g4
I00
sg6
(I01
I01
tp2390
sba(iModules.cell
Cell
p2391
(dp2392
g4
I00
sg6
(I01
I01
tp2393
sba(iModules.cell
Cell
p2394
(dp2395
g4
I00
sg6
(I01
I01
tp2396
sba(iModules.cell
Cell
p2397
(dp2398
g4
I00
sg6
(I00
I00
tp2399
sba(iModules.cell
Cell
p2400
(dp2401
g4
I00
sg6
(I00
I00
tp2402
sba(iModules.cell
Cell
p2403
(dp2404
g4
I00
sg6
(I00
I00
tp2405
sba(iModules.cell
Cell
p2406
(dp2407
g4
I00
sg6
(I00
I00
tp2408
sba(iModules.cell
Cell
p2409
(dp2410
g4
I00
sg6
(I00
I00
tp2411
sba(iModules.cell
Cell
p2412
(dp2413
g4
I00
sg6
(I00
I00
tp2414
sba(iModules.cell
Cell
p2415
(dp2416
g4
I00
sg6
(I00
I00
tp2417
sba(iModules.cell
Cell
p2418
(dp2419
g4
I00
sg6
(I00
I00
tp2420
sba(iModules.cell
Cell
p2421
(dp2422
g4
I00
sg6
(I00
I00
tp2423
sba(iModules.cell
Cell
p2424
(dp2425
g4
I00
sg6
(I00
I00
tp2426
sba(iModules.cell
Cell
p2427
(dp2428
g4
I00
sg6
(I00
I00
tp2429
sba(iModules.cell
Cell
p2430
(dp2431
g4
I00
sg6
(I00
I00
tp2432
sba(iModules.cell
Cell
p2433
(dp2434
g4
I00
sg6
(I00
I00
tp2435
sba(iModules.cell
Cell
p2436
(dp2437
g4
I00
sg6
(I00
I00
tp2438
sba(iModules.cell
Cell
p2439
(dp2440
g4
I00
sg6
(I00
I00
tp2441
sba(iModules.cell
Cell
p2442
(dp2443
g4
I00
sg6
(I00
I00
tp2444
sba(iModules.cell
Cell
p2445
(dp2446
g4
I00
sg6
(I00
I00
tp2447
sba(iModules.cell
Cell
p2448
(dp2449
g4
I00
sg6
(I00
I00
tp2450
sba(iModules.cell
Cell
p2451
(dp2452
g4
I00
sg6
(I00
I00
tp2453
sba(iModules.cell
Cell
p2454
(dp2455
g6
(I00
I00
tp2456
sbaa(lp2457
(iModules.cell
Cell
p2458
(dp2459
g4
I00
sg6
(I00
I00
tp2460
sba(iModules.cell
Cell
p2461
(dp2462
g4
I00
sg256
I01
sg6
(I00
I00
tp2463
sba(iModules.cell
Cell
p2464
(dp2465
g4
I00
sg256
I01
sg6
(I01
I01
tp2466
sba(iModules.cell
Cell
p2467
(dp2468
g4
I00
sg256
I01
sg6
(I01
I01
tp2469
sba(iModules.cell
Cell
p2470
(dp2471
g4
I01
sg256
I01
sg6
(I00
I00
I00
tp2472
sba(iModules.cell
Door
p2473
(dp2474
g2227
I01
sg299
I01
sg2231
(I01
I01
tp2475
sS'opened'
p2476
I01
sba(iModules.cell
Cell
p2477
(dp2478
g2227
I01
sg299
I01
sg2231
(I00
I00
I00
tp2479
sba(iModules.cell
Cell
p2480
(dp2481
g4
I00
sg256
I01
sg6
(I00
I00
I00
tp2482
sba(iModules.cell
Cell
p2483
(dp2484
g4
I00
sg256
I01
sg6
(I00
I00
I00
tp2485
sba(iModules.cell
Cell
p2486
(dp2487
g4
I00
sg256
I01
sg6
(I01
I01
tp2488
sba(iModules.cell
Cell
p2489
(dp2490
g4
I00
sg256
I01
sg6
(I01
I01
tp2491
sba(iModules.cell
Cell
p2492
(dp2493
g4
I00
sg256
I01
sg6
(I01
I01
tp2494
sba(iModules.cell
Cell
p2495
(dp2496
g4
I00
sg256
I01
sg6
(I01
I01
tp2497
sba(iModules.cell
Cell
p2498
(dp2499
g4
I00
sg256
I01
sg6
(I01
I01
tp2500
sba(iModules.cell
Cell
p2501
(dp2502
g4
I00
sg256
I01
sg6
(I01
I01
tp2503
sba(iModules.cell
Cell
p2504
(dp2505
g4
I00
sg299
I01
sg6
(I01
I01
tp2506
sba(iModules.cell
Cell
p2507
(dp2508
g4
I00
sg299
I01
sg6
(I01
I01
tp2509
sba(iModules.cell
Cell
p2510
(dp2511
g4
I00
sg299
I01
sg6
(I01
I01
tp2512
sba(iModules.cell
Cell
p2513
(dp2514
g4
I00
sg299
I01
sg6
(I01
I01
tp2515
sba(iModules.cell
Cell
p2516
(dp2517
g4
I00
sg299
I01
sg6
(I01
I01
tp2518
sba(iModules.cell
Cell
p2519
(dp2520
g4
I00
sg299
I01
sg6
(I01
I01
tp2521
sba(iModules.cell
Cell
p2522
(dp2523
g4
I00
sg299
I01
sg6
(I01
I01
tp2524
sba(iModules.cell
Cell
p2525
(dp2526
g4
I00
sg299
I01
sg6
(I01
I01
tp2527
sba(iModules.cell
Cell
p2528
(dp2529
g4
I00
sg299
I01
sg6
(I01
I01
tp2530
sba(iModules.cell
Cell
p2531
(dp2532
g4
I00
sg299
I01
sg6
(I01
I01
tp2533
sba(iModules.cell
Cell
p2534
(dp2535
g4
I00
sg299
I01
sg6
(I01
I01
tp2536
sba(iModules.cell
Cell
p2537
(dp2538
g4
I00
sg299
I01
sg6
(I01
I01
tp2539
sba(iModules.cell
Cell
p2540
(dp2541
g4
I00
sg299
I01
sg6
(I01
I01
tp2542
sba(iModules.cell
Cell
p2543
(dp2544
g4
I00
sg299
I01
sg6
(I01
I01
tp2545
sba(iModules.cell
Cell
p2546
(dp2547
g4
I00
sg6
(I01
I01
tp2548
sba(iModules.cell
Cell
p2549
(dp2550
g4
I00
sg6
(I01
I01
tp2551
sba(iModules.cell
Cell
p2552
(dp2553
g4
I00
sg6
(I01
I01
tp2554
sba(iModules.cell
Cell
p2555
(dp2556
g4
I00
sg6
(I01
I01
tp2557
sba(iModules.cell
Cell
p2558
(dp2559
g4
I00
sg6
(I01
I01
tp2560
sba(iModules.cell
Cell
p2561
(dp2562
g4
I00
sg6
(I01
I01
tp2563
sba(iModules.cell
Cell
p2564
(dp2565
g4
I00
sg6
(I01
I01
tp2566
sba(iModules.cell
Cell
p2567
(dp2568
g4
I00
sg6
(I01
I01
tp2569
sba(iModules.cell
Cell
p2570
(dp2571
g4
I00
sg6
(I01
I01
tp2572
sba(iModules.cell
Cell
p2573
(dp2574
g4
I00
sg6
(I01
I01
tp2575
sba(iModules.cell
Cell
p2576
(dp2577
g4
I00
sg6
(I01
I01
tp2578
sba(iModules.cell
Cell
p2579
(dp2580
g4
I00
sg6
(I01
I01
tp2581
sba(iModules.cell
Cell
p2582
(dp2583
g4
I00
sg6
(I01
I01
tp2584
sba(iModules.cell
Cell
p2585
(dp2586
g4
I00
sg6
(I01
I01
tp2587
sba(iModules.cell
Cell
p2588
(dp2589
g4
I00
sg6
(I01
I01
tp2590
sba(iModules.cell
Cell
p2591
(dp2592
g4
I00
sg6
(I01
I01
tp2593
sba(iModules.cell
Cell
p2594
(dp2595
g4
I00
sg6
(I01
I01
tp2596
sba(iModules.cell
Cell
p2597
(dp2598
g4
I00
sg6
(I01
I01
tp2599
sba(iModules.cell
Cell
p2600
(dp2601
g4
I00
sg6
(I01
I01
tp2602
sba(iModules.cell
Cell
p2603
(dp2604
g4
I00
sg6
(I01
I01
tp2605
sba(iModules.cell
Cell
p2606
(dp2607
g4
I00
sg6
(I01
I01
tp2608
sba(iModules.cell
Cell
p2609
(dp2610
g4
I00
sg6
(I01
I01
tp2611
sba(iModules.cell
Cell
p2612
(dp2613
g4
I00
sg6
(I01
I01
tp2614
sba(iModules.cell
Cell
p2615
(dp2616
g4
I00
sg6
(I01
I01
tp2617
sba(iModules.cell
Cell
p2618
(dp2619
g4
I00
sg6
(I01
I01
tp2620
sba(iModules.cell
Cell
p2621
(dp2622
g4
I00
sg6
(I01
I01
tp2623
sba(iModules.cell
Cell
p2624
(dp2625
g4
I00
sg6
(I01
I01
tp2626
sba(iModules.cell
Cell
p2627
(dp2628
g4
I00
sg6
(I01
I01
tp2629
sba(iModules.cell
Cell
p2630
(dp2631
g4
I00
sg6
(I01
I01
tp2632
sba(iModules.cell
Cell
p2633
(dp2634
g4
I00
sg6
(I01
I01
tp2635
sba(iModules.cell
Cell
p2636
(dp2637
g4
I00
sg6
(I01
I01
tp2638
sba(iModules.cell
Cell
p2639
(dp2640
g4
I00
sg6
(I01
I01
tp2641
sba(iModules.cell
Cell
p2642
(dp2643
g4
I00
sg6
(I00
I00
tp2644
sba(iModules.cell
Cell
p2645
(dp2646
g4
I00
sg6
(I00
I00
tp2647
sba(iModules.cell
Cell
p2648
(dp2649
g4
I00
sg6
(I00
I00
tp2650
sba(iModules.cell
Cell
p2651
(dp2652
g4
I00
sg6
(I00
I00
tp2653
sba(iModules.cell
Cell
p2654
(dp2655
g4
I00
sg6
(I00
I00
tp2656
sba(iModules.cell
Cell
p2657
(dp2658
g4
I00
sg6
(I00
I00
tp2659
sba(iModules.cell
Cell
p2660
(dp2661
g4
I00
sg6
(I00
I00
tp2662
sba(iModules.cell
Cell
p2663
(dp2664
g4
I00
sg6
(I00
I00
tp2665
sba(iModules.cell
Cell
p2666
(dp2667
g4
I00
sg6
(I00
I00
tp2668
sba(iModules.cell
Cell
p2669
(dp2670
g4
I00
sg6
(I00
I00
tp2671
sba(iModules.cell
Cell
p2672
(dp2673
g4
I00
sg6
(I00
I00
tp2674
sba(iModules.cell
Cell
p2675
(dp2676
g4
I00
sg6
(I00
I00
tp2677
sba(iModules.cell
Cell
p2678
(dp2679
g4
I00
sg6
(I00
I00
tp2680
sba(iModules.cell
Cell
p2681
(dp2682
g4
I00
sg6
(I00
I00
tp2683
sba(iModules.cell
Cell
p2684
(dp2685
g4
I00
sg6
(I00
I00
tp2686
sba(iModules.cell
Cell
p2687
(dp2688
g4
I00
sg6
(I00
I00
tp2689
sba(iModules.cell
Cell
p2690
(dp2691
g4
I00
sg6
(I00
I00
tp2692
sba(iModules.cell
Cell
p2693
(dp2694
g4
I00
sg6
(I00
I00
tp2695
sba(iModules.cell
Cell
p2696
(dp2697
g4
I00
sg6
(I00
I00
tp2698
sba(iModules.cell
Cell
p2699
(dp2700
g6
(I00
I00
tp2701
sbaa(lp2702
(iModules.cell
Cell
p2703
(dp2704
g4
I00
sg6
(I00
I00
tp2705
sba(iModules.cell
Cell
p2706
(dp2707
g4
I00
sg256
I01
sg6
(I00
I00
tp2708
sba(iModules.cell
Cell
p2709
(dp2710
g4
I00
sg256
I01
sg6
(I01
I01
tp2711
sba(iModules.cell
Cell
p2712
(dp2713
g4
I00
sg256
I01
sg6
(I01
I01
tp2714
sba(iModules.cell
Cell
p2715
(dp2716
g4
I01
sg256
I01
sg6
(I00
I00
I00
tp2717
sba(iModules.cell
Cell
p2718
(dp2719
g4
I01
sg256
I01
sg6
(I01
I01
tp2720
sba(iModules.cell
Cell
p2721
(dp2722
g4
I01
sg256
I01
sg6
(I00
I00
I00
tp2723
sba(iModules.cell
Cell
p2724
(dp2725
g4
I00
sg256
I01
sg6
(I01
I01
tp2726
sba(iModules.cell
Cell
p2727
(dp2728
g4
I00
sg256
I01
sg6
(I01
I01
tp2729
sba(iModules.cell
Cell
p2730
(dp2731
g4
I00
sg256
I01
sg6
(I01
I01
tp2732
sba(iModules.cell
Cell
p2733
(dp2734
g4
I00
sg256
I01
sg6
(I01
I01
tp2735
sba(iModules.cell
Cell
p2736
(dp2737
g4
I00
sg256
I01
sg6
(I01
I01
tp2738
sba(iModules.cell
Cell
p2739
(dp2740
g4
I00
sg256
I01
sg6
(I01
I01
tp2741
sba(iModules.cell
Cell
p2742
(dp2743
g4
I00
sg256
I01
sg6
(I01
I01
tp2744
sba(iModules.cell
Cell
p2745
(dp2746
g4
I00
sg256
I01
sg6
(I01
I01
tp2747
sba(iModules.cell
Cell
p2748
(dp2749
g4
I00
sg299
I01
sg6
(I01
I01
tp2750
sba(iModules.cell
Cell
p2751
(dp2752
g4
I00
sg299
I01
sg6
(I01
I01
tp2753
sba(iModules.cell
Cell
p2754
(dp2755
g4
I00
sg299
I01
sg6
(I01
I01
tp2756
sba(iModules.cell
Cell
p2757
(dp2758
g4
I00
sg299
I01
sg6
(I01
I01
tp2759
sba(iModules.cell
Cell
p2760
(dp2761
g4
I00
sg299
I01
sg6
(I01
I01
tp2762
sba(iModules.cell
Cell
p2763
(dp2764
g4
I00
sg299
I01
sg6
(I01
I01
tp2765
sba(iModules.cell
Cell
p2766
(dp2767
g4
I00
sg299
I01
sg6
(I01
I01
tp2768
sba(iModules.cell
Cell
p2769
(dp2770
g4
I00
sg299
I01
sg6
(I01
I01
tp2771
sba(iModules.cell
Cell
p2772
(dp2773
g4
I00
sg299
I01
sg6
(I01
I01
tp2774
sba(iModules.cell
Cell
p2775
(dp2776
g4
I00
sg299
I01
sg6
(I01
I01
tp2777
sba(iModules.cell
Cell
p2778
(dp2779
g4
I00
sg299
I01
sg6
(I01
I01
tp2780
sba(iModules.cell
Cell
p2781
(dp2782
g4
I00
sg299
I01
sg6
(I01
I01
tp2783
sba(iModules.cell
Cell
p2784
(dp2785
g4
I00
sg299
I01
sg6
(I01
I01
tp2786
sba(iModules.cell
Cell
p2787
(dp2788
g4
I00
sg299
I01
sg6
(I01
I01
tp2789
sba(iModules.cell
Cell
p2790
(dp2791
g4
I00
sg6
(I01
I01
tp2792
sba(iModules.cell
Cell
p2793
(dp2794
g4
I00
sg6
(I01
I01
tp2795
sba(iModules.cell
Cell
p2796
(dp2797
g4
I00
sg6
(I01
I01
tp2798
sba(iModules.cell
Cell
p2799
(dp2800
g4
I00
sg6
(I01
I01
tp2801
sba(iModules.cell
Cell
p2802
(dp2803
g4
I00
sg6
(I01
I01
tp2804
sba(iModules.cell
Cell
p2805
(dp2806
g4
I00
sg6
(I01
I01
tp2807
sba(iModules.cell
Cell
p2808
(dp2809
g4
I00
sg6
(I01
I01
tp2810
sba(iModules.cell
Cell
p2811
(dp2812
g4
I00
sg6
(I01
I01
tp2813
sba(iModules.cell
Cell
p2814
(dp2815
g4
I00
sg6
(I01
I01
tp2816
sba(iModules.cell
Cell
p2817
(dp2818
g4
I00
sg6
(I01
I01
tp2819
sba(iModules.cell
Cell
p2820
(dp2821
g4
I00
sg6
(I01
I01
tp2822
sba(iModules.cell
Cell
p2823
(dp2824
g4
I00
sg6
(I01
I01
tp2825
sba(iModules.cell
Cell
p2826
(dp2827
g4
I00
sg6
(I01
I01
tp2828
sba(iModules.cell
Cell
p2829
(dp2830
g4
I00
sg6
(I01
I01
tp2831
sba(iModules.cell
Cell
p2832
(dp2833
g4
I00
sg6
(I01
I01
tp2834
sba(iModules.cell
Cell
p2835
(dp2836
g4
I00
sg6
(I01
I01
tp2837
sba(iModules.cell
Cell
p2838
(dp2839
g4
I00
sg6
(I01
I01
tp2840
sba(iModules.cell
Cell
p2841
(dp2842
g4
I00
sg6
(I01
I01
tp2843
sba(iModules.cell
Cell
p2844
(dp2845
g4
I00
sg6
(I01
I01
tp2846
sba(iModules.cell
Cell
p2847
(dp2848
g4
I00
sg6
(I01
I01
tp2849
sba(iModules.cell
Cell
p2850
(dp2851
g4
I00
sg6
(I01
I01
tp2852
sba(iModules.cell
Cell
p2853
(dp2854
g4
I00
sg6
(I01
I01
tp2855
sba(iModules.cell
Cell
p2856
(dp2857
g4
I00
sg6
(I01
I01
tp2858
sba(iModules.cell
Cell
p2859
(dp2860
g4
I00
sg6
(I01
I01
tp2861
sba(iModules.cell
Cell
p2862
(dp2863
g4
I00
sg6
(I01
I01
tp2864
sba(iModules.cell
Cell
p2865
(dp2866
g4
I00
sg6
(I01
I01
tp2867
sba(iModules.cell
Cell
p2868
(dp2869
g4
I00
sg6
(I01
I01
tp2870
sba(iModules.cell
Cell
p2871
(dp2872
g4
I00
sg6
(I01
I01
tp2873
sba(iModules.cell
Cell
p2874
(dp2875
g4
I00
sg6
(I01
I01
tp2876
sba(iModules.cell
Cell
p2877
(dp2878
g4
I00
sg6
(I01
I01
tp2879
sba(iModules.cell
Cell
p2880
(dp2881
g4
I00
sg6
(I01
I01
tp2882
sba(iModules.cell
Cell
p2883
(dp2884
g4
I00
sg6
(I01
I01
tp2885
sba(iModules.cell
Cell
p2886
(dp2887
g4
I00
sg6
(I00
I00
tp2888
sba(iModules.cell
Cell
p2889
(dp2890
g4
I00
sg6
(I00
I00
tp2891
sba(iModules.cell
Cell
p2892
(dp2893
g4
I00
sg6
(I00
I00
tp2894
sba(iModules.cell
Cell
p2895
(dp2896
g4
I00
sg6
(I00
I00
tp2897
sba(iModules.cell
Cell
p2898
(dp2899
g4
I00
sg6
(I00
I00
tp2900
sba(iModules.cell
Cell
p2901
(dp2902
g4
I00
sg6
(I00
I00
tp2903
sba(iModules.cell
Cell
p2904
(dp2905
g4
I00
sg6
(I00
I00
tp2906
sba(iModules.cell
Cell
p2907
(dp2908
g4
I00
sg6
(I00
I00
tp2909
sba(iModules.cell
Cell
p2910
(dp2911
g4
I00
sg6
(I00
I00
tp2912
sba(iModules.cell
Cell
p2913
(dp2914
g4
I00
sg6
(I00
I00
tp2915
sba(iModules.cell
Cell
p2916
(dp2917
g4
I00
sg6
(I00
I00
tp2918
sba(iModules.cell
Cell
p2919
(dp2920
g4
I00
sg6
(I00
I00
tp2921
sba(iModules.cell
Cell
p2922
(dp2923
g4
I00
sg6
(I00
I00
tp2924
sba(iModules.cell
Cell
p2925
(dp2926
g4
I00
sg6
(I00
I00
tp2927
sba(iModules.cell
Cell
p2928
(dp2929
g4
I00
sg6
(I00
I00
tp2930
sba(iModules.cell
Cell
p2931
(dp2932
g4
I00
sg6
(I00
I00
tp2933
sba(iModules.cell
Cell
p2934
(dp2935
g4
I00
sg6
(I00
I00
tp2936
sba(iModules.cell
Cell
p2937
(dp2938
g4
I00
sg6
(I00
I00
tp2939
sba(iModules.cell
Cell
p2940
(dp2941
g4
I00
sg6
(I00
I00
tp2942
sba(iModules.cell
Cell
p2943
(dp2944
g6
(I00
I00
tp2945
sbaa(lp2946
(iModules.cell
Cell
p2947
(dp2948
g4
I00
sg6
(I00
I00
tp2949
sba(iModules.cell
Cell
p2950
(dp2951
g4
I00
sg256
I01
sg6
(I00
I00
tp2952
sba(iModules.cell
Cell
p2953
(dp2954
g4
I00
sg256
I01
sg6
(I01
I01
tp2955
sba(iModules.cell
Cell
p2956
(dp2957
g4
I00
sg256
I01
sg6
(I01
I01
tp2958
sba(iModules.cell
Cell
p2959
(dp2960
g4
I01
sg256
I01
sg6
(I00
I00
I00
tp2961
sba(iModules.cell
Cell
p2962
(dp2963
g4
I01
sg256
I01
sg6
(I01
I01
tp2964
sba(iModules.cell
Cell
p2965
(dp2966
g4
I01
sg256
I01
sg6
(I00
I00
I00
tp2967
sba(iModules.cell
Cell
p2968
(dp2969
g4
I00
sg256
I01
sg6
(I00
I00
I00
tp2970
sba(iModules.cell
Cell
p2971
(dp2972
g4
I00
sg256
I01
sg6
(I00
I00
I00
tp2973
sba(iModules.cell
Cell
p2974
(dp2975
g4
I00
sg256
I01
sg6
(I01
I01
tp2976
sba(iModules.cell
Cell
p2977
(dp2978
g4
I00
sg256
I01
sg6
(I01
I01
tp2979
sba(iModules.cell
Cell
p2980
(dp2981
g4
I00
sg256
I01
sg6
(I01
I01
tp2982
sba(iModules.cell
Cell
p2983
(dp2984
g4
I00
sg256
I01
sg6
(I01
I01
tp2985
sba(iModules.cell
Cell
p2986
(dp2987
g4
I00
sg256
I01
sg6
(I01
I01
tp2988
sba(iModules.cell
Cell
p2989
(dp2990
g4
I00
sg256
I01
sg6
(I01
I01
tp2991
sba(iModules.cell
Cell
p2992
(dp2993
g4
I00
sg299
I01
sg6
(I01
I01
tp2994
sba(iModules.cell
Cell
p2995
(dp2996
g4
I00
sg299
I01
sg6
(I01
I01
tp2997
sba(iModules.cell
Cell
p2998
(dp2999
g4
I00
sg299
I01
sg6
(I01
I01
tp3000
sba(iModules.cell
Cell
p3001
(dp3002
g4
I00
sg299
I01
sg6
(I01
I01
tp3003
sba(iModules.cell
Cell
p3004
(dp3005
g4
I00
sg299
I01
sg6
(I01
I01
tp3006
sba(iModules.cell
Cell
p3007
(dp3008
g4
I00
sg299
I01
sg6
(I01
I01
tp3009
sba(iModules.cell
Cell
p3010
(dp3011
g4
I00
sg299
I01
sg6
(I01
I01
tp3012
sba(iModules.cell
Cell
p3013
(dp3014
g4
I00
sg299
I01
sg6
(I01
I01
tp3015
sba(iModules.cell
Cell
p3016
(dp3017
g4
I00
sg299
I01
sg6
(I01
I01
tp3018
sba(iModules.cell
Cell
p3019
(dp3020
g4
I00
sg299
I01
sg6
(I01
I01
tp3021
sba(iModules.cell
Cell
p3022
(dp3023
g4
I00
sg299
I01
sg6
(I01
I01
tp3024
sba(iModules.cell
Cell
p3025
(dp3026
g4
I00
sg299
I01
sg6
(I01
I01
tp3027
sba(iModules.cell
Cell
p3028
(dp3029
g4
I00
sg299
I01
sg6
(I01
I01
tp3030
sba(iModules.cell
Cell
p3031
(dp3032
g4
I00
sg299
I01
sg6
(I01
I01
tp3033
sba(iModules.cell
Cell
p3034
(dp3035
g4
I00
sg6
(I01
I01
tp3036
sba(iModules.cell
Cell
p3037
(dp3038
g4
I00
sg6
(I01
I01
tp3039
sba(iModules.cell
Cell
p3040
(dp3041
g4
I00
sg6
(I01
I01
tp3042
sba(iModules.cell
Cell
p3043
(dp3044
g4
I00
sg6
(I01
I01
tp3045
sba(iModules.cell
Cell
p3046
(dp3047
g4
I00
sg6
(I01
I01
tp3048
sba(iModules.cell
Cell
p3049
(dp3050
g4
I00
sg6
(I01
I01
tp3051
sba(iModules.cell
Cell
p3052
(dp3053
g4
I00
sg6
(I01
I01
tp3054
sba(iModules.cell
Cell
p3055
(dp3056
g4
I00
sg6
(I01
I01
tp3057
sba(iModules.cell
Cell
p3058
(dp3059
g4
I00
sg6
(I01
I01
tp3060
sba(iModules.cell
Cell
p3061
(dp3062
g4
I00
sg6
(I01
I01
tp3063
sba(iModules.cell
Cell
p3064
(dp3065
g4
I00
sg6
(I01
I01
tp3066
sba(iModules.cell
Cell
p3067
(dp3068
g4
I00
sg6
(I01
I01
tp3069
sba(iModules.cell
Cell
p3070
(dp3071
g4
I00
sg6
(I01
I01
tp3072
sba(iModules.cell
Cell
p3073
(dp3074
g4
I00
sg6
(I01
I01
tp3075
sba(iModules.cell
Cell
p3076
(dp3077
g4
I00
sg6
(I01
I01
tp3078
sba(iModules.cell
Cell
p3079
(dp3080
g4
I00
sg6
(I01
I01
tp3081
sba(iModules.cell
Cell
p3082
(dp3083
g4
I00
sg6
(I01
I01
tp3084
sba(iModules.cell
Cell
p3085
(dp3086
g4
I00
sg6
(I01
I01
tp3087
sba(iModules.cell
Cell
p3088
(dp3089
g4
I00
sg6
(I01
I01
tp3090
sba(iModules.cell
Cell
p3091
(dp3092
g4
I00
sg6
(I01
I01
tp3093
sba(iModules.cell
Cell
p3094
(dp3095
g4
I00
sg6
(I01
I01
tp3096
sba(iModules.cell
Cell
p3097
(dp3098
g4
I00
sg6
(I01
I01
tp3099
sba(iModules.cell
Cell
p3100
(dp3101
g4
I00
sg6
(I01
I01
tp3102
sba(iModules.cell
Cell
p3103
(dp3104
g4
I00
sg6
(I01
I01
tp3105
sba(iModules.cell
Cell
p3106
(dp3107
g4
I00
sg6
(I01
I01
tp3108
sba(iModules.cell
Cell
p3109
(dp3110
g4
I00
sg6
(I01
I01
tp3111
sba(iModules.cell
Cell
p3112
(dp3113
g4
I00
sg6
(I01
I01
tp3114
sba(iModules.cell
Cell
p3115
(dp3116
g4
I00
sg6
(I01
I01
tp3117
sba(iModules.cell
Cell
p3118
(dp3119
g4
I00
sg6
(I01
I01
tp3120
sba(iModules.cell
Cell
p3121
(dp3122
g4
I00
sg6
(I01
I01
tp3123
sba(iModules.cell
Cell
p3124
(dp3125
g4
I00
sg6
(I01
I01
tp3126
sba(iModules.cell
Cell
p3127
(dp3128
g4
I00
sg6
(I01
I01
tp3129
sba(iModules.cell
Cell
p3130
(dp3131
g4
I00
sg6
(I00
I00
tp3132
sba(iModules.cell
Cell
p3133
(dp3134
g4
I00
sg6
(I00
I00
tp3135
sba(iModules.cell
Cell
p3136
(dp3137
g4
I00
sg6
(I00
I00
tp3138
sba(iModules.cell
Cell
p3139
(dp3140
g4
I00
sg6
(I00
I00
tp3141
sba(iModules.cell
Cell
p3142
(dp3143
g4
I00
sg6
(I00
I00
tp3144
sba(iModules.cell
Cell
p3145
(dp3146
g4
I00
sg6
(I00
I00
tp3147
sba(iModules.cell
Cell
p3148
(dp3149
g4
I00
sg6
(I00
I00
tp3150
sba(iModules.cell
Cell
p3151
(dp3152
g4
I00
sg6
(I00
I00
tp3153
sba(iModules.cell
Cell
p3154
(dp3155
g4
I00
sg6
(I00
I00
tp3156
sba(iModules.cell
Cell
p3157
(dp3158
g4
I00
sg6
(I00
I00
tp3159
sba(iModules.cell
Cell
p3160
(dp3161
g4
I00
sg6
(I00
I00
tp3162
sba(iModules.cell
Cell
p3163
(dp3164
g4
I00
sg6
(I00
I00
tp3165
sba(iModules.cell
Cell
p3166
(dp3167
g4
I00
sg6
(I00
I00
tp3168
sba(iModules.cell
Cell
p3169
(dp3170
g4
I00
sg6
(I00
I00
tp3171
sba(iModules.cell
Cell
p3172
(dp3173
g4
I00
sg6
(I00
I00
tp3174
sba(iModules.cell
Cell
p3175
(dp3176
g4
I00
sg6
(I00
I00
tp3177
sba(iModules.cell
Cell
p3178
(dp3179
g4
I00
sg6
(I00
I00
tp3180
sba(iModules.cell
Cell
p3181
(dp3182
g4
I00
sg6
(I00
I00
tp3183
sba(iModules.cell
Cell
p3184
(dp3185
g4
I00
sg6
(I00
I00
tp3186
sba(iModules.cell
Cell
p3187
(dp3188
g6
(I00
I00
tp3189
sbaa(lp3190
(iModules.cell
Cell
p3191
(dp3192
g4
I00
sg6
(I00
I00
tp3193
sba(iModules.cell
Cell
p3194
(dp3195
g4
I00
sg256
I01
sg6
(I00
I00
tp3196
sba(iModules.cell
Cell
p3197
(dp3198
g4
I00
sg256
I01
sg6
(I01
I01
tp3199
sba(iModules.cell
Cell
p3200
(dp3201
g4
I00
sg256
I01
sg6
(I01
I01
tp3202
sba(iModules.cell
Cell
p3203
(dp3204
g4
I01
sg256
I01
sg6
(I00
I00
I00
tp3205
sba(iModules.cell
Cell
p3206
(dp3207
g4
I01
sg256
I01
sg6
(I01
I01
tp3208
sba(iModules.cell
Cell
p3209
(dp3210
g4
I01
sg256
I01
sg6
(I01
I01
tp3211
sba(iModules.cell
Cell
p3212
(dp3213
g4
I00
sg256
I01
sg6
(I01
I01
tp3214
sba(iModules.cell
Cell
p3215
(dp3216
g4
I00
sg256
I01
sg6
(I01
I01
tp3217
sba(iModules.cell
Cell
p3218
(dp3219
g4
I00
sg256
I01
sg6
(I01
I01
tp3220
sba(iModules.cell
Cell
p3221
(dp3222
g4
I00
sg256
I01
sg6
(I01
I01
tp3223
sba(iModules.cell
Cell
p3224
(dp3225
S'visible'
p3226
I00
sS'explored'
p3227
I01
sS'type'
p3228
(I01
I01
tp3229
sba(iModules.cell
Cell
p3230
(dp3231
g3226
I00
sg3227
I01
sg3228
(I01
I01
tp3232
sba(iModules.cell
Cell
p3233
(dp3234
g3226
I00
sg3227
I01
sg3228
(I01
I01
tp3235
sba(iModules.cell
Cell
p3236
(dp3237
g4
I00
sg256
I01
sg6
(I01
I01
tp3238
sba(iModules.cell
Cell
p3239
(dp3240
g4
I00
sg299
I01
sg6
(I01
I01
tp3241
sba(iModules.cell
Cell
p3242
(dp3243
g4
I00
sg299
I01
sg6
(I01
I01
tp3244
sba(iModules.cell
Cell
p3245
(dp3246
g4
I00
sg299
I01
sg6
(I01
I01
tp3247
sba(iModules.cell
Cell
p3248
(dp3249
g4
I00
sg299
I01
sg6
(I01
I01
tp3250
sba(iModules.cell
Cell
p3251
(dp3252
g4
I00
sg299
I01
sg6
(I01
I01
tp3253
sba(iModules.cell
Cell
p3254
(dp3255
g4
I00
sg299
I01
sg6
(I01
I01
tp3256
sba(iModules.cell
Cell
p3257
(dp3258
g4
I00
sg299
I01
sg6
(I01
I01
tp3259
sba(iModules.cell
Cell
p3260
(dp3261
g4
I00
sg299
I01
sg6
(I01
I01
tp3262
sba(iModules.cell
Cell
p3263
(dp3264
g4
I00
sg299
I01
sg6
(I01
I01
tp3265
sba(iModules.cell
Cell
p3266
(dp3267
g4
I00
sg299
I01
sg6
(I01
I01
tp3268
sba(iModules.cell
Cell
p3269
(dp3270
g4
I00
sg299
I01
sg6
(I01
I01
tp3271
sba(iModules.cell
Cell
p3272
(dp3273
g4
I00
sg299
I01
sg6
(I01
I01
tp3274
sba(iModules.cell
Cell
p3275
(dp3276
g4
I00
sg299
I01
sg6
(I01
I01
tp3277
sba(iModules.cell
Cell
p3278
(dp3279
g4
I00
sg299
I01
sg6
(I01
I01
tp3280
sba(iModules.cell
Cell
p3281
(dp3282
g4
I00
sg6
(I01
I01
tp3283
sba(iModules.cell
Cell
p3284
(dp3285
g4
I00
sg6
(I01
I01
tp3286
sba(iModules.cell
Cell
p3287
(dp3288
g4
I00
sg6
(I01
I01
tp3289
sba(iModules.cell
Cell
p3290
(dp3291
g4
I00
sg6
(I01
I01
tp3292
sba(iModules.cell
Cell
p3293
(dp3294
g4
I00
sg6
(I01
I01
tp3295
sba(iModules.cell
Cell
p3296
(dp3297
g4
I00
sg6
(I01
I01
tp3298
sba(iModules.cell
Cell
p3299
(dp3300
g4
I00
sg6
(I01
I01
tp3301
sba(iModules.cell
Cell
p3302
(dp3303
g4
I00
sg6
(I01
I01
tp3304
sba(iModules.cell
Cell
p3305
(dp3306
g4
I00
sg6
(I01
I01
tp3307
sba(iModules.cell
Cell
p3308
(dp3309
g4
I00
sg6
(I01
I01
tp3310
sba(iModules.cell
Cell
p3311
(dp3312
g4
I00
sg6
(I01
I01
tp3313
sba(iModules.cell
Cell
p3314
(dp3315
g4
I00
sg6
(I01
I01
tp3316
sba(iModules.cell
Cell
p3317
(dp3318
g4
I00
sg6
(I01
I01
tp3319
sba(iModules.cell
Cell
p3320
(dp3321
g4
I00
sg6
(I01
I01
tp3322
sba(iModules.cell
Cell
p3323
(dp3324
g4
I00
sg6
(I01
I01
tp3325
sba(iModules.cell
Cell
p3326
(dp3327
g4
I00
sg6
(I01
I01
tp3328
sba(iModules.cell
Cell
p3329
(dp3330
g4
I00
sg6
(I01
I01
tp3331
sba(iModules.cell
Cell
p3332
(dp3333
g4
I00
sg6
(I01
I01
tp3334
sba(iModules.cell
Cell
p3335
(dp3336
g4
I00
sg6
(I01
I01
tp3337
sba(iModules.cell
Cell
p3338
(dp3339
g4
I00
sg6
(I01
I01
tp3340
sba(iModules.cell
Cell
p3341
(dp3342
g4
I00
sg6
(I01
I01
tp3343
sba(iModules.cell
Cell
p3344
(dp3345
g4
I00
sg6
(I01
I01
tp3346
sba(iModules.cell
Cell
p3347
(dp3348
g4
I00
sg6
(I01
I01
tp3349
sba(iModules.cell
Cell
p3350
(dp3351
g4
I00
sg6
(I01
I01
tp3352
sba(iModules.cell
Cell
p3353
(dp3354
g4
I00
sg6
(I01
I01
tp3355
sba(iModules.cell
Cell
p3356
(dp3357
g4
I00
sg6
(I01
I01
tp3358
sba(iModules.cell
Cell
p3359
(dp3360
g4
I00
sg6
(I01
I01
tp3361
sba(iModules.cell
Cell
p3362
(dp3363
g4
I00
sg6
(I01
I01
tp3364
sba(iModules.cell
Cell
p3365
(dp3366
g4
I00
sg6
(I01
I01
tp3367
sba(iModules.cell
Cell
p3368
(dp3369
g4
I00
sg6
(I01
I01
tp3370
sba(iModules.cell
Cell
p3371
(dp3372
g4
I00
sg6
(I01
I01
tp3373
sba(iModules.cell
Cell
p3374
(dp3375
g4
I00
sg6
(I01
I01
tp3376
sba(iModules.cell
Cell
p3377
(dp3378
g4
I00
sg6
(I00
I00
tp3379
sba(iModules.cell
Cell
p3380
(dp3381
g4
I00
sg6
(I00
I00
tp3382
sba(iModules.cell
Cell
p3383
(dp3384
g4
I00
sg6
(I00
I00
tp3385
sba(iModules.cell
Cell
p3386
(dp3387
g4
I00
sg6
(I00
I00
tp3388
sba(iModules.cell
Cell
p3389
(dp3390
g4
I00
sg6
(I00
I00
tp3391
sba(iModules.cell
Cell
p3392
(dp3393
g4
I00
sg6
(I00
I00
tp3394
sba(iModules.cell
Cell
p3395
(dp3396
g4
I00
sg6
(I00
I00
tp3397
sba(iModules.cell
Cell
p3398
(dp3399
g4
I00
sg6
(I00
I00
tp3400
sba(iModules.cell
Cell
p3401
(dp3402
g4
I00
sg6
(I00
I00
tp3403
sba(iModules.cell
Cell
p3404
(dp3405
g4
I00
sg6
(I00
I00
tp3406
sba(iModules.cell
Cell
p3407
(dp3408
g4
I00
sg6
(I00
I00
tp3409
sba(iModules.cell
Cell
p3410
(dp3411
g4
I00
sg6
(I00
I00
tp3412
sba(iModules.cell
Cell
p3413
(dp3414
g4
I00
sg6
(I00
I00
tp3415
sba(iModules.cell
Cell
p3416
(dp3417
g4
I00
sg6
(I00
I00
tp3418
sba(iModules.cell
Cell
p3419
(dp3420
g4
I00
sg6
(I00
I00
tp3421
sba(iModules.cell
Cell
p3422
(dp3423
g4
I00
sg6
(I00
I00
tp3424
sba(iModules.cell
Cell
p3425
(dp3426
g4
I00
sg6
(I00
I00
tp3427
sba(iModules.cell
Cell
p3428
(dp3429
g4
I00
sg6
(I00
I00
tp3430
sba(iModules.cell
Cell
p3431
(dp3432
g4
I00
sg6
(I00
I00
tp3433
sba(iModules.cell
Cell
p3434
(dp3435
g6
(I00
I00
tp3436
sbaa(lp3437
(iModules.cell
Cell
p3438
(dp3439
g4
I00
sg6
(I00
I00
tp3440
sba(iModules.cell
Cell
p3441
(dp3442
g4
I00
sg256
I01
sg6
(I00
I00
tp3443
sba(iModules.cell
Cell
p3444
(dp3445
g4
I00
sg256
I01
sg6
(I01
I01
tp3446
sba(iModules.cell
Cell
p3447
(dp3448
g4
I00
sg256
I01
sg6
(I01
I01
tp3449
sba(iModules.cell
Cell
p3450
(dp3451
g4
I01
sg256
I01
sg6
(I00
I00
I00
tp3452
sba(iModules.cell
Cell
p3453
(dp3454
g4
I01
sg256
I01
sg6
(I00
I00
I00
tp3455
sba(iModules.cell
Cell
p3456
(dp3457
g4
I01
sg256
I01
sg6
(I00
I00
I00
tp3458
sba(iModules.cell
Cell
p3459
(dp3460
g4
I00
sg256
I01
sg6
(I01
I01
tp3461
sba(iModules.cell
Cell
p3462
(dp3463
g4
I00
sg256
I01
sg6
(I01
I01
tp3464
sba(iModules.cell
Cell
p3465
(dp3466
g4
I00
sg256
I01
sg6
(I01
I01
tp3467
sba(iModules.cell
Cell
p3468
(dp3469
g4
I00
sg256
I01
sg6
(I01
I01
tp3470
sba(iModules.cell
Cell
p3471
(dp3472
g3226
I00
sg3227
I01
sg3228
(I01
I01
tp3473
sba(iModules.cell
Cell
p3474
(dp3475
g3226
I00
sg3227
I01
sg3228
(I01
I01
tp3476
sba(iModules.cell
Cell
p3477
(dp3478
g3226
I00
sg3227
I01
sg3228
(I01
I01
tp3479
sba(iModules.cell
Cell
p3480
(dp3481
g4
I00
sg256
I01
sg6
(I01
I01
tp3482
sba(iModules.cell
Cell
p3483
(dp3484
g4
I00
sg299
I01
sg6
(I01
I01
tp3485
sba(iModules.cell
Cell
p3486
(dp3487
g4
I00
sg299
I01
sg6
(I01
I01
tp3488
sba(iModules.cell
Cell
p3489
(dp3490
g4
I00
sg299
I01
sg6
(I01
I01
tp3491
sba(iModules.cell
Cell
p3492
(dp3493
g4
I00
sg299
I01
sg6
(I01
I01
tp3494
sba(iModules.cell
Cell
p3495
(dp3496
g4
I00
sg299
I01
sg6
(I01
I01
tp3497
sba(iModules.cell
Cell
p3498
(dp3499
g4
I00
sg299
I01
sg6
(I01
I01
tp3500
sba(iModules.cell
Cell
p3501
(dp3502
g4
I00
sg299
I01
sg6
(I01
I01
tp3503
sba(iModules.cell
Cell
p3504
(dp3505
g4
I00
sg299
I01
sg6
(I01
I01
tp3506
sba(iModules.cell
Cell
p3507
(dp3508
g4
I00
sg299
I01
sg6
(I01
I01
tp3509
sba(iModules.cell
Cell
p3510
(dp3511
g4
I00
sg299
I01
sg6
(I01
I01
tp3512
sba(iModules.cell
Cell
p3513
(dp3514
g4
I00
sg299
I01
sg6
(I01
I01
tp3515
sba(iModules.cell
Cell
p3516
(dp3517
g4
I00
sg299
I01
sg6
(I01
I01
tp3518
sba(iModules.cell
Cell
p3519
(dp3520
g4
I00
sg299
I01
sg6
(I01
I01
tp3521
sba(iModules.cell
Cell
p3522
(dp3523
g4
I00
sg299
I01
sg6
(I01
I01
tp3524
sba(iModules.cell
Cell
p3525
(dp3526
g4
I00
sg6
(I01
I01
tp3527
sba(iModules.cell
Cell
p3528
(dp3529
g4
I00
sg6
(I01
I01
tp3530
sba(iModules.cell
Cell
p3531
(dp3532
g4
I00
sg6
(I01
I01
tp3533
sba(iModules.cell
Cell
p3534
(dp3535
g4
I00
sg6
(I01
I01
tp3536
sba(iModules.cell
Cell
p3537
(dp3538
g4
I00
sg6
(I01
I01
tp3539
sba(iModules.cell
Cell
p3540
(dp3541
g4
I00
sg6
(I01
I01
tp3542
sba(iModules.cell
Cell
p3543
(dp3544
g4
I00
sg6
(I01
I01
tp3545
sba(iModules.cell
Cell
p3546
(dp3547
g4
I00
sg6
(I01
I01
tp3548
sba(iModules.cell
Cell
p3549
(dp3550
g4
I00
sg6
(I01
I01
tp3551
sba(iModules.cell
Cell
p3552
(dp3553
g4
I00
sg6
(I01
I01
tp3554
sba(iModules.cell
Cell
p3555
(dp3556
g4
I00
sg6
(I01
I01
tp3557
sba(iModules.cell
Cell
p3558
(dp3559
g4
I00
sg6
(I01
I01
tp3560
sba(iModules.cell
Cell
p3561
(dp3562
g4
I00
sg6
(I01
I01
tp3563
sba(iModules.cell
Cell
p3564
(dp3565
g4
I00
sg6
(I01
I01
tp3566
sba(iModules.cell
Cell
p3567
(dp3568
g4
I00
sg6
(I01
I01
tp3569
sba(iModules.cell
Cell
p3570
(dp3571
g4
I00
sg6
(I01
I01
tp3572
sba(iModules.cell
Cell
p3573
(dp3574
g4
I00
sg6
(I01
I01
tp3575
sba(iModules.cell
Cell
p3576
(dp3577
g4
I00
sg6
(I01
I01
tp3578
sba(iModules.cell
Cell
p3579
(dp3580
g4
I00
sg6
(I01
I01
tp3581
sba(iModules.cell
Cell
p3582
(dp3583
g4
I00
sg6
(I01
I01
tp3584
sba(iModules.cell
Cell
p3585
(dp3586
g4
I00
sg6
(I01
I01
tp3587
sba(iModules.cell
Cell
p3588
(dp3589
g4
I00
sg6
(I01
I01
tp3590
sba(iModules.cell
Cell
p3591
(dp3592
g4
I00
sg6
(I01
I01
tp3593
sba(iModules.cell
Cell
p3594
(dp3595
g4
I00
sg6
(I01
I01
tp3596
sba(iModules.cell
Cell
p3597
(dp3598
g4
I00
sg6
(I01
I01
tp3599
sba(iModules.cell
Cell
p3600
(dp3601
g4
I00
sg6
(I01
I01
tp3602
sba(iModules.cell
Cell
p3603
(dp3604
g4
I00
sg6
(I01
I01
tp3605
sba(iModules.cell
Cell
p3606
(dp3607
g4
I00
sg6
(I01
I01
tp3608
sba(iModules.cell
Cell
p3609
(dp3610
g4
I00
sg6
(I01
I01
tp3611
sba(iModules.cell
Cell
p3612
(dp3613
g4
I00
sg6
(I01
I01
tp3614
sba(iModules.cell
Cell
p3615
(dp3616
g4
I00
sg6
(I01
I01
tp3617
sba(iModules.cell
Cell
p3618
(dp3619
g4
I00
sg6
(I01
I01
tp3620
sba(iModules.cell
Cell
p3621
(dp3622
g4
I00
sg6
(I00
I00
tp3623
sba(iModules.cell
Cell
p3624
(dp3625
g4
I00
sg6
(I00
I00
tp3626
sba(iModules.cell
Cell
p3627
(dp3628
g4
I00
sg6
(I00
I00
tp3629
sba(iModules.cell
Cell
p3630
(dp3631
g4
I00
sg6
(I00
I00
tp3632
sba(iModules.cell
Cell
p3633
(dp3634
g4
I00
sg6
(I00
I00
tp3635
sba(iModules.cell
Cell
p3636
(dp3637
g4
I00
sg6
(I00
I00
tp3638
sba(iModules.cell
Cell
p3639
(dp3640
g4
I00
sg6
(I00
I00
tp3641
sba(iModules.cell
Cell
p3642
(dp3643
g4
I00
sg6
(I00
I00
tp3644
sba(iModules.cell
Cell
p3645
(dp3646
g4
I00
sg6
(I00
I00
tp3647
sba(iModules.cell
Cell
p3648
(dp3649
g4
I00
sg6
(I00
I00
tp3650
sba(iModules.cell
Cell
p3651
(dp3652
g4
I00
sg6
(I00
I00
tp3653
sba(iModules.cell
Cell
p3654
(dp3655
g4
I00
sg6
(I00
I00
tp3656
sba(iModules.cell
Cell
p3657
(dp3658
g4
I00
sg6
(I00
I00
tp3659
sba(iModules.cell
Cell
p3660
(dp3661
g4
I00
sg6
(I00
I00
tp3662
sba(iModules.cell
Cell
p3663
(dp3664
g4
I00
sg6
(I00
I00
tp3665
sba(iModules.cell
Cell
p3666
(dp3667
g4
I00
sg6
(I00
I00
tp3668
sba(iModules.cell
Cell
p3669
(dp3670
g4
I00
sg6
(I00
I00
tp3671
sba(iModules.cell
Cell
p3672
(dp3673
g4
I00
sg6
(I00
I00
tp3674
sba(iModules.cell
Cell
p3675
(dp3676
g4
I00
sg6
(I00
I00
tp3677
sba(iModules.cell
Cell
p3678
(dp3679
g6
(I00
I00
tp3680
sbaa(lp3681
(iModules.cell
Cell
p3682
(dp3683
g4
I00
sg6
(I00
I00
tp3684
sba(iModules.cell
Cell
p3685
(dp3686
g4
I00
sg256
I01
sg6
(I00
I00
tp3687
sba(iModules.cell
Cell
p3688
(dp3689
g4
I00
sg256
I01
sg6
(I01
I01
tp3690
sba(iModules.cell
Cell
p3691
(dp3692
g4
I00
sg256
I01
sg6
(I01
I01
tp3693
sba(iModules.cell
Cell
p3694
(dp3695
g4
I00
sg256
I01
sg6
(I01
I01
tp3696
sba(iModules.cell
Cell
p3697
(dp3698
g4
I00
sg256
I01
sg6
(I01
I01
tp3699
sba(iModules.cell
Cell
p3700
(dp3701
g4
I00
sg256
I01
sg6
(I01
I01
tp3702
sba(iModules.cell
Cell
p3703
(dp3704
g4
I00
sg256
I01
sg6
(I01
I01
tp3705
sba(iModules.cell
Cell
p3706
(dp3707
g4
I00
sg256
I01
sg6
(I01
I01
tp3708
sba(iModules.cell
Cell
p3709
(dp3710
g4
I00
sg256
I01
sg6
(I01
I01
tp3711
sba(iModules.cell
Cell
p3712
(dp3713
g4
I00
sg256
I01
sg6
(I01
I01
tp3714
sba(iModules.cell
Cell
p3715
(dp3716
g3226
I00
sg3227
I01
sg3228
(I01
I01
tp3717
sba(iModules.cell
Cell
p3718
(dp3719
g3226
I00
sg3227
I01
sg3228
(I01
I01
tp3720
sba(iModules.cell
Cell
p3721
(dp3722
g3226
I00
sg3227
I01
sg3228
(I01
I01
tp3723
sba(iModules.cell
Cell
p3724
(dp3725
S'visible'
p3726
I00
sS'explored'
p3727
I01
sS'type'
p3728
(I01
I01
tp3729
sba(iModules.cell
Cell
p3730
(dp3731
g4
I00
sg299
I01
sg6
(I01
I01
tp3732
sba(iModules.cell
Cell
p3733
(dp3734
g4
I00
sg299
I01
sg6
(I01
I01
tp3735
sba(iModules.cell
Cell
p3736
(dp3737
g4
I00
sg299
I01
sg6
(I01
I01
tp3738
sba(iModules.cell
Cell
p3739
(dp3740
g4
I00
sg299
I01
sg6
(I01
I01
tp3741
sba(iModules.cell
Cell
p3742
(dp3743
g4
I00
sg299
I01
sg6
(I01
I01
tp3744
sba(iModules.cell
Cell
p3745
(dp3746
g4
I00
sg299
I01
sg6
(I01
I01
tp3747
sba(iModules.cell
Cell
p3748
(dp3749
g4
I00
sg299
I01
sg6
(I01
I01
tp3750
sba(iModules.cell
Cell
p3751
(dp3752
g4
I00
sg299
I01
sg6
(I01
I01
tp3753
sba(iModules.cell
Cell
p3754
(dp3755
g4
I00
sg299
I01
sg6
(I01
I01
tp3756
sba(iModules.cell
Cell
p3757
(dp3758
g4
I00
sg299
I01
sg6
(I01
I01
tp3759
sba(iModules.cell
Cell
p3760
(dp3761
g4
I00
sg299
I01
sg6
(I01
I01
tp3762
sba(iModules.cell
Cell
p3763
(dp3764
g4
I00
sg299
I01
sg6
(I01
I01
tp3765
sba(iModules.cell
Cell
p3766
(dp3767
g4
I00
sg299
I01
sg6
(I01
I01
tp3768
sba(iModules.cell
Cell
p3769
(dp3770
g4
I00
sg299
I01
sg6
(I01
I01
tp3771
sba(iModules.cell
Cell
p3772
(dp3773
g4
I00
sg6
(I01
I01
tp3774
sba(iModules.cell
Cell
p3775
(dp3776
g4
I00
sg6
(I01
I01
tp3777
sba(iModules.cell
Cell
p3778
(dp3779
g4
I00
sg6
(I01
I01
tp3780
sba(iModules.cell
Cell
p3781
(dp3782
g4
I00
sg6
(I01
I01
tp3783
sba(iModules.cell
Cell
p3784
(dp3785
g4
I00
sg6
(I01
I01
tp3786
sba(iModules.cell
Cell
p3787
(dp3788
g4
I00
sg6
(I01
I01
tp3789
sba(iModules.cell
Cell
p3790
(dp3791
g4
I00
sg6
(I01
I01
tp3792
sba(iModules.cell
Cell
p3793
(dp3794
g4
I00
sg6
(I01
I01
tp3795
sba(iModules.cell
Cell
p3796
(dp3797
g4
I00
sg6
(I01
I01
tp3798
sba(iModules.cell
Cell
p3799
(dp3800
g4
I00
sg6
(I01
I01
tp3801
sba(iModules.cell
Cell
p3802
(dp3803
g4
I00
sg6
(I01
I01
tp3804
sba(iModules.cell
Cell
p3805
(dp3806
g4
I00
sg6
(I01
I01
tp3807
sba(iModules.cell
Cell
p3808
(dp3809
g4
I00
sg6
(I01
I01
tp3810
sba(iModules.cell
Cell
p3811
(dp3812
g4
I00
sg6
(I01
I01
tp3813
sba(iModules.cell
Cell
p3814
(dp3815
g4
I00
sg6
(I01
I01
tp3816
sba(iModules.cell
Cell
p3817
(dp3818
g4
I00
sg6
(I01
I01
tp3819
sba(iModules.cell
Cell
p3820
(dp3821
g4
I00
sg6
(I01
I01
tp3822
sba(iModules.cell
Cell
p3823
(dp3824
g4
I00
sg6
(I01
I01
tp3825
sba(iModules.cell
Cell
p3826
(dp3827
g4
I00
sg6
(I01
I01
tp3828
sba(iModules.cell
Cell
p3829
(dp3830
g4
I00
sg6
(I01
I01
tp3831
sba(iModules.cell
Cell
p3832
(dp3833
g4
I00
sg6
(I01
I01
tp3834
sba(iModules.cell
Cell
p3835
(dp3836
g4
I00
sg6
(I01
I01
tp3837
sba(iModules.cell
Cell
p3838
(dp3839
g4
I00
sg6
(I01
I01
tp3840
sba(iModules.cell
Cell
p3841
(dp3842
g4
I00
sg6
(I01
I01
tp3843
sba(iModules.cell
Cell
p3844
(dp3845
g4
I00
sg6
(I01
I01
tp3846
sba(iModules.cell
Cell
p3847
(dp3848
g4
I00
sg6
(I01
I01
tp3849
sba(iModules.cell
Cell
p3850
(dp3851
g4
I00
sg6
(I01
I01
tp3852
sba(iModules.cell
Cell
p3853
(dp3854
g4
I00
sg6
(I01
I01
tp3855
sba(iModules.cell
Cell
p3856
(dp3857
g4
I00
sg6
(I01
I01
tp3858
sba(iModules.cell
Cell
p3859
(dp3860
g4
I00
sg6
(I01
I01
tp3861
sba(iModules.cell
Cell
p3862
(dp3863
g4
I00
sg6
(I01
I01
tp3864
sba(iModules.cell
Cell
p3865
(dp3866
g4
I00
sg6
(I01
I01
tp3867
sba(iModules.cell
Cell
p3868
(dp3869
g4
I00
sg6
(I00
I00
tp3870
sba(iModules.cell
Cell
p3871
(dp3872
g4
I00
sg6
(I00
I00
tp3873
sba(iModules.cell
Cell
p3874
(dp3875
g4
I00
sg6
(I00
I00
tp3876
sba(iModules.cell
Cell
p3877
(dp3878
g4
I00
sg6
(I00
I00
tp3879
sba(iModules.cell
Cell
p3880
(dp3881
g4
I00
sg6
(I00
I00
tp3882
sba(iModules.cell
Cell
p3883
(dp3884
g4
I00
sg6
(I00
I00
tp3885
sba(iModules.cell
Cell
p3886
(dp3887
g4
I00
sg6
(I00
I00
tp3888
sba(iModules.cell
Cell
p3889
(dp3890
g4
I00
sg6
(I00
I00
tp3891
sba(iModules.cell
Cell
p3892
(dp3893
g4
I00
sg6
(I00
I00
tp3894
sba(iModules.cell
Cell
p3895
(dp3896
g4
I00
sg6
(I00
I00
tp3897
sba(iModules.cell
Cell
p3898
(dp3899
g4
I00
sg6
(I00
I00
tp3900
sba(iModules.cell
Cell
p3901
(dp3902
g4
I00
sg6
(I00
I00
tp3903
sba(iModules.cell
Cell
p3904
(dp3905
g4
I00
sg6
(I00
I00
tp3906
sba(iModules.cell
Cell
p3907
(dp3908
g4
I00
sg6
(I00
I00
tp3909
sba(iModules.cell
Cell
p3910
(dp3911
g4
I00
sg6
(I00
I00
tp3912
sba(iModules.cell
Cell
p3913
(dp3914
g4
I00
sg6
(I00
I00
tp3915
sba(iModules.cell
Cell
p3916
(dp3917
g4
I00
sg6
(I00
I00
tp3918
sba(iModules.cell
Cell
p3919
(dp3920
g4
I00
sg6
(I00
I00
tp3921
sba(iModules.cell
Cell
p3922
(dp3923
g4
I00
sg6
(I00
I00
tp3924
sba(iModules.cell
Cell
p3925
(dp3926
g6
(I00
I00
tp3927
sbaa(lp3928
(iModules.cell
Cell
p3929
(dp3930
g4
I00
sg6
(I00
I00
tp3931
sba(iModules.cell
Cell
p3932
(dp3933
g4
I00
sg299
I01
sg6
(I00
I00
tp3934
sba(iModules.cell
Cell
p3935
(dp3936
g4
I00
sg299
I01
sg6
(I01
I01
tp3937
sba(iModules.cell
Cell
p3938
(dp3939
g4
I00
sg299
I01
sg6
(I01
I01
tp3940
sba(iModules.cell
Cell
p3941
(dp3942
g4
I00
sg299
I01
sg6
(I01
I01
tp3943
sba(iModules.cell
Cell
p3944
(dp3945
g4
I00
sg299
I01
sg6
(I01
I01
tp3946
sba(iModules.cell
Cell
p3947
(dp3948
g4
I00
sg299
I01
sg6
(I01
I01
tp3949
sba(iModules.cell
Cell
p3950
(dp3951
g4
I00
sg299
I01
sg6
(I01
I01
tp3952
sba(iModules.cell
Cell
p3953
(dp3954
g4
I00
sg299
I01
sg6
(I01
I01
tp3955
sba(iModules.cell
Cell
p3956
(dp3957
g4
I00
sg299
I01
sg6
(I01
I01
tp3958
sba(iModules.cell
Cell
p3959
(dp3960
g3226
I00
sg3227
I01
sg3228
(I01
I01
tp3961
sba(iModules.cell
Cell
p3962
(dp3963
g3226
I00
sg3227
I01
sg3228
(I01
I01
tp3964
sba(iModules.cell
Cell
p3965
(dp3966
g3226
I00
sg3227
I01
sg3228
(I01
I01
tp3967
sba(iModules.cell
Cell
p3968
(dp3969
g3226
I00
sg3227
I01
sg3228
(I01
I01
tp3970
sba(iModules.cell
Cell
p3971
(dp3972
g3726
I00
sg3727
I01
sg3728
(I01
I01
tp3973
sba(iModules.cell
Cell
p3974
(dp3975
g3726
I00
sg3727
I01
sg3728
(I01
I01
tp3976
sba(iModules.cell
Cell
p3977
(dp3978
g4
I00
sg299
I01
sg6
(I01
I01
tp3979
sba(iModules.cell
Cell
p3980
(dp3981
g4
I00
sg299
I01
sg6
(I01
I01
tp3982
sba(iModules.cell
Cell
p3983
(dp3984
g4
I00
sg299
I01
sg6
(I01
I01
tp3985
sba(iModules.cell
Cell
p3986
(dp3987
g4
I00
sg299
I01
sg6
(I01
I01
tp3988
sba(iModules.cell
Cell
p3989
(dp3990
g4
I00
sg299
I01
sg6
(I01
I01
tp3991
sba(iModules.cell
Cell
p3992
(dp3993
g4
I00
sg299
I01
sg6
(I01
I01
tp3994
sba(iModules.cell
Cell
p3995
(dp3996
g4
I00
sg299
I01
sg6
(I01
I01
tp3997
sba(iModules.cell
Cell
p3998
(dp3999
g4
I00
sg299
I01
sg6
(I01
I01
tp4000
sba(iModules.cell
Cell
p4001
(dp4002
g4
I00
sg299
I01
sg6
(I01
I01
tp4003
sba(iModules.cell
Cell
p4004
(dp4005
g4
I00
sg299
I01
sg6
(I01
I01
tp4006
sba(iModules.cell
Cell
p4007
(dp4008
g4
I00
sg299
I01
sg6
(I01
I01
tp4009
sba(iModules.cell
Cell
p4010
(dp4011
g4
I00
sg299
I01
sg6
(I01
I01
tp4012
sba(iModules.cell
Cell
p4013
(dp4014
g4
I00
sg6
(I01
I01
tp4015
sba(iModules.cell
Cell
p4016
(dp4017
g4
I00
sg6
(I01
I01
tp4018
sba(iModules.cell
Cell
p4019
(dp4020
g4
I00
sg6
(I01
I01
tp4021
sba(iModules.cell
Cell
p4022
(dp4023
g4
I00
sg6
(I01
I01
tp4024
sba(iModules.cell
Cell
p4025
(dp4026
g4
I00
sg6
(I01
I01
tp4027
sba(iModules.cell
Cell
p4028
(dp4029
g4
I00
sg6
(I01
I01
tp4030
sba(iModules.cell
Cell
p4031
(dp4032
g4
I00
sg6
(I01
I01
tp4033
sba(iModules.cell
Cell
p4034
(dp4035
g4
I00
sg6
(I01
I01
tp4036
sba(iModules.cell
Cell
p4037
(dp4038
g4
I00
sg6
(I01
I01
tp4039
sba(iModules.cell
Cell
p4040
(dp4041
g4
I00
sg6
(I01
I01
tp4042
sba(iModules.cell
Cell
p4043
(dp4044
g4
I00
sg6
(I01
I01
tp4045
sba(iModules.cell
Cell
p4046
(dp4047
g4
I00
sg6
(I01
I01
tp4048
sba(iModules.cell
Cell
p4049
(dp4050
g4
I00
sg6
(I01
I01
tp4051
sba(iModules.cell
Cell
p4052
(dp4053
g4
I00
sg6
(I01
I01
tp4054
sba(iModules.cell
Cell
p4055
(dp4056
g4
I00
sg6
(I01
I01
tp4057
sba(iModules.cell
Cell
p4058
(dp4059
g4
I00
sg6
(I01
I01
tp4060
sba(iModules.cell
Cell
p4061
(dp4062
g4
I00
sg6
(I01
I01
tp4063
sba(iModules.cell
Cell
p4064
(dp4065
g4
I00
sg6
(I01
I01
tp4066
sba(iModules.cell
Cell
p4067
(dp4068
g4
I00
sg6
(I01
I01
tp4069
sba(iModules.cell
Cell
p4070
(dp4071
g4
I00
sg6
(I01
I01
tp4072
sba(iModules.cell
Cell
p4073
(dp4074
g4
I00
sg6
(I01
I01
tp4075
sba(iModules.cell
Cell
p4076
(dp4077
g4
I00
sg6
(I01
I01
tp4078
sba(iModules.cell
Cell
p4079
(dp4080
g4
I00
sg6
(I01
I01
tp4081
sba(iModules.cell
Cell
p4082
(dp4083
g4
I00
sg6
(I01
I01
tp4084
sba(iModules.cell
Cell
p4085
(dp4086
g4
I00
sg6
(I01
I01
tp4087
sba(iModules.cell
Cell
p4088
(dp4089
g4
I00
sg6
(I01
I01
tp4090
sba(iModules.cell
Cell
p4091
(dp4092
g4
I00
sg6
(I01
I01
tp4093
sba(iModules.cell
Cell
p4094
(dp4095
g4
I00
sg6
(I01
I01
tp4096
sba(iModules.cell
Cell
p4097
(dp4098
g4
I00
sg6
(I01
I01
tp4099
sba(iModules.cell
Cell
p4100
(dp4101
g4
I00
sg6
(I01
I01
tp4102
sba(iModules.cell
Cell
p4103
(dp4104
g4
I00
sg6
(I01
I01
tp4105
sba(iModules.cell
Cell
p4106
(dp4107
g4
I00
sg6
(I01
I01
tp4108
sba(iModules.cell
Cell
p4109
(dp4110
g4
I00
sg6
(I01
I01
tp4111
sba(iModules.cell
Cell
p4112
(dp4113
g4
I00
sg6
(I00
I00
tp4114
sba(iModules.cell
Cell
p4115
(dp4116
g4
I00
sg6
(I00
I00
tp4117
sba(iModules.cell
Cell
p4118
(dp4119
g4
I00
sg6
(I00
I00
tp4120
sba(iModules.cell
Cell
p4121
(dp4122
g4
I00
sg6
(I00
I00
tp4123
sba(iModules.cell
Cell
p4124
(dp4125
g4
I00
sg6
(I00
I00
tp4126
sba(iModules.cell
Cell
p4127
(dp4128
g4
I00
sg6
(I00
I00
tp4129
sba(iModules.cell
Cell
p4130
(dp4131
g4
I00
sg6
(I00
I00
tp4132
sba(iModules.cell
Cell
p4133
(dp4134
g4
I00
sg6
(I00
I00
tp4135
sba(iModules.cell
Cell
p4136
(dp4137
g4
I00
sg6
(I00
I00
tp4138
sba(iModules.cell
Cell
p4139
(dp4140
g4
I00
sg6
(I00
I00
tp4141
sba(iModules.cell
Cell
p4142
(dp4143
g4
I00
sg6
(I00
I00
tp4144
sba(iModules.cell
Cell
p4145
(dp4146
g4
I00
sg6
(I00
I00
tp4147
sba(iModules.cell
Cell
p4148
(dp4149
g4
I00
sg6
(I00
I00
tp4150
sba(iModules.cell
Cell
p4151
(dp4152
g4
I00
sg6
(I00
I00
tp4153
sba(iModules.cell
Cell
p4154
(dp4155
g4
I00
sg6
(I00
I00
tp4156
sba(iModules.cell
Cell
p4157
(dp4158
g4
I00
sg6
(I00
I00
tp4159
sba(iModules.cell
Cell
p4160
(dp4161
g4
I00
sg6
(I00
I00
tp4162
sba(iModules.cell
Cell
p4163
(dp4164
g4
I00
sg6
(I00
I00
tp4165
sba(iModules.cell
Cell
p4166
(dp4167
g4
I00
sg6
(I00
I00
tp4168
sba(iModules.cell
Cell
p4169
(dp4170
g6
(I00
I00
tp4171
sbaa(lp4172
(iModules.cell
Cell
p4173
(dp4174
g4
I00
sg6
(I00
I00
tp4175
sba(iModules.cell
Cell
p4176
(dp4177
g4
I00
sg299
I01
sg6
(I00
I00
tp4178
sba(iModules.cell
Cell
p4179
(dp4180
g4
I00
sg299
I01
sg6
(I01
I01
tp4181
sba(iModules.cell
Cell
p4182
(dp4183
g4
I00
sg299
I01
sg6
(I01
I01
tp4184
sba(iModules.cell
Cell
p4185
(dp4186
g4
I00
sg299
I01
sg6
(I01
I01
tp4187
sba(iModules.cell
Cell
p4188
(dp4189
g4
I00
sg299
I01
sg6
(I01
I01
tp4190
sba(iModules.cell
Cell
p4191
(dp4192
g4
I00
sg299
I01
sg6
(I01
I01
tp4193
sba(iModules.cell
Cell
p4194
(dp4195
g4
I00
sg299
I01
sg6
(I01
I01
tp4196
sba(iModules.cell
Cell
p4197
(dp4198
g4
I00
sg299
I01
sg6
(I01
I01
tp4199
sba(iModules.cell
Cell
p4200
(dp4201
g4
I00
sg299
I01
sg6
(I01
I01
tp4202
sba(iModules.cell
Cell
p4203
(dp4204
g3226
I00
sg3227
I01
sg3228
(I01
I01
tp4205
sba(iModules.cell
Cell
p4206
(dp4207
g3226
I00
sg3227
I01
sg3228
(I01
I01
tp4208
sba(iModules.cell
Cell
p4209
(dp4210
g4
I00
sg299
I01
sg6
(I01
I01
tp4211
sba(iModules.cell
Cell
p4212
(dp4213
g3226
I00
sg3227
I01
sg3228
(I01
I01
tp4214
sba(iModules.cell
Cell
p4215
(dp4216
g4
I00
sg299
I01
sg6
(I01
I01
tp4217
sba(iModules.cell
Cell
p4218
(dp4219
g4
I00
sg299
I01
sg6
(I01
I01
tp4220
sba(iModules.cell
Cell
p4221
(dp4222
g4
I00
sg299
I01
sg6
(I01
I01
tp4223
sba(iModules.cell
Cell
p4224
(dp4225
g4
I00
sg299
I01
sg6
(I01
I01
tp4226
sba(iModules.cell
Cell
p4227
(dp4228
g4
I00
sg299
I01
sg6
(I01
I01
tp4229
sba(iModules.cell
Cell
p4230
(dp4231
g4
I00
sg299
I01
sg6
(I01
I01
tp4232
sba(iModules.cell
Cell
p4233
(dp4234
g4
I00
sg299
I01
sg6
(I01
I01
tp4235
sba(iModules.cell
Cell
p4236
(dp4237
g4
I00
sg299
I01
sg6
(I01
I01
tp4238
sba(iModules.cell
Cell
p4239
(dp4240
g4
I00
sg299
I01
sg6
(I01
I01
tp4241
sba(iModules.cell
Cell
p4242
(dp4243
g4
I00
sg299
I01
sg6
(I01
I01
tp4244
sba(iModules.cell
Cell
p4245
(dp4246
g4
I00
sg299
I01
sg6
(I01
I01
tp4247
sba(iModules.cell
Cell
p4248
(dp4249
g4
I00
sg299
I01
sg6
(I01
I01
tp4250
sba(iModules.cell
Cell
p4251
(dp4252
g4
I00
sg299
I01
sg6
(I01
I01
tp4253
sba(iModules.cell
Cell
p4254
(dp4255
g4
I00
sS'explored'
p4256
I01
sg6
(I01
I01
tp4257
sba(iModules.cell
Cell
p4258
(dp4259
g4
I00
sg6
(I01
I01
tp4260
sba(iModules.cell
Cell
p4261
(dp4262
g4
I00
sg6
(I01
I01
tp4263
sba(iModules.cell
Cell
p4264
(dp4265
g4
I00
sg6
(I01
I01
tp4266
sba(iModules.cell
Cell
p4267
(dp4268
g4
I00
sg6
(I01
I01
tp4269
sba(iModules.cell
Cell
p4270
(dp4271
g4
I00
sg6
(I01
I01
tp4272
sba(iModules.cell
Cell
p4273
(dp4274
g4
I00
sg6
(I01
I01
tp4275
sba(iModules.cell
Cell
p4276
(dp4277
g4
I00
sg6
(I01
I01
tp4278
sba(iModules.cell
Cell
p4279
(dp4280
g4
I00
sg6
(I01
I01
tp4281
sba(iModules.cell
Cell
p4282
(dp4283
g4
I00
sg6
(I01
I01
tp4284
sba(iModules.cell
Cell
p4285
(dp4286
g4
I00
sg6
(I01
I01
tp4287
sba(iModules.cell
Cell
p4288
(dp4289
g4
I00
sg6
(I01
I01
tp4290
sba(iModules.cell
Cell
p4291
(dp4292
g4
I00
sg6
(I01
I01
tp4293
sba(iModules.cell
Cell
p4294
(dp4295
g4
I00
sg6
(I01
I01
tp4296
sba(iModules.cell
Cell
p4297
(dp4298
g4
I00
sg6
(I01
I01
tp4299
sba(iModules.cell
Cell
p4300
(dp4301
g4
I00
sg6
(I01
I01
tp4302
sba(iModules.cell
Cell
p4303
(dp4304
g4
I00
sg6
(I01
I01
tp4305
sba(iModules.cell
Cell
p4306
(dp4307
g4
I00
sg6
(I01
I01
tp4308
sba(iModules.cell
Cell
p4309
(dp4310
g4
I00
sg6
(I01
I01
tp4311
sba(iModules.cell
Cell
p4312
(dp4313
g4
I00
sg6
(I01
I01
tp4314
sba(iModules.cell
Cell
p4315
(dp4316
g4
I00
sg6
(I01
I01
tp4317
sba(iModules.cell
Cell
p4318
(dp4319
g4
I00
sg6
(I01
I01
tp4320
sba(iModules.cell
Cell
p4321
(dp4322
g4
I00
sg6
(I01
I01
tp4323
sba(iModules.cell
Cell
p4324
(dp4325
g4
I00
sg6
(I01
I01
tp4326
sba(iModules.cell
Cell
p4327
(dp4328
g4
I00
sg6
(I01
I01
tp4329
sba(iModules.cell
Cell
p4330
(dp4331
g4
I00
sg6
(I01
I01
tp4332
sba(iModules.cell
Cell
p4333
(dp4334
g4
I00
sg6
(I01
I01
tp4335
sba(iModules.cell
Cell
p4336
(dp4337
g4
I00
sg6
(I01
I01
tp4338
sba(iModules.cell
Cell
p4339
(dp4340
g4
I00
sg6
(I01
I01
tp4341
sba(iModules.cell
Cell
p4342
(dp4343
g4
I00
sg6
(I01
I01
tp4344
sba(iModules.cell
Cell
p4345
(dp4346
g4
I00
sg6
(I01
I01
tp4347
sba(iModules.cell
Cell
p4348
(dp4349
g4
I00
sg6
(I01
I01
tp4350
sba(iModules.cell
Cell
p4351
(dp4352
g4
I00
sg6
(I01
I01
tp4353
sba(iModules.cell
Cell
p4354
(dp4355
g4
I00
sg6
(I01
I01
tp4356
sba(iModules.cell
Cell
p4357
(dp4358
g4
I00
sg6
(I00
I00
tp4359
sba(iModules.cell
Cell
p4360
(dp4361
g4
I00
sg6
(I00
I00
tp4362
sba(iModules.cell
Cell
p4363
(dp4364
g4
I00
sg6
(I00
I00
tp4365
sba(iModules.cell
Cell
p4366
(dp4367
g4
I00
sg6
(I00
I00
tp4368
sba(iModules.cell
Cell
p4369
(dp4370
g4
I00
sg6
(I00
I00
tp4371
sba(iModules.cell
Cell
p4372
(dp4373
g4
I00
sg6
(I00
I00
tp4374
sba(iModules.cell
Cell
p4375
(dp4376
g4
I00
sg6
(I00
I00
tp4377
sba(iModules.cell
Cell
p4378
(dp4379
g4
I00
sg6
(I00
I00
tp4380
sba(iModules.cell
Cell
p4381
(dp4382
g4
I00
sg6
(I00
I00
tp4383
sba(iModules.cell
Cell
p4384
(dp4385
g4
I00
sg6
(I00
I00
tp4386
sba(iModules.cell
Cell
p4387
(dp4388
g4
I00
sg6
(I00
I00
tp4389
sba(iModules.cell
Cell
p4390
(dp4391
g4
I00
sg6
(I00
I00
tp4392
sba(iModules.cell
Cell
p4393
(dp4394
g4
I00
sg6
(I00
I00
tp4395
sba(iModules.cell
Cell
p4396
(dp4397
g4
I00
sg6
(I00
I00
tp4398
sba(iModules.cell
Cell
p4399
(dp4400
g4
I00
sg6
(I00
I00
tp4401
sba(iModules.cell
Cell
p4402
(dp4403
g4
I00
sg6
(I00
I00
tp4404
sba(iModules.cell
Cell
p4405
(dp4406
g4
I00
sg6
(I00
I00
tp4407
sba(iModules.cell
Cell
p4408
(dp4409
g4
I00
sg6
(I00
I00
tp4410
sba(iModules.cell
Cell
p4411
(dp4412
g4
I00
sg6
(I00
I00
tp4413
sba(iModules.cell
Cell
p4414
(dp4415
g6
(I00
I00
tp4416
sbaa(lp4417
(iModules.cell
Cell
p4418
(dp4419
g4
I00
sg6
(I00
I00
tp4420
sba(iModules.cell
Cell
p4421
(dp4422
g4
I00
sg299
I01
sg6
(I00
I00
tp4423
sba(iModules.cell
Cell
p4424
(dp4425
g4
I00
sg299
I01
sg6
(I01
I01
tp4426
sba(iModules.cell
Cell
p4427
(dp4428
g4
I00
sg299
I01
sg6
(I01
I01
tp4429
sba(iModules.cell
Cell
p4430
(dp4431
g4
I00
sg299
I01
sg6
(I01
I01
tp4432
sba(iModules.cell
Cell
p4433
(dp4434
g4
I00
sg299
I01
sg6
(I01
I01
tp4435
sba(iModules.cell
Cell
p4436
(dp4437
g4
I00
sg299
I01
sg6
(I01
I01
tp4438
sba(iModules.cell
Cell
p4439
(dp4440
g4
I00
sg299
I01
sg6
(I01
I01
tp4441
sba(iModules.cell
Cell
p4442
(dp4443
g4
I00
sg299
I01
sg6
(I01
I01
tp4444
sba(iModules.cell
Cell
p4445
(dp4446
g3226
I00
sg3227
I01
sg3228
(I01
I01
tp4447
sba(iModules.cell
Cell
p4448
(dp4449
g3226
I00
sg3227
I01
sg3228
(I01
I01
tp4450
sba(iModules.cell
Cell
p4451
(dp4452
g3226
I00
sg3227
I01
sg3228
(I01
I01
tp4453
sba(iModules.cell
Cell
p4454
(dp4455
g3226
I00
sg3227
I01
sg3228
(I01
I01
tp4456
sba(iModules.cell
Cell
p4457
(dp4458
g3226
I00
sg3227
I01
sg3228
(I01
I01
tp4459
sba(iModules.cell
Cell
p4460
(dp4461
g4
I00
sg299
I01
sg6
(I01
I01
tp4462
sba(iModules.cell
Cell
p4463
(dp4464
g4
I00
sg299
I01
sg6
(I01
I01
tp4465
sba(iModules.cell
Cell
p4466
(dp4467
g4
I00
sg299
I01
sg6
(I01
I01
tp4468
sba(iModules.cell
Cell
p4469
(dp4470
g4
I00
sg299
I01
sg6
(I01
I01
tp4471
sba(iModules.cell
Cell
p4472
(dp4473
g4
I00
sg299
I01
sg6
(I01
I01
tp4474
sba(iModules.cell
Cell
p4475
(dp4476
g4
I00
sg299
I01
sg6
(I01
I01
tp4477
sba(iModules.cell
Cell
p4478
(dp4479
g4
I00
sg299
I01
sg6
(I01
I01
tp4480
sba(iModules.cell
Cell
p4481
(dp4482
g4
I00
sg299
I01
sg6
(I01
I01
tp4483
sba(iModules.cell
Cell
p4484
(dp4485
g4
I00
sg299
I01
sg6
(I01
I01
tp4486
sba(iModules.cell
Cell
p4487
(dp4488
g4
I00
sg299
I01
sg6
(I01
I01
tp4489
sba(iModules.cell
Cell
p4490
(dp4491
g4
I00
sg299
I01
sg6
(I01
I01
tp4492
sba(iModules.cell
Cell
p4493
(dp4494
g4
I00
sg299
I01
sg6
(I01
I01
tp4495
sba(iModules.cell
Cell
p4496
(dp4497
g4
I00
sg4256
I01
sg6
(I01
I01
tp4498
sba(iModules.cell
Cell
p4499
(dp4500
g4
I00
sg4256
I01
sg6
(I01
I01
tp4501
sba(iModules.cell
Cell
p4502
(dp4503
g4
I00
sg6
(I01
I01
tp4504
sba(iModules.cell
Cell
p4505
(dp4506
g4
I00
sg6
(I01
I01
tp4507
sba(iModules.cell
Cell
p4508
(dp4509
g4
I00
sg6
(I01
I01
tp4510
sba(iModules.cell
Cell
p4511
(dp4512
g4
I00
sg6
(I01
I01
tp4513
sba(iModules.cell
Cell
p4514
(dp4515
g4
I00
sg6
(I01
I01
tp4516
sba(iModules.cell
Cell
p4517
(dp4518
g4
I00
sg6
(I01
I01
tp4519
sba(iModules.cell
Cell
p4520
(dp4521
g4
I00
sg6
(I01
I01
tp4522
sba(iModules.cell
Cell
p4523
(dp4524
g4
I00
sg6
(I01
I01
tp4525
sba(iModules.cell
Cell
p4526
(dp4527
g4
I00
sg6
(I01
I01
tp4528
sba(iModules.cell
Cell
p4529
(dp4530
g4
I00
sg6
(I01
I01
tp4531
sba(iModules.cell
Cell
p4532
(dp4533
g4
I00
sg6
(I01
I01
tp4534
sba(iModules.cell
Cell
p4535
(dp4536
g4
I00
sg6
(I01
I01
tp4537
sba(iModules.cell
Cell
p4538
(dp4539
g4
I00
sg6
(I01
I01
tp4540
sba(iModules.cell
Cell
p4541
(dp4542
g4
I00
sg6
(I01
I01
tp4543
sba(iModules.cell
Cell
p4544
(dp4545
g4
I00
sg6
(I01
I01
tp4546
sba(iModules.cell
Cell
p4547
(dp4548
g4
I00
sg6
(I01
I01
tp4549
sba(iModules.cell
Cell
p4550
(dp4551
g4
I00
sg6
(I01
I01
tp4552
sba(iModules.cell
Cell
p4553
(dp4554
g4
I00
sg6
(I01
I01
tp4555
sba(iModules.cell
Cell
p4556
(dp4557
g4
I00
sg6
(I01
I01
tp4558
sba(iModules.cell
Cell
p4559
(dp4560
g4
I00
sg6
(I01
I01
tp4561
sba(iModules.cell
Cell
p4562
(dp4563
g4
I00
sg6
(I01
I01
tp4564
sba(iModules.cell
Cell
p4565
(dp4566
g4
I00
sg6
(I01
I01
tp4567
sba(iModules.cell
Cell
p4568
(dp4569
g4
I00
sg6
(I01
I01
tp4570
sba(iModules.cell
Cell
p4571
(dp4572
g4
I00
sg6
(I01
I01
tp4573
sba(iModules.cell
Cell
p4574
(dp4575
g4
I00
sg6
(I01
I01
tp4576
sba(iModules.cell
Cell
p4577
(dp4578
g4
I00
sg6
(I01
I01
tp4579
sba(iModules.cell
Cell
p4580
(dp4581
g4
I00
sg6
(I01
I01
tp4582
sba(iModules.cell
Cell
p4583
(dp4584
g4
I00
sg6
(I01
I01
tp4585
sba(iModules.cell
Cell
p4586
(dp4587
g4
I00
sg6
(I01
I01
tp4588
sba(iModules.cell
Cell
p4589
(dp4590
g4
I00
sg6
(I01
I01
tp4591
sba(iModules.cell
Cell
p4592
(dp4593
g4
I00
sg6
(I01
I01
tp4594
sba(iModules.cell
Cell
p4595
(dp4596
g4
I00
sg6
(I01
I01
tp4597
sba(iModules.cell
Cell
p4598
(dp4599
g4
I00
sg6
(I01
I01
tp4600
sba(iModules.cell
Cell
p4601
(dp4602
g4
I00
sg6
(I00
I00
tp4603
sba(iModules.cell
Cell
p4604
(dp4605
g4
I00
sg6
(I00
I00
tp4606
sba(iModules.cell
Cell
p4607
(dp4608
g4
I00
sg6
(I00
I00
tp4609
sba(iModules.cell
Cell
p4610
(dp4611
g4
I00
sg6
(I00
I00
tp4612
sba(iModules.cell
Cell
p4613
(dp4614
g4
I00
sg6
(I00
I00
tp4615
sba(iModules.cell
Cell
p4616
(dp4617
g4
I00
sg6
(I00
I00
tp4618
sba(iModules.cell
Cell
p4619
(dp4620
g4
I00
sg6
(I00
I00
tp4621
sba(iModules.cell
Cell
p4622
(dp4623
g4
I00
sg6
(I00
I00
tp4624
sba(iModules.cell
Cell
p4625
(dp4626
g4
I00
sg6
(I00
I00
tp4627
sba(iModules.cell
Cell
p4628
(dp4629
g4
I00
sg6
(I00
I00
tp4630
sba(iModules.cell
Cell
p4631
(dp4632
g4
I00
sg6
(I00
I00
tp4633
sba(iModules.cell
Cell
p4634
(dp4635
g4
I00
sg6
(I00
I00
tp4636
sba(iModules.cell
Cell
p4637
(dp4638
g4
I00
sg6
(I00
I00
tp4639
sba(iModules.cell
Cell
p4640
(dp4641
g4
I00
sg6
(I00
I00
tp4642
sba(iModules.cell
Cell
p4643
(dp4644
g4
I00
sg6
(I00
I00
tp4645
sba(iModules.cell
Cell
p4646
(dp4647
g4
I00
sg6
(I00
I00
tp4648
sba(iModules.cell
Cell
p4649
(dp4650
g4
I00
sg6
(I00
I00
tp4651
sba(iModules.cell
Cell
p4652
(dp4653
g4
I00
sg6
(I00
I00
tp4654
sba(iModules.cell
Cell
p4655
(dp4656
g4
I00
sg6
(I00
I00
tp4657
sba(iModules.cell
Cell
p4658
(dp4659
g6
(I00
I00
tp4660
sbaa(lp4661
(iModules.cell
Cell
p4662
(dp4663
g4
I00
sg6
(I00
I00
tp4664
sba(iModules.cell
Cell
p4665
(dp4666
g4
I00
sg299
I01
sg6
(I00
I00
tp4667
sba(iModules.cell
Cell
p4668
(dp4669
g4
I00
sg299
I01
sg6
(I01
I01
tp4670
sba(iModules.cell
Cell
p4671
(dp4672
g4
I00
sg299
I01
sg6
(I01
I01
tp4673
sba(iModules.cell
Cell
p4674
(dp4675
g4
I00
sg299
I01
sg6
(I01
I01
tp4676
sba(iModules.cell
Cell
p4677
(dp4678
g4
I00
sg299
I01
sg6
(I01
I01
tp4679
sba(iModules.cell
Cell
p4680
(dp4681
g4
I00
sg299
I01
sg6
(I01
I01
tp4682
sba(iModules.cell
Cell
p4683
(dp4684
g4
I00
sg299
I01
sg6
(I01
I01
tp4685
sba(iModules.cell
Cell
p4686
(dp4687
g4
I00
sg299
I01
sg6
(I01
I01
tp4688
sba(iModules.cell
Cell
p4689
(dp4690
g4
I00
sg299
I01
sg6
(I01
I01
tp4691
sba(iModules.cell
Cell
p4692
(dp4693
g3226
I00
sg3227
I01
sg3228
(I01
I01
tp4694
sba(iModules.cell
Cell
p4695
(dp4696
g4
I00
sg299
I01
sg6
(I01
I01
tp4697
sba(iModules.cell
Cell
p4698
(dp4699
g4
I00
sg299
I01
sg6
(I01
I01
tp4700
sba(iModules.cell
Cell
p4701
(dp4702
g4
I00
sg299
I01
sg6
(I01
I01
tp4703
sba(iModules.cell
Cell
p4704
(dp4705
g4
I00
sg299
I01
sg6
(I01
I01
tp4706
sba(iModules.cell
Cell
p4707
(dp4708
g4
I00
sg299
I01
sg6
(I01
I01
tp4709
sba(iModules.cell
Cell
p4710
(dp4711
g4
I00
sg299
I01
sg6
(I01
I01
tp4712
sba(iModules.cell
Cell
p4713
(dp4714
g4
I00
sg299
I01
sg6
(I01
I01
tp4715
sba(iModules.cell
Cell
p4716
(dp4717
g4
I00
sg299
I01
sg6
(I01
I01
tp4718
sba(iModules.cell
Cell
p4719
(dp4720
g4
I00
sg299
I01
sg6
(I01
I01
tp4721
sba(iModules.cell
Cell
p4722
(dp4723
g4
I00
sg299
I01
sg6
(I01
I01
tp4724
sba(iModules.cell
Cell
p4725
(dp4726
g4
I00
sg299
I01
sg6
(I01
I01
tp4727
sba(iModules.cell
Cell
p4728
(dp4729
g4
I00
sg299
I01
sg6
(I01
I01
tp4730
sba(iModules.cell
Cell
p4731
(dp4732
g4
I00
sg299
I01
sg6
(I01
I01
tp4733
sba(iModules.cell
Cell
p4734
(dp4735
g4
I00
sg299
I01
sg6
(I01
I01
tp4736
sba(iModules.cell
Cell
p4737
(dp4738
g4
I00
sg3727
I01
sg6
(I01
I01
tp4739
sba(iModules.cell
Cell
p4740
(dp4741
g4
I00
sg4256
I01
sg6
(I01
I01
tp4742
sba(iModules.cell
Cell
p4743
(dp4744
g4
I00
sg4256
I01
sg6
(I01
I01
tp4745
sba(iModules.cell
Cell
p4746
(dp4747
g4
I00
sg6
(I01
I01
tp4748
sba(iModules.cell
Cell
p4749
(dp4750
g4
I00
sg6
(I01
I01
tp4751
sba(iModules.cell
Cell
p4752
(dp4753
g4
I00
sg6
(I01
I01
tp4754
sba(iModules.cell
Cell
p4755
(dp4756
g4
I00
sg6
(I01
I01
tp4757
sba(iModules.cell
Cell
p4758
(dp4759
g4
I00
sg6
(I01
I01
tp4760
sba(iModules.cell
Cell
p4761
(dp4762
g4
I00
sg6
(I01
I01
tp4763
sba(iModules.cell
Cell
p4764
(dp4765
g4
I00
sg6
(I01
I01
tp4766
sba(iModules.cell
Cell
p4767
(dp4768
g4
I00
sg6
(I01
I01
tp4769
sba(iModules.cell
Cell
p4770
(dp4771
g4
I00
sg6
(I01
I01
tp4772
sba(iModules.cell
Cell
p4773
(dp4774
g4
I00
sg6
(I01
I01
tp4775
sba(iModules.cell
Cell
p4776
(dp4777
g4
I00
sg6
(I01
I01
tp4778
sba(iModules.cell
Cell
p4779
(dp4780
g4
I00
sg6
(I01
I01
tp4781
sba(iModules.cell
Cell
p4782
(dp4783
g4
I00
sg6
(I01
I01
tp4784
sba(iModules.cell
Cell
p4785
(dp4786
g4
I00
sg6
(I01
I01
tp4787
sba(iModules.cell
Cell
p4788
(dp4789
g4
I00
sg6
(I01
I01
tp4790
sba(iModules.cell
Cell
p4791
(dp4792
g4
I00
sg6
(I01
I01
tp4793
sba(iModules.cell
Cell
p4794
(dp4795
g4
I00
sg6
(I01
I01
tp4796
sba(iModules.cell
Cell
p4797
(dp4798
g4
I00
sg6
(I01
I01
tp4799
sba(iModules.cell
Cell
p4800
(dp4801
g4
I00
sg6
(I01
I01
tp4802
sba(iModules.cell
Cell
p4803
(dp4804
g4
I00
sg6
(I01
I01
tp4805
sba(iModules.cell
Cell
p4806
(dp4807
g4
I00
sg6
(I01
I01
tp4808
sba(iModules.cell
Cell
p4809
(dp4810
g4
I00
sg6
(I01
I01
tp4811
sba(iModules.cell
Cell
p4812
(dp4813
g4
I00
sg6
(I01
I01
tp4814
sba(iModules.cell
Cell
p4815
(dp4816
g4
I00
sg6
(I01
I01
tp4817
sba(iModules.cell
Cell
p4818
(dp4819
g4
I00
sg6
(I01
I01
tp4820
sba(iModules.cell
Cell
p4821
(dp4822
g4
I00
sg6
(I01
I01
tp4823
sba(iModules.cell
Cell
p4824
(dp4825
g4
I00
sg6
(I01
I01
tp4826
sba(iModules.cell
Cell
p4827
(dp4828
g4
I00
sg6
(I01
I01
tp4829
sba(iModules.cell
Cell
p4830
(dp4831
g4
I00
sg6
(I01
I01
tp4832
sba(iModules.cell
Cell
p4833
(dp4834
g4
I00
sg6
(I01
I01
tp4835
sba(iModules.cell
Cell
p4836
(dp4837
g4
I00
sg6
(I01
I01
tp4838
sba(iModules.cell
Cell
p4839
(dp4840
g4
I00
sg6
(I01
I01
tp4841
sba(iModules.cell
Cell
p4842
(dp4843
g4
I00
sg6
(I01
I01
tp4844
sba(iModules.cell
Cell
p4845
(dp4846
g4
I00
sg6
(I00
I00
tp4847
sba(iModules.cell
Cell
p4848
(dp4849
g4
I00
sg6
(I00
I00
tp4850
sba(iModules.cell
Cell
p4851
(dp4852
g4
I00
sg6
(I00
I00
tp4853
sba(iModules.cell
Cell
p4854
(dp4855
g4
I00
sg6
(I00
I00
tp4856
sba(iModules.cell
Cell
p4857
(dp4858
g4
I00
sg6
(I00
I00
tp4859
sba(iModules.cell
Cell
p4860
(dp4861
g4
I00
sg6
(I00
I00
tp4862
sba(iModules.cell
Cell
p4863
(dp4864
g4
I00
sg6
(I00
I00
tp4865
sba(iModules.cell
Cell
p4866
(dp4867
g4
I00
sg6
(I00
I00
tp4868
sba(iModules.cell
Cell
p4869
(dp4870
g4
I00
sg6
(I00
I00
tp4871
sba(iModules.cell
Cell
p4872
(dp4873
g4
I00
sg6
(I00
I00
tp4874
sba(iModules.cell
Cell
p4875
(dp4876
g4
I00
sg6
(I00
I00
tp4877
sba(iModules.cell
Cell
p4878
(dp4879
g4
I00
sg6
(I00
I00
tp4880
sba(iModules.cell
Cell
p4881
(dp4882
g4
I00
sg6
(I00
I00
tp4883
sba(iModules.cell
Cell
p4884
(dp4885
g4
I00
sg6
(I00
I00
tp4886
sba(iModules.cell
Cell
p4887
(dp4888
g4
I00
sg6
(I00
I00
tp4889
sba(iModules.cell
Cell
p4890
(dp4891
g4
I00
sg6
(I00
I00
tp4892
sba(iModules.cell
Cell
p4893
(dp4894
g4
I00
sg6
(I00
I00
tp4895
sba(iModules.cell
Cell
p4896
(dp4897
g4
I00
sg6
(I00
I00
tp4898
sba(iModules.cell
Cell
p4899
(dp4900
g4
I00
sg6
(I00
I00
tp4901
sba(iModules.cell
Cell
p4902
(dp4903
g6
(I00
I00
tp4904
sbaa(lp4905
(iModules.cell
Cell
p4906
(dp4907
g4
I00
sg6
(I00
I00
tp4908
sba(iModules.cell
Cell
p4909
(dp4910
g4
I00
sg299
I01
sg6
(I00
I00
tp4911
sba(iModules.cell
Cell
p4912
(dp4913
g4
I00
sg299
I01
sg6
(I01
I01
tp4914
sba(iModules.cell
Cell
p4915
(dp4916
g4
I00
sg299
I01
sg6
(I01
I01
tp4917
sba(iModules.cell
Cell
p4918
(dp4919
g4
I00
sg299
I01
sg6
(I01
I01
tp4920
sba(iModules.cell
Cell
p4921
(dp4922
g4
I00
sg299
I01
sg6
(I01
I01
tp4923
sba(iModules.cell
Cell
p4924
(dp4925
g4
I00
sg299
I01
sg6
(I01
I01
tp4926
sba(iModules.cell
Cell
p4927
(dp4928
g4
I00
sg299
I01
sg6
(I01
I01
tp4929
sba(iModules.cell
Cell
p4930
(dp4931
g4
I00
sg299
I01
sg6
(I01
I01
tp4932
sba(iModules.cell
Cell
p4933
(dp4934
g4
I00
sg299
I01
sg6
(I01
I01
tp4935
sba(iModules.cell
Cell
p4936
(dp4937
g4
I00
sg299
I01
sg6
(I01
I01
tp4938
sba(iModules.cell
Cell
p4939
(dp4940
g4
I00
sg299
I01
sg6
(I01
I01
tp4941
sba(iModules.cell
Cell
p4942
(dp4943
g4
I00
sg299
I01
sg6
(I01
I01
tp4944
sba(iModules.cell
Cell
p4945
(dp4946
g4
I00
sg299
I01
sg6
(I01
I01
tp4947
sba(iModules.cell
Cell
p4948
(dp4949
g4
I00
sg299
I01
sg6
(I01
I01
tp4950
sba(iModules.cell
Cell
p4951
(dp4952
g4
I00
sg299
I01
sg6
(I01
I01
tp4953
sba(iModules.cell
Cell
p4954
(dp4955
g4
I00
sg299
I01
sg6
(I01
I01
tp4956
sba(iModules.cell
Cell
p4957
(dp4958
g4
I00
sg299
I01
sg6
(I01
I01
tp4959
sba(iModules.cell
Cell
p4960
(dp4961
g4
I00
sg299
I01
sg6
(I01
I01
tp4962
sba(iModules.cell
Cell
p4963
(dp4964
g4
I00
sg299
I01
sg6
(I01
I01
tp4965
sba(iModules.cell
Cell
p4966
(dp4967
g4
I00
sg299
I01
sg6
(I01
I01
tp4968
sba(iModules.cell
Cell
p4969
(dp4970
g4
I00
sg299
I01
sg6
(I01
I01
tp4971
sba(iModules.cell
Cell
p4972
(dp4973
g4
I00
sg299
I01
sg6
(I01
I01
tp4974
sba(iModules.cell
Cell
p4975
(dp4976
g4
I00
sg299
I01
sg6
(I01
I01
tp4977
sba(iModules.cell
Cell
p4978
(dp4979
g4
I00
sg3727
I01
sg6
(I01
I01
tp4980
sba(iModules.cell
Cell
p4981
(dp4982
g4
I00
sg3727
I01
sg6
(I01
I01
tp4983
sba(iModules.cell
Cell
p4984
(dp4985
g4
I00
sg4256
I01
sg6
(I01
I01
tp4986
sba(iModules.cell
Cell
p4987
(dp4988
g4
I00
sg4256
I01
sg6
(I01
I01
tp4989
sba(iModules.cell
Cell
p4990
(dp4991
g4
I00
sg6
(I01
I01
tp4992
sba(iModules.cell
Cell
p4993
(dp4994
g4
I00
sg6
(I01
I01
tp4995
sba(iModules.cell
Cell
p4996
(dp4997
g4
I00
sg6
(I01
I01
tp4998
sba(iModules.cell
Cell
p4999
(dp5000
g4
I00
sg6
(I01
I01
tp5001
sba(iModules.cell
Cell
p5002
(dp5003
g4
I00
sg6
(I01
I01
tp5004
sba(iModules.cell
Cell
p5005
(dp5006
g4
I00
sg6
(I01
I01
tp5007
sba(iModules.cell
Cell
p5008
(dp5009
g4
I00
sg6
(I01
I01
tp5010
sba(iModules.cell
Cell
p5011
(dp5012
g4
I00
sg6
(I01
I01
tp5013
sba(iModules.cell
Cell
p5014
(dp5015
g4
I00
sg6
(I01
I01
tp5016
sba(iModules.cell
Cell
p5017
(dp5018
g4
I00
sg6
(I01
I01
tp5019
sba(iModules.cell
Cell
p5020
(dp5021
g4
I00
sg6
(I01
I01
tp5022
sba(iModules.cell
Cell
p5023
(dp5024
g4
I00
sg6
(I01
I01
tp5025
sba(iModules.cell
Cell
p5026
(dp5027
g4
I00
sg6
(I01
I01
tp5028
sba(iModules.cell
Cell
p5029
(dp5030
g4
I00
sg6
(I01
I01
tp5031
sba(iModules.cell
Cell
p5032
(dp5033
g4
I00
sg6
(I01
I01
tp5034
sba(iModules.cell
Cell
p5035
(dp5036
g4
I00
sg6
(I01
I01
tp5037
sba(iModules.cell
Cell
p5038
(dp5039
g4
I00
sg6
(I01
I01
tp5040
sba(iModules.cell
Cell
p5041
(dp5042
g4
I00
sg6
(I01
I01
tp5043
sba(iModules.cell
Cell
p5044
(dp5045
g4
I00
sg6
(I01
I01
tp5046
sba(iModules.cell
Cell
p5047
(dp5048
g4
I00
sg6
(I01
I01
tp5049
sba(iModules.cell
Cell
p5050
(dp5051
g4
I00
sg6
(I01
I01
tp5052
sba(iModules.cell
Cell
p5053
(dp5054
g4
I00
sg6
(I01
I01
tp5055
sba(iModules.cell
Cell
p5056
(dp5057
g4
I00
sg6
(I01
I01
tp5058
sba(iModules.cell
Cell
p5059
(dp5060
g4
I00
sg6
(I01
I01
tp5061
sba(iModules.cell
Cell
p5062
(dp5063
g4
I00
sg6
(I01
I01
tp5064
sba(iModules.cell
Cell
p5065
(dp5066
g4
I00
sg6
(I01
I01
tp5067
sba(iModules.cell
Cell
p5068
(dp5069
g4
I00
sg6
(I01
I01
tp5070
sba(iModules.cell
Cell
p5071
(dp5072
g4
I00
sg6
(I01
I01
tp5073
sba(iModules.cell
Cell
p5074
(dp5075
g4
I00
sg6
(I01
I01
tp5076
sba(iModules.cell
Cell
p5077
(dp5078
g4
I00
sg6
(I01
I01
tp5079
sba(iModules.cell
Cell
p5080
(dp5081
g4
I00
sg6
(I01
I01
tp5082
sba(iModules.cell
Cell
p5083
(dp5084
g4
I00
sg6
(I01
I01
tp5085
sba(iModules.cell
Cell
p5086
(dp5087
g4
I00
sg6
(I01
I01
tp5088
sba(iModules.cell
Cell
p5089
(dp5090
g4
I00
sg6
(I00
I00
tp5091
sba(iModules.cell
Cell
p5092
(dp5093
g4
I00
sg6
(I00
I00
tp5094
sba(iModules.cell
Cell
p5095
(dp5096
g4
I00
sg6
(I00
I00
tp5097
sba(iModules.cell
Cell
p5098
(dp5099
g4
I00
sg6
(I00
I00
tp5100
sba(iModules.cell
Cell
p5101
(dp5102
g4
I00
sg6
(I00
I00
tp5103
sba(iModules.cell
Cell
p5104
(dp5105
g4
I00
sg6
(I00
I00
tp5106
sba(iModules.cell
Cell
p5107
(dp5108
g4
I00
sg6
(I00
I00
tp5109
sba(iModules.cell
Cell
p5110
(dp5111
g4
I00
sg6
(I00
I00
tp5112
sba(iModules.cell
Cell
p5113
(dp5114
g4
I00
sg6
(I00
I00
tp5115
sba(iModules.cell
Cell
p5116
(dp5117
g4
I00
sg6
(I00
I00
tp5118
sba(iModules.cell
Cell
p5119
(dp5120
g4
I00
sg6
(I00
I00
tp5121
sba(iModules.cell
Cell
p5122
(dp5123
g4
I00
sg6
(I00
I00
tp5124
sba(iModules.cell
Cell
p5125
(dp5126
g4
I00
sg6
(I00
I00
tp5127
sba(iModules.cell
Cell
p5128
(dp5129
g4
I00
sg6
(I00
I00
tp5130
sba(iModules.cell
Cell
p5131
(dp5132
g4
I00
sg6
(I00
I00
tp5133
sba(iModules.cell
Cell
p5134
(dp5135
g4
I00
sg6
(I00
I00
tp5136
sba(iModules.cell
Cell
p5137
(dp5138
g4
I00
sg6
(I00
I00
tp5139
sba(iModules.cell
Cell
p5140
(dp5141
g4
I00
sg6
(I00
I00
tp5142
sba(iModules.cell
Cell
p5143
(dp5144
g4
I00
sg6
(I00
I00
tp5145
sba(iModules.cell
Cell
p5146
(dp5147
g6
(I00
I00
tp5148
sbaa(lp5149
(iModules.cell
Cell
p5150
(dp5151
g4
I00
sg6
(I00
I00
tp5152
sba(iModules.cell
Cell
p5153
(dp5154
g4
I00
sg299
I01
sg6
(I00
I00
tp5155
sba(iModules.cell
Cell
p5156
(dp5157
g4
I00
sg299
I01
sg6
(I01
I01
tp5158
sba(iModules.cell
Cell
p5159
(dp5160
g4
I00
sg299
I01
sg6
(I01
I01
tp5161
sba(iModules.cell
Cell
p5162
(dp5163
g4
I00
sg299
I01
sg6
(I01
I01
tp5164
sba(iModules.cell
Cell
p5165
(dp5166
g4
I00
sg299
I01
sg6
(I01
I01
tp5167
sba(iModules.cell
Cell
p5168
(dp5169
g4
I00
sg299
I01
sg6
(I01
I01
tp5170
sba(iModules.cell
Cell
p5171
(dp5172
g4
I00
sg299
I01
sg6
(I01
I01
tp5173
sba(iModules.cell
Cell
p5174
(dp5175
g4
I00
sg299
I01
sg6
(I01
I01
tp5176
sba(iModules.cell
Cell
p5177
(dp5178
g4
I00
sg299
I01
sg6
(I01
I01
tp5179
sba(iModules.cell
Cell
p5180
(dp5181
g4
I00
sg299
I01
sg6
(I01
I01
tp5182
sba(iModules.cell
Cell
p5183
(dp5184
g4
I00
sg299
I01
sg6
(I01
I01
tp5185
sba(iModules.cell
Cell
p5186
(dp5187
g4
I00
sg299
I01
sg6
(I01
I01
tp5188
sba(iModules.cell
Cell
p5189
(dp5190
g4
I00
sg299
I01
sg6
(I01
I01
tp5191
sba(iModules.cell
Cell
p5192
(dp5193
g4
I00
sg299
I01
sg6
(I01
I01
tp5194
sba(iModules.cell
Cell
p5195
(dp5196
g4
I00
sg299
I01
sg6
(I01
I01
tp5197
sba(iModules.cell
Cell
p5198
(dp5199
g4
I00
sg299
I01
sg6
(I01
I01
tp5200
sba(iModules.cell
Cell
p5201
(dp5202
g4
I00
sg299
I01
sg6
(I01
I01
tp5203
sba(iModules.cell
Cell
p5204
(dp5205
g4
I00
sg299
I01
sg6
(I01
I01
tp5206
sba(iModules.cell
Cell
p5207
(dp5208
g4
I00
sg299
I01
sg6
(I01
I01
tp5209
sba(iModules.cell
Cell
p5210
(dp5211
g4
I00
sg299
I01
sg6
(I01
I01
tp5212
sba(iModules.cell
Cell
p5213
(dp5214
g4
I00
sg299
I01
sg6
(I01
I01
tp5215
sba(iModules.cell
Cell
p5216
(dp5217
g4
I00
sg299
I01
sg6
(I01
I01
tp5218
sba(iModules.cell
Cell
p5219
(dp5220
g4
I00
sg3727
I01
sg6
(I01
I01
tp5221
sba(iModules.cell
Cell
p5222
(dp5223
g4
I00
sg3727
I01
sg6
(I01
I01
tp5224
sba(iModules.cell
Cell
p5225
(dp5226
g4
I00
sg3727
I01
sg6
(I01
I01
tp5227
sba(iModules.cell
Cell
p5228
(dp5229
g4
I00
sg4256
I01
sg6
(I01
I01
tp5230
sba(iModules.cell
Cell
p5231
(dp5232
g4
I00
sg4256
I01
sg6
(I01
I01
tp5233
sba(iModules.cell
Cell
p5234
(dp5235
g4
I00
sg6
(I01
I01
tp5236
sba(iModules.cell
Cell
p5237
(dp5238
g4
I00
sg6
(I01
I01
tp5239
sba(iModules.cell
Cell
p5240
(dp5241
g4
I00
sg6
(I01
I01
tp5242
sba(iModules.cell
Cell
p5243
(dp5244
g4
I00
sg6
(I01
I01
tp5245
sba(iModules.cell
Cell
p5246
(dp5247
g4
I00
sg6
(I01
I01
tp5248
sba(iModules.cell
Cell
p5249
(dp5250
g4
I00
sg6
(I01
I01
tp5251
sba(iModules.cell
Cell
p5252
(dp5253
g4
I00
sg6
(I01
I01
tp5254
sba(iModules.cell
Cell
p5255
(dp5256
g4
I00
sg6
(I01
I01
tp5257
sba(iModules.cell
Cell
p5258
(dp5259
g4
I00
sg6
(I01
I01
tp5260
sba(iModules.cell
Cell
p5261
(dp5262
g4
I00
sg6
(I01
I01
tp5263
sba(iModules.cell
Cell
p5264
(dp5265
g4
I00
sg6
(I01
I01
tp5266
sba(iModules.cell
Cell
p5267
(dp5268
g4
I00
sg6
(I01
I01
tp5269
sba(iModules.cell
Cell
p5270
(dp5271
g4
I00
sg6
(I01
I01
tp5272
sba(iModules.cell
Cell
p5273
(dp5274
g4
I00
sg6
(I01
I01
tp5275
sba(iModules.cell
Cell
p5276
(dp5277
g4
I00
sg6
(I01
I01
tp5278
sba(iModules.cell
Cell
p5279
(dp5280
g4
I00
sg6
(I01
I01
tp5281
sba(iModules.cell
Cell
p5282
(dp5283
g4
I00
sg6
(I01
I01
tp5284
sba(iModules.cell
Cell
p5285
(dp5286
g4
I00
sg6
(I01
I01
tp5287
sba(iModules.cell
Cell
p5288
(dp5289
g4
I00
sg6
(I01
I01
tp5290
sba(iModules.cell
Cell
p5291
(dp5292
g4
I00
sg6
(I01
I01
tp5293
sba(iModules.cell
Cell
p5294
(dp5295
g4
I00
sg6
(I01
I01
tp5296
sba(iModules.cell
Cell
p5297
(dp5298
g4
I00
sg6
(I01
I01
tp5299
sba(iModules.cell
Cell
p5300
(dp5301
g4
I00
sg6
(I01
I01
tp5302
sba(iModules.cell
Cell
p5303
(dp5304
g4
I00
sg6
(I01
I01
tp5305
sba(iModules.cell
Cell
p5306
(dp5307
g4
I00
sg6
(I01
I01
tp5308
sba(iModules.cell
Cell
p5309
(dp5310
g4
I00
sg6
(I01
I01
tp5311
sba(iModules.cell
Cell
p5312
(dp5313
g4
I00
sg6
(I01
I01
tp5314
sba(iModules.cell
Cell
p5315
(dp5316
g4
I00
sg6
(I01
I01
tp5317
sba(iModules.cell
Cell
p5318
(dp5319
g4
I00
sg6
(I01
I01
tp5320
sba(iModules.cell
Cell
p5321
(dp5322
g4
I00
sg6
(I01
I01
tp5323
sba(iModules.cell
Cell
p5324
(dp5325
g4
I00
sg6
(I01
I01
tp5326
sba(iModules.cell
Cell
p5327
(dp5328
g4
I00
sg6
(I01
I01
tp5329
sba(iModules.cell
Cell
p5330
(dp5331
g4
I00
sg6
(I01
I01
tp5332
sba(iModules.cell
Cell
p5333
(dp5334
g4
I00
sg6
(I00
I00
tp5335
sba(iModules.cell
Cell
p5336
(dp5337
g4
I00
sg6
(I00
I00
tp5338
sba(iModules.cell
Cell
p5339
(dp5340
g4
I00
sg6
(I00
I00
tp5341
sba(iModules.cell
Cell
p5342
(dp5343
g4
I00
sg6
(I00
I00
tp5344
sba(iModules.cell
Cell
p5345
(dp5346
g4
I00
sg6
(I00
I00
tp5347
sba(iModules.cell
Cell
p5348
(dp5349
g4
I00
sg6
(I00
I00
tp5350
sba(iModules.cell
Cell
p5351
(dp5352
g4
I00
sg6
(I00
I00
tp5353
sba(iModules.cell
Cell
p5354
(dp5355
g4
I00
sg6
(I00
I00
tp5356
sba(iModules.cell
Cell
p5357
(dp5358
g4
I00
sg6
(I00
I00
tp5359
sba(iModules.cell
Cell
p5360
(dp5361
g4
I00
sg6
(I00
I00
tp5362
sba(iModules.cell
Cell
p5363
(dp5364
g4
I00
sg6
(I00
I00
tp5365
sba(iModules.cell
Cell
p5366
(dp5367
g4
I00
sg6
(I00
I00
tp5368
sba(iModules.cell
Cell
p5369
(dp5370
g4
I00
sg6
(I00
I00
tp5371
sba(iModules.cell
Cell
p5372
(dp5373
g4
I00
sg6
(I00
I00
tp5374
sba(iModules.cell
Cell
p5375
(dp5376
g4
I00
sg6
(I00
I00
tp5377
sba(iModules.cell
Cell
p5378
(dp5379
g4
I00
sg6
(I00
I00
tp5380
sba(iModules.cell
Cell
p5381
(dp5382
g4
I00
sg6
(I00
I00
tp5383
sba(iModules.cell
Cell
p5384
(dp5385
g4
I00
sg6
(I00
I00
tp5386
sba(iModules.cell
Cell
p5387
(dp5388
g4
I00
sg6
(I00
I00
tp5389
sba(iModules.cell
Cell
p5390
(dp5391
g6
(I00
I00
tp5392
sbaa(lp5393
(iModules.cell
Cell
p5394
(dp5395
g4
I00
sg6
(I00
I00
tp5396
sba(iModules.cell
Cell
p5397
(dp5398
g4
I00
sg299
I01
sg6
(I00
I00
tp5399
sba(iModules.cell
Cell
p5400
(dp5401
g4
I00
sg299
I01
sg6
(I00
I00
tp5402
sba(iModules.cell
Cell
p5403
(dp5404
g4
I00
sg299
I01
sg6
(I00
I00
tp5405
sba(iModules.cell
Cell
p5406
(dp5407
g4
I00
sg299
I01
sg6
(I00
I00
tp5408
sba(iModules.cell
Cell
p5409
(dp5410
g4
I00
sg299
I01
sg6
(I00
I00
tp5411
sba(iModules.cell
Cell
p5412
(dp5413
g4
I00
sg299
I01
sg6
(I00
I00
tp5414
sba(iModules.cell
Cell
p5415
(dp5416
g4
I00
sg299
I01
sg6
(I00
I00
tp5417
sba(iModules.cell
Cell
p5418
(dp5419
g4
I00
sg299
I01
sg6
(I00
I00
tp5420
sba(iModules.cell
Cell
p5421
(dp5422
g4
I00
sg299
I01
sg6
(I00
I00
tp5423
sba(iModules.cell
Cell
p5424
(dp5425
g4
I00
sg299
I01
sg6
(I00
I00
tp5426
sba(iModules.cell
Cell
p5427
(dp5428
g4
I00
sg299
I01
sg6
(I00
I00
tp5429
sba(iModules.cell
Cell
p5430
(dp5431
g4
I00
sg299
I01
sg6
(I00
I00
tp5432
sba(iModules.cell
Cell
p5433
(dp5434
g4
I00
sg299
I01
sg6
(I00
I00
tp5435
sba(iModules.cell
Cell
p5436
(dp5437
g4
I00
sg299
I01
sg6
(I00
I00
tp5438
sba(iModules.cell
Cell
p5439
(dp5440
g4
I00
sg299
I01
sg6
(I00
I00
tp5441
sba(iModules.cell
Cell
p5442
(dp5443
g4
I00
sg299
I01
sg6
(I00
I00
tp5444
sba(iModules.cell
Cell
p5445
(dp5446
g4
I00
sg299
I01
sg6
(I00
I00
tp5447
sba(iModules.cell
Cell
p5448
(dp5449
g4
I00
sg299
I01
sg6
(I00
I00
tp5450
sba(iModules.cell
Cell
p5451
(dp5452
g4
I00
sg299
I01
sg6
(I00
I00
tp5453
sba(iModules.cell
Cell
p5454
(dp5455
g4
I00
sg299
I01
sg6
(I00
I00
tp5456
sba(iModules.cell
Cell
p5457
(dp5458
g4
I00
sg299
I01
sg6
(I00
I00
tp5459
sba(iModules.cell
Cell
p5460
(dp5461
g4
I00
sg3727
I01
sg6
(I00
I00
tp5462
sba(iModules.cell
Cell
p5463
(dp5464
g4
I00
sg3727
I01
sg6
(I00
I00
tp5465
sba(iModules.cell
Cell
p5466
(dp5467
g4
I00
sg3727
I01
sg6
(I00
I00
tp5468
sba(iModules.cell
Cell
p5469
(dp5470
g4
I00
sg3727
I01
sg6
(I00
I00
tp5471
sba(iModules.cell
Cell
p5472
(dp5473
g4
I00
sg4256
I01
sg6
(I00
I00
tp5474
sba(iModules.cell
Cell
p5475
(dp5476
g4
I00
sg4256
I01
sg6
(I00
I00
tp5477
sba(iModules.cell
Cell
p5478
(dp5479
g4
I00
sg6
(I00
I00
tp5480
sba(iModules.cell
Cell
p5481
(dp5482
g4
I00
sg6
(I00
I00
tp5483
sba(iModules.cell
Cell
p5484
(dp5485
g4
I00
sg6
(I00
I00
tp5486
sba(iModules.cell
Cell
p5487
(dp5488
g4
I00
sg6
(I00
I00
tp5489
sba(iModules.cell
Cell
p5490
(dp5491
g4
I00
sg6
(I00
I00
tp5492
sba(iModules.cell
Cell
p5493
(dp5494
g4
I00
sg6
(I00
I00
tp5495
sba(iModules.cell
Cell
p5496
(dp5497
g4
I00
sg6
(I00
I00
tp5498
sba(iModules.cell
Cell
p5499
(dp5500
g4
I00
sg6
(I00
I00
tp5501
sba(iModules.cell
Cell
p5502
(dp5503
g4
I00
sg6
(I00
I00
tp5504
sba(iModules.cell
Cell
p5505
(dp5506
g4
I00
sg6
(I00
I00
tp5507
sba(iModules.cell
Cell
p5508
(dp5509
g4
I00
sg6
(I00
I00
tp5510
sba(iModules.cell
Cell
p5511
(dp5512
g4
I00
sg6
(I00
I00
tp5513
sba(iModules.cell
Cell
p5514
(dp5515
g4
I00
sg6
(I00
I00
tp5516
sba(iModules.cell
Cell
p5517
(dp5518
g4
I00
sg6
(I00
I00
tp5519
sba(iModules.cell
Cell
p5520
(dp5521
g4
I00
sg6
(I00
I00
tp5522
sba(iModules.cell
Cell
p5523
(dp5524
g4
I00
sg6
(I00
I00
tp5525
sba(iModules.cell
Cell
p5526
(dp5527
g4
I00
sg6
(I00
I00
tp5528
sba(iModules.cell
Cell
p5529
(dp5530
g4
I00
sg6
(I00
I00
tp5531
sba(iModules.cell
Cell
p5532
(dp5533
g4
I00
sg6
(I00
I00
tp5534
sba(iModules.cell
Cell
p5535
(dp5536
g4
I00
sg6
(I00
I00
tp5537
sba(iModules.cell
Cell
p5538
(dp5539
g4
I00
sg6
(I00
I00
tp5540
sba(iModules.cell
Cell
p5541
(dp5542
g4
I00
sg6
(I00
I00
tp5543
sba(iModules.cell
Cell
p5544
(dp5545
g4
I00
sg6
(I00
I00
tp5546
sba(iModules.cell
Cell
p5547
(dp5548
g4
I00
sg6
(I00
I00
tp5549
sba(iModules.cell
Cell
p5550
(dp5551
g4
I00
sg6
(I00
I00
tp5552
sba(iModules.cell
Cell
p5553
(dp5554
g4
I00
sg6
(I00
I00
tp5555
sba(iModules.cell
Cell
p5556
(dp5557
g4
I00
sg6
(I00
I00
tp5558
sba(iModules.cell
Cell
p5559
(dp5560
g4
I00
sg6
(I00
I00
tp5561
sba(iModules.cell
Cell
p5562
(dp5563
g4
I00
sg6
(I00
I00
tp5564
sba(iModules.cell
Cell
p5565
(dp5566
g4
I00
sg6
(I00
I00
tp5567
sba(iModules.cell
Cell
p5568
(dp5569
g4
I00
sg6
(I00
I00
tp5570
sba(iModules.cell
Cell
p5571
(dp5572
g4
I00
sg6
(I00
I00
tp5573
sba(iModules.cell
Cell
p5574
(dp5575
g4
I00
sg6
(I00
I00
tp5576
sba(iModules.cell
Cell
p5577
(dp5578
g4
I00
sg6
(I00
I00
tp5579
sba(iModules.cell
Cell
p5580
(dp5581
g4
I00
sg6
(I00
I00
tp5582
sba(iModules.cell
Cell
p5583
(dp5584
g4
I00
sg6
(I00
I00
tp5585
sba(iModules.cell
Cell
p5586
(dp5587
g4
I00
sg6
(I00
I00
tp5588
sba(iModules.cell
Cell
p5589
(dp5590
g4
I00
sg6
(I00
I00
tp5591
sba(iModules.cell
Cell
p5592
(dp5593
g4
I00
sg6
(I00
I00
tp5594
sba(iModules.cell
Cell
p5595
(dp5596
g4
I00
sg6
(I00
I00
tp5597
sba(iModules.cell
Cell
p5598
(dp5599
g4
I00
sg6
(I00
I00
tp5600
sba(iModules.cell
Cell
p5601
(dp5602
g4
I00
sg6
(I00
I00
tp5603
sba(iModules.cell
Cell
p5604
(dp5605
g4
I00
sg6
(I00
I00
tp5606
sba(iModules.cell
Cell
p5607
(dp5608
g4
I00
sg6
(I00
I00
tp5609
sba(iModules.cell
Cell
p5610
(dp5611
g4
I00
sg6
(I00
I00
tp5612
sba(iModules.cell
Cell
p5613
(dp5614
g4
I00
sg6
(I00
I00
tp5615
sba(iModules.cell
Cell
p5616
(dp5617
g4
I00
sg6
(I00
I00
tp5618
sba(iModules.cell
Cell
p5619
(dp5620
g4
I00
sg6
(I00
I00
tp5621
sba(iModules.cell
Cell
p5622
(dp5623
g4
I00
sg6
(I00
I00
tp5624
sba(iModules.cell
Cell
p5625
(dp5626
g4
I00
sg6
(I00
I00
tp5627
sba(iModules.cell
Cell
p5628
(dp5629
g4
I00
sg6
(I00
I00
tp5630
sba(iModules.cell
Cell
p5631
(dp5632
g4
I00
sg6
(I00
I00
tp5633
sba(iModules.cell
Cell
p5634
(dp5635
g6
(I00
I00
tp5636
sbaa(lp5637
(iModules.cell
Cell
p5638
(dp5639
g6
(I00
I00
tp5640
sba(iModules.cell
Cell
p5641
(dp5642
g6
(I00
I00
tp5643
sba(iModules.cell
Cell
p5644
(dp5645
g6
(I00
I00
tp5646
sba(iModules.cell
Cell
p5647
(dp5648
g6
(I00
I00
tp5649
sba(iModules.cell
Cell
p5650
(dp5651
g6
(I00
I00
tp5652
sba(iModules.cell
Cell
p5653
(dp5654
g6
(I00
I00
tp5655
sba(iModules.cell
Cell
p5656
(dp5657
g6
(I00
I00
tp5658
sba(iModules.cell
Cell
p5659
(dp5660
g6
(I00
I00
tp5661
sba(iModules.cell
Cell
p5662
(dp5663
g6
(I00
I00
tp5664
sba(iModules.cell
Cell
p5665
(dp5666
g6
(I00
I00
tp5667
sba(iModules.cell
Cell
p5668
(dp5669
g6
(I00
I00
tp5670
sba(iModules.cell
Cell
p5671
(dp5672
g6
(I00
I00
tp5673
sba(iModules.cell
Cell
p5674
(dp5675
g6
(I00
I00
tp5676
sba(iModules.cell
Cell
p5677
(dp5678
g6
(I00
I00
tp5679
sba(iModules.cell
Cell
p5680
(dp5681
g6
(I00
I00
tp5682
sba(iModules.cell
Cell
p5683
(dp5684
g6
(I00
I00
tp5685
sba(iModules.cell
Cell
p5686
(dp5687
g6
(I00
I00
tp5688
sba(iModules.cell
Cell
p5689
(dp5690
g6
(I00
I00
tp5691
sba(iModules.cell
Cell
p5692
(dp5693
g6
(I00
I00
tp5694
sba(iModules.cell
Cell
p5695
(dp5696
g6
(I00
I00
tp5697
sba(iModules.cell
Cell
p5698
(dp5699
g6
(I00
I00
tp5700
sba(iModules.cell
Cell
p5701
(dp5702
g6
(I00
I00
tp5703
sba(iModules.cell
Cell
p5704
(dp5705
g6
(I00
I00
tp5706
sba(iModules.cell
Cell
p5707
(dp5708
g6
(I00
I00
tp5709
sba(iModules.cell
Cell
p5710
(dp5711
g6
(I00
I00
tp5712
sba(iModules.cell
Cell
p5713
(dp5714
g6
(I00
I00
tp5715
sba(iModules.cell
Cell
p5716
(dp5717
g6
(I00
I00
tp5718
sba(iModules.cell
Cell
p5719
(dp5720
g6
(I00
I00
tp5721
sba(iModules.cell
Cell
p5722
(dp5723
g6
(I00
I00
tp5724
sba(iModules.cell
Cell
p5725
(dp5726
g6
(I00
I00
tp5727
sba(iModules.cell
Cell
p5728
(dp5729
g6
(I00
I00
tp5730
sba(iModules.cell
Cell
p5731
(dp5732
g6
(I00
I00
tp5733
sba(iModules.cell
Cell
p5734
(dp5735
g6
(I00
I00
tp5736
sba(iModules.cell
Cell
p5737
(dp5738
g6
(I00
I00
tp5739
sba(iModules.cell
Cell
p5740
(dp5741
g6
(I00
I00
tp5742
sba(iModules.cell
Cell
p5743
(dp5744
g6
(I00
I00
tp5745
sba(iModules.cell
Cell
p5746
(dp5747
g6
(I00
I00
tp5748
sba(iModules.cell
Cell
p5749
(dp5750
g6
(I00
I00
tp5751
sba(iModules.cell
Cell
p5752
(dp5753
g6
(I00
I00
tp5754
sba(iModules.cell
Cell
p5755
(dp5756
g6
(I00
I00
tp5757
sba(iModules.cell
Cell
p5758
(dp5759
g6
(I00
I00
tp5760
sba(iModules.cell
Cell
p5761
(dp5762
g6
(I00
I00
tp5763
sba(iModules.cell
Cell
p5764
(dp5765
g6
(I00
I00
tp5766
sba(iModules.cell
Cell
p5767
(dp5768
g6
(I00
I00
tp5769
sba(iModules.cell
Cell
p5770
(dp5771
g6
(I00
I00
tp5772
sba(iModules.cell
Cell
p5773
(dp5774
g6
(I00
I00
tp5775
sba(iModules.cell
Cell
p5776
(dp5777
g6
(I00
I00
tp5778
sba(iModules.cell
Cell
p5779
(dp5780
g6
(I00
I00
tp5781
sba(iModules.cell
Cell
p5782
(dp5783
g6
(I00
I00
tp5784
sba(iModules.cell
Cell
p5785
(dp5786
g6
(I00
I00
tp5787
sba(iModules.cell
Cell
p5788
(dp5789
g6
(I00
I00
tp5790
sba(iModules.cell
Cell
p5791
(dp5792
g6
(I00
I00
tp5793
sba(iModules.cell
Cell
p5794
(dp5795
g6
(I00
I00
tp5796
sba(iModules.cell
Cell
p5797
(dp5798
g6
(I00
I00
tp5799
sba(iModules.cell
Cell
p5800
(dp5801
g6
(I00
I00
tp5802
sba(iModules.cell
Cell
p5803
(dp5804
g6
(I00
I00
tp5805
sba(iModules.cell
Cell
p5806
(dp5807
g6
(I00
I00
tp5808
sba(iModules.cell
Cell
p5809
(dp5810
g6
(I00
I00
tp5811
sba(iModules.cell
Cell
p5812
(dp5813
g6
(I00
I00
tp5814
sba(iModules.cell
Cell
p5815
(dp5816
g6
(I00
I00
tp5817
sba(iModules.cell
Cell
p5818
(dp5819
g6
(I00
I00
tp5820
sba(iModules.cell
Cell
p5821
(dp5822
g6
(I00
I00
tp5823
sba(iModules.cell
Cell
p5824
(dp5825
g6
(I00
I00
tp5826
sba(iModules.cell
Cell
p5827
(dp5828
g6
(I00
I00
tp5829
sba(iModules.cell
Cell
p5830
(dp5831
g6
(I00
I00
tp5832
sba(iModules.cell
Cell
p5833
(dp5834
g6
(I00
I00
tp5835
sba(iModules.cell
Cell
p5836
(dp5837
g6
(I00
I00
tp5838
sba(iModules.cell
Cell
p5839
(dp5840
g6
(I00
I00
tp5841
sba(iModules.cell
Cell
p5842
(dp5843
g6
(I00
I00
tp5844
sba(iModules.cell
Cell
p5845
(dp5846
g6
(I00
I00
tp5847
sba(iModules.cell
Cell
p5848
(dp5849
g6
(I00
I00
tp5850
sba(iModules.cell
Cell
p5851
(dp5852
g6
(I00
I00
tp5853
sba(iModules.cell
Cell
p5854
(dp5855
g6
(I00
I00
tp5856
sba(iModules.cell
Cell
p5857
(dp5858
g6
(I00
I00
tp5859
sba(iModules.cell
Cell
p5860
(dp5861
g6
(I00
I00
tp5862
sba(iModules.cell
Cell
p5863
(dp5864
g6
(I00
I00
tp5865
sba(iModules.cell
Cell
p5866
(dp5867
g6
(I00
I00
tp5868
sba(iModules.cell
Cell
p5869
(dp5870
g6
(I00
I00
tp5871
sba(iModules.cell
Cell
p5872
(dp5873
g6
(I00
I00
tp5874
sba(iModules.cell
Cell
p5875
(dp5876
g6
(I00
I00
tp5877
sba(iModules.cell
Cell
p5878
(dp5879
g6
(I00
I00
tp5880
sbaa(lp5881
(iModules.cell
Cell
p5882
(dp5883
g6
(I00
I00
tp5884
sba(iModules.cell
Cell
p5885
(dp5886
g6
(I00
I00
tp5887
sba(iModules.cell
Cell
p5888
(dp5889
g6
(I00
I00
tp5890
sba(iModules.cell
Cell
p5891
(dp5892
g6
(I00
I00
tp5893
sba(iModules.cell
Cell
p5894
(dp5895
g6
(I00
I00
tp5896
sba(iModules.cell
Cell
p5897
(dp5898
g6
(I00
I00
tp5899
sba(iModules.cell
Cell
p5900
(dp5901
g6
(I00
I00
tp5902
sba(iModules.cell
Cell
p5903
(dp5904
g6
(I00
I00
tp5905
sba(iModules.cell
Cell
p5906
(dp5907
g6
(I00
I00
tp5908
sba(iModules.cell
Cell
p5909
(dp5910
g6
(I00
I00
tp5911
sba(iModules.cell
Cell
p5912
(dp5913
g6
(I00
I00
tp5914
sba(iModules.cell
Cell
p5915
(dp5916
g6
(I00
I00
tp5917
sba(iModules.cell
Cell
p5918
(dp5919
g6
(I00
I00
tp5920
sba(iModules.cell
Cell
p5921
(dp5922
g6
(I00
I00
tp5923
sba(iModules.cell
Cell
p5924
(dp5925
g6
(I00
I00
tp5926
sba(iModules.cell
Cell
p5927
(dp5928
g6
(I00
I00
tp5929
sba(iModules.cell
Cell
p5930
(dp5931
g6
(I00
I00
tp5932
sba(iModules.cell
Cell
p5933
(dp5934
g6
(I00
I00
tp5935
sba(iModules.cell
Cell
p5936
(dp5937
g6
(I00
I00
tp5938
sba(iModules.cell
Cell
p5939
(dp5940
g6
(I00
I00
tp5941
sba(iModules.cell
Cell
p5942
(dp5943
g6
(I00
I00
tp5944
sba(iModules.cell
Cell
p5945
(dp5946
g6
(I00
I00
tp5947
sba(iModules.cell
Cell
p5948
(dp5949
g6
(I00
I00
tp5950
sba(iModules.cell
Cell
p5951
(dp5952
g6
(I00
I00
tp5953
sba(iModules.cell
Cell
p5954
(dp5955
g6
(I00
I00
tp5956
sba(iModules.cell
Cell
p5957
(dp5958
g6
(I00
I00
tp5959
sba(iModules.cell
Cell
p5960
(dp5961
g6
(I00
I00
tp5962
sba(iModules.cell
Cell
p5963
(dp5964
g6
(I00
I00
tp5965
sba(iModules.cell
Cell
p5966
(dp5967
g6
(I00
I00
tp5968
sba(iModules.cell
Cell
p5969
(dp5970
g6
(I00
I00
tp5971
sba(iModules.cell
Cell
p5972
(dp5973
g6
(I00
I00
tp5974
sba(iModules.cell
Cell
p5975
(dp5976
g6
(I00
I00
tp5977
sba(iModules.cell
Cell
p5978
(dp5979
g6
(I00
I00
tp5980
sba(iModules.cell
Cell
p5981
(dp5982
g6
(I00
I00
tp5983
sba(iModules.cell
Cell
p5984
(dp5985
g6
(I00
I00
tp5986
sba(iModules.cell
Cell
p5987
(dp5988
g6
(I00
I00
tp5989
sba(iModules.cell
Cell
p5990
(dp5991
g6
(I00
I00
tp5992
sba(iModules.cell
Cell
p5993
(dp5994
g6
(I00
I00
tp5995
sba(iModules.cell
Cell
p5996
(dp5997
g6
(I00
I00
tp5998
sba(iModules.cell
Cell
p5999
(dp6000
g6
(I00
I00
tp6001
sba(iModules.cell
Cell
p6002
(dp6003
g6
(I00
I00
tp6004
sba(iModules.cell
Cell
p6005
(dp6006
g6
(I00
I00
tp6007
sba(iModules.cell
Cell
p6008
(dp6009
g6
(I00
I00
tp6010
sba(iModules.cell
Cell
p6011
(dp6012
g6
(I00
I00
tp6013
sba(iModules.cell
Cell
p6014
(dp6015
g6
(I00
I00
tp6016
sba(iModules.cell
Cell
p6017
(dp6018
g6
(I00
I00
tp6019
sba(iModules.cell
Cell
p6020
(dp6021
g6
(I00
I00
tp6022
sba(iModules.cell
Cell
p6023
(dp6024
g6
(I00
I00
tp6025
sba(iModules.cell
Cell
p6026
(dp6027
g6
(I00
I00
tp6028
sba(iModules.cell
Cell
p6029
(dp6030
g6
(I00
I00
tp6031
sba(iModules.cell
Cell
p6032
(dp6033
g6
(I00
I00
tp6034
sba(iModules.cell
Cell
p6035
(dp6036
g6
(I00
I00
tp6037
sba(iModules.cell
Cell
p6038
(dp6039
g6
(I00
I00
tp6040
sba(iModules.cell
Cell
p6041
(dp6042
g6
(I00
I00
tp6043
sba(iModules.cell
Cell
p6044
(dp6045
g6
(I00
I00
tp6046
sba(iModules.cell
Cell
p6047
(dp6048
g6
(I00
I00
tp6049
sba(iModules.cell
Cell
p6050
(dp6051
g6
(I00
I00
tp6052
sba(iModules.cell
Cell
p6053
(dp6054
g6
(I00
I00
tp6055
sba(iModules.cell
Cell
p6056
(dp6057
g6
(I00
I00
tp6058
sba(iModules.cell
Cell
p6059
(dp6060
g6
(I00
I00
tp6061
sba(iModules.cell
Cell
p6062
(dp6063
g6
(I00
I00
tp6064
sba(iModules.cell
Cell
p6065
(dp6066
g6
(I00
I00
tp6067
sba(iModules.cell
Cell
p6068
(dp6069
g6
(I00
I00
tp6070
sba(iModules.cell
Cell
p6071
(dp6072
g6
(I00
I00
tp6073
sba(iModules.cell
Cell
p6074
(dp6075
g6
(I00
I00
tp6076
sba(iModules.cell
Cell
p6077
(dp6078
g6
(I00
I00
tp6079
sba(iModules.cell
Cell
p6080
(dp6081
g6
(I00
I00
tp6082
sba(iModules.cell
Cell
p6083
(dp6084
g6
(I00
I00
tp6085
sba(iModules.cell
Cell
p6086
(dp6087
g6
(I00
I00
tp6088
sba(iModules.cell
Cell
p6089
(dp6090
g6
(I00
I00
tp6091
sba(iModules.cell
Cell
p6092
(dp6093
g6
(I00
I00
tp6094
sba(iModules.cell
Cell
p6095
(dp6096
g6
(I00
I00
tp6097
sba(iModules.cell
Cell
p6098
(dp6099
g6
(I00
I00
tp6100
sba(iModules.cell
Cell
p6101
(dp6102
g6
(I00
I00
tp6103
sba(iModules.cell
Cell
p6104
(dp6105
g6
(I00
I00
tp6106
sba(iModules.cell
Cell
p6107
(dp6108
g6
(I00
I00
tp6109
sba(iModules.cell
Cell
p6110
(dp6111
g6
(I00
I00
tp6112
sba(iModules.cell
Cell
p6113
(dp6114
g6
(I00
I00
tp6115
sba(iModules.cell
Cell
p6116
(dp6117
g6
(I00
I00
tp6118
sba(iModules.cell
Cell
p6119
(dp6120
g6
(I00
I00
tp6121
sba(iModules.cell
Cell
p6122
(dp6123
g6
(I00
I00
tp6124
sbaa.