(lp0
(lp1
(iModules.cell
Cell
p2
(dp3
S'fov'
p4
I00
sS'visible'
p5
I00
sS'turns'
p6
I535
sS'hp'
p7
I30
sS'pc'
p8
(lp9
I3
aI6
asS'type'
p10
(I00
I00
tp11
sba(iModules.cell
Cell
p12
(dp13
g5
I00
sg10
(I00
I00
tp14
sba(iModules.cell
Cell
p15
(dp16
g5
I00
sg10
(I00
I00
tp17
sba(iModules.cell
Cell
p18
(dp19
g5
I00
sg10
(I00
I00
tp20
sba(iModules.cell
Cell
p21
(dp22
g5
I00
sg10
(I00
I00
tp23
sba(iModules.cell
Cell
p24
(dp25
g5
I00
sg10
(I00
I00
tp26
sba(iModules.cell
Cell
p27
(dp28
g5
I00
sg10
(I00
I00
tp29
sba(iModules.cell
Cell
p30
(dp31
g5
I00
sg10
(I00
I00
tp32
sba(iModules.cell
Cell
p33
(dp34
g5
I00
sg10
(I00
I00
tp35
sba(iModules.cell
Cell
p36
(dp37
g5
I00
sg10
(I00
I00
tp38
sba(iModules.cell
Cell
p39
(dp40
g5
I00
sg10
(I00
I00
tp41
sba(iModules.cell
Cell
p42
(dp43
g5
I00
sg10
(I00
I00
tp44
sba(iModules.cell
Cell
p45
(dp46
g5
I00
sg10
(I00
I00
tp47
sba(iModules.cell
Cell
p48
(dp49
g5
I00
sg10
(I00
I00
tp50
sba(iModules.cell
Cell
p51
(dp52
g5
I00
sg10
(I00
I00
tp53
sba(iModules.cell
Cell
p54
(dp55
g5
I00
sg10
(I00
I00
tp56
sba(iModules.cell
Cell
p57
(dp58
g5
I00
sg10
(I00
I00
tp59
sba(iModules.cell
Cell
p60
(dp61
g5
I00
sg10
(I00
I00
tp62
sba(iModules.cell
Cell
p63
(dp64
g5
I00
sg10
(I00
I00
tp65
sba(iModules.cell
Cell
p66
(dp67
g5
I00
sg10
(I00
I00
tp68
sba(iModules.cell
Cell
p69
(dp70
g5
I00
sg10
(I00
I00
tp71
sba(iModules.cell
Cell
p72
(dp73
g5
I00
sg10
(I00
I00
tp74
sba(iModules.cell
Cell
p75
(dp76
g5
I00
sg10
(I00
I00
tp77
sba(iModules.cell
Cell
p78
(dp79
g5
I00
sg10
(I00
I00
tp80
sba(iModules.cell
Cell
p81
(dp82
g5
I00
sg10
(I00
I00
tp83
sba(iModules.cell
Cell
p84
(dp85
g5
I00
sg10
(I00
I00
tp86
sba(iModules.cell
Cell
p87
(dp88
g5
I00
sg10
(I00
I00
tp89
sba(iModules.cell
Cell
p90
(dp91
g5
I00
sg10
(I00
I00
tp92
sba(iModules.cell
Cell
p93
(dp94
g5
I00
sg10
(I00
I00
tp95
sba(iModules.cell
Cell
p96
(dp97
g5
I00
sg10
(I00
I00
tp98
sba(iModules.cell
Cell
p99
(dp100
g5
I00
sg10
(I00
I00
tp101
sba(iModules.cell
Cell
p102
(dp103
g5
I00
sg10
(I00
I00
tp104
sba(iModules.cell
Cell
p105
(dp106
g5
I00
sg10
(I00
I00
tp107
sba(iModules.cell
Cell
p108
(dp109
g5
I00
sg10
(I00
I00
tp110
sba(iModules.cell
Cell
p111
(dp112
g5
I00
sg10
(I00
I00
tp113
sba(iModules.cell
Cell
p114
(dp115
g5
I00
sg10
(I00
I00
tp116
sba(iModules.cell
Cell
p117
(dp118
g5
I00
sg10
(I00
I00
tp119
sba(iModules.cell
Cell
p120
(dp121
g5
I00
sg10
(I00
I00
tp122
sba(iModules.cell
Cell
p123
(dp124
g5
I00
sg10
(I00
I00
tp125
sba(iModules.cell
Cell
p126
(dp127
g5
I00
sg10
(I00
I00
tp128
sba(iModules.cell
Cell
p129
(dp130
g5
I00
sg10
(I00
I00
tp131
sba(iModules.cell
Cell
p132
(dp133
g5
I00
sg10
(I00
I00
tp134
sba(iModules.cell
Cell
p135
(dp136
g5
I00
sg10
(I00
I00
tp137
sba(iModules.cell
Cell
p138
(dp139
g5
I00
sg10
(I00
I00
tp140
sba(iModules.cell
Cell
p141
(dp142
g5
I00
sg10
(I00
I00
tp143
sba(iModules.cell
Cell
p144
(dp145
g5
I00
sg10
(I00
I00
tp146
sba(iModules.cell
Cell
p147
(dp148
g5
I00
sg10
(I00
I00
tp149
sba(iModules.cell
Cell
p150
(dp151
g5
I00
sg10
(I00
I00
tp152
sba(iModules.cell
Cell
p153
(dp154
g5
I00
sg10
(I00
I00
tp155
sba(iModules.cell
Cell
p156
(dp157
g5
I00
sg10
(I00
I00
tp158
sba(iModules.cell
Cell
p159
(dp160
g5
I00
sg10
(I00
I00
tp161
sba(iModules.cell
Cell
p162
(dp163
g5
I00
sg10
(I00
I00
tp164
sba(iModules.cell
Cell
p165
(dp166
g5
I00
sg10
(I00
I00
tp167
sba(iModules.cell
Cell
p168
(dp169
g5
I00
sg10
(I00
I00
tp170
sba(iModules.cell
Cell
p171
(dp172
g5
I00
sg10
(I00
I00
tp173
sba(iModules.cell
Cell
p174
(dp175
g5
I00
sg10
(I00
I00
tp176
sba(iModules.cell
Cell
p177
(dp178
g5
I00
sg10
(I00
I00
tp179
sba(iModules.cell
Cell
p180
(dp181
g5
I00
sg10
(I00
I00
tp182
sba(iModules.cell
Cell
p183
(dp184
g5
I00
sg10
(I00
I00
tp185
sba(iModules.cell
Cell
p186
(dp187
g5
I00
sg10
(I00
I00
tp188
sba(iModules.cell
Cell
p189
(dp190
g5
I00
sg10
(I00
I00
tp191
sba(iModules.cell
Cell
p192
(dp193
g5
I00
sg10
(I00
I00
tp194
sba(iModules.cell
Cell
p195
(dp196
g5
I00
sg10
(I00
I00
tp197
sba(iModules.cell
Cell
p198
(dp199
g5
I00
sg10
(I00
I00
tp200
sba(iModules.cell
Cell
p201
(dp202
g5
I00
sg10
(I00
I00
tp203
sba(iModules.cell
Cell
p204
(dp205
g5
I00
sg10
(I00
I00
tp206
sba(iModules.cell
Cell
p207
(dp208
g5
I00
sg10
(I00
I00
tp209
sba(iModules.cell
Cell
p210
(dp211
g5
I00
sg10
(I00
I00
tp212
sba(iModules.cell
Cell
p213
(dp214
g5
I00
sg10
(I00
I00
tp215
sba(iModules.cell
Cell
p216
(dp217
g5
I00
sg10
(I00
I00
tp218
sba(iModules.cell
Cell
p219
(dp220
g5
I00
sg10
(I00
I00
tp221
sba(iModules.cell
Cell
p222
(dp223
g5
I00
sg10
(I00
I00
tp224
sba(iModules.cell
Cell
p225
(dp226
g5
I00
sg10
(I00
I00
tp227
sba(iModules.cell
Cell
p228
(dp229
g5
I00
sg10
(I00
I00
tp230
sba(iModules.cell
Cell
p231
(dp232
g5
I00
sg10
(I00
I00
tp233
sba(iModules.cell
Cell
p234
(dp235
g5
I00
sg10
(I00
I00
tp236
sba(iModules.cell
Cell
p237
(dp238
g5
I00
sg10
(I00
I00
tp239
sba(iModules.cell
Cell
p240
(dp241
g5
I00
sg10
(I00
I00
tp242
sba(iModules.cell
Cell
p243
(dp244
g5
I00
sg10
(I00
I00
tp245
sba(iModules.cell
Cell
p246
(dp247
g5
I00
sg10
(I00
I00
tp248
sba(iModules.cell
Cell
p249
(dp250
g10
(I00
I00
tp251
sbaa(lp252
(iModules.cell
Cell
p253
(dp254
g5
I00
sg10
(I00
I00
tp255
sba(iModules.cell
Cell
p256
(dp257
g5
I01
sS'explored'
p258
I01
sg10
(I00
I00
tp259
sba(iModules.cell
Cell
p260
(dp261
g5
I01
sg258
I01
sg10
(I00
I00
tp262
sba(iModules.cell
Cell
p263
(dp264
g5
I01
sg258
I01
sg10
(I00
I00
tp265
sba(iModules.cell
Cell
p266
(dp267
g5
I01
sg258
I01
sg10
(I00
I00
tp268
sba(iModules.cell
Cell
p269
(dp270
g5
I01
sg258
I01
sg10
(I00
I00
tp271
sba(iModules.cell
Cell
p272
(dp273
g5
I01
sg258
I01
sg10
(I00
I00
tp274
sba(iModules.cell
Cell
p275
(dp276
g5
I01
sg258
I01
sg10
(I00
I00
tp277
sba(iModules.cell
Cell
p278
(dp279
S'lit'
p280
I00
sg5
I01
sg258
I01
sg10
(I00
I00
tp281
sS'lit_by'
p282
(lp283
I1
aI8
asba(iModules.cell
Cell
p284
(dp285
g280
I00
sg5
I00
sg258
I01
sg10
(I00
I00
tp286
sg282
(lp287
I1
aI9
asba(iModules.cell
Cell
p288
(dp289
g280
I00
sg5
I00
sg258
I01
sg10
(I00
I00
tp290
sg282
(lp291
I1
aI10
asba(iModules.cell
Cell
p292
(dp293
g280
I00
sg5
I00
sg258
I01
sg10
(I00
I00
tp294
sg282
(lp295
I1
aI11
asba(iModules.cell
Cell
p296
(dp297
g280
I00
sg5
I00
sg258
I01
sg10
(I00
I00
tp298
sg282
(lp299
I1
aI12
asba(iModules.cell
Cell
p300
(dp301
g280
I00
sg5
I00
sg258
I01
sg10
(I00
I00
tp302
sg282
(lp303
I1
aI13
asba(iModules.cell
Cell
p304
(dp305
g280
I00
sg5
I00
sg258
I01
sg10
(I00
I00
tp306
sg282
(lp307
I1
aI14
asba(iModules.cell
Cell
p308
(dp309
g280
I00
sg5
I00
sg258
I01
sg10
(I00
I00
tp310
sg282
(lp311
I1
aI15
asba(iModules.cell
Cell
p312
(dp313
g280
I00
sg5
I00
sg258
I01
sg10
(I00
I00
tp314
sg282
(lp315
I1
aI16
asba(iModules.cell
Cell
p316
(dp317
g280
I00
sg5
I00
sg258
I01
sg10
(I00
I00
tp318
sg282
(lp319
I1
aI17
asba(iModules.cell
Cell
p320
(dp321
g280
I00
sg5
I00
sg258
I01
sg10
(I00
I00
tp322
sg282
(lp323
I1
aI18
asba(iModules.cell
Cell
p324
(dp325
g280
I00
sg5
I00
sg258
I01
sg10
(I00
I00
tp326
sg282
(lp327
I1
aI19
asba(iModules.cell
Cell
p328
(dp329
g280
I00
sg5
I00
sg258
I01
sg10
(I00
I00
tp330
sg282
(lp331
I1
aI20
asba(iModules.cell
Cell
p332
(dp333
g280
I00
sg5
I00
sg258
I01
sg10
(I00
I00
tp334
sg282
(lp335
I1
aI21
asba(iModules.cell
Cell
p336
(dp337
g280
I00
sg5
I00
sg258
I01
sg10
(I00
I00
tp338
sg282
(lp339
I1
aI22
asba(iModules.cell
Cell
p340
(dp341
g280
I00
sg5
I00
sg258
I01
sg10
(I00
I00
tp342
sg282
(lp343
I1
aI23
asba(iModules.cell
Cell
p344
(dp345
g280
I00
sg5
I00
sg258
I01
sg10
(I00
I00
tp346
sg282
(lp347
I1
aI24
asba(iModules.cell
Cell
p348
(dp349
g280
I00
sg5
I00
sg258
I01
sg10
(I00
I00
tp350
sg282
(lp351
I1
aI25
asba(iModules.cell
Cell
p352
(dp353
g280
I00
sg5
I00
sg258
I01
sg10
(I00
I00
tp354
sg282
(lp355
I1
aI26
asba(iModules.cell
Cell
p356
(dp357
g280
I00
sg5
I00
sg258
I01
sg10
(I00
I00
tp358
sg282
(lp359
I1
aI27
asba(iModules.cell
Cell
p360
(dp361
g280
I00
sg5
I00
sg258
I01
sg10
(I00
I00
tp362
sg282
(lp363
I1
aI28
asba(iModules.cell
Cell
p364
(dp365
g280
I00
sg5
I00
sg258
I01
sg10
(I00
I00
tp366
sg282
(lp367
I1
aI29
asba(iModules.cell
Cell
p368
(dp369
g280
I00
sg5
I00
sg258
I01
sg10
(I00
I00
tp370
sg282
(lp371
I1
aI30
asba(iModules.cell
Cell
p372
(dp373
g280
I00
sg5
I00
sg258
I01
sg10
(I00
I00
tp374
sg282
(lp375
I1
aI31
asba(iModules.cell
Cell
p376
(dp377
g280
I00
sg5
I00
sg258
I01
sg10
(I00
I00
tp378
sg282
(lp379
I1
aI32
asba(iModules.cell
Cell
p380
(dp381
g280
I00
sg5
I00
sg258
I01
sg10
(I00
I00
tp382
sg282
(lp383
I1
aI33
asba(iModules.cell
Cell
p384
(dp385
g280
I00
sg5
I00
sg258
I01
sg10
(I00
I00
tp386
sg282
(lp387
I1
aI34
asba(iModules.cell
Cell
p388
(dp389
g280
I00
sg5
I00
sg258
I01
sg10
(I00
I00
tp390
sg282
(lp391
I1
aI35
asba(iModules.cell
Cell
p392
(dp393
g280
I00
sg5
I00
sg258
I01
sg10
(I00
I00
tp394
sg282
(lp395
I1
aI36
asba(iModules.cell
Cell
p396
(dp397
g280
I00
sg5
I00
sg258
I01
sg10
(I00
I00
tp398
sg282
(lp399
I1
aI37
asba(iModules.cell
Cell
p400
(dp401
g280
I00
sg5
I00
sg258
I01
sg10
(I00
I00
tp402
sg282
(lp403
I1
aI38
asba(iModules.cell
Cell
p404
(dp405
g280
I00
sg5
I00
sg258
I01
sg10
(I00
I00
tp406
sg282
(lp407
I1
aI39
asba(iModules.cell
Cell
p408
(dp409
g280
I00
sg5
I00
sg258
I01
sg10
(I00
I00
tp410
sg282
(lp411
I1
aI40
asba(iModules.cell
Cell
p412
(dp413
g280
I00
sg5
I00
sg258
I01
sg10
(I00
I00
tp414
sg282
(lp415
I1
aI41
asba(iModules.cell
Cell
p416
(dp417
g280
I00
sg5
I00
sg258
I01
sg10
(I00
I00
tp418
sg282
(lp419
I1
aI42
asba(iModules.cell
Cell
p420
(dp421
g280
I00
sg5
I00
sg258
I01
sg10
(I00
I00
tp422
sg282
(lp423
I1
aI43
asba(iModules.cell
Cell
p424
(dp425
g280
I00
sg5
I00
sg258
I01
sg10
(I00
I00
tp426
sg282
(lp427
I1
aI44
asba(iModules.cell
Cell
p428
(dp429
g280
I00
sg5
I00
sg258
I01
sg10
(I00
I00
tp430
sg282
(lp431
I1
aI45
asba(iModules.cell
Cell
p432
(dp433
g280
I00
sg5
I00
sg10
(I00
I00
tp434
sg282
(lp435
I1
aI46
asba(iModules.cell
Cell
p436
(dp437
g280
I00
sg5
I00
sg10
(I00
I00
tp438
sg282
(lp439
I1
aI47
asba(iModules.cell
Cell
p440
(dp441
g280
I00
sg5
I00
sg10
(I00
I00
tp442
sg282
(lp443
I1
aI48
asba(iModules.cell
Cell
p444
(dp445
g280
I00
sg5
I00
sg10
(I00
I00
tp446
sg282
(lp447
I1
aI49
asba(iModules.cell
Cell
p448
(dp449
g280
I00
sg5
I00
sg10
(I00
I00
tp450
sg282
(lp451
I1
aI50
asba(iModules.cell
Cell
p452
(dp453
g280
I00
sg5
I00
sg10
(I00
I00
tp454
sg282
(lp455
I1
aI51
asba(iModules.cell
Cell
p456
(dp457
g280
I00
sg5
I00
sg10
(I00
I00
tp458
sg282
(lp459
I1
aI52
asba(iModules.cell
Cell
p460
(dp461
g280
I00
sg5
I00
sg10
(I00
I00
tp462
sg282
(lp463
I1
aI53
asba(iModules.cell
Cell
p464
(dp465
g280
I00
sg5
I00
sg10
(I00
I00
tp466
sg282
(lp467
I1
aI54
asba(iModules.cell
Cell
p468
(dp469
g280
I00
sg5
I00
sg10
(I00
I00
tp470
sg282
(lp471
I1
aI55
asba(iModules.cell
Cell
p472
(dp473
g280
I00
sg5
I00
sg10
(I00
I00
tp474
sg282
(lp475
I1
aI56
asba(iModules.cell
Cell
p476
(dp477
g280
I00
sg5
I00
sg10
(I00
I00
tp478
sg282
(lp479
I1
aI57
asba(iModules.cell
Cell
p480
(dp481
g5
I00
sg10
(I00
I00
tp482
sba(iModules.cell
Cell
p483
(dp484
g5
I00
sg10
(I00
I00
tp485
sba(iModules.cell
Cell
p486
(dp487
g5
I00
sg10
(I00
I00
tp488
sba(iModules.cell
Cell
p489
(dp490
g5
I00
sg10
(I00
I00
tp491
sba(iModules.cell
Cell
p492
(dp493
g5
I00
sg10
(I00
I00
tp494
sba(iModules.cell
Cell
p495
(dp496
g5
I00
sg10
(I00
I00
tp497
sba(iModules.cell
Cell
p498
(dp499
g5
I00
sg10
(I00
I00
tp500
sba(iModules.cell
Cell
p501
(dp502
g5
I00
sg10
(I00
I00
tp503
sba(iModules.cell
Cell
p504
(dp505
g5
I00
sg10
(I00
I00
tp506
sba(iModules.cell
Cell
p507
(dp508
g5
I00
sg10
(I00
I00
tp509
sba(iModules.cell
Cell
p510
(dp511
g5
I00
sg10
(I00
I00
tp512
sba(iModules.cell
Cell
p513
(dp514
g5
I00
sg10
(I00
I00
tp515
sba(iModules.cell
Cell
p516
(dp517
g5
I00
sg10
(I00
I00
tp518
sba(iModules.cell
Cell
p519
(dp520
g5
I00
sg10
(I00
I00
tp521
sba(iModules.cell
Cell
p522
(dp523
g5
I00
sg10
(I00
I00
tp524
sba(iModules.cell
Cell
p525
(dp526
g5
I00
sg10
(I00
I00
tp527
sba(iModules.cell
Cell
p528
(dp529
g5
I00
sg10
(I00
I00
tp530
sba(iModules.cell
Cell
p531
(dp532
g5
I00
sg10
(I00
I00
tp533
sba(iModules.cell
Cell
p534
(dp535
g5
I00
sg10
(I00
I00
tp536
sba(iModules.cell
Cell
p537
(dp538
g5
I00
sg10
(I00
I00
tp539
sba(iModules.cell
Cell
p540
(dp541
g5
I00
sg10
(I00
I00
tp542
sba(iModules.cell
Cell
p543
(dp544
g5
I00
sg10
(I00
I00
tp545
sba(iModules.cell
Cell
p546
(dp547
g10
(I00
I00
tp548
sbaa(lp549
(iModules.cell
Cell
p550
(dp551
g5
I00
sg10
(I00
I00
tp552
sba(iModules.cell
Cell
p553
(dp554
g5
I01
sg258
I01
sg10
(I00
I00
tp555
sba(iModules.cell
Cell
p556
(dp557
g5
I01
sg258
I01
sg10
(I01
I01
tp558
sba(iModules.cell
Cell
p559
(dp560
g5
I01
sg258
I01
sg10
(I01
I01
tp561
sba(iModules.cell
Cell
p562
(dp563
g5
I01
sg258
I01
sg10
(I01
I01
tp564
sba(iModules.cell
Cell
p565
(dp566
g5
I01
sg258
I01
sg10
(I01
I01
tp567
sba(iModules.cell
Cell
p568
(dp569
g5
I01
sg258
I01
sg10
(I01
I01
tp570
sba(iModules.cell
Cell
p571
(dp572
g5
I01
sg258
I01
sg10
(I01
I01
tp573
sba(iModules.cell
Cell
p574
(dp575
g280
I00
sg5
I01
sg258
I01
sg10
(I00
I00
I00
tp576
sg282
(lp577
I2
aI8
asba(iModules.cell
Cell
p578
(dp579
g5
I00
sg258
I01
sg10
(I01
I01
tp580
sba(iModules.cell
Cell
p581
(dp582
g5
I00
sg258
I01
sg10
(I01
I01
tp583
sba(iModules.cell
Cell
p584
(dp585
g5
I00
sg258
I01
sg10
(I01
I01
tp586
sba(iModules.cell
Cell
p587
(dp588
g5
I00
sg258
I01
sg10
(I01
I01
tp589
sba(iModules.cell
Cell
p590
(dp591
g5
I00
sg258
I01
sg10
(I01
I01
tp592
sba(iModules.cell
Newt
p593
(dp594
S'char'
p595
S':'
p596
sg5
I00
sS'undercell'
p597
(iModules.cell
Cell
p598
(dp599
g5
I00
sg258
I01
sg10
(I01
I01
tp600
sbsS'name'
p601
S'Newt'
p602
sba(iModules.cell
Cell
p603
(dp604
g5
I00
sg258
I01
sg10
(I01
I01
tp605
sba(iModules.cell
Cell
p606
(dp607
g5
I00
sg258
I01
sg10
(I01
I01
tp608
sba(iModules.cell
Cell
p609
(dp610
g5
I00
sg258
I01
sg10
(I01
I01
tp611
sba(iModules.cell
Cell
p612
(dp613
g5
I00
sg258
I01
sg10
(I01
I01
tp614
sba(iModules.cell
Cell
p615
(dp616
g5
I00
sg258
I01
sg10
(I01
I01
tp617
sba(iModules.cell
Cell
p618
(dp619
g5
I00
sg258
I01
sg10
(I01
I01
tp620
sba(iModules.cell
Cell
p621
(dp622
g5
I00
sg258
I01
sg10
(I01
I01
tp623
sba(iModules.cell
Cell
p624
(dp625
g5
I00
sg258
I01
sg10
(I01
I01
tp626
sba(iModules.cell
Cell
p627
(dp628
g5
I00
sg258
I01
sg10
(I01
I01
tp629
sba(iModules.cell
Cell
p630
(dp631
g5
I00
sg258
I01
sg10
(I01
I01
tp632
sba(iModules.cell
Cell
p633
(dp634
g5
I00
sg258
I01
sg10
(I01
I01
tp635
sba(iModules.cell
Cell
p636
(dp637
g5
I00
sg258
I01
sg10
(I01
I01
tp638
sba(iModules.cell
Cell
p639
(dp640
g5
I00
sg258
I01
sg10
(I01
I01
tp641
sba(iModules.cell
Newt
p642
(dp643
g595
g596
sg5
I00
sg597
(iModules.cell
Cell
p644
(dp645
g5
I00
sg258
I01
sg10
(I01
I01
tp646
sbsg601
g602
sba(iModules.cell
Cell
p647
(dp648
g5
I00
sg258
I01
sg10
(I01
I01
tp649
sba(iModules.cell
Cell
p650
(dp651
g5
I00
sg258
I01
sg10
(I01
I01
tp652
sba(iModules.cell
Cell
p653
(dp654
g5
I00
sg258
I01
sg10
(I01
I01
tp655
sba(iModules.cell
Cell
p656
(dp657
g5
I00
sg258
I01
sg10
(I01
I01
tp658
sba(iModules.cell
Cell
p659
(dp660
g5
I00
sg258
I01
sg10
(I01
I01
tp661
sba(iModules.cell
Cell
p662
(dp663
g5
I00
sg258
I01
sg10
(I01
I01
tp664
sba(iModules.cell
Cell
p665
(dp666
g5
I00
sg258
I01
sg10
(I01
I01
tp667
sba(iModules.cell
Cell
p668
(dp669
g5
I00
sg258
I01
sg10
(I01
I01
tp670
sba(iModules.cell
Cell
p671
(dp672
g5
I00
sg258
I01
sg10
(I01
I01
tp673
sba(iModules.cell
Newt
p674
(dp675
g595
g596
sg5
I00
sg597
(iModules.cell
Cell
p676
(dp677
g5
I00
sg258
I01
sg10
(I01
I01
tp678
sbsg601
g602
sba(iModules.cell
Cell
p679
(dp680
g5
I00
sg258
I01
sg10
(I01
I01
tp681
sba(iModules.cell
Cell
p682
(dp683
g5
I00
sg258
I01
sg10
(I01
I01
tp684
sba(iModules.cell
Cell
p685
(dp686
g5
I00
sg258
I01
sg10
(I01
I01
tp687
sba(iModules.cell
Cell
p688
(dp689
g5
I00
sg258
I01
sg10
(I01
I01
tp690
sba(iModules.cell
Cell
p691
(dp692
g5
I00
sg258
I01
sg10
(I01
I01
tp693
sba(iModules.cell
Cell
p694
(dp695
g5
I00
sg258
I01
sg10
(I01
I01
tp696
sba(iModules.cell
Cell
p697
(dp698
g5
I00
sg258
I01
sg10
(I01
I01
tp699
sba(iModules.cell
Cell
p700
(dp701
g5
I00
sg10
(I01
I01
tp702
sba(iModules.cell
Cell
p703
(dp704
g5
I00
sg10
(I01
I01
tp705
sba(iModules.cell
Cell
p706
(dp707
g5
I00
sg10
(I01
I01
tp708
sba(iModules.cell
Cell
p709
(dp710
g5
I00
sg10
(I01
I01
tp711
sba(iModules.cell
Cell
p712
(dp713
g5
I00
sg10
(I01
I01
tp714
sba(iModules.cell
Cell
p715
(dp716
g5
I00
sg10
(I01
I01
tp717
sba(iModules.cell
Cell
p718
(dp719
g5
I00
sg10
(I01
I01
tp720
sba(iModules.cell
Cell
p721
(dp722
g5
I00
sg10
(I01
I01
tp723
sba(iModules.cell
Cell
p724
(dp725
g5
I00
sg10
(I01
I01
tp726
sba(iModules.cell
Cell
p727
(dp728
g5
I00
sg10
(I01
I01
tp729
sba(iModules.cell
Cell
p730
(dp731
g5
I00
sg10
(I01
I01
tp732
sba(iModules.cell
Cell
p733
(dp734
g5
I00
sg10
(I01
I01
tp735
sba(iModules.cell
Cell
p736
(dp737
g5
I00
sg10
(I01
I01
tp738
sba(iModules.cell
Cell
p739
(dp740
g5
I00
sg10
(I01
I01
tp741
sba(iModules.cell
Cell
p742
(dp743
g5
I00
sg10
(I01
I01
tp744
sba(iModules.cell
Cell
p745
(dp746
g5
I00
sg10
(I00
I00
tp747
sba(iModules.cell
Cell
p748
(dp749
g5
I00
sg10
(I00
I00
tp750
sba(iModules.cell
Cell
p751
(dp752
g5
I00
sg10
(I00
I00
tp753
sba(iModules.cell
Cell
p754
(dp755
g5
I00
sg10
(I00
I00
tp756
sba(iModules.cell
Cell
p757
(dp758
g5
I00
sg10
(I00
I00
tp759
sba(iModules.cell
Cell
p760
(dp761
g5
I00
sg10
(I00
I00
tp762
sba(iModules.cell
Cell
p763
(dp764
g5
I00
sg10
(I00
I00
tp765
sba(iModules.cell
Cell
p766
(dp767
g5
I00
sg10
(I00
I00
tp768
sba(iModules.cell
Cell
p769
(dp770
g5
I00
sg10
(I00
I00
tp771
sba(iModules.cell
Cell
p772
(dp773
g5
I00
sg10
(I00
I00
tp774
sba(iModules.cell
Cell
p775
(dp776
g5
I00
sg10
(I00
I00
tp777
sba(iModules.cell
Cell
p778
(dp779
g5
I00
sg10
(I00
I00
tp780
sba(iModules.cell
Cell
p781
(dp782
g5
I00
sg10
(I00
I00
tp783
sba(iModules.cell
Cell
p784
(dp785
g5
I00
sg10
(I00
I00
tp786
sba(iModules.cell
Cell
p787
(dp788
g5
I00
sg10
(I00
I00
tp789
sba(iModules.cell
Cell
p790
(dp791
g5
I00
sg10
(I00
I00
tp792
sba(iModules.cell
Cell
p793
(dp794
g5
I00
sg10
(I00
I00
tp795
sba(iModules.cell
Cell
p796
(dp797
g5
I00
sg10
(I00
I00
tp798
sba(iModules.cell
Cell
p799
(dp800
g5
I00
sg10
(I00
I00
tp801
sba(iModules.cell
Cell
p802
(dp803
g10
(I00
I00
tp804
sbaa(lp805
(iModules.cell
Cell
p806
(dp807
g5
I00
sg10
(I00
I00
tp808
sba(iModules.cell
Cell
p809
(dp810
g5
I01
sg258
I01
sg10
(I00
I00
tp811
sba(iModules.cell
Cell
p812
(dp813
g5
I01
sg258
I01
sg10
(I01
I01
tp814
sba(iModules.cell
Cell
p815
(dp816
g5
I01
sg258
I01
sg10
(I01
I01
tp817
sba(iModules.cell
Cell
p818
(dp819
g5
I01
sg258
I01
sg10
(I01
I01
tp820
sba(iModules.cell
Cell
p821
(dp822
g5
I01
sg258
I01
sg10
(I01
I01
tp823
sba(iModules.cell
Cell
p824
(dp825
g5
I01
sg258
I01
sg10
(I01
I01
tp826
sba(iModules.cell
Cell
p827
(dp828
g5
I01
sg258
I01
sg10
(I01
I01
tp829
sba(iModules.cell
Door
p830
(dp831
S'opened'
p832
I00
sg282
(lp833
I3
aI8
asg280
I00
sg5
I01
sg258
I01
sg10
(I00
I00
tp834
sba(iModules.cell
Cell
p835
(dp836
g5
I00
sg258
I01
sg10
(I01
I01
tp837
sba(iModules.cell
Cell
p838
(dp839
g5
I00
sg258
I01
sg10
(I01
I01
tp840
sba(iModules.cell
Cell
p841
(dp842
g5
I00
sg258
I01
sg10
(I01
I01
tp843
sba(iModules.cell
Cell
p844
(dp845
g5
I00
sg258
I01
sg10
(I01
I01
tp846
sba(iModules.cell
Cell
p847
(dp848
g5
I00
sg258
I01
sg10
(I01
I01
tp849
sba(iModules.cell
Cell
p850
(dp851
g5
I00
sg258
I01
sg10
(I01
I01
tp852
sba(iModules.cell
Cell
p853
(dp854
g5
I00
sg258
I01
sg10
(I01
I01
tp855
sba(iModules.cell
Cell
p856
(dp857
g5
I00
sg258
I01
sg10
(I01
I01
tp858
sba(iModules.cell
Cell
p859
(dp860
g5
I00
sg258
I01
sg10
(I01
I01
tp861
sba(iModules.cell
Cell
p862
(dp863
g5
I00
sg258
I01
sg10
(I01
I01
tp864
sba(iModules.cell
Cell
p865
(dp866
g5
I00
sg258
I01
sg10
(I01
I01
tp867
sba(iModules.cell
Cell
p868
(dp869
g5
I00
sg258
I01
sg10
(I01
I01
tp870
sba(iModules.cell
Cell
p871
(dp872
g5
I00
sg258
I01
sg10
(I01
I01
tp873
sba(iModules.cell
Cell
p874
(dp875
g5
I00
sg258
I01
sg10
(I01
I01
tp876
sba(iModules.cell
Cell
p877
(dp878
g5
I00
sg258
I01
sg10
(I01
I01
tp879
sba(iModules.cell
Cell
p880
(dp881
g5
I00
sg258
I01
sg10
(I01
I01
tp882
sba(iModules.cell
Cell
p883
(dp884
g5
I00
sg258
I01
sg10
(I01
I01
tp885
sba(iModules.cell
Cell
p886
(dp887
g5
I00
sg258
I01
sg10
(I01
I01
tp888
sba(iModules.cell
Cell
p889
(dp890
g5
I00
sg258
I01
sg10
(I01
I01
tp891
sba(iModules.cell
Cell
p892
(dp893
g5
I00
sg258
I01
sg10
(I01
I01
tp894
sba(iModules.cell
Cell
p895
(dp896
g5
I00
sg258
I01
sg10
(I01
I01
tp897
sba(iModules.cell
Cell
p898
(dp899
g5
I00
sg258
I01
sg10
(I01
I01
tp900
sba(iModules.cell
Cell
p901
(dp902
g5
I00
sg258
I01
sg10
(I01
I01
tp903
sba(iModules.cell
Cell
p904
(dp905
g5
I00
sg258
I01
sg10
(I01
I01
tp906
sba(iModules.cell
Cell
p907
(dp908
g5
I00
sg258
I01
sg10
(I01
I01
tp909
sba(iModules.cell
Cell
p910
(dp911
g5
I00
sg258
I01
sg10
(I01
I01
tp912
sba(iModules.cell
Cell
p913
(dp914
g5
I00
sg258
I01
sg10
(I01
I01
tp915
sba(iModules.cell
Cell
p916
(dp917
g5
I00
sg258
I01
sg10
(I01
I01
tp918
sba(iModules.cell
Cell
p919
(dp920
g5
I00
sg258
I01
sg10
(I01
I01
tp921
sba(iModules.cell
Cell
p922
(dp923
g5
I00
sg258
I01
sg10
(I01
I01
tp924
sba(iModules.cell
Cell
p925
(dp926
g5
I00
sg258
I01
sg10
(I01
I01
tp927
sba(iModules.cell
Cell
p928
(dp929
g5
I00
sg258
I01
sg10
(I01
I01
tp930
sba(iModules.cell
Cell
p931
(dp932
g5
I00
sg258
I01
sg10
(I01
I01
tp933
sba(iModules.cell
Cell
p934
(dp935
g5
I00
sg258
I01
sg10
(I01
I01
tp936
sba(iModules.cell
Cell
p937
(dp938
g5
I00
sg258
I01
sg10
(I01
I01
tp939
sba(iModules.cell
Cell
p940
(dp941
g5
I00
sg258
I01
sg10
(I01
I01
tp942
sba(iModules.cell
Cell
p943
(dp944
g5
I00
sg258
I01
sg10
(I01
I01
tp945
sba(iModules.cell
Cell
p946
(dp947
g5
I00
sg10
(I01
I01
tp948
sba(iModules.cell
Cell
p949
(dp950
g5
I00
sg10
(I01
I01
tp951
sba(iModules.cell
Cell
p952
(dp953
g5
I00
sg10
(I01
I01
tp954
sba(iModules.cell
Cell
p955
(dp956
g5
I00
sg10
(I01
I01
tp957
sba(iModules.cell
Cell
p958
(dp959
g5
I00
sg10
(I01
I01
tp960
sba(iModules.cell
Cell
p961
(dp962
g5
I00
sg10
(I01
I01
tp963
sba(iModules.cell
Cell
p964
(dp965
g5
I00
sg10
(I01
I01
tp966
sba(iModules.cell
Cell
p967
(dp968
g5
I00
sg10
(I01
I01
tp969
sba(iModules.cell
Cell
p970
(dp971
g5
I00
sg10
(I01
I01
tp972
sba(iModules.cell
Cell
p973
(dp974
g5
I00
sg10
(I01
I01
tp975
sba(iModules.cell
Cell
p976
(dp977
g5
I00
sg10
(I01
I01
tp978
sba(iModules.cell
Cell
p979
(dp980
g5
I00
sg10
(I01
I01
tp981
sba(iModules.cell
Cell
p982
(dp983
g5
I00
sg10
(I01
I01
tp984
sba(iModules.cell
Cell
p985
(dp986
g5
I00
sg10
(I01
I01
tp987
sba(iModules.cell
Cell
p988
(dp989
g5
I00
sg10
(I01
I01
tp990
sba(iModules.cell
Cell
p991
(dp992
g5
I00
sg10
(I00
I00
tp993
sba(iModules.cell
Cell
p994
(dp995
g5
I00
sg10
(I00
I00
tp996
sba(iModules.cell
Cell
p997
(dp998
g5
I00
sg10
(I00
I00
tp999
sba(iModules.cell
Cell
p1000
(dp1001
g5
I00
sg10
(I00
I00
tp1002
sba(iModules.cell
Cell
p1003
(dp1004
g5
I00
sg10
(I00
I00
tp1005
sba(iModules.cell
Cell
p1006
(dp1007
g5
I00
sg10
(I00
I00
tp1008
sba(iModules.cell
Cell
p1009
(dp1010
g5
I00
sg10
(I00
I00
tp1011
sba(iModules.cell
Cell
p1012
(dp1013
g5
I00
sg10
(I00
I00
tp1014
sba(iModules.cell
Cell
p1015
(dp1016
g5
I00
sg10
(I00
I00
tp1017
sba(iModules.cell
Cell
p1018
(dp1019
g5
I00
sg10
(I00
I00
tp1020
sba(iModules.cell
Cell
p1021
(dp1022
g5
I00
sg10
(I00
I00
tp1023
sba(iModules.cell
Cell
p1024
(dp1025
g5
I00
sg10
(I00
I00
tp1026
sba(iModules.cell
Cell
p1027
(dp1028
g5
I00
sg10
(I00
I00
tp1029
sba(iModules.cell
Cell
p1030
(dp1031
g5
I00
sg10
(I00
I00
tp1032
sba(iModules.cell
Cell
p1033
(dp1034
g5
I00
sg10
(I00
I00
tp1035
sba(iModules.cell
Cell
p1036
(dp1037
g5
I00
sg10
(I00
I00
tp1038
sba(iModules.cell
Cell
p1039
(dp1040
g5
I00
sg10
(I00
I00
tp1041
sba(iModules.cell
Cell
p1042
(dp1043
g5
I00
sg10
(I00
I00
tp1044
sba(iModules.cell
Cell
p1045
(dp1046
g5
I00
sg10
(I00
I00
tp1047
sba(iModules.cell
Cell
p1048
(dp1049
g10
(I00
I00
tp1050
sbaa(lp1051
(iModules.cell
Cell
p1052
(dp1053
g5
I00
sg10
(I00
I00
tp1054
sba(iModules.cell
Cell
p1055
(dp1056
g5
I01
sg258
I01
sg10
(I00
I00
tp1057
sba(iModules.cell
Cell
p1058
(dp1059
g5
I01
sg258
I01
sg10
(I01
I01
tp1060
sba(iModules.cell
Cell
p1061
(dp1062
g5
I01
sg258
I01
sg10
(I01
I01
tp1063
sba(iModules.cell
Cell
p1064
(dp1065
g5
I01
sg258
I01
sg10
(I01
I01
tp1066
sba(iModules.cell
Cell
p1067
(dp1068
g280
I01
sg5
I01
sg258
I01
sg10
(I01
I01
tp1069
sba(iModules.cell
Cell
p1070
(dp1071
g280
I01
sg5
I01
sg258
I01
sg10
(I01
I01
tp1072
sba(iModules.cell
Cell
p1073
(dp1074
g280
I01
sg5
I01
sg258
I01
sg10
(I01
I01
tp1075
sba(iModules.cell
Cell
p1076
(dp1077
g280
I00
sg5
I01
sg258
I01
sg10
(I00
I00
I00
tp1078
sg282
(lp1079
I4
aI8
asba(iModules.cell
Cell
p1080
(dp1081
g5
I00
sg258
I01
sg10
(I01
I01
tp1082
sba(iModules.cell
Cell
p1083
(dp1084
g5
I00
sg258
I01
sg10
(I01
I01
tp1085
sba(iModules.cell
Cell
p1086
(dp1087
g5
I00
sg258
I01
sg10
(I01
I01
tp1088
sba(iModules.cell
Cell
p1089
(dp1090
g5
I00
sg258
I01
sg10
(I01
I01
tp1091
sba(iModules.cell
Cell
p1092
(dp1093
g5
I00
sg258
I01
sg10
(I01
I01
tp1094
sba(iModules.cell
Cell
p1095
(dp1096
g5
I00
sg258
I01
sg10
(I01
I01
tp1097
sba(iModules.cell
Cell
p1098
(dp1099
g5
I00
sg258
I01
sg10
(I01
I01
tp1100
sba(iModules.cell
Cell
p1101
(dp1102
g5
I00
sg258
I01
sg10
(I01
I01
tp1103
sba(iModules.cell
Cell
p1104
(dp1105
g5
I00
sg258
I01
sg10
(I01
I01
tp1106
sba(iModules.cell
Cell
p1107
(dp1108
g5
I00
sg258
I01
sg10
(I01
I01
tp1109
sba(iModules.cell
Cell
p1110
(dp1111
g5
I00
sg258
I01
sg10
(I01
I01
tp1112
sba(iModules.cell
Cell
p1113
(dp1114
g5
I00
sg258
I01
sg10
(I01
I01
tp1115
sba(iModules.cell
Cell
p1116
(dp1117
g5
I00
sg258
I01
sg10
(I01
I01
tp1118
sba(iModules.cell
Cell
p1119
(dp1120
g5
I00
sg258
I01
sg10
(I01
I01
tp1121
sba(iModules.cell
Cell
p1122
(dp1123
g5
I00
sg258
I01
sg10
(I01
I01
tp1124
sba(iModules.cell
Cell
p1125
(dp1126
g5
I00
sg258
I01
sg10
(I01
I01
tp1127
sba(iModules.cell
Cell
p1128
(dp1129
g5
I00
sg258
I01
sg10
(I01
I01
tp1130
sba(iModules.cell
Cell
p1131
(dp1132
g5
I00
sg258
I01
sg10
(I01
I01
tp1133
sba(iModules.cell
Cell
p1134
(dp1135
g5
I00
sg258
I01
sg10
(I01
I01
tp1136
sba(iModules.cell
Cell
p1137
(dp1138
g5
I00
sg258
I01
sg10
(I01
I01
tp1139
sba(iModules.cell
Cell
p1140
(dp1141
g5
I00
sg258
I01
sg10
(I01
I01
tp1142
sba(iModules.cell
Cell
p1143
(dp1144
g5
I00
sg258
I01
sg10
(I01
I01
tp1145
sba(iModules.cell
Cell
p1146
(dp1147
g5
I00
sg258
I01
sg10
(I01
I01
tp1148
sba(iModules.cell
Cell
p1149
(dp1150
g5
I00
sg258
I01
sg10
(I01
I01
tp1151
sba(iModules.cell
Cell
p1152
(dp1153
g5
I00
sg258
I01
sg10
(I01
I01
tp1154
sba(iModules.cell
Cell
p1155
(dp1156
g5
I00
sg258
I01
sg10
(I01
I01
tp1157
sba(iModules.cell
Cell
p1158
(dp1159
g5
I00
sg258
I01
sg10
(I01
I01
tp1160
sba(iModules.cell
Cell
p1161
(dp1162
g5
I00
sg258
I01
sg10
(I01
I01
tp1163
sba(iModules.cell
Cell
p1164
(dp1165
g5
I00
sg258
I01
sg10
(I01
I01
tp1166
sba(iModules.cell
Cell
p1167
(dp1168
g5
I00
sg258
I01
sg10
(I01
I01
tp1169
sba(iModules.cell
Cell
p1170
(dp1171
g5
I00
sg258
I01
sg10
(I01
I01
tp1172
sba(iModules.cell
Cell
p1173
(dp1174
g5
I00
sg258
I01
sg10
(I01
I01
tp1175
sba(iModules.cell
Cell
p1176
(dp1177
g5
I00
sg258
I01
sg10
(I01
I01
tp1178
sba(iModules.cell
Cell
p1179
(dp1180
g5
I00
sg258
I01
sg10
(I01
I01
tp1181
sba(iModules.cell
Cell
p1182
(dp1183
g5
I00
sg258
I01
sg10
(I01
I01
tp1184
sba(iModules.cell
Cell
p1185
(dp1186
g5
I00
sg258
I01
sg10
(I01
I01
tp1187
sba(iModules.cell
Cell
p1188
(dp1189
g5
I00
sg258
I01
sg10
(I01
I01
tp1190
sba(iModules.cell
Cell
p1191
(dp1192
g5
I00
sg10
(I01
I01
tp1193
sba(iModules.cell
Cell
p1194
(dp1195
g5
I00
sg10
(I01
I01
tp1196
sba(iModules.cell
Cell
p1197
(dp1198
g5
I00
sg10
(I01
I01
tp1199
sba(iModules.cell
Cell
p1200
(dp1201
g5
I00
sg10
(I01
I01
tp1202
sba(iModules.cell
Cell
p1203
(dp1204
g5
I00
sg10
(I01
I01
tp1205
sba(iModules.cell
Cell
p1206
(dp1207
g5
I00
sg10
(I01
I01
tp1208
sba(iModules.cell
Cell
p1209
(dp1210
g5
I00
sg10
(I01
I01
tp1211
sba(iModules.cell
Cell
p1212
(dp1213
g5
I00
sg10
(I01
I01
tp1214
sba(iModules.cell
Cell
p1215
(dp1216
g5
I00
sg10
(I01
I01
tp1217
sba(iModules.cell
Cell
p1218
(dp1219
g5
I00
sg10
(I01
I01
tp1220
sba(iModules.cell
Cell
p1221
(dp1222
g5
I00
sg10
(I01
I01
tp1223
sba(iModules.cell
Cell
p1224
(dp1225
g5
I00
sg10
(I01
I01
tp1226
sba(iModules.cell
Cell
p1227
(dp1228
g5
I00
sg10
(I01
I01
tp1229
sba(iModules.cell
Cell
p1230
(dp1231
g5
I00
sg10
(I01
I01
tp1232
sba(iModules.cell
Cell
p1233
(dp1234
g5
I00
sg10
(I01
I01
tp1235
sba(iModules.cell
Cell
p1236
(dp1237
g5
I00
sg10
(I00
I00
tp1238
sba(iModules.cell
Cell
p1239
(dp1240
g5
I00
sg10
(I00
I00
tp1241
sba(iModules.cell
Cell
p1242
(dp1243
g5
I00
sg10
(I00
I00
tp1244
sba(iModules.cell
Cell
p1245
(dp1246
g5
I00
sg10
(I00
I00
tp1247
sba(iModules.cell
Cell
p1248
(dp1249
g5
I00
sg10
(I00
I00
tp1250
sba(iModules.cell
Cell
p1251
(dp1252
g5
I00
sg10
(I00
I00
tp1253
sba(iModules.cell
Cell
p1254
(dp1255
g5
I00
sg10
(I00
I00
tp1256
sba(iModules.cell
Cell
p1257
(dp1258
g5
I00
sg10
(I00
I00
tp1259
sba(iModules.cell
Cell
p1260
(dp1261
g5
I00
sg10
(I00
I00
tp1262
sba(iModules.cell
Cell
p1263
(dp1264
g5
I00
sg10
(I00
I00
tp1265
sba(iModules.cell
Cell
p1266
(dp1267
g5
I00
sg10
(I00
I00
tp1268
sba(iModules.cell
Cell
p1269
(dp1270
g5
I00
sg10
(I00
I00
tp1271
sba(iModules.cell
Cell
p1272
(dp1273
g5
I00
sg10
(I00
I00
tp1274
sba(iModules.cell
Cell
p1275
(dp1276
g5
I00
sg10
(I00
I00
tp1277
sba(iModules.cell
Cell
p1278
(dp1279
g5
I00
sg10
(I00
I00
tp1280
sba(iModules.cell
Cell
p1281
(dp1282
g5
I00
sg10
(I00
I00
tp1283
sba(iModules.cell
Cell
p1284
(dp1285
g5
I00
sg10
(I00
I00
tp1286
sba(iModules.cell
Cell
p1287
(dp1288
g5
I00
sg10
(I00
I00
tp1289
sba(iModules.cell
Cell
p1290
(dp1291
g5
I00
sg10
(I00
I00
tp1292
sba(iModules.cell
Cell
p1293
(dp1294
g10
(I00
I00
tp1295
sbaa(lp1296
(iModules.cell
Cell
p1297
(dp1298
g5
I00
sg10
(I00
I00
tp1299
sba(iModules.cell
Cell
p1300
(dp1301
g280
I00
sg5
I01
sg258
I01
sg10
(I00
I00
tp1302
sg282
(lp1303
I5
aI1
asba(iModules.cell
Cell
p1304
(dp1305
g280
I00
sg5
I01
sg258
I01
sg10
(I00
I00
I00
tp1306
sg282
(lp1307
I5
aI2
asba(iModules.cell
Cell
p1308
(dp1309
g280
I00
sg5
I01
sg258
I01
sg10
(I00
I00
I00
tp1310
sg282
(lp1311
I5
aI3
asba(iModules.cell
Cell
p1312
(dp1313
g280
I00
sg5
I01
sg258
I01
sg10
(I00
I00
I00
tp1314
sg282
(lp1315
I5
aI4
asba(iModules.cell
Cell
p1316
(dp1317
g280
I00
sg5
I01
sg258
I01
sg10
(I00
I00
I00
tp1318
sg282
(lp1319
I5
aI5
asba(iModules.cell
Cell
p1320
(dp1321
g280
I00
sg5
I01
sg258
I01
sg10
(I00
I00
I00
tp1322
sg282
(lp1323
I5
aI6
asba(iModules.cell
Cell
p1324
(dp1325
g280
I00
sg5
I01
sg258
I01
sg10
(I00
I00
I00
tp1326
sg282
(lp1327
I5
aI7
asba(iModules.cell
Cell
p1328
(dp1329
g280
I00
sg5
I01
sg258
I01
sg10
(I00
I00
I00
tp1330
sg282
(lp1331
I5
aI8
asba(iModules.cell
Cell
p1332
(dp1333
g5
I00
sg258
I01
sg10
(I01
I01
tp1334
sba(iModules.cell
Cell
p1335
(dp1336
g5
I00
sg258
I01
sg10
(I01
I01
tp1337
sba(iModules.cell
Cell
p1338
(dp1339
g5
I00
sg258
I01
sg10
(I01
I01
tp1340
sba(iModules.cell
Cell
p1341
(dp1342
g5
I00
sg258
I01
sg10
(I01
I01
tp1343
sba(iModules.cell
Cell
p1344
(dp1345
g5
I00
sg258
I01
sg10
(I01
I01
tp1346
sba(iModules.cell
Cell
p1347
(dp1348
g5
I00
sg258
I01
sg10
(I01
I01
tp1349
sba(iModules.cell
Cell
p1350
(dp1351
g5
I00
sg258
I01
sg10
(I01
I01
tp1352
sba(iModules.cell
Cell
p1353
(dp1354
g5
I00
sg258
I01
sg10
(I01
I01
tp1355
sba(iModules.cell
Cell
p1356
(dp1357
g5
I00
sg258
I01
sg10
(I01
I01
tp1358
sba(iModules.cell
Cell
p1359
(dp1360
g5
I00
sg258
I01
sg10
(I01
I01
tp1361
sba(iModules.cell
Cell
p1362
(dp1363
g5
I00
sg258
I01
sg10
(I01
I01
tp1364
sba(iModules.cell
Cell
p1365
(dp1366
g5
I00
sg258
I01
sg10
(I01
I01
tp1367
sba(iModules.cell
Cell
p1368
(dp1369
g5
I00
sg258
I01
sg10
(I01
I01
tp1370
sba(iModules.cell
Cell
p1371
(dp1372
g5
I00
sg258
I01
sg10
(I01
I01
tp1373
sba(iModules.cell
Cell
p1374
(dp1375
g5
I00
sg258
I01
sg10
(I01
I01
tp1376
sba(iModules.cell
Cell
p1377
(dp1378
g5
I00
sg258
I01
sg10
(I01
I01
tp1379
sba(iModules.cell
Cell
p1380
(dp1381
g5
I00
sg258
I01
sg10
(I01
I01
tp1382
sba(iModules.cell
Cell
p1383
(dp1384
g5
I00
sg258
I01
sg10
(I01
I01
tp1385
sba(iModules.cell
Cell
p1386
(dp1387
g5
I00
sg258
I01
sg10
(I01
I01
tp1388
sba(iModules.cell
Cell
p1389
(dp1390
g5
I00
sg258
I01
sg10
(I01
I01
tp1391
sba(iModules.cell
Cell
p1392
(dp1393
g5
I00
sg258
I01
sg10
(I01
I01
tp1394
sba(iModules.cell
Cell
p1395
(dp1396
g5
I00
sg258
I01
sg10
(I01
I01
tp1397
sba(iModules.cell
Cell
p1398
(dp1399
g5
I00
sg258
I01
sg10
(I01
I01
tp1400
sba(iModules.cell
Cell
p1401
(dp1402
g5
I00
sg258
I01
sg10
(I01
I01
tp1403
sba(iModules.cell
Cell
p1404
(dp1405
g5
I00
sg258
I01
sg10
(I01
I01
tp1406
sba(iModules.cell
Cell
p1407
(dp1408
g5
I00
sg258
I01
sg10
(I01
I01
tp1409
sba(iModules.cell
Cell
p1410
(dp1411
g5
I00
sg258
I01
sg10
(I01
I01
tp1412
sba(iModules.cell
Cell
p1413
(dp1414
g5
I00
sg258
I01
sg10
(I01
I01
tp1415
sba(iModules.cell
Cell
p1416
(dp1417
g5
I00
sg258
I01
sg10
(I01
I01
tp1418
sba(iModules.cell
Cell
p1419
(dp1420
g5
I00
sg258
I01
sg10
(I01
I01
tp1421
sba(iModules.cell
Cell
p1422
(dp1423
g5
I00
sg258
I01
sg10
(I01
I01
tp1424
sba(iModules.cell
Cell
p1425
(dp1426
g5
I00
sg258
I01
sg10
(I01
I01
tp1427
sba(iModules.cell
Cell
p1428
(dp1429
g5
I00
sg258
I01
sg10
(I01
I01
tp1430
sba(iModules.cell
Cell
p1431
(dp1432
g5
I00
sg258
I01
sg10
(I01
I01
tp1433
sba(iModules.cell
Cell
p1434
(dp1435
g5
I00
sg258
I01
sg10
(I01
I01
tp1436
sba(iModules.cell
Cell
p1437
(dp1438
g5
I00
sg258
I01
sg10
(I01
I01
tp1439
sba(iModules.cell
Cell
p1440
(dp1441
g5
I00
sg258
I01
sg10
(I01
I01
tp1442
sba(iModules.cell
Cell
p1443
(dp1444
g5
I00
sg10
(I01
I01
tp1445
sba(iModules.cell
Cell
p1446
(dp1447
g5
I00
sg10
(I01
I01
tp1448
sba(iModules.cell
Cell
p1449
(dp1450
g5
I00
sg10
(I01
I01
tp1451
sba(iModules.cell
Cell
p1452
(dp1453
g5
I00
sg10
(I01
I01
tp1454
sba(iModules.cell
Cell
p1455
(dp1456
g5
I00
sg10
(I01
I01
tp1457
sba(iModules.cell
Cell
p1458
(dp1459
g5
I00
sg10
(I01
I01
tp1460
sba(iModules.cell
Cell
p1461
(dp1462
g5
I00
sg10
(I01
I01
tp1463
sba(iModules.cell
Cell
p1464
(dp1465
g5
I00
sg10
(I01
I01
tp1466
sba(iModules.cell
Cell
p1467
(dp1468
g5
I00
sg10
(I01
I01
tp1469
sba(iModules.cell
Cell
p1470
(dp1471
g5
I00
sg10
(I01
I01
tp1472
sba(iModules.cell
Cell
p1473
(dp1474
g5
I00
sg10
(I01
I01
tp1475
sba(iModules.cell
Cell
p1476
(dp1477
g5
I00
sg10
(I01
I01
tp1478
sba(iModules.cell
Cell
p1479
(dp1480
g5
I00
sg10
(I01
I01
tp1481
sba(iModules.cell
Cell
p1482
(dp1483
g5
I00
sg10
(I01
I01
tp1484
sba(iModules.cell
Cell
p1485
(dp1486
g5
I00
sg10
(I01
I01
tp1487
sba(iModules.cell
Cell
p1488
(dp1489
g5
I00
sg10
(I00
I00
tp1490
sba(iModules.cell
Cell
p1491
(dp1492
g5
I00
sg10
(I00
I00
tp1493
sba(iModules.cell
Cell
p1494
(dp1495
g5
I00
sg10
(I00
I00
tp1496
sba(iModules.cell
Cell
p1497
(dp1498
g5
I00
sg10
(I00
I00
tp1499
sba(iModules.cell
Cell
p1500
(dp1501
g5
I00
sg10
(I00
I00
tp1502
sba(iModules.cell
Cell
p1503
(dp1504
g5
I00
sg10
(I00
I00
tp1505
sba(iModules.cell
Cell
p1506
(dp1507
g5
I00
sg10
(I00
I00
tp1508
sba(iModules.cell
Cell
p1509
(dp1510
g5
I00
sg10
(I00
I00
tp1511
sba(iModules.cell
Cell
p1512
(dp1513
g5
I00
sg10
(I00
I00
tp1514
sba(iModules.cell
Cell
p1515
(dp1516
g5
I00
sg10
(I00
I00
tp1517
sba(iModules.cell
Cell
p1518
(dp1519
g5
I00
sg10
(I00
I00
tp1520
sba(iModules.cell
Cell
p1521
(dp1522
g5
I00
sg10
(I00
I00
tp1523
sba(iModules.cell
Cell
p1524
(dp1525
g5
I00
sg10
(I00
I00
tp1526
sba(iModules.cell
Cell
p1527
(dp1528
g5
I00
sg10
(I00
I00
tp1529
sba(iModules.cell
Cell
p1530
(dp1531
g5
I00
sg10
(I00
I00
tp1532
sba(iModules.cell
Cell
p1533
(dp1534
g5
I00
sg10
(I00
I00
tp1535
sba(iModules.cell
Cell
p1536
(dp1537
g5
I00
sg10
(I00
I00
tp1538
sba(iModules.cell
Cell
p1539
(dp1540
g5
I00
sg10
(I00
I00
tp1541
sba(iModules.cell
Cell
p1542
(dp1543
g5
I00
sg10
(I00
I00
tp1544
sba(iModules.cell
Cell
p1545
(dp1546
g10
(I00
I00
tp1547
sbaa(lp1548
(iModules.cell
Cell
p1549
(dp1550
g5
I00
sg10
(I00
I00
tp1551
sba(iModules.cell
Cell
p1552
(dp1553
g280
I00
sg5
I00
sg258
I01
sg10
(I00
I00
tp1554
sg282
(lp1555
I6
aI1
asba(iModules.cell
Cell
p1556
(dp1557
g5
I00
sg258
I01
sg10
(I01
I01
tp1558
sba(iModules.cell
Cell
p1559
(dp1560
g5
I00
sg258
I01
sg10
(I01
I01
tp1561
sba(iModules.cell
Cell
p1562
(dp1563
g5
I00
sg258
I01
sg10
(I01
I01
tp1564
sba(iModules.cell
Cell
p1565
(dp1566
g5
I00
sg258
I01
sg10
(I01
I01
tp1567
sba(iModules.cell
Cell
p1568
(dp1569
g5
I00
sg258
I01
sg10
(I01
I01
tp1570
sba(iModules.cell
Cell
p1571
(dp1572
g5
I00
sg258
I01
sg10
(I01
I01
tp1573
sba(iModules.cell
Cell
p1574
(dp1575
g5
I00
sg258
I01
sg10
(I01
I01
tp1576
sba(iModules.cell
Cell
p1577
(dp1578
g5
I00
sg258
I01
sg10
(I01
I01
tp1579
sba(iModules.cell
Cell
p1580
(dp1581
g5
I00
sg258
I01
sg10
(I01
I01
tp1582
sba(iModules.cell
Cell
p1583
(dp1584
g5
I00
sg258
I01
sg10
(I01
I01
tp1585
sba(iModules.cell
Cell
p1586
(dp1587
g5
I00
sg258
I01
sg10
(I01
I01
tp1588
sba(iModules.cell
Cell
p1589
(dp1590
g5
I00
sg258
I01
sg10
(I01
I01
tp1591
sba(iModules.cell
Cell
p1592
(dp1593
g5
I00
sg258
I01
sg10
(I01
I01
tp1594
sba(iModules.cell
Cell
p1595
(dp1596
g5
I00
sg258
I01
sg10
(I01
I01
tp1597
sba(iModules.cell
Cell
p1598
(dp1599
g5
I00
sg258
I01
sg10
(I01
I01
tp1600
sba(iModules.cell
Cell
p1601
(dp1602
g5
I00
sg258
I01
sg10
(I01
I01
tp1603
sba(iModules.cell
Cell
p1604
(dp1605
g5
I00
sg258
I01
sg10
(I01
I01
tp1606
sba(iModules.cell
Cell
p1607
(dp1608
g5
I00
sg258
I01
sg10
(I01
I01
tp1609
sba(iModules.cell
Cell
p1610
(dp1611
g5
I00
sg258
I01
sg10
(I01
I01
tp1612
sba(iModules.cell
Cell
p1613
(dp1614
g5
I00
sg258
I01
sg10
(I01
I01
tp1615
sba(iModules.cell
Cell
p1616
(dp1617
g5
I00
sg258
I01
sg10
(I01
I01
tp1618
sba(iModules.cell
Cell
p1619
(dp1620
g5
I00
sg258
I01
sg10
(I01
I01
tp1621
sba(iModules.cell
Cell
p1622
(dp1623
g5
I00
sg258
I01
sg10
(I01
I01
tp1624
sba(iModules.cell
Cell
p1625
(dp1626
g5
I00
sg258
I01
sg10
(I01
I01
tp1627
sba(iModules.cell
Cell
p1628
(dp1629
g5
I00
sg258
I01
sg10
(I01
I01
tp1630
sba(iModules.cell
Cell
p1631
(dp1632
g5
I00
sg258
I01
sg10
(I01
I01
tp1633
sba(iModules.cell
Cell
p1634
(dp1635
g5
I00
sg258
I01
sg10
(I01
I01
tp1636
sba(iModules.cell
Cell
p1637
(dp1638
g5
I00
sg258
I01
sg10
(I01
I01
tp1639
sba(iModules.cell
Cell
p1640
(dp1641
g5
I00
sg258
I01
sg10
(I01
I01
tp1642
sba(iModules.cell
Cell
p1643
(dp1644
g5
I00
sg258
I01
sg10
(I01
I01
tp1645
sba(iModules.cell
Cell
p1646
(dp1647
g5
I00
sg258
I01
sg10
(I01
I01
tp1648
sba(iModules.cell
Cell
p1649
(dp1650
g5
I00
sg258
I01
sg10
(I01
I01
tp1651
sba(iModules.cell
Cell
p1652
(dp1653
g5
I00
sg258
I01
sg10
(I01
I01
tp1654
sba(iModules.cell
Cell
p1655
(dp1656
g5
I00
sg258
I01
sg10
(I01
I01
tp1657
sba(iModules.cell
Cell
p1658
(dp1659
g5
I00
sg258
I01
sg10
(I01
I01
tp1660
sba(iModules.cell
Newt
p1661
(dp1662
g595
g596
sg5
I00
sg597
(iModules.cell
Cell
p1663
(dp1664
g5
I00
sg258
I01
sg10
(I01
I01
tp1665
sbsg601
g602
sba(iModules.cell
Cell
p1666
(dp1667
g5
I00
sg258
I01
sg10
(I01
I01
tp1668
sba(iModules.cell
Cell
p1669
(dp1670
g5
I00
sg258
I01
sg10
(I01
I01
tp1671
sba(iModules.cell
Cell
p1672
(dp1673
g5
I00
sg258
I01
sg10
(I01
I01
tp1674
sba(iModules.cell
Cell
p1675
(dp1676
g5
I00
sg258
I01
sg10
(I01
I01
tp1677
sba(iModules.cell
Cell
p1678
(dp1679
g5
I00
sg258
I01
sg10
(I01
I01
tp1680
sba(iModules.cell
Cell
p1681
(dp1682
g5
I00
sg258
I01
sg10
(I01
I01
tp1683
sba(iModules.cell
Cell
p1684
(dp1685
g5
I00
sg258
I01
sg10
(I01
I01
tp1686
sba(iModules.cell
Cell
p1687
(dp1688
g5
I00
sg258
I01
sg10
(I01
I01
tp1689
sba(iModules.cell
Cell
p1690
(dp1691
g5
I00
sg10
(I01
I01
tp1692
sba(iModules.cell
Cell
p1693
(dp1694
g5
I00
sg10
(I01
I01
tp1695
sba(iModules.cell
Cell
p1696
(dp1697
g5
I00
sg10
(I01
I01
tp1698
sba(iModules.cell
Cell
p1699
(dp1700
g5
I00
sg10
(I01
I01
tp1701
sba(iModules.cell
Cell
p1702
(dp1703
g5
I00
sg10
(I01
I01
tp1704
sba(iModules.cell
Cell
p1705
(dp1706
g5
I00
sg10
(I01
I01
tp1707
sba(iModules.cell
Cell
p1708
(dp1709
g5
I00
sg10
(I01
I01
tp1710
sba(iModules.cell
Cell
p1711
(dp1712
g5
I00
sg10
(I01
I01
tp1713
sba(iModules.cell
Cell
p1714
(dp1715
g5
I00
sg10
(I01
I01
tp1716
sba(iModules.cell
Cell
p1717
(dp1718
g5
I00
sg10
(I01
I01
tp1719
sba(iModules.cell
Cell
p1720
(dp1721
g5
I00
sg10
(I01
I01
tp1722
sba(iModules.cell
Cell
p1723
(dp1724
g5
I00
sg10
(I01
I01
tp1725
sba(iModules.cell
Cell
p1726
(dp1727
g5
I00
sg10
(I01
I01
tp1728
sba(iModules.cell
Cell
p1729
(dp1730
g5
I00
sg10
(I01
I01
tp1731
sba(iModules.cell
Cell
p1732
(dp1733
g5
I00
sg10
(I01
I01
tp1734
sba(iModules.cell
Cell
p1735
(dp1736
g5
I00
sg10
(I00
I00
tp1737
sba(iModules.cell
Cell
p1738
(dp1739
g5
I00
sg10
(I00
I00
tp1740
sba(iModules.cell
Cell
p1741
(dp1742
g5
I00
sg10
(I00
I00
tp1743
sba(iModules.cell
Cell
p1744
(dp1745
g5
I00
sg10
(I00
I00
tp1746
sba(iModules.cell
Cell
p1747
(dp1748
g5
I00
sg10
(I00
I00
tp1749
sba(iModules.cell
Cell
p1750
(dp1751
g5
I00
sg10
(I00
I00
tp1752
sba(iModules.cell
Cell
p1753
(dp1754
g5
I00
sg10
(I00
I00
tp1755
sba(iModules.cell
Cell
p1756
(dp1757
g5
I00
sg10
(I00
I00
tp1758
sba(iModules.cell
Cell
p1759
(dp1760
g5
I00
sg10
(I00
I00
tp1761
sba(iModules.cell
Cell
p1762
(dp1763
g5
I00
sg10
(I00
I00
tp1764
sba(iModules.cell
Cell
p1765
(dp1766
g5
I00
sg10
(I00
I00
tp1767
sba(iModules.cell
Cell
p1768
(dp1769
g5
I00
sg10
(I00
I00
tp1770
sba(iModules.cell
Cell
p1771
(dp1772
g5
I00
sg10
(I00
I00
tp1773
sba(iModules.cell
Cell
p1774
(dp1775
g5
I00
sg10
(I00
I00
tp1776
sba(iModules.cell
Cell
p1777
(dp1778
g5
I00
sg10
(I00
I00
tp1779
sba(iModules.cell
Cell
p1780
(dp1781
g5
I00
sg10
(I00
I00
tp1782
sba(iModules.cell
Cell
p1783
(dp1784
g5
I00
sg10
(I00
I00
tp1785
sba(iModules.cell
Cell
p1786
(dp1787
g5
I00
sg10
(I00
I00
tp1788
sba(iModules.cell
Cell
p1789
(dp1790
g5
I00
sg10
(I00
I00
tp1791
sba(iModules.cell
Cell
p1792
(dp1793
g10
(I00
I00
tp1794
sbaa(lp1795
(iModules.cell
Cell
p1796
(dp1797
g5
I00
sg10
(I00
I00
tp1798
sba(iModules.cell
Cell
p1799
(dp1800
g280
I00
sg5
I00
sg258
I01
sg10
(I00
I00
tp1801
sg282
(lp1802
I7
aI1
asba(iModules.cell
Cell
p1803
(dp1804
g5
I00
sg258
I01
sg10
(I01
I01
tp1805
sba(iModules.cell
Cell
p1806
(dp1807
g5
I00
sg258
I01
sg10
(I01
I01
tp1808
sba(iModules.cell
Cell
p1809
(dp1810
g5
I00
sg258
I01
sg10
(I01
I01
tp1811
sba(iModules.cell
Cell
p1812
(dp1813
g5
I00
sg258
I01
sg10
(I01
I01
tp1814
sba(iModules.cell
Cell
p1815
(dp1816
g5
I00
sg258
I01
sg10
(I01
I01
tp1817
sba(iModules.cell
Cell
p1818
(dp1819
g5
I00
sg258
I01
sg10
(I01
I01
tp1820
sba(iModules.cell
Cell
p1821
(dp1822
g5
I00
sg258
I01
sg10
(I01
I01
tp1823
sba(iModules.cell
Cell
p1824
(dp1825
g5
I00
sg258
I01
sg10
(I01
I01
tp1826
sba(iModules.cell
Cell
p1827
(dp1828
g5
I00
sg258
I01
sg10
(I01
I01
tp1829
sba(iModules.cell
Cell
p1830
(dp1831
g5
I00
sg258
I01
sg10
(I01
I01
tp1832
sba(iModules.cell
Cell
p1833
(dp1834
g5
I00
sg258
I01
sg10
(I01
I01
tp1835
sba(iModules.cell
Cell
p1836
(dp1837
g5
I00
sg258
I01
sg10
(I01
I01
tp1838
sba(iModules.cell
Cell
p1839
(dp1840
g5
I00
sg258
I01
sg10
(I01
I01
tp1841
sba(iModules.cell
Cell
p1842
(dp1843
g5
I00
sg258
I01
sg10
(I01
I01
tp1844
sba(iModules.cell
Cell
p1845
(dp1846
g5
I00
sg258
I01
sg10
(I01
I01
tp1847
sba(iModules.cell
Cell
p1848
(dp1849
g5
I00
sg258
I01
sg10
(I01
I01
tp1850
sba(iModules.cell
Cell
p1851
(dp1852
g5
I00
sg258
I01
sg10
(I01
I01
tp1853
sba(iModules.cell
Cell
p1854
(dp1855
g5
I00
sg258
I01
sg10
(I01
I01
tp1856
sba(iModules.cell
Cell
p1857
(dp1858
g5
I00
sg258
I01
sg10
(I01
I01
tp1859
sba(iModules.cell
Cell
p1860
(dp1861
g5
I00
sg258
I01
sg10
(I01
I01
tp1862
sba(iModules.cell
Cell
p1863
(dp1864
g5
I00
sg258
I01
sg10
(I01
I01
tp1865
sba(iModules.cell
Cell
p1866
(dp1867
g5
I00
sg258
I01
sg10
(I01
I01
tp1868
sba(iModules.cell
Cell
p1869
(dp1870
g5
I00
sg258
I01
sg10
(I01
I01
tp1871
sba(iModules.cell
Cell
p1872
(dp1873
g5
I00
sg258
I01
sg10
(I01
I01
tp1874
sba(iModules.cell
Cell
p1875
(dp1876
g5
I00
sg258
I01
sg10
(I01
I01
tp1877
sba(iModules.cell
Cell
p1878
(dp1879
g5
I00
sg258
I01
sg10
(I01
I01
tp1880
sba(iModules.cell
Cell
p1881
(dp1882
g5
I00
sg258
I01
sg10
(I01
I01
tp1883
sba(iModules.cell
Cell
p1884
(dp1885
g5
I00
sg258
I01
sg10
(I01
I01
tp1886
sba(iModules.cell
Cell
p1887
(dp1888
g5
I00
sg258
I01
sg10
(I01
I01
tp1889
sba(iModules.cell
Cell
p1890
(dp1891
g5
I00
sg258
I01
sg10
(I01
I01
tp1892
sba(iModules.cell
Cell
p1893
(dp1894
g5
I00
sg258
I01
sg10
(I01
I01
tp1895
sba(iModules.cell
Cell
p1896
(dp1897
g5
I00
sg258
I01
sg10
(I01
I01
tp1898
sba(iModules.cell
Cell
p1899
(dp1900
g5
I00
sg258
I01
sg10
(I01
I01
tp1901
sba(iModules.cell
Cell
p1902
(dp1903
g5
I00
sg258
I01
sg10
(I01
I01
tp1904
sba(iModules.cell
Cell
p1905
(dp1906
g5
I00
sg258
I01
sg10
(I01
I01
tp1907
sba(iModules.cell
Cell
p1908
(dp1909
g5
I00
sg258
I01
sg10
(I01
I01
tp1910
sba(iModules.cell
Cell
p1911
(dp1912
g5
I00
sg258
I01
sg10
(I01
I01
tp1913
sba(iModules.cell
Cell
p1914
(dp1915
g5
I00
sg258
I01
sg10
(I01
I01
tp1916
sba(iModules.cell
Cell
p1917
(dp1918
g5
I00
sg258
I01
sg10
(I01
I01
tp1919
sba(iModules.cell
Cell
p1920
(dp1921
g5
I00
sg258
I01
sg10
(I01
I01
tp1922
sba(iModules.cell
Cell
p1923
(dp1924
g5
I00
sg258
I01
sg10
(I01
I01
tp1925
sba(iModules.cell
Cell
p1926
(dp1927
g5
I00
sg258
I01
sg10
(I01
I01
tp1928
sba(iModules.cell
Cell
p1929
(dp1930
g5
I00
sg258
I01
sg10
(I01
I01
tp1931
sba(iModules.cell
Cell
p1932
(dp1933
g5
I00
sg258
I01
sg10
(I01
I01
tp1934
sba(iModules.cell
Cell
p1935
(dp1936
g5
I00
sg10
(I01
I01
tp1937
sba(iModules.cell
Cell
p1938
(dp1939
g5
I00
sg10
(I01
I01
tp1940
sba(iModules.cell
Cell
p1941
(dp1942
g5
I00
sg10
(I01
I01
tp1943
sba(iModules.cell
Cell
p1944
(dp1945
g5
I00
sg10
(I01
I01
tp1946
sba(iModules.cell
Cell
p1947
(dp1948
g5
I00
sg10
(I01
I01
tp1949
sba(iModules.cell
Cell
p1950
(dp1951
g5
I00
sg10
(I01
I01
tp1952
sba(iModules.cell
Cell
p1953
(dp1954
g5
I00
sg10
(I01
I01
tp1955
sba(iModules.cell
Cell
p1956
(dp1957
g5
I00
sg10
(I01
I01
tp1958
sba(iModules.cell
Cell
p1959
(dp1960
g5
I00
sg10
(I01
I01
tp1961
sba(iModules.cell
Cell
p1962
(dp1963
g5
I00
sg10
(I01
I01
tp1964
sba(iModules.cell
Cell
p1965
(dp1966
g5
I00
sg10
(I01
I01
tp1967
sba(iModules.cell
Cell
p1968
(dp1969
g5
I00
sg10
(I01
I01
tp1970
sba(iModules.cell
Cell
p1971
(dp1972
g5
I00
sg10
(I01
I01
tp1973
sba(iModules.cell
Cell
p1974
(dp1975
g5
I00
sg10
(I01
I01
tp1976
sba(iModules.cell
Cell
p1977
(dp1978
g5
I00
sg10
(I01
I01
tp1979
sba(iModules.cell
Cell
p1980
(dp1981
g5
I00
sg10
(I00
I00
tp1982
sba(iModules.cell
Cell
p1983
(dp1984
g5
I00
sg10
(I00
I00
tp1985
sba(iModules.cell
Cell
p1986
(dp1987
g5
I00
sg10
(I00
I00
tp1988
sba(iModules.cell
Cell
p1989
(dp1990
g5
I00
sg10
(I00
I00
tp1991
sba(iModules.cell
Cell
p1992
(dp1993
g5
I00
sg10
(I00
I00
tp1994
sba(iModules.cell
Cell
p1995
(dp1996
g5
I00
sg10
(I00
I00
tp1997
sba(iModules.cell
Cell
p1998
(dp1999
g5
I00
sg10
(I00
I00
tp2000
sba(iModules.cell
Cell
p2001
(dp2002
g5
I00
sg10
(I00
I00
tp2003
sba(iModules.cell
Cell
p2004
(dp2005
g5
I00
sg10
(I00
I00
tp2006
sba(iModules.cell
Cell
p2007
(dp2008
g5
I00
sg10
(I00
I00
tp2009
sba(iModules.cell
Cell
p2010
(dp2011
g5
I00
sg10
(I00
I00
tp2012
sba(iModules.cell
Cell
p2013
(dp2014
g5
I00
sg10
(I00
I00
tp2015
sba(iModules.cell
Cell
p2016
(dp2017
g5
I00
sg10
(I00
I00
tp2018
sba(iModules.cell
Cell
p2019
(dp2020
g5
I00
sg10
(I00
I00
tp2021
sba(iModules.cell
Cell
p2022
(dp2023
g5
I00
sg10
(I00
I00
tp2024
sba(iModules.cell
Cell
p2025
(dp2026
g5
I00
sg10
(I00
I00
tp2027
sba(iModules.cell
Cell
p2028
(dp2029
g5
I00
sg10
(I00
I00
tp2030
sba(iModules.cell
Cell
p2031
(dp2032
g5
I00
sg10
(I00
I00
tp2033
sba(iModules.cell
Cell
p2034
(dp2035
g5
I00
sg10
(I00
I00
tp2036
sba(iModules.cell
Cell
p2037
(dp2038
g10
(I00
I00
tp2039
sbaa(lp2040
(iModules.cell
Cell
p2041
(dp2042
g5
I00
sg10
(I00
I00
tp2043
sba(iModules.cell
Cell
p2044
(dp2045
g280
I00
sg5
I00
sg258
I01
sg10
(I00
I00
tp2046
sg282
(lp2047
I8
aI1
asba(iModules.cell
Cell
p2048
(dp2049
g5
I00
sg258
I01
sg10
(I01
I01
tp2050
sba(iModules.cell
Cell
p2051
(dp2052
g5
I00
sg258
I01
sg10
(I01
I01
tp2053
sba(iModules.cell
Cell
p2054
(dp2055
g5
I00
sg258
I01
sg10
(I01
I01
tp2056
sba(iModules.cell
Cell
p2057
(dp2058
g5
I00
sg258
I01
sg10
(I01
I01
tp2059
sba(iModules.cell
Cell
p2060
(dp2061
g5
I00
sg258
I01
sg10
(I01
I01
tp2062
sba(iModules.cell
Cell
p2063
(dp2064
g5
I00
sg258
I01
sg10
(I01
I01
tp2065
sba(iModules.cell
Cell
p2066
(dp2067
g5
I00
sg258
I01
sg10
(I01
I01
tp2068
sba(iModules.cell
Cell
p2069
(dp2070
g5
I00
sg258
I01
sg10
(I01
I01
tp2071
sba(iModules.cell
Cell
p2072
(dp2073
g5
I00
sg258
I01
sg10
(I01
I01
tp2074
sba(iModules.cell
Cell
p2075
(dp2076
g5
I00
sg258
I01
sg10
(I01
I01
tp2077
sba(iModules.cell
Cell
p2078
(dp2079
g5
I00
sg258
I01
sg10
(I01
I01
tp2080
sba(iModules.cell
Cell
p2081
(dp2082
g5
I00
sg258
I01
sg10
(I01
I01
tp2083
sba(iModules.cell
Cell
p2084
(dp2085
g5
I00
sg258
I01
sg10
(I01
I01
tp2086
sba(iModules.cell
Cell
p2087
(dp2088
g5
I00
sg258
I01
sg10
(I01
I01
tp2089
sba(iModules.cell
Cell
p2090
(dp2091
g5
I00
sg258
I01
sg10
(I01
I01
tp2092
sba(iModules.cell
Cell
p2093
(dp2094
g5
I00
sg258
I01
sg10
(I01
I01
tp2095
sba(iModules.cell
Cell
p2096
(dp2097
g5
I00
sg258
I01
sg10
(I01
I01
tp2098
sba(iModules.cell
Cell
p2099
(dp2100
g5
I00
sg258
I01
sg10
(I01
I01
tp2101
sba(iModules.cell
Cell
p2102
(dp2103
g5
I00
sg258
I01
sg10
(I01
I01
tp2104
sba(iModules.cell
Cell
p2105
(dp2106
g5
I00
sg258
I01
sg10
(I01
I01
tp2107
sba(iModules.cell
Cell
p2108
(dp2109
g5
I00
sg258
I01
sg10
(I01
I01
tp2110
sba(iModules.cell
Cell
p2111
(dp2112
g5
I00
sg258
I01
sg10
(I01
I01
tp2113
sba(iModules.cell
Cell
p2114
(dp2115
g5
I00
sg258
I01
sg10
(I01
I01
tp2116
sba(iModules.cell
Cell
p2117
(dp2118
g5
I00
sg258
I01
sg10
(I01
I01
tp2119
sba(iModules.cell
Cell
p2120
(dp2121
g5
I00
sg258
I01
sg10
(I01
I01
tp2122
sba(iModules.cell
Cell
p2123
(dp2124
g5
I00
sg258
I01
sg10
(I01
I01
tp2125
sba(iModules.cell
Cell
p2126
(dp2127
g5
I00
sg258
I01
sg10
(I01
I01
tp2128
sba(iModules.cell
Cell
p2129
(dp2130
g5
I00
sg258
I01
sg10
(I01
I01
tp2131
sba(iModules.cell
Cell
p2132
(dp2133
g5
I00
sg258
I01
sg10
(I01
I01
tp2134
sba(iModules.cell
Cell
p2135
(dp2136
g5
I00
sg258
I01
sg10
(I01
I01
tp2137
sba(iModules.cell
Cell
p2138
(dp2139
g5
I00
sg258
I01
sg10
(I01
I01
tp2140
sba(iModules.cell
Cell
p2141
(dp2142
g5
I00
sg258
I01
sg10
(I01
I01
tp2143
sba(iModules.cell
Cell
p2144
(dp2145
g5
I00
sg258
I01
sg10
(I01
I01
tp2146
sba(iModules.cell
Cell
p2147
(dp2148
g5
I00
sg258
I01
sg10
(I01
I01
tp2149
sba(iModules.cell
Cell
p2150
(dp2151
g5
I00
sg258
I01
sg10
(I01
I01
tp2152
sba(iModules.cell
Cell
p2153
(dp2154
g5
I00
sg258
I01
sg10
(I01
I01
tp2155
sba(iModules.cell
Cell
p2156
(dp2157
g5
I00
sg258
I01
sg10
(I01
I01
tp2158
sba(iModules.cell
Cell
p2159
(dp2160
g5
I00
sg258
I01
sg10
(I01
I01
tp2161
sba(iModules.cell
Cell
p2162
(dp2163
g5
I00
sg258
I01
sg10
(I01
I01
tp2164
sba(iModules.cell
Cell
p2165
(dp2166
g5
I00
sg258
I01
sg10
(I01
I01
tp2167
sba(iModules.cell
Cell
p2168
(dp2169
g5
I00
sg258
I01
sg10
(I01
I01
tp2170
sba(iModules.cell
Cell
p2171
(dp2172
g5
I00
sg258
I01
sg10
(I01
I01
tp2173
sba(iModules.cell
Cell
p2174
(dp2175
g5
I00
sg258
I01
sg10
(I01
I01
tp2176
sba(iModules.cell
Cell
p2177
(dp2178
g5
I00
sg258
I01
sg10
(I01
I01
tp2179
sba(iModules.cell
Cell
p2180
(dp2181
g5
I00
sg10
(I01
I01
tp2182
sba(iModules.cell
Cell
p2183
(dp2184
g5
I00
sg10
(I01
I01
tp2185
sba(iModules.cell
Cell
p2186
(dp2187
g5
I00
sg10
(I01
I01
tp2188
sba(iModules.cell
Cell
p2189
(dp2190
g5
I00
sg10
(I01
I01
tp2191
sba(iModules.cell
Cell
p2192
(dp2193
g5
I00
sg10
(I01
I01
tp2194
sba(iModules.cell
Cell
p2195
(dp2196
g5
I00
sg10
(I01
I01
tp2197
sba(iModules.cell
Cell
p2198
(dp2199
g5
I00
sg10
(I01
I01
tp2200
sba(iModules.cell
Cell
p2201
(dp2202
g5
I00
sg10
(I01
I01
tp2203
sba(iModules.cell
Cell
p2204
(dp2205
g5
I00
sg10
(I01
I01
tp2206
sba(iModules.cell
Cell
p2207
(dp2208
g5
I00
sg10
(I01
I01
tp2209
sba(iModules.cell
Cell
p2210
(dp2211
g5
I00
sg10
(I01
I01
tp2212
sba(iModules.cell
Cell
p2213
(dp2214
g5
I00
sg10
(I01
I01
tp2215
sba(iModules.cell
Cell
p2216
(dp2217
g5
I00
sg10
(I01
I01
tp2218
sba(iModules.cell
Cell
p2219
(dp2220
g5
I00
sg10
(I01
I01
tp2221
sba(iModules.cell
Cell
p2222
(dp2223
g5
I00
sg10
(I01
I01
tp2224
sba(iModules.cell
Cell
p2225
(dp2226
g5
I00
sg10
(I00
I00
tp2227
sba(iModules.cell
Cell
p2228
(dp2229
g5
I00
sg10
(I00
I00
tp2230
sba(iModules.cell
Cell
p2231
(dp2232
g5
I00
sg10
(I00
I00
tp2233
sba(iModules.cell
Cell
p2234
(dp2235
g5
I00
sg10
(I00
I00
tp2236
sba(iModules.cell
Cell
p2237
(dp2238
g5
I00
sg10
(I00
I00
tp2239
sba(iModules.cell
Cell
p2240
(dp2241
g5
I00
sg10
(I00
I00
tp2242
sba(iModules.cell
Cell
p2243
(dp2244
g5
I00
sg10
(I00
I00
tp2245
sba(iModules.cell
Cell
p2246
(dp2247
g5
I00
sg10
(I00
I00
tp2248
sba(iModules.cell
Cell
p2249
(dp2250
g5
I00
sg10
(I00
I00
tp2251
sba(iModules.cell
Cell
p2252
(dp2253
g5
I00
sg10
(I00
I00
tp2254
sba(iModules.cell
Cell
p2255
(dp2256
g5
I00
sg10
(I00
I00
tp2257
sba(iModules.cell
Cell
p2258
(dp2259
g5
I00
sg10
(I00
I00
tp2260
sba(iModules.cell
Cell
p2261
(dp2262
g5
I00
sg10
(I00
I00
tp2263
sba(iModules.cell
Cell
p2264
(dp2265
g5
I00
sg10
(I00
I00
tp2266
sba(iModules.cell
Cell
p2267
(dp2268
g5
I00
sg10
(I00
I00
tp2269
sba(iModules.cell
Cell
p2270
(dp2271
g5
I00
sg10
(I00
I00
tp2272
sba(iModules.cell
Cell
p2273
(dp2274
g5
I00
sg10
(I00
I00
tp2275
sba(iModules.cell
Cell
p2276
(dp2277
g5
I00
sg10
(I00
I00
tp2278
sba(iModules.cell
Cell
p2279
(dp2280
g5
I00
sg10
(I00
I00
tp2281
sba(iModules.cell
Cell
p2282
(dp2283
g10
(I00
I00
tp2284
sbaa(lp2285
(iModules.cell
Cell
p2286
(dp2287
g5
I00
sg10
(I00
I00
tp2288
sba(iModules.cell
Cell
p2289
(dp2290
g280
I00
sg5
I00
sg258
I01
sg10
(I00
I00
tp2291
sg282
(lp2292
I9
aI1
asba(iModules.cell
Cell
p2293
(dp2294
g5
I00
sg258
I01
sg10
(I01
I01
tp2295
sba(iModules.cell
Cell
p2296
(dp2297
g5
I00
sg258
I01
sg10
(I01
I01
tp2298
sba(iModules.cell
Cell
p2299
(dp2300
g5
I00
sg258
I01
sg10
(I01
I01
tp2301
sba(iModules.cell
Cell
p2302
(dp2303
g5
I00
sg258
I01
sg10
(I01
I01
tp2304
sba(iModules.cell
Cell
p2305
(dp2306
g5
I00
sg258
I01
sg10
(I01
I01
tp2307
sba(iModules.cell
Cell
p2308
(dp2309
g5
I00
sg258
I01
sg10
(I01
I01
tp2310
sba(iModules.cell
Cell
p2311
(dp2312
g5
I00
sg258
I01
sg10
(I01
I01
tp2313
sba(iModules.cell
Cell
p2314
(dp2315
g5
I00
sg258
I01
sg10
(I01
I01
tp2316
sba(iModules.cell
Cell
p2317
(dp2318
g5
I00
sg258
I01
sg10
(I01
I01
tp2319
sba(iModules.cell
Cell
p2320
(dp2321
g5
I00
sg258
I01
sg10
(I01
I01
tp2322
sba(iModules.cell
Cell
p2323
(dp2324
g5
I00
sg258
I01
sg10
(I01
I01
tp2325
sba(iModules.cell
Cell
p2326
(dp2327
g5
I00
sg258
I01
sg10
(I01
I01
tp2328
sba(iModules.cell
Cell
p2329
(dp2330
g5
I00
sg258
I01
sg10
(I01
I01
tp2331
sba(iModules.cell
Cell
p2332
(dp2333
g5
I00
sg258
I01
sg10
(I01
I01
tp2334
sba(iModules.cell
Cell
p2335
(dp2336
g5
I00
sg258
I01
sg10
(I01
I01
tp2337
sba(iModules.cell
Cell
p2338
(dp2339
g5
I00
sg258
I01
sg10
(I01
I01
tp2340
sba(iModules.cell
Cell
p2341
(dp2342
g5
I00
sg258
I01
sg10
(I01
I01
tp2343
sba(iModules.cell
Cell
p2344
(dp2345
g5
I00
sg258
I01
sg10
(I01
I01
tp2346
sba(iModules.cell
Cell
p2347
(dp2348
g5
I00
sg258
I01
sg10
(I01
I01
tp2349
sba(iModules.cell
Cell
p2350
(dp2351
g5
I00
sg258
I01
sg10
(I01
I01
tp2352
sba(iModules.cell
Cell
p2353
(dp2354
g5
I00
sg258
I01
sg10
(I01
I01
tp2355
sba(iModules.cell
Cell
p2356
(dp2357
g5
I00
sg258
I01
sg10
(I01
I01
tp2358
sba(iModules.cell
Cell
p2359
(dp2360
g5
I00
sg258
I01
sg10
(I01
I01
tp2361
sba(iModules.cell
Cell
p2362
(dp2363
g5
I00
sg258
I01
sg10
(I01
I01
tp2364
sba(iModules.cell
Cell
p2365
(dp2366
g5
I00
sg258
I01
sg10
(I01
I01
tp2367
sba(iModules.cell
Cell
p2368
(dp2369
g5
I00
sg258
I01
sg10
(I01
I01
tp2370
sba(iModules.cell
Cell
p2371
(dp2372
g5
I00
sg258
I01
sg10
(I01
I01
tp2373
sba(iModules.cell
Cell
p2374
(dp2375
g5
I00
sg258
I01
sg10
(I01
I01
tp2376
sba(iModules.cell
Cell
p2377
(dp2378
g5
I00
sg258
I01
sg10
(I01
I01
tp2379
sba(iModules.cell
Cell
p2380
(dp2381
g5
I00
sg258
I01
sg10
(I01
I01
tp2382
sba(iModules.cell
Cell
p2383
(dp2384
g5
I00
sg258
I01
sg10
(I01
I01
tp2385
sba(iModules.cell
Cell
p2386
(dp2387
g5
I00
sg258
I01
sg10
(I01
I01
tp2388
sba(iModules.cell
Cell
p2389
(dp2390
g5
I00
sg258
I01
sg10
(I01
I01
tp2391
sba(iModules.cell
Cell
p2392
(dp2393
g5
I00
sg258
I01
sg10
(I01
I01
tp2394
sba(iModules.cell
Cell
p2395
(dp2396
g5
I00
sg258
I01
sg10
(I01
I01
tp2397
sba(iModules.cell
Cell
p2398
(dp2399
g5
I00
sg258
I01
sg10
(I01
I01
tp2400
sba(iModules.cell
Cell
p2401
(dp2402
g5
I00
sg258
I01
sg10
(I01
I01
tp2403
sba(iModules.cell
Cell
p2404
(dp2405
g5
I00
sg258
I01
sg10
(I01
I01
tp2406
sba(iModules.cell
Cell
p2407
(dp2408
g5
I00
sg258
I01
sg10
(I01
I01
tp2409
sba(iModules.cell
Cell
p2410
(dp2411
g5
I00
sg258
I01
sg10
(I01
I01
tp2412
sba(iModules.cell
Cell
p2413
(dp2414
g5
I00
sg258
I01
sg10
(I01
I01
tp2415
sba(iModules.cell
Cell
p2416
(dp2417
g5
I00
sg258
I01
sg10
(I01
I01
tp2418
sba(iModules.cell
Cell
p2419
(dp2420
g5
I00
sg258
I01
sg10
(I01
I01
tp2421
sba(iModules.cell
Cell
p2422
(dp2423
g5
I00
sg258
I01
sg10
(I01
I01
tp2424
sba(iModules.cell
Cell
p2425
(dp2426
g5
I00
sg10
(I01
I01
tp2427
sba(iModules.cell
Cell
p2428
(dp2429
g5
I00
sg10
(I01
I01
tp2430
sba(iModules.cell
Cell
p2431
(dp2432
g5
I00
sg10
(I01
I01
tp2433
sba(iModules.cell
Cell
p2434
(dp2435
g5
I00
sg10
(I01
I01
tp2436
sba(iModules.cell
Cell
p2437
(dp2438
g5
I00
sg10
(I01
I01
tp2439
sba(iModules.cell
Cell
p2440
(dp2441
g5
I00
sg10
(I01
I01
tp2442
sba(iModules.cell
Cell
p2443
(dp2444
g5
I00
sg10
(I01
I01
tp2445
sba(iModules.cell
Cell
p2446
(dp2447
g5
I00
sg10
(I01
I01
tp2448
sba(iModules.cell
Cell
p2449
(dp2450
g5
I00
sg10
(I01
I01
tp2451
sba(iModules.cell
Cell
p2452
(dp2453
g5
I00
sg10
(I01
I01
tp2454
sba(iModules.cell
Cell
p2455
(dp2456
g5
I00
sg10
(I01
I01
tp2457
sba(iModules.cell
Cell
p2458
(dp2459
g5
I00
sg10
(I01
I01
tp2460
sba(iModules.cell
Cell
p2461
(dp2462
g5
I00
sg10
(I01
I01
tp2463
sba(iModules.cell
Cell
p2464
(dp2465
g5
I00
sg10
(I01
I01
tp2466
sba(iModules.cell
Cell
p2467
(dp2468
g5
I00
sg10
(I01
I01
tp2469
sba(iModules.cell
Cell
p2470
(dp2471
g5
I00
sg10
(I00
I00
tp2472
sba(iModules.cell
Cell
p2473
(dp2474
g5
I00
sg10
(I00
I00
tp2475
sba(iModules.cell
Cell
p2476
(dp2477
g5
I00
sg10
(I00
I00
tp2478
sba(iModules.cell
Cell
p2479
(dp2480
g5
I00
sg10
(I00
I00
tp2481
sba(iModules.cell
Cell
p2482
(dp2483
g5
I00
sg10
(I00
I00
tp2484
sba(iModules.cell
Cell
p2485
(dp2486
g5
I00
sg10
(I00
I00
tp2487
sba(iModules.cell
Cell
p2488
(dp2489
g5
I00
sg10
(I00
I00
tp2490
sba(iModules.cell
Cell
p2491
(dp2492
g5
I00
sg10
(I00
I00
tp2493
sba(iModules.cell
Cell
p2494
(dp2495
g5
I00
sg10
(I00
I00
tp2496
sba(iModules.cell
Cell
p2497
(dp2498
g5
I00
sg10
(I00
I00
tp2499
sba(iModules.cell
Cell
p2500
(dp2501
g5
I00
sg10
(I00
I00
tp2502
sba(iModules.cell
Cell
p2503
(dp2504
g5
I00
sg10
(I00
I00
tp2505
sba(iModules.cell
Cell
p2506
(dp2507
g5
I00
sg10
(I00
I00
tp2508
sba(iModules.cell
Cell
p2509
(dp2510
g5
I00
sg10
(I00
I00
tp2511
sba(iModules.cell
Cell
p2512
(dp2513
g5
I00
sg10
(I00
I00
tp2514
sba(iModules.cell
Cell
p2515
(dp2516
g5
I00
sg10
(I00
I00
tp2517
sba(iModules.cell
Cell
p2518
(dp2519
g5
I00
sg10
(I00
I00
tp2520
sba(iModules.cell
Cell
p2521
(dp2522
g5
I00
sg10
(I00
I00
tp2523
sba(iModules.cell
Cell
p2524
(dp2525
g5
I00
sg10
(I00
I00
tp2526
sba(iModules.cell
Cell
p2527
(dp2528
g10
(I00
I00
tp2529
sbaa(lp2530
(iModules.cell
Cell
p2531
(dp2532
g5
I00
sg10
(I00
I00
tp2533
sba(iModules.cell
Cell
p2534
(dp2535
g280
I00
sg5
I00
sg258
I01
sg10
(I00
I00
tp2536
sg282
(lp2537
I10
aI1
asba(iModules.cell
Cell
p2538
(dp2539
g5
I00
sg258
I01
sg10
(I01
I01
tp2540
sba(iModules.cell
Cell
p2541
(dp2542
g5
I00
sg258
I01
sg10
(I01
I01
tp2543
sba(iModules.cell
Newt
p2544
(dp2545
g595
g596
sg5
I00
sg597
(iModules.cell
Cell
p2546
(dp2547
g5
I00
sg258
I01
sg10
(I01
I01
tp2548
sbsg601
g602
sba(iModules.cell
Cell
p2549
(dp2550
g5
I00
sg258
I01
sg10
(I01
I01
tp2551
sba(iModules.cell
Cell
p2552
(dp2553
g5
I00
sg258
I01
sg10
(I01
I01
tp2554
sba(iModules.cell
Cell
p2555
(dp2556
g5
I00
sg258
I01
sg10
(I01
I01
tp2557
sba(iModules.cell
Cell
p2558
(dp2559
g5
I00
sg258
I01
sg10
(I01
I01
tp2560
sba(iModules.cell
Cell
p2561
(dp2562
g5
I00
sg258
I01
sg10
(I01
I01
tp2563
sba(iModules.cell
Cell
p2564
(dp2565
g5
I00
sg258
I01
sg10
(I01
I01
tp2566
sba(iModules.cell
Cell
p2567
(dp2568
g5
I00
sg258
I01
sg10
(I01
I01
tp2569
sba(iModules.cell
Cell
p2570
(dp2571
g5
I00
sg258
I01
sg10
(I01
I01
tp2572
sba(iModules.cell
Cell
p2573
(dp2574
g5
I00
sg258
I01
sg10
(I01
I01
tp2575
sba(iModules.cell
Cell
p2576
(dp2577
g5
I00
sg258
I01
sg10
(I01
I01
tp2578
sba(iModules.cell
Cell
p2579
(dp2580
g5
I00
sg258
I01
sg10
(I01
I01
tp2581
sba(iModules.cell
Cell
p2582
(dp2583
g5
I00
sg258
I01
sg10
(I01
I01
tp2584
sba(iModules.cell
Cell
p2585
(dp2586
g5
I00
sg258
I01
sg10
(I01
I01
tp2587
sba(iModules.cell
Cell
p2588
(dp2589
g5
I00
sg258
I01
sg10
(I01
I01
tp2590
sba(iModules.cell
Cell
p2591
(dp2592
g5
I00
sg258
I01
sg10
(I01
I01
tp2593
sba(iModules.cell
Cell
p2594
(dp2595
g5
I00
sg258
I01
sg10
(I01
I01
tp2596
sba(iModules.cell
Cell
p2597
(dp2598
g5
I00
sg258
I01
sg10
(I01
I01
tp2599
sba(iModules.cell
Cell
p2600
(dp2601
g5
I00
sg258
I01
sg10
(I01
I01
tp2602
sba(iModules.cell
Cell
p2603
(dp2604
g5
I00
sg258
I01
sg10
(I01
I01
tp2605
sba(iModules.cell
Cell
p2606
(dp2607
g5
I00
sg258
I01
sg10
(I01
I01
tp2608
sba(iModules.cell
Cell
p2609
(dp2610
g5
I00
sg258
I01
sg10
(I01
I01
tp2611
sba(iModules.cell
Cell
p2612
(dp2613
g5
I00
sg258
I01
sg10
(I01
I01
tp2614
sba(iModules.cell
Cell
p2615
(dp2616
g5
I00
sg258
I01
sg10
(I01
I01
tp2617
sba(iModules.cell
Cell
p2618
(dp2619
g5
I00
sg258
I01
sg10
(I01
I01
tp2620
sba(iModules.cell
Cell
p2621
(dp2622
g5
I00
sg258
I01
sg10
(I01
I01
tp2623
sba(iModules.cell
Cell
p2624
(dp2625
g5
I00
sg258
I01
sg10
(I01
I01
tp2626
sba(iModules.cell
Cell
p2627
(dp2628
g5
I00
sg258
I01
sg10
(I01
I01
tp2629
sba(iModules.cell
Cell
p2630
(dp2631
g5
I00
sg258
I01
sg10
(I01
I01
tp2632
sba(iModules.cell
Cell
p2633
(dp2634
g5
I00
sg258
I01
sg10
(I01
I01
tp2635
sba(iModules.cell
Cell
p2636
(dp2637
g5
I00
sg258
I01
sg10
(I01
I01
tp2638
sba(iModules.cell
Cell
p2639
(dp2640
g5
I00
sg258
I01
sg10
(I01
I01
tp2641
sba(iModules.cell
Cell
p2642
(dp2643
g5
I00
sg258
I01
sg10
(I01
I01
tp2644
sba(iModules.cell
Cell
p2645
(dp2646
g5
I00
sg258
I01
sg10
(I01
I01
tp2647
sba(iModules.cell
Cell
p2648
(dp2649
g5
I00
sg258
I01
sg10
(I01
I01
tp2650
sba(iModules.cell
Cell
p2651
(dp2652
g5
I00
sg258
I01
sg10
(I01
I01
tp2653
sba(iModules.cell
Cell
p2654
(dp2655
g5
I00
sg258
I01
sg10
(I01
I01
tp2656
sba(iModules.cell
Cell
p2657
(dp2658
g5
I00
sg258
I01
sg10
(I01
I01
tp2659
sba(iModules.cell
Cell
p2660
(dp2661
g5
I00
sg258
I01
sg10
(I01
I01
tp2662
sba(iModules.cell
Cell
p2663
(dp2664
g5
I00
sg258
I01
sg10
(I01
I01
tp2665
sba(iModules.cell
Cell
p2666
(dp2667
g5
I00
sg258
I01
sg10
(I01
I01
tp2668
sba(iModules.cell
Cell
p2669
(dp2670
g5
I00
sg258
I01
sg10
(I01
I01
tp2671
sba(iModules.cell
Cell
p2672
(dp2673
g5
I00
sg10
(I01
I01
tp2674
sba(iModules.cell
Cell
p2675
(dp2676
g5
I00
sg10
(I01
I01
tp2677
sba(iModules.cell
Cell
p2678
(dp2679
g5
I00
sg10
(I01
I01
tp2680
sba(iModules.cell
Cell
p2681
(dp2682
g5
I00
sg10
(I01
I01
tp2683
sba(iModules.cell
Cell
p2684
(dp2685
g5
I00
sg10
(I01
I01
tp2686
sba(iModules.cell
Cell
p2687
(dp2688
g5
I00
sg10
(I01
I01
tp2689
sba(iModules.cell
Cell
p2690
(dp2691
g5
I00
sg10
(I01
I01
tp2692
sba(iModules.cell
Cell
p2693
(dp2694
g5
I00
sg10
(I01
I01
tp2695
sba(iModules.cell
Cell
p2696
(dp2697
g5
I00
sg10
(I01
I01
tp2698
sba(iModules.cell
Cell
p2699
(dp2700
g5
I00
sg10
(I01
I01
tp2701
sba(iModules.cell
Cell
p2702
(dp2703
g5
I00
sg10
(I01
I01
tp2704
sba(iModules.cell
Cell
p2705
(dp2706
g5
I00
sg10
(I01
I01
tp2707
sba(iModules.cell
Cell
p2708
(dp2709
g5
I00
sg10
(I01
I01
tp2710
sba(iModules.cell
Cell
p2711
(dp2712
g5
I00
sg10
(I01
I01
tp2713
sba(iModules.cell
Cell
p2714
(dp2715
g5
I00
sg10
(I01
I01
tp2716
sba(iModules.cell
Cell
p2717
(dp2718
g5
I00
sg10
(I00
I00
tp2719
sba(iModules.cell
Cell
p2720
(dp2721
g5
I00
sg10
(I00
I00
tp2722
sba(iModules.cell
Cell
p2723
(dp2724
g5
I00
sg10
(I00
I00
tp2725
sba(iModules.cell
Cell
p2726
(dp2727
g5
I00
sg10
(I00
I00
tp2728
sba(iModules.cell
Cell
p2729
(dp2730
g5
I00
sg10
(I00
I00
tp2731
sba(iModules.cell
Cell
p2732
(dp2733
g5
I00
sg10
(I00
I00
tp2734
sba(iModules.cell
Cell
p2735
(dp2736
g5
I00
sg10
(I00
I00
tp2737
sba(iModules.cell
Cell
p2738
(dp2739
g5
I00
sg10
(I00
I00
tp2740
sba(iModules.cell
Cell
p2741
(dp2742
g5
I00
sg10
(I00
I00
tp2743
sba(iModules.cell
Cell
p2744
(dp2745
g5
I00
sg10
(I00
I00
tp2746
sba(iModules.cell
Cell
p2747
(dp2748
g5
I00
sg10
(I00
I00
tp2749
sba(iModules.cell
Cell
p2750
(dp2751
g5
I00
sg10
(I00
I00
tp2752
sba(iModules.cell
Cell
p2753
(dp2754
g5
I00
sg10
(I00
I00
tp2755
sba(iModules.cell
Cell
p2756
(dp2757
g5
I00
sg10
(I00
I00
tp2758
sba(iModules.cell
Cell
p2759
(dp2760
g5
I00
sg10
(I00
I00
tp2761
sba(iModules.cell
Cell
p2762
(dp2763
g5
I00
sg10
(I00
I00
tp2764
sba(iModules.cell
Cell
p2765
(dp2766
g5
I00
sg10
(I00
I00
tp2767
sba(iModules.cell
Cell
p2768
(dp2769
g5
I00
sg10
(I00
I00
tp2770
sba(iModules.cell
Cell
p2771
(dp2772
g5
I00
sg10
(I00
I00
tp2773
sba(iModules.cell
Cell
p2774
(dp2775
g10
(I00
I00
tp2776
sbaa(lp2777
(iModules.cell
Cell
p2778
(dp2779
g5
I00
sg10
(I00
I00
tp2780
sba(iModules.cell
Cell
p2781
(dp2782
g280
I00
sg5
I00
sg258
I01
sg10
(I00
I00
tp2783
sg282
(lp2784
I11
aI1
asba(iModules.cell
Cell
p2785
(dp2786
g5
I00
sg258
I01
sg10
(I01
I01
tp2787
sba(iModules.cell
Cell
p2788
(dp2789
g5
I00
sg258
I01
sg10
(I01
I01
tp2790
sba(iModules.cell
Cell
p2791
(dp2792
g5
I00
sg258
I01
sg10
(I01
I01
tp2793
sba(iModules.cell
Cell
p2794
(dp2795
g5
I00
sg258
I01
sg10
(I01
I01
tp2796
sba(iModules.cell
Cell
p2797
(dp2798
g5
I00
sg258
I01
sg10
(I01
I01
tp2799
sba(iModules.cell
Cell
p2800
(dp2801
g5
I00
sg258
I01
sg10
(I01
I01
tp2802
sba(iModules.cell
Cell
p2803
(dp2804
g5
I00
sg258
I01
sg10
(I01
I01
tp2805
sba(iModules.cell
Cell
p2806
(dp2807
g5
I00
sg258
I01
sg10
(I01
I01
tp2808
sba(iModules.cell
Cell
p2809
(dp2810
g5
I00
sg258
I01
sg10
(I01
I01
tp2811
sba(iModules.cell
Cell
p2812
(dp2813
g5
I00
sg258
I01
sg10
(I01
I01
tp2814
sba(iModules.cell
Cell
p2815
(dp2816
g5
I00
sg258
I01
sg10
(I01
I01
tp2817
sba(iModules.cell
Cell
p2818
(dp2819
g5
I00
sg258
I01
sg10
(I01
I01
tp2820
sba(iModules.cell
Cell
p2821
(dp2822
g5
I00
sg258
I01
sg10
(I01
I01
tp2823
sba(iModules.cell
Cell
p2824
(dp2825
g5
I00
sg258
I01
sg10
(I01
I01
tp2826
sba(iModules.cell
Cell
p2827
(dp2828
g5
I00
sg258
I01
sg10
(I01
I01
tp2829
sba(iModules.cell
Cell
p2830
(dp2831
g5
I00
sg258
I01
sg10
(I01
I01
tp2832
sba(iModules.cell
Cell
p2833
(dp2834
g5
I00
sg258
I01
sg10
(I01
I01
tp2835
sba(iModules.cell
Cell
p2836
(dp2837
g5
I00
sg258
I01
sg10
(I01
I01
tp2838
sba(iModules.cell
Cell
p2839
(dp2840
g5
I00
sg258
I01
sg10
(I01
I01
tp2841
sba(iModules.cell
Cell
p2842
(dp2843
g5
I00
sg258
I01
sg10
(I01
I01
tp2844
sba(iModules.cell
Cell
p2845
(dp2846
g5
I00
sg258
I01
sg10
(I01
I01
tp2847
sba(iModules.cell
Cell
p2848
(dp2849
g5
I00
sg258
I01
sg10
(I01
I01
tp2850
sba(iModules.cell
Cell
p2851
(dp2852
g5
I00
sg258
I01
sg10
(I01
I01
tp2853
sba(iModules.cell
Cell
p2854
(dp2855
g5
I00
sg258
I01
sg10
(I01
I01
tp2856
sba(iModules.cell
Newt
p2857
(dp2858
g595
g596
sg5
I00
sg597
(iModules.cell
Cell
p2859
(dp2860
g5
I00
sg258
I01
sg10
(I01
I01
tp2861
sbsg601
g602
sba(iModules.cell
Cell
p2862
(dp2863
g5
I00
sg258
I01
sg10
(I01
I01
tp2864
sba(iModules.cell
Cell
p2865
(dp2866
g5
I00
sg258
I01
sg10
(I01
I01
tp2867
sba(iModules.cell
Cell
p2868
(dp2869
g5
I00
sg258
I01
sg10
(I01
I01
tp2870
sba(iModules.cell
Cell
p2871
(dp2872
g5
I00
sg258
I01
sg10
(I01
I01
tp2873
sba(iModules.cell
Cell
p2874
(dp2875
g5
I00
sg258
I01
sg10
(I01
I01
tp2876
sba(iModules.cell
Cell
p2877
(dp2878
g5
I00
sg258
I01
sg10
(I01
I01
tp2879
sba(iModules.cell
Cell
p2880
(dp2881
g5
I00
sg258
I01
sg10
(I01
I01
tp2882
sba(iModules.cell
Cell
p2883
(dp2884
g5
I00
sg258
I01
sg10
(I01
I01
tp2885
sba(iModules.cell
Cell
p2886
(dp2887
g5
I00
sg258
I01
sg10
(I01
I01
tp2888
sba(iModules.cell
Cell
p2889
(dp2890
g5
I00
sg258
I01
sg10
(I01
I01
tp2891
sba(iModules.cell
Cell
p2892
(dp2893
g5
I00
sg258
I01
sg10
(I01
I01
tp2894
sba(iModules.cell
Cell
p2895
(dp2896
g5
I00
sg258
I01
sg10
(I01
I01
tp2897
sba(iModules.cell
Cell
p2898
(dp2899
g5
I00
sg258
I01
sg10
(I01
I01
tp2900
sba(iModules.cell
Cell
p2901
(dp2902
g5
I00
sg258
I01
sg10
(I01
I01
tp2903
sba(iModules.cell
Cell
p2904
(dp2905
g5
I00
sg258
I01
sg10
(I01
I01
tp2906
sba(iModules.cell
Cell
p2907
(dp2908
g5
I00
sg258
I01
sg10
(I01
I01
tp2909
sba(iModules.cell
Cell
p2910
(dp2911
g5
I00
sg258
I01
sg10
(I01
I01
tp2912
sba(iModules.cell
Cell
p2913
(dp2914
g5
I00
sg258
I01
sg10
(I01
I01
tp2915
sba(iModules.cell
Cell
p2916
(dp2917
g5
I00
sg258
I01
sg10
(I01
I01
tp2918
sba(iModules.cell
Cell
p2919
(dp2920
g5
I00
sg10
(I01
I01
tp2921
sba(iModules.cell
Cell
p2922
(dp2923
g5
I00
sg10
(I01
I01
tp2924
sba(iModules.cell
Cell
p2925
(dp2926
g5
I00
sg10
(I01
I01
tp2927
sba(iModules.cell
Cell
p2928
(dp2929
g5
I00
sg10
(I01
I01
tp2930
sba(iModules.cell
Cell
p2931
(dp2932
g5
I00
sg10
(I01
I01
tp2933
sba(iModules.cell
Cell
p2934
(dp2935
g5
I00
sg10
(I01
I01
tp2936
sba(iModules.cell
Cell
p2937
(dp2938
g5
I00
sg10
(I01
I01
tp2939
sba(iModules.cell
Cell
p2940
(dp2941
g5
I00
sg10
(I01
I01
tp2942
sba(iModules.cell
Cell
p2943
(dp2944
g5
I00
sg10
(I01
I01
tp2945
sba(iModules.cell
Cell
p2946
(dp2947
g5
I00
sg10
(I01
I01
tp2948
sba(iModules.cell
Cell
p2949
(dp2950
g5
I00
sg10
(I01
I01
tp2951
sba(iModules.cell
Cell
p2952
(dp2953
g5
I00
sg10
(I01
I01
tp2954
sba(iModules.cell
Cell
p2955
(dp2956
g5
I00
sg10
(I01
I01
tp2957
sba(iModules.cell
Cell
p2958
(dp2959
g5
I00
sg10
(I01
I01
tp2960
sba(iModules.cell
Cell
p2961
(dp2962
g5
I00
sg10
(I01
I01
tp2963
sba(iModules.cell
Cell
p2964
(dp2965
g280
I00
sg5
I00
sg10
(I00
I00
tp2966
sg282
(lp2967
I11
aI61
asba(iModules.cell
Cell
p2968
(dp2969
g5
I00
sg10
(I00
I00
tp2970
sba(iModules.cell
Cell
p2971
(dp2972
g5
I00
sg10
(I00
I00
tp2973
sba(iModules.cell
Cell
p2974
(dp2975
g5
I00
sg10
(I00
I00
tp2976
sba(iModules.cell
Cell
p2977
(dp2978
g5
I00
sg10
(I00
I00
tp2979
sba(iModules.cell
Cell
p2980
(dp2981
g5
I00
sg10
(I00
I00
tp2982
sba(iModules.cell
Cell
p2983
(dp2984
g5
I00
sg10
(I00
I00
tp2985
sba(iModules.cell
Cell
p2986
(dp2987
g5
I00
sg10
(I00
I00
tp2988
sba(iModules.cell
Cell
p2989
(dp2990
g5
I00
sg10
(I00
I00
tp2991
sba(iModules.cell
Cell
p2992
(dp2993
g5
I00
sg10
(I00
I00
tp2994
sba(iModules.cell
Cell
p2995
(dp2996
g5
I00
sg10
(I00
I00
tp2997
sba(iModules.cell
Cell
p2998
(dp2999
g5
I00
sg10
(I00
I00
tp3000
sba(iModules.cell
Cell
p3001
(dp3002
g5
I00
sg10
(I00
I00
tp3003
sba(iModules.cell
Cell
p3004
(dp3005
g5
I00
sg10
(I00
I00
tp3006
sba(iModules.cell
Cell
p3007
(dp3008
g5
I00
sg10
(I00
I00
tp3009
sba(iModules.cell
Cell
p3010
(dp3011
g5
I00
sg10
(I00
I00
tp3012
sba(iModules.cell
Cell
p3013
(dp3014
g5
I00
sg10
(I00
I00
tp3015
sba(iModules.cell
Cell
p3016
(dp3017
g5
I00
sg10
(I00
I00
tp3018
sba(iModules.cell
Cell
p3019
(dp3020
g5
I00
sg10
(I00
I00
tp3021
sba(iModules.cell
Cell
p3022
(dp3023
g10
(I00
I00
tp3024
sbaa(lp3025
(iModules.cell
Cell
p3026
(dp3027
g5
I00
sg10
(I00
I00
tp3028
sba(iModules.cell
Cell
p3029
(dp3030
g280
I00
sg5
I00
sg258
I01
sg10
(I00
I00
tp3031
sg282
(lp3032
I12
aI1
asba(iModules.cell
Cell
p3033
(dp3034
g5
I00
sg258
I01
sg10
(I01
I01
tp3035
sba(iModules.cell
Cell
p3036
(dp3037
g5
I00
sg258
I01
sg10
(I01
I01
tp3038
sba(iModules.cell
Cell
p3039
(dp3040
g5
I00
sg258
I01
sg10
(I01
I01
tp3041
sba(iModules.cell
Cell
p3042
(dp3043
g5
I00
sg258
I01
sg10
(I01
I01
tp3044
sba(iModules.cell
Cell
p3045
(dp3046
g5
I00
sg258
I01
sg10
(I01
I01
tp3047
sba(iModules.cell
Cell
p3048
(dp3049
g5
I00
sg258
I01
sg10
(I01
I01
tp3050
sba(iModules.cell
Cell
p3051
(dp3052
g5
I00
sg258
I01
sg10
(I01
I01
tp3053
sba(iModules.cell
Cell
p3054
(dp3055
g5
I00
sg258
I01
sg10
(I01
I01
tp3056
sba(iModules.cell
Cell
p3057
(dp3058
g5
I00
sg258
I01
sg10
(I01
I01
tp3059
sba(iModules.cell
Cell
p3060
(dp3061
g5
I00
sg258
I01
sg10
(I01
I01
tp3062
sba(iModules.cell
Cell
p3063
(dp3064
g5
I00
sg258
I01
sg10
(I01
I01
tp3065
sba(iModules.cell
Cell
p3066
(dp3067
g5
I00
sg258
I01
sg10
(I01
I01
tp3068
sba(iModules.cell
Cell
p3069
(dp3070
g5
I00
sg258
I01
sg10
(I01
I01
tp3071
sba(iModules.cell
Cell
p3072
(dp3073
g5
I00
sg258
I01
sg10
(I01
I01
tp3074
sba(iModules.cell
Cell
p3075
(dp3076
g5
I00
sg258
I01
sg10
(I01
I01
tp3077
sba(iModules.cell
Cell
p3078
(dp3079
g5
I00
sg258
I01
sg10
(I01
I01
tp3080
sba(iModules.cell
Cell
p3081
(dp3082
g5
I00
sg258
I01
sg10
(I01
I01
tp3083
sba(iModules.cell
Cell
p3084
(dp3085
g5
I00
sg258
I01
sg10
(I01
I01
tp3086
sba(iModules.cell
Cell
p3087
(dp3088
g5
I00
sg258
I01
sg10
(I01
I01
tp3089
sba(iModules.cell
Cell
p3090
(dp3091
g5
I00
sg258
I01
sg10
(I01
I01
tp3092
sba(iModules.cell
Cell
p3093
(dp3094
g5
I00
sg258
I01
sg10
(I01
I01
tp3095
sba(iModules.cell
Cell
p3096
(dp3097
g5
I00
sg258
I01
sg10
(I01
I01
tp3098
sba(iModules.cell
Cell
p3099
(dp3100
g5
I00
sg258
I01
sg10
(I01
I01
tp3101
sba(iModules.cell
Cell
p3102
(dp3103
g5
I00
sg258
I01
sg10
(I01
I01
tp3104
sba(iModules.cell
Cell
p3105
(dp3106
g5
I00
sg258
I01
sg10
(I01
I01
tp3107
sba(iModules.cell
Cell
p3108
(dp3109
g5
I00
sg258
I01
sg10
(I01
I01
tp3110
sba(iModules.cell
Cell
p3111
(dp3112
g5
I00
sg258
I01
sg10
(I01
I01
tp3113
sba(iModules.cell
Cell
p3114
(dp3115
g5
I00
sg258
I01
sg10
(I01
I01
tp3116
sba(iModules.cell
Cell
p3117
(dp3118
g5
I00
sg258
I01
sg10
(I01
I01
tp3119
sba(iModules.cell
Cell
p3120
(dp3121
g5
I00
sg258
I01
sg10
(I01
I01
tp3122
sba(iModules.cell
Cell
p3123
(dp3124
g5
I00
sg258
I01
sg10
(I01
I01
tp3125
sba(iModules.cell
Cell
p3126
(dp3127
g5
I00
sg258
I01
sg10
(I01
I01
tp3128
sba(iModules.cell
Cell
p3129
(dp3130
g5
I00
sg258
I01
sg10
(I01
I01
tp3131
sba(iModules.cell
Cell
p3132
(dp3133
g5
I00
sg258
I01
sg10
(I01
I01
tp3134
sba(iModules.cell
Cell
p3135
(dp3136
g5
I00
sg258
I01
sg10
(I01
I01
tp3137
sba(iModules.cell
Cell
p3138
(dp3139
g5
I00
sg258
I01
sg10
(I01
I01
tp3140
sba(iModules.cell
Newt
p3141
(dp3142
g595
g596
sg5
I00
sg597
(iModules.cell
Cell
p3143
(dp3144
g5
I00
sg258
I01
sg10
(I01
I01
tp3145
sbsg601
g602
sba(iModules.cell
Cell
p3146
(dp3147
g5
I00
sg258
I01
sg10
(I01
I01
tp3148
sba(iModules.cell
Cell
p3149
(dp3150
g5
I00
sg258
I01
sg10
(I01
I01
tp3151
sba(iModules.cell
Cell
p3152
(dp3153
g5
I00
sg258
I01
sg10
(I01
I01
tp3154
sba(iModules.cell
Cell
p3155
(dp3156
g5
I00
sg258
I01
sg10
(I01
I01
tp3157
sba(iModules.cell
Cell
p3158
(dp3159
g5
I00
sg258
I01
sg10
(I01
I01
tp3160
sba(iModules.cell
Cell
p3161
(dp3162
g5
I00
sg258
I01
sg10
(I01
I01
tp3163
sba(iModules.cell
Newt
p3164
(dp3165
g595
g596
sg5
I00
sg597
(iModules.cell
Cell
p3166
(dp3167
g5
I00
sg258
I01
sg10
(I01
I01
tp3168
sbsg601
g602
sba(iModules.cell
Cell
p3169
(dp3170
g5
I00
sg10
(I01
I01
tp3171
sba(iModules.cell
Cell
p3172
(dp3173
g5
I00
sg10
(I01
I01
tp3174
sba(iModules.cell
Cell
p3175
(dp3176
g5
I00
sg10
(I01
I01
tp3177
sba(iModules.cell
Cell
p3178
(dp3179
g5
I00
sg10
(I01
I01
tp3180
sba(iModules.cell
Cell
p3181
(dp3182
g5
I00
sg10
(I01
I01
tp3183
sba(iModules.cell
Cell
p3184
(dp3185
g5
I00
sg10
(I01
I01
tp3186
sba(iModules.cell
Cell
p3187
(dp3188
g5
I00
sg10
(I01
I01
tp3189
sba(iModules.cell
Cell
p3190
(dp3191
g5
I00
sg10
(I01
I01
tp3192
sba(iModules.cell
Cell
p3193
(dp3194
g5
I00
sg10
(I01
I01
tp3195
sba(iModules.cell
Cell
p3196
(dp3197
g5
I00
sg10
(I01
I01
tp3198
sba(iModules.cell
Cell
p3199
(dp3200
g5
I00
sg10
(I01
I01
tp3201
sba(iModules.cell
Cell
p3202
(dp3203
g5
I00
sg10
(I01
I01
tp3204
sba(iModules.cell
Cell
p3205
(dp3206
g5
I00
sg10
(I01
I01
tp3207
sba(iModules.cell
Cell
p3208
(dp3209
g5
I00
sg10
(I01
I01
tp3210
sba(iModules.cell
Cell
p3211
(dp3212
g5
I00
sg10
(I01
I01
tp3213
sba(iModules.cell
Cell
p3214
(dp3215
g280
I00
sg5
I00
sg10
(I00
I00
tp3216
sg282
(lp3217
I12
aI61
asba(iModules.cell
Cell
p3218
(dp3219
g5
I00
sg10
(I00
I00
tp3220
sba(iModules.cell
Cell
p3221
(dp3222
g5
I00
sg10
(I00
I00
tp3223
sba(iModules.cell
Cell
p3224
(dp3225
g5
I00
sg10
(I00
I00
tp3226
sba(iModules.cell
Cell
p3227
(dp3228
g5
I00
sg10
(I00
I00
tp3229
sba(iModules.cell
Cell
p3230
(dp3231
g5
I00
sg10
(I00
I00
tp3232
sba(iModules.cell
Cell
p3233
(dp3234
g5
I00
sg10
(I00
I00
tp3235
sba(iModules.cell
Cell
p3236
(dp3237
g5
I00
sg10
(I00
I00
tp3238
sba(iModules.cell
Cell
p3239
(dp3240
g5
I00
sg10
(I00
I00
tp3241
sba(iModules.cell
Cell
p3242
(dp3243
g5
I00
sg10
(I00
I00
tp3244
sba(iModules.cell
Cell
p3245
(dp3246
g5
I00
sg10
(I00
I00
tp3247
sba(iModules.cell
Cell
p3248
(dp3249
g5
I00
sg10
(I00
I00
tp3250
sba(iModules.cell
Cell
p3251
(dp3252
g5
I00
sg10
(I00
I00
tp3253
sba(iModules.cell
Cell
p3254
(dp3255
g5
I00
sg10
(I00
I00
tp3256
sba(iModules.cell
Cell
p3257
(dp3258
g5
I00
sg10
(I00
I00
tp3259
sba(iModules.cell
Cell
p3260
(dp3261
g5
I00
sg10
(I00
I00
tp3262
sba(iModules.cell
Cell
p3263
(dp3264
g5
I00
sg10
(I00
I00
tp3265
sba(iModules.cell
Cell
p3266
(dp3267
g5
I00
sg10
(I00
I00
tp3268
sba(iModules.cell
Cell
p3269
(dp3270
g5
I00
sg10
(I00
I00
tp3271
sba(iModules.cell
Cell
p3272
(dp3273
g10
(I00
I00
tp3274
sbaa(lp3275
(iModules.cell
Cell
p3276
(dp3277
g5
I00
sg10
(I00
I00
tp3278
sba(iModules.cell
Cell
p3279
(dp3280
g280
I00
sg5
I00
sg258
I01
sg10
(I00
I00
tp3281
sg282
(lp3282
I13
aI1
asba(iModules.cell
Cell
p3283
(dp3284
g5
I00
sg258
I01
sg10
(I01
I01
tp3285
sba(iModules.cell
Cell
p3286
(dp3287
g5
I00
sg258
I01
sg10
(I01
I01
tp3288
sba(iModules.cell
Cell
p3289
(dp3290
g5
I00
sg258
I01
sg10
(I01
I01
tp3291
sba(iModules.cell
Cell
p3292
(dp3293
g5
I00
sg258
I01
sg10
(I01
I01
tp3294
sba(iModules.cell
Cell
p3295
(dp3296
g5
I00
sg258
I01
sg10
(I01
I01
tp3297
sba(iModules.cell
Cell
p3298
(dp3299
g5
I00
sg258
I01
sg10
(I01
I01
tp3300
sba(iModules.cell
Cell
p3301
(dp3302
g5
I00
sg258
I01
sg10
(I01
I01
tp3303
sba(iModules.cell
Cell
p3304
(dp3305
g5
I00
sg258
I01
sg10
(I01
I01
tp3306
sba(iModules.cell
Cell
p3307
(dp3308
g5
I00
sg258
I01
sg10
(I01
I01
tp3309
sba(iModules.cell
Cell
p3310
(dp3311
g5
I00
sg258
I01
sg10
(I01
I01
tp3312
sba(iModules.cell
Cell
p3313
(dp3314
g5
I00
sg258
I01
sg10
(I01
I01
tp3315
sba(iModules.cell
Cell
p3316
(dp3317
g5
I00
sg258
I01
sg10
(I01
I01
tp3318
sba(iModules.cell
Cell
p3319
(dp3320
g5
I00
sg258
I01
sg10
(I01
I01
tp3321
sba(iModules.cell
Cell
p3322
(dp3323
g5
I00
sg258
I01
sg10
(I01
I01
tp3324
sba(iModules.cell
Cell
p3325
(dp3326
g5
I00
sg258
I01
sg10
(I01
I01
tp3327
sba(iModules.cell
Cell
p3328
(dp3329
g5
I00
sg258
I01
sg10
(I01
I01
tp3330
sba(iModules.cell
Cell
p3331
(dp3332
g5
I00
sg258
I01
sg10
(I01
I01
tp3333
sba(iModules.cell
Cell
p3334
(dp3335
g5
I00
sg258
I01
sg10
(I01
I01
tp3336
sba(iModules.cell
Cell
p3337
(dp3338
g5
I00
sg258
I01
sg10
(I01
I01
tp3339
sba(iModules.cell
Cell
p3340
(dp3341
g5
I00
sg258
I01
sg10
(I01
I01
tp3342
sba(iModules.cell
Cell
p3343
(dp3344
g5
I00
sg258
I01
sg10
(I01
I01
tp3345
sba(iModules.cell
Cell
p3346
(dp3347
g5
I00
sg258
I01
sg10
(I01
I01
tp3348
sba(iModules.cell
Cell
p3349
(dp3350
g5
I00
sg258
I01
sg10
(I01
I01
tp3351
sba(iModules.cell
Cell
p3352
(dp3353
g5
I00
sg258
I01
sg10
(I01
I01
tp3354
sba(iModules.cell
Cell
p3355
(dp3356
g5
I00
sg258
I01
sg10
(I01
I01
tp3357
sba(iModules.cell
Cell
p3358
(dp3359
g5
I00
sg10
(I01
I01
tp3360
sba(iModules.cell
Cell
p3361
(dp3362
g5
I00
sg10
(I01
I01
tp3363
sba(iModules.cell
Cell
p3364
(dp3365
g5
I00
sg10
(I01
I01
tp3366
sba(iModules.cell
Cell
p3367
(dp3368
g5
I00
sg10
(I01
I01
tp3369
sba(iModules.cell
Cell
p3370
(dp3371
g5
I00
sg10
(I01
I01
tp3372
sba(iModules.cell
Cell
p3373
(dp3374
g5
I00
sg10
(I01
I01
tp3375
sba(iModules.cell
Cell
p3376
(dp3377
g5
I00
sg10
(I01
I01
tp3378
sba(iModules.cell
Cell
p3379
(dp3380
g5
I00
sg10
(I01
I01
tp3381
sba(iModules.cell
Cell
p3382
(dp3383
g5
I00
sg10
(I01
I01
tp3384
sba(iModules.cell
Cell
p3385
(dp3386
g5
I00
sg10
(I01
I01
tp3387
sba(iModules.cell
Cell
p3388
(dp3389
g5
I00
sg10
(I01
I01
tp3390
sba(iModules.cell
Cell
p3391
(dp3392
g5
I00
sg10
(I01
I01
tp3393
sba(iModules.cell
Cell
p3394
(dp3395
g5
I00
sg10
(I01
I01
tp3396
sba(iModules.cell
Cell
p3397
(dp3398
g5
I00
sg10
(I01
I01
tp3399
sba(iModules.cell
Cell
p3400
(dp3401
g5
I00
sg10
(I01
I01
tp3402
sba(iModules.cell
Cell
p3403
(dp3404
g5
I00
sg10
(I01
I01
tp3405
sba(iModules.cell
Cell
p3406
(dp3407
g5
I00
sg10
(I01
I01
tp3408
sba(iModules.cell
Cell
p3409
(dp3410
g5
I00
sg10
(I01
I01
tp3411
sba(iModules.cell
Cell
p3412
(dp3413
g5
I00
sg10
(I01
I01
tp3414
sba(iModules.cell
Cell
p3415
(dp3416
g5
I00
sg10
(I01
I01
tp3417
sba(iModules.cell
Cell
p3418
(dp3419
g5
I00
sg10
(I01
I01
tp3420
sba(iModules.cell
Cell
p3421
(dp3422
g5
I00
sg10
(I01
I01
tp3423
sba(iModules.cell
Cell
p3424
(dp3425
g5
I00
sg10
(I01
I01
tp3426
sba(iModules.cell
Cell
p3427
(dp3428
g5
I00
sg10
(I01
I01
tp3429
sba(iModules.cell
Cell
p3430
(dp3431
g5
I00
sg10
(I01
I01
tp3432
sba(iModules.cell
Cell
p3433
(dp3434
g5
I00
sg10
(I01
I01
tp3435
sba(iModules.cell
Cell
p3436
(dp3437
g5
I00
sg10
(I01
I01
tp3438
sba(iModules.cell
Cell
p3439
(dp3440
g5
I00
sg10
(I01
I01
tp3441
sba(iModules.cell
Cell
p3442
(dp3443
g5
I00
sg10
(I01
I01
tp3444
sba(iModules.cell
Cell
p3445
(dp3446
g5
I00
sg10
(I01
I01
tp3447
sba(iModules.cell
Cell
p3448
(dp3449
g5
I00
sg10
(I01
I01
tp3450
sba(iModules.cell
Cell
p3451
(dp3452
g5
I00
sg10
(I01
I01
tp3453
sba(iModules.cell
Cell
p3454
(dp3455
g5
I00
sg10
(I01
I01
tp3456
sba(iModules.cell
Cell
p3457
(dp3458
g5
I00
sg10
(I01
I01
tp3459
sba(iModules.cell
Cell
p3460
(dp3461
g280
I00
sg5
I00
sg10
(I00
I00
tp3462
sg282
(lp3463
I13
aI61
asba(iModules.cell
Cell
p3464
(dp3465
g5
I00
sg10
(I00
I00
tp3466
sba(iModules.cell
Cell
p3467
(dp3468
g5
I00
sg10
(I00
I00
tp3469
sba(iModules.cell
Cell
p3470
(dp3471
g5
I00
sg10
(I00
I00
tp3472
sba(iModules.cell
Cell
p3473
(dp3474
g5
I00
sg10
(I00
I00
tp3475
sba(iModules.cell
Cell
p3476
(dp3477
g5
I00
sg10
(I00
I00
tp3478
sba(iModules.cell
Cell
p3479
(dp3480
g5
I00
sg10
(I00
I00
tp3481
sba(iModules.cell
Cell
p3482
(dp3483
g5
I00
sg10
(I00
I00
tp3484
sba(iModules.cell
Cell
p3485
(dp3486
g5
I00
sg10
(I00
I00
tp3487
sba(iModules.cell
Cell
p3488
(dp3489
g5
I00
sg10
(I00
I00
tp3490
sba(iModules.cell
Cell
p3491
(dp3492
g5
I00
sg10
(I00
I00
tp3493
sba(iModules.cell
Cell
p3494
(dp3495
g5
I00
sg10
(I00
I00
tp3496
sba(iModules.cell
Cell
p3497
(dp3498
g5
I00
sg10
(I00
I00
tp3499
sba(iModules.cell
Cell
p3500
(dp3501
g5
I00
sg10
(I00
I00
tp3502
sba(iModules.cell
Cell
p3503
(dp3504
g5
I00
sg10
(I00
I00
tp3505
sba(iModules.cell
Cell
p3506
(dp3507
g5
I00
sg10
(I00
I00
tp3508
sba(iModules.cell
Cell
p3509
(dp3510
g5
I00
sg10
(I00
I00
tp3511
sba(iModules.cell
Cell
p3512
(dp3513
g5
I00
sg10
(I00
I00
tp3514
sba(iModules.cell
Cell
p3515
(dp3516
g5
I00
sg10
(I00
I00
tp3517
sba(iModules.cell
Cell
p3518
(dp3519
g10
(I00
I00
tp3520
sbaa(lp3521
(iModules.cell
Cell
p3522
(dp3523
g5
I00
sg10
(I00
I00
tp3524
sba(iModules.cell
Cell
p3525
(dp3526
g5
I00
sg258
I01
sg10
(I00
I00
tp3527
sba(iModules.cell
Cell
p3528
(dp3529
g5
I00
sg258
I01
sg10
(I01
I01
tp3530
sba(iModules.cell
Cell
p3531
(dp3532
g5
I00
sg258
I01
sg10
(I01
I01
tp3533
sba(iModules.cell
Cell
p3534
(dp3535
g5
I00
sg258
I01
sg10
(I01
I01
tp3536
sba(iModules.cell
Cell
p3537
(dp3538
g5
I00
sg258
I01
sg10
(I01
I01
tp3539
sba(iModules.cell
Cell
p3540
(dp3541
g5
I00
sg258
I01
sg10
(I01
I01
tp3542
sba(iModules.cell
Cell
p3543
(dp3544
g5
I00
sg258
I01
sg10
(I01
I01
tp3545
sba(iModules.cell
Cell
p3546
(dp3547
g5
I00
sg258
I01
sg10
(I01
I01
tp3548
sba(iModules.cell
Cell
p3549
(dp3550
g5
I00
sg258
I01
sg10
(I01
I01
tp3551
sba(iModules.cell
Cell
p3552
(dp3553
g5
I00
sg258
I01
sg10
(I01
I01
tp3554
sba(iModules.cell
Cell
p3555
(dp3556
g5
I00
sg258
I01
sg10
(I01
I01
tp3557
sba(iModules.cell
Cell
p3558
(dp3559
g5
I00
sg258
I01
sg10
(I01
I01
tp3560
sba(iModules.cell
Cell
p3561
(dp3562
g5
I00
sg258
I01
sg10
(I01
I01
tp3563
sba(iModules.cell
Cell
p3564
(dp3565
g5
I00
sg258
I01
sg10
(I01
I01
tp3566
sba(iModules.cell
Cell
p3567
(dp3568
g5
I00
sg258
I01
sg10
(I01
I01
tp3569
sba(iModules.cell
Cell
p3570
(dp3571
g5
I00
sg258
I01
sg10
(I01
I01
tp3572
sba(iModules.cell
Cell
p3573
(dp3574
g5
I00
sg258
I01
sg10
(I01
I01
tp3575
sba(iModules.cell
Cell
p3576
(dp3577
g5
I00
sg258
I01
sg10
(I01
I01
tp3578
sba(iModules.cell
Cell
p3579
(dp3580
g5
I00
sg258
I01
sg10
(I01
I01
tp3581
sba(iModules.cell
Cell
p3582
(dp3583
g5
I00
sg258
I01
sg10
(I01
I01
tp3584
sba(iModules.cell
Cell
p3585
(dp3586
g5
I00
sg258
I01
sg10
(I01
I01
tp3587
sba(iModules.cell
Cell
p3588
(dp3589
g5
I00
sg258
I01
sg10
(I01
I01
tp3590
sba(iModules.cell
Cell
p3591
(dp3592
g5
I00
sg258
I01
sg10
(I01
I01
tp3593
sba(iModules.cell
Cell
p3594
(dp3595
g5
I00
sg258
I01
sg10
(I01
I01
tp3596
sba(iModules.cell
Cell
p3597
(dp3598
g5
I00
sg258
I01
sg10
(I01
I01
tp3599
sba(iModules.cell
Cell
p3600
(dp3601
g5
I00
sg10
(I01
I01
tp3602
sba(iModules.cell
Newt
p3603
(dp3604
g595
g596
sg5
I00
sg597
(iModules.cell
Cell
p3605
(dp3606
g5
I00
sg10
(I01
I01
tp3607
sbsg601
g602
sba(iModules.cell
Cell
p3608
(dp3609
g5
I00
sg10
(I01
I01
tp3610
sba(iModules.cell
Cell
p3611
(dp3612
g5
I00
sg10
(I01
I01
tp3613
sba(iModules.cell
Cell
p3614
(dp3615
g5
I00
sg10
(I01
I01
tp3616
sba(iModules.cell
Cell
p3617
(dp3618
g5
I00
sg10
(I01
I01
tp3619
sba(iModules.cell
Cell
p3620
(dp3621
g5
I00
sg10
(I01
I01
tp3622
sba(iModules.cell
Cell
p3623
(dp3624
g5
I00
sg10
(I01
I01
tp3625
sba(iModules.cell
Cell
p3626
(dp3627
g5
I00
sg10
(I01
I01
tp3628
sba(iModules.cell
Cell
p3629
(dp3630
g5
I00
sg10
(I01
I01
tp3631
sba(iModules.cell
Cell
p3632
(dp3633
g5
I00
sg10
(I01
I01
tp3634
sba(iModules.cell
Cell
p3635
(dp3636
g5
I00
sg10
(I01
I01
tp3637
sba(iModules.cell
Cell
p3638
(dp3639
g5
I00
sg10
(I01
I01
tp3640
sba(iModules.cell
Cell
p3641
(dp3642
g5
I00
sg10
(I01
I01
tp3643
sba(iModules.cell
Cell
p3644
(dp3645
g5
I00
sg10
(I01
I01
tp3646
sba(iModules.cell
Cell
p3647
(dp3648
g5
I00
sg10
(I01
I01
tp3649
sba(iModules.cell
Cell
p3650
(dp3651
g5
I00
sg10
(I01
I01
tp3652
sba(iModules.cell
Cell
p3653
(dp3654
g5
I00
sg10
(I01
I01
tp3655
sba(iModules.cell
Cell
p3656
(dp3657
g5
I00
sg10
(I01
I01
tp3658
sba(iModules.cell
Cell
p3659
(dp3660
g5
I00
sg10
(I01
I01
tp3661
sba(iModules.cell
Cell
p3662
(dp3663
g5
I00
sg10
(I01
I01
tp3664
sba(iModules.cell
Cell
p3665
(dp3666
g5
I00
sg10
(I01
I01
tp3667
sba(iModules.cell
Cell
p3668
(dp3669
g5
I00
sg10
(I01
I01
tp3670
sba(iModules.cell
Cell
p3671
(dp3672
g5
I00
sg10
(I01
I01
tp3673
sba(iModules.cell
Cell
p3674
(dp3675
g5
I00
sg10
(I01
I01
tp3676
sba(iModules.cell
Cell
p3677
(dp3678
g5
I00
sg10
(I01
I01
tp3679
sba(iModules.cell
Cell
p3680
(dp3681
g5
I00
sg10
(I01
I01
tp3682
sba(iModules.cell
Cell
p3683
(dp3684
g5
I00
sg10
(I01
I01
tp3685
sba(iModules.cell
Cell
p3686
(dp3687
g5
I00
sg10
(I01
I01
tp3688
sba(iModules.cell
Cell
p3689
(dp3690
g5
I00
sg10
(I01
I01
tp3691
sba(iModules.cell
Cell
p3692
(dp3693
g5
I00
sg10
(I01
I01
tp3694
sba(iModules.cell
Cell
p3695
(dp3696
g5
I00
sg10
(I01
I01
tp3697
sba(iModules.cell
Cell
p3698
(dp3699
g5
I00
sg10
(I01
I01
tp3700
sba(iModules.cell
Cell
p3701
(dp3702
g5
I00
sg10
(I01
I01
tp3703
sba(iModules.cell
Cell
p3704
(dp3705
g5
I00
sg10
(I01
I01
tp3706
sba(iModules.cell
Cell
p3707
(dp3708
g280
I00
sg5
I00
sg10
(I00
I00
tp3709
sg282
(lp3710
I14
aI61
asba(iModules.cell
Cell
p3711
(dp3712
g5
I00
sg10
(I00
I00
tp3713
sba(iModules.cell
Cell
p3714
(dp3715
g5
I00
sg10
(I00
I00
tp3716
sba(iModules.cell
Cell
p3717
(dp3718
g5
I00
sg10
(I00
I00
tp3719
sba(iModules.cell
Cell
p3720
(dp3721
g5
I00
sg10
(I00
I00
tp3722
sba(iModules.cell
Cell
p3723
(dp3724
g5
I00
sg10
(I00
I00
tp3725
sba(iModules.cell
Cell
p3726
(dp3727
g5
I00
sg10
(I00
I00
tp3728
sba(iModules.cell
Cell
p3729
(dp3730
g5
I00
sg10
(I00
I00
tp3731
sba(iModules.cell
Cell
p3732
(dp3733
g5
I00
sg10
(I00
I00
tp3734
sba(iModules.cell
Cell
p3735
(dp3736
g5
I00
sg10
(I00
I00
tp3737
sba(iModules.cell
Cell
p3738
(dp3739
g5
I00
sg10
(I00
I00
tp3740
sba(iModules.cell
Cell
p3741
(dp3742
g5
I00
sg10
(I00
I00
tp3743
sba(iModules.cell
Cell
p3744
(dp3745
g5
I00
sg10
(I00
I00
tp3746
sba(iModules.cell
Cell
p3747
(dp3748
g5
I00
sg10
(I00
I00
tp3749
sba(iModules.cell
Cell
p3750
(dp3751
g5
I00
sg10
(I00
I00
tp3752
sba(iModules.cell
Cell
p3753
(dp3754
g5
I00
sg10
(I00
I00
tp3755
sba(iModules.cell
Cell
p3756
(dp3757
g5
I00
sg10
(I00
I00
tp3758
sba(iModules.cell
Cell
p3759
(dp3760
g5
I00
sg10
(I00
I00
tp3761
sba(iModules.cell
Cell
p3762
(dp3763
g5
I00
sg10
(I00
I00
tp3764
sba(iModules.cell
Cell
p3765
(dp3766
g10
(I00
I00
tp3767
sbaa(lp3768
(iModules.cell
Cell
p3769
(dp3770
g5
I00
sg10
(I00
I00
tp3771
sba(iModules.cell
Cell
p3772
(dp3773
g5
I00
sg258
I01
sg10
(I00
I00
tp3774
sba(iModules.cell
Cell
p3775
(dp3776
g5
I00
sg258
I01
sg10
(I01
I01
tp3777
sba(iModules.cell
Cell
p3778
(dp3779
g5
I00
sg258
I01
sg10
(I01
I01
tp3780
sba(iModules.cell
Cell
p3781
(dp3782
g5
I00
sg258
I01
sg10
(I01
I01
tp3783
sba(iModules.cell
Cell
p3784
(dp3785
g5
I00
sg258
I01
sg10
(I01
I01
tp3786
sba(iModules.cell
Cell
p3787
(dp3788
g5
I00
sg258
I01
sg10
(I01
I01
tp3789
sba(iModules.cell
Cell
p3790
(dp3791
g5
I00
sg258
I01
sg10
(I01
I01
tp3792
sba(iModules.cell
Cell
p3793
(dp3794
g5
I00
sg258
I01
sg10
(I01
I01
tp3795
sba(iModules.cell
Cell
p3796
(dp3797
g5
I00
sg258
I01
sg10
(I01
I01
tp3798
sba(iModules.cell
Cell
p3799
(dp3800
g5
I00
sg258
I01
sg10
(I01
I01
tp3801
sba(iModules.cell
Cell
p3802
(dp3803
g5
I00
sg258
I01
sg10
(I01
I01
tp3804
sba(iModules.cell
Cell
p3805
(dp3806
g5
I00
sg258
I01
sg10
(I01
I01
tp3807
sba(iModules.cell
Cell
p3808
(dp3809
g5
I00
sg258
I01
sg10
(I01
I01
tp3810
sba(iModules.cell
Cell
p3811
(dp3812
g5
I00
sg258
I01
sg10
(I01
I01
tp3813
sba(iModules.cell
Cell
p3814
(dp3815
g5
I00
sg258
I01
sg10
(I01
I01
tp3816
sba(iModules.cell
Cell
p3817
(dp3818
g5
I00
sg258
I01
sg10
(I01
I01
tp3819
sba(iModules.cell
Cell
p3820
(dp3821
g5
I00
sg258
I01
sg10
(I01
I01
tp3822
sba(iModules.cell
Cell
p3823
(dp3824
g5
I00
sg258
I01
sg10
(I01
I01
tp3825
sba(iModules.cell
Cell
p3826
(dp3827
g5
I00
sg258
I01
sg10
(I01
I01
tp3828
sba(iModules.cell
Cell
p3829
(dp3830
g5
I00
sg258
I01
sg10
(I01
I01
tp3831
sba(iModules.cell
Cell
p3832
(dp3833
g5
I00
sg258
I01
sg10
(I01
I01
tp3834
sba(iModules.cell
Cell
p3835
(dp3836
g5
I00
sg258
I01
sg10
(I01
I01
tp3837
sba(iModules.cell
Cell
p3838
(dp3839
g5
I00
sg258
I01
sg10
(I01
I01
tp3840
sba(iModules.cell
Cell
p3841
(dp3842
g5
I00
sg258
I01
sg10
(I01
I01
tp3843
sba(iModules.cell
Cell
p3844
(dp3845
g5
I00
sg10
(I01
I01
tp3846
sba(iModules.cell
Cell
p3847
(dp3848
g5
I00
sg10
(I01
I01
tp3849
sba(iModules.cell
Cell
p3850
(dp3851
g5
I00
sg10
(I01
I01
tp3852
sba(iModules.cell
Cell
p3853
(dp3854
g5
I00
sg10
(I01
I01
tp3855
sba(iModules.cell
Cell
p3856
(dp3857
g5
I00
sg10
(I01
I01
tp3858
sba(iModules.cell
Cell
p3859
(dp3860
g5
I00
sg10
(I01
I01
tp3861
sba(iModules.cell
Cell
p3862
(dp3863
g5
I00
sg10
(I01
I01
tp3864
sba(iModules.cell
Cell
p3865
(dp3866
g5
I00
sg10
(I01
I01
tp3867
sba(iModules.cell
Cell
p3868
(dp3869
g5
I00
sg10
(I01
I01
tp3870
sba(iModules.cell
Cell
p3871
(dp3872
g5
I00
sg10
(I01
I01
tp3873
sba(iModules.cell
Cell
p3874
(dp3875
g5
I00
sg10
(I01
I01
tp3876
sba(iModules.cell
Cell
p3877
(dp3878
g5
I00
sg10
(I01
I01
tp3879
sba(iModules.cell
Cell
p3880
(dp3881
g5
I00
sg10
(I01
I01
tp3882
sba(iModules.cell
Cell
p3883
(dp3884
g5
I00
sg10
(I01
I01
tp3885
sba(iModules.cell
Cell
p3886
(dp3887
g5
I00
sg10
(I01
I01
tp3888
sba(iModules.cell
Cell
p3889
(dp3890
g5
I00
sg10
(I01
I01
tp3891
sba(iModules.cell
Cell
p3892
(dp3893
g5
I00
sg10
(I01
I01
tp3894
sba(iModules.cell
Cell
p3895
(dp3896
g5
I00
sg10
(I01
I01
tp3897
sba(iModules.cell
Cell
p3898
(dp3899
g5
I00
sg10
(I01
I01
tp3900
sba(iModules.cell
Cell
p3901
(dp3902
g5
I00
sg10
(I01
I01
tp3903
sba(iModules.cell
Cell
p3904
(dp3905
g5
I00
sg10
(I01
I01
tp3906
sba(iModules.cell
Cell
p3907
(dp3908
g5
I00
sg10
(I01
I01
tp3909
sba(iModules.cell
Cell
p3910
(dp3911
g5
I00
sg10
(I01
I01
tp3912
sba(iModules.cell
Cell
p3913
(dp3914
g5
I00
sg10
(I01
I01
tp3915
sba(iModules.cell
Cell
p3916
(dp3917
g5
I00
sg10
(I01
I01
tp3918
sba(iModules.cell
Cell
p3919
(dp3920
g5
I00
sg10
(I01
I01
tp3921
sba(iModules.cell
Cell
p3922
(dp3923
g5
I00
sg10
(I01
I01
tp3924
sba(iModules.cell
Cell
p3925
(dp3926
g5
I00
sg10
(I01
I01
tp3927
sba(iModules.cell
Cell
p3928
(dp3929
g5
I00
sg10
(I01
I01
tp3930
sba(iModules.cell
Cell
p3931
(dp3932
g5
I00
sg10
(I01
I01
tp3933
sba(iModules.cell
Cell
p3934
(dp3935
g5
I00
sg10
(I01
I01
tp3936
sba(iModules.cell
Cell
p3937
(dp3938
g5
I00
sg10
(I01
I01
tp3939
sba(iModules.cell
Cell
p3940
(dp3941
g5
I00
sg10
(I01
I01
tp3942
sba(iModules.cell
Cell
p3943
(dp3944
g5
I00
sg10
(I01
I01
tp3945
sba(iModules.cell
Cell
p3946
(dp3947
g5
I00
sg10
(I01
I01
tp3948
sba(iModules.cell
Cell
p3949
(dp3950
g5
I00
sg10
(I01
I01
tp3951
sba(iModules.cell
Cell
p3952
(dp3953
g280
I00
sg5
I00
sg10
(I00
I00
tp3954
sg282
(lp3955
I15
aI61
asba(iModules.cell
Cell
p3956
(dp3957
g5
I00
sg10
(I00
I00
tp3958
sba(iModules.cell
Cell
p3959
(dp3960
g5
I00
sg10
(I00
I00
tp3961
sba(iModules.cell
Cell
p3962
(dp3963
g5
I00
sg10
(I00
I00
tp3964
sba(iModules.cell
Cell
p3965
(dp3966
g5
I00
sg10
(I00
I00
tp3967
sba(iModules.cell
Cell
p3968
(dp3969
g5
I00
sg10
(I00
I00
tp3970
sba(iModules.cell
Cell
p3971
(dp3972
g5
I00
sg10
(I00
I00
tp3973
sba(iModules.cell
Cell
p3974
(dp3975
g5
I00
sg10
(I00
I00
tp3976
sba(iModules.cell
Cell
p3977
(dp3978
g5
I00
sg10
(I00
I00
tp3979
sba(iModules.cell
Cell
p3980
(dp3981
g5
I00
sg10
(I00
I00
tp3982
sba(iModules.cell
Cell
p3983
(dp3984
g5
I00
sg10
(I00
I00
tp3985
sba(iModules.cell
Cell
p3986
(dp3987
g5
I00
sg10
(I00
I00
tp3988
sba(iModules.cell
Cell
p3989
(dp3990
g5
I00
sg10
(I00
I00
tp3991
sba(iModules.cell
Cell
p3992
(dp3993
g5
I00
sg10
(I00
I00
tp3994
sba(iModules.cell
Cell
p3995
(dp3996
g5
I00
sg10
(I00
I00
tp3997
sba(iModules.cell
Cell
p3998
(dp3999
g5
I00
sg10
(I00
I00
tp4000
sba(iModules.cell
Cell
p4001
(dp4002
g5
I00
sg10
(I00
I00
tp4003
sba(iModules.cell
Cell
p4004
(dp4005
g5
I00
sg10
(I00
I00
tp4006
sba(iModules.cell
Cell
p4007
(dp4008
g5
I00
sg10
(I00
I00
tp4009
sba(iModules.cell
Cell
p4010
(dp4011
g10
(I00
I00
tp4012
sbaa(lp4013
(iModules.cell
Cell
p4014
(dp4015
g5
I00
sg10
(I00
I00
tp4016
sba(iModules.cell
Cell
p4017
(dp4018
g5
I00
sg258
I01
sg10
(I00
I00
tp4019
sba(iModules.cell
Cell
p4020
(dp4021
g5
I00
sg258
I01
sg10
(I01
I01
tp4022
sba(iModules.cell
Cell
p4023
(dp4024
g5
I00
sg258
I01
sg10
(I01
I01
tp4025
sba(iModules.cell
Cell
p4026
(dp4027
g5
I00
sg258
I01
sg10
(I01
I01
tp4028
sba(iModules.cell
Cell
p4029
(dp4030
g5
I00
sg258
I01
sg10
(I01
I01
tp4031
sba(iModules.cell
Cell
p4032
(dp4033
g5
I00
sg258
I01
sg10
(I01
I01
tp4034
sba(iModules.cell
Cell
p4035
(dp4036
g5
I00
sg258
I01
sg10
(I01
I01
tp4037
sba(iModules.cell
Cell
p4038
(dp4039
g5
I00
sg258
I01
sg10
(I01
I01
tp4040
sba(iModules.cell
Cell
p4041
(dp4042
g5
I00
sg258
I01
sg10
(I01
I01
tp4043
sba(iModules.cell
Cell
p4044
(dp4045
g5
I00
sg258
I01
sg10
(I01
I01
tp4046
sba(iModules.cell
Cell
p4047
(dp4048
g5
I00
sg258
I01
sg10
(I01
I01
tp4049
sba(iModules.cell
Cell
p4050
(dp4051
g5
I00
sg258
I01
sg10
(I01
I01
tp4052
sba(iModules.cell
Cell
p4053
(dp4054
g5
I00
sg258
I01
sg10
(I01
I01
tp4055
sba(iModules.cell
Cell
p4056
(dp4057
g5
I00
sg258
I01
sg10
(I01
I01
tp4058
sba(iModules.cell
Cell
p4059
(dp4060
g5
I00
sg258
I01
sg10
(I01
I01
tp4061
sba(iModules.cell
Cell
p4062
(dp4063
g5
I00
sg258
I01
sg10
(I01
I01
tp4064
sba(iModules.cell
Cell
p4065
(dp4066
g5
I00
sg258
I01
sg10
(I01
I01
tp4067
sba(iModules.cell
Cell
p4068
(dp4069
g5
I00
sg258
I01
sg10
(I01
I01
tp4070
sba(iModules.cell
Cell
p4071
(dp4072
g5
I00
sg258
I01
sg10
(I01
I01
tp4073
sba(iModules.cell
Newt
p4074
(dp4075
g595
g596
sg5
I00
sg597
(iModules.cell
Cell
p4076
(dp4077
g5
I00
sg258
I01
sg10
(I01
I01
tp4078
sbsg601
g602
sba(iModules.cell
Cell
p4079
(dp4080
g5
I00
sg258
I01
sg10
(I01
I01
tp4081
sba(iModules.cell
Cell
p4082
(dp4083
g5
I00
sg258
I01
sg10
(I01
I01
tp4084
sba(iModules.cell
Cell
p4085
(dp4086
g5
I00
sg258
I01
sg10
(I01
I01
tp4087
sba(iModules.cell
Cell
p4088
(dp4089
g5
I00
sg10
(I01
I01
tp4090
sba(iModules.cell
Cell
p4091
(dp4092
g5
I00
sg10
(I01
I01
tp4093
sba(iModules.cell
Cell
p4094
(dp4095
g5
I00
sg10
(I01
I01
tp4096
sba(iModules.cell
Cell
p4097
(dp4098
g5
I00
sg10
(I01
I01
tp4099
sba(iModules.cell
Cell
p4100
(dp4101
g5
I00
sg10
(I01
I01
tp4102
sba(iModules.cell
Cell
p4103
(dp4104
g5
I00
sg10
(I01
I01
tp4105
sba(iModules.cell
Cell
p4106
(dp4107
g5
I00
sg10
(I01
I01
tp4108
sba(iModules.cell
Cell
p4109
(dp4110
g5
I00
sg10
(I01
I01
tp4111
sba(iModules.cell
Cell
p4112
(dp4113
g5
I00
sg10
(I01
I01
tp4114
sba(iModules.cell
Cell
p4115
(dp4116
g5
I00
sg10
(I01
I01
tp4117
sba(iModules.cell
Cell
p4118
(dp4119
g5
I00
sg10
(I01
I01
tp4120
sba(iModules.cell
Cell
p4121
(dp4122
g5
I00
sg10
(I01
I01
tp4123
sba(iModules.cell
Cell
p4124
(dp4125
g5
I00
sg10
(I01
I01
tp4126
sba(iModules.cell
Cell
p4127
(dp4128
g5
I00
sg10
(I01
I01
tp4129
sba(iModules.cell
Cell
p4130
(dp4131
g5
I00
sg10
(I01
I01
tp4132
sba(iModules.cell
Cell
p4133
(dp4134
g5
I00
sg10
(I01
I01
tp4135
sba(iModules.cell
Cell
p4136
(dp4137
g5
I00
sg10
(I01
I01
tp4138
sba(iModules.cell
Cell
p4139
(dp4140
g5
I00
sg10
(I01
I01
tp4141
sba(iModules.cell
Cell
p4142
(dp4143
g5
I00
sg10
(I01
I01
tp4144
sba(iModules.cell
Cell
p4145
(dp4146
g5
I00
sg10
(I01
I01
tp4147
sba(iModules.cell
Cell
p4148
(dp4149
g5
I00
sg10
(I01
I01
tp4150
sba(iModules.cell
Cell
p4151
(dp4152
g5
I00
sg10
(I01
I01
tp4153
sba(iModules.cell
Cell
p4154
(dp4155
g5
I00
sg10
(I01
I01
tp4156
sba(iModules.cell
Cell
p4157
(dp4158
g5
I00
sg10
(I01
I01
tp4159
sba(iModules.cell
Cell
p4160
(dp4161
g5
I00
sg10
(I01
I01
tp4162
sba(iModules.cell
Cell
p4163
(dp4164
g5
I00
sg10
(I01
I01
tp4165
sba(iModules.cell
Cell
p4166
(dp4167
g5
I00
sg10
(I01
I01
tp4168
sba(iModules.cell
Cell
p4169
(dp4170
g5
I00
sg10
(I01
I01
tp4171
sba(iModules.cell
Cell
p4172
(dp4173
g5
I00
sg10
(I01
I01
tp4174
sba(iModules.cell
Cell
p4175
(dp4176
g5
I00
sg10
(I01
I01
tp4177
sba(iModules.cell
Cell
p4178
(dp4179
g5
I00
sg10
(I01
I01
tp4180
sba(iModules.cell
Cell
p4181
(dp4182
g5
I00
sg10
(I01
I01
tp4183
sba(iModules.cell
Cell
p4184
(dp4185
g5
I00
sg10
(I01
I01
tp4186
sba(iModules.cell
Cell
p4187
(dp4188
g5
I00
sg10
(I01
I01
tp4189
sba(iModules.cell
Cell
p4190
(dp4191
g5
I00
sg10
(I01
I01
tp4192
sba(iModules.cell
Cell
p4193
(dp4194
g5
I00
sg10
(I01
I01
tp4195
sba(iModules.cell
Cell
p4196
(dp4197
g5
I00
sg10
(I01
I01
tp4198
sba(iModules.cell
Cell
p4199
(dp4200
g280
I00
sg5
I00
sg10
(I00
I00
tp4201
sg282
(lp4202
I16
aI61
asba(iModules.cell
Cell
p4203
(dp4204
g5
I00
sg10
(I00
I00
tp4205
sba(iModules.cell
Cell
p4206
(dp4207
g5
I00
sg10
(I00
I00
tp4208
sba(iModules.cell
Cell
p4209
(dp4210
g5
I00
sg10
(I00
I00
tp4211
sba(iModules.cell
Cell
p4212
(dp4213
g5
I00
sg10
(I00
I00
tp4214
sba(iModules.cell
Cell
p4215
(dp4216
g5
I00
sg10
(I00
I00
tp4217
sba(iModules.cell
Cell
p4218
(dp4219
g5
I00
sg10
(I00
I00
tp4220
sba(iModules.cell
Cell
p4221
(dp4222
g5
I00
sg10
(I00
I00
tp4223
sba(iModules.cell
Cell
p4224
(dp4225
g5
I00
sg10
(I00
I00
tp4226
sba(iModules.cell
Cell
p4227
(dp4228
g5
I00
sg10
(I00
I00
tp4229
sba(iModules.cell
Cell
p4230
(dp4231
g5
I00
sg10
(I00
I00
tp4232
sba(iModules.cell
Cell
p4233
(dp4234
g5
I00
sg10
(I00
I00
tp4235
sba(iModules.cell
Cell
p4236
(dp4237
g5
I00
sg10
(I00
I00
tp4238
sba(iModules.cell
Cell
p4239
(dp4240
g5
I00
sg10
(I00
I00
tp4241
sba(iModules.cell
Cell
p4242
(dp4243
g5
I00
sg10
(I00
I00
tp4244
sba(iModules.cell
Cell
p4245
(dp4246
g5
I00
sg10
(I00
I00
tp4247
sba(iModules.cell
Cell
p4248
(dp4249
g5
I00
sg10
(I00
I00
tp4250
sba(iModules.cell
Cell
p4251
(dp4252
g5
I00
sg10
(I00
I00
tp4253
sba(iModules.cell
Cell
p4254
(dp4255
g5
I00
sg10
(I00
I00
tp4256
sba(iModules.cell
Cell
p4257
(dp4258
g10
(I00
I00
tp4259
sbaa(lp4260
(iModules.cell
Cell
p4261
(dp4262
g5
I00
sg10
(I00
I00
tp4263
sba(iModules.cell
Cell
p4264
(dp4265
g5
I00
sg258
I01
sg10
(I00
I00
tp4266
sba(iModules.cell
Cell
p4267
(dp4268
g5
I00
sg258
I01
sg10
(I01
I01
tp4269
sba(iModules.cell
Cell
p4270
(dp4271
g5
I00
sg258
I01
sg10
(I01
I01
tp4272
sba(iModules.cell
Cell
p4273
(dp4274
g5
I00
sg258
I01
sg10
(I01
I01
tp4275
sba(iModules.cell
Cell
p4276
(dp4277
g5
I00
sg258
I01
sg10
(I01
I01
tp4278
sba(iModules.cell
Cell
p4279
(dp4280
g5
I00
sg258
I01
sg10
(I01
I01
tp4281
sba(iModules.cell
Cell
p4282
(dp4283
g5
I00
sg258
I01
sg10
(I01
I01
tp4284
sba(iModules.cell
Cell
p4285
(dp4286
g5
I00
sg258
I01
sg10
(I01
I01
tp4287
sba(iModules.cell
Cell
p4288
(dp4289
g5
I00
sg258
I01
sg10
(I01
I01
tp4290
sba(iModules.cell
Cell
p4291
(dp4292
g5
I00
sg258
I01
sg10
(I01
I01
tp4293
sba(iModules.cell
Cell
p4294
(dp4295
g5
I00
sg258
I01
sg10
(I01
I01
tp4296
sba(iModules.cell
Cell
p4297
(dp4298
g5
I00
sg258
I01
sg10
(I01
I01
tp4299
sba(iModules.cell
Cell
p4300
(dp4301
g5
I00
sg258
I01
sg10
(I01
I01
tp4302
sba(iModules.cell
Cell
p4303
(dp4304
g5
I00
sg258
I01
sg10
(I01
I01
tp4305
sba(iModules.cell
Cell
p4306
(dp4307
g5
I00
sg258
I01
sg10
(I01
I01
tp4308
sba(iModules.cell
Cell
p4309
(dp4310
g5
I00
sg258
I01
sg10
(I01
I01
tp4311
sba(iModules.cell
Cell
p4312
(dp4313
g5
I00
sg258
I01
sg10
(I01
I01
tp4314
sba(iModules.cell
Cell
p4315
(dp4316
g5
I00
sg258
I01
sg10
(I01
I01
tp4317
sba(iModules.cell
Cell
p4318
(dp4319
g5
I00
sg258
I01
sg10
(I01
I01
tp4320
sba(iModules.cell
Cell
p4321
(dp4322
g5
I00
sg258
I01
sg10
(I01
I01
tp4323
sba(iModules.cell
Cell
p4324
(dp4325
g5
I00
sg258
I01
sg10
(I01
I01
tp4326
sba(iModules.cell
Cell
p4327
(dp4328
g5
I00
sg258
I01
sg10
(I01
I01
tp4329
sba(iModules.cell
Cell
p4330
(dp4331
g5
I00
sg10
(I01
I01
tp4332
sba(iModules.cell
Cell
p4333
(dp4334
g5
I00
sg10
(I01
I01
tp4335
sba(iModules.cell
Cell
p4336
(dp4337
g5
I00
sg10
(I01
I01
tp4338
sba(iModules.cell
Cell
p4339
(dp4340
g5
I00
sg10
(I01
I01
tp4341
sba(iModules.cell
Cell
p4342
(dp4343
g5
I00
sg10
(I01
I01
tp4344
sba(iModules.cell
Cell
p4345
(dp4346
g5
I00
sg10
(I01
I01
tp4347
sba(iModules.cell
Cell
p4348
(dp4349
g5
I00
sg10
(I01
I01
tp4350
sba(iModules.cell
Cell
p4351
(dp4352
g5
I00
sg10
(I01
I01
tp4353
sba(iModules.cell
Cell
p4354
(dp4355
g5
I00
sg10
(I01
I01
tp4356
sba(iModules.cell
Cell
p4357
(dp4358
g5
I00
sg10
(I01
I01
tp4359
sba(iModules.cell
Cell
p4360
(dp4361
g5
I00
sg10
(I01
I01
tp4362
sba(iModules.cell
Cell
p4363
(dp4364
g5
I00
sg10
(I01
I01
tp4365
sba(iModules.cell
Cell
p4366
(dp4367
g5
I00
sg10
(I01
I01
tp4368
sba(iModules.cell
Cell
p4369
(dp4370
g5
I00
sg10
(I01
I01
tp4371
sba(iModules.cell
Cell
p4372
(dp4373
g5
I00
sg10
(I01
I01
tp4374
sba(iModules.cell
Cell
p4375
(dp4376
g5
I00
sg10
(I01
I01
tp4377
sba(iModules.cell
Cell
p4378
(dp4379
g5
I00
sg10
(I01
I01
tp4380
sba(iModules.cell
Cell
p4381
(dp4382
g5
I00
sg10
(I01
I01
tp4383
sba(iModules.cell
Cell
p4384
(dp4385
g5
I00
sg10
(I01
I01
tp4386
sba(iModules.cell
Cell
p4387
(dp4388
g5
I00
sg10
(I01
I01
tp4389
sba(iModules.cell
Cell
p4390
(dp4391
g5
I00
sg10
(I01
I01
tp4392
sba(iModules.cell
Cell
p4393
(dp4394
g5
I00
sg10
(I01
I01
tp4395
sba(iModules.cell
Cell
p4396
(dp4397
g5
I00
sg10
(I01
I01
tp4398
sba(iModules.cell
Cell
p4399
(dp4400
g5
I00
sg10
(I01
I01
tp4401
sba(iModules.cell
Cell
p4402
(dp4403
g5
I00
sg10
(I01
I01
tp4404
sba(iModules.cell
Cell
p4405
(dp4406
g5
I00
sg10
(I01
I01
tp4407
sba(iModules.cell
Newt
p4408
(dp4409
g595
g596
sg5
I00
sg597
(iModules.cell
Cell
p4410
(dp4411
g5
I00
sg10
(I01
I01
tp4412
sbsg601
g602
sba(iModules.cell
Cell
p4413
(dp4414
g5
I00
sg10
(I01
I01
tp4415
sba(iModules.cell
Cell
p4416
(dp4417
g5
I00
sg10
(I01
I01
tp4418
sba(iModules.cell
Cell
p4419
(dp4420
g5
I00
sg10
(I01
I01
tp4421
sba(iModules.cell
Cell
p4422
(dp4423
g5
I00
sg10
(I01
I01
tp4424
sba(iModules.cell
Cell
p4425
(dp4426
g5
I00
sg10
(I01
I01
tp4427
sba(iModules.cell
Cell
p4428
(dp4429
g5
I00
sg10
(I01
I01
tp4430
sba(iModules.cell
Cell
p4431
(dp4432
g5
I00
sg10
(I01
I01
tp4433
sba(iModules.cell
Cell
p4434
(dp4435
g5
I00
sg10
(I01
I01
tp4436
sba(iModules.cell
Cell
p4437
(dp4438
g5
I00
sg10
(I01
I01
tp4439
sba(iModules.cell
Cell
p4440
(dp4441
g5
I00
sg10
(I01
I01
tp4442
sba(iModules.cell
Cell
p4443
(dp4444
g5
I00
sg10
(I01
I01
tp4445
sba(iModules.cell
Cell
p4446
(dp4447
g5
I00
sg10
(I00
I00
tp4448
sba(iModules.cell
Cell
p4449
(dp4450
g5
I00
sg10
(I00
I00
tp4451
sba(iModules.cell
Cell
p4452
(dp4453
g5
I00
sg10
(I00
I00
tp4454
sba(iModules.cell
Cell
p4455
(dp4456
g5
I00
sg10
(I00
I00
tp4457
sba(iModules.cell
Cell
p4458
(dp4459
g5
I00
sg10
(I00
I00
tp4460
sba(iModules.cell
Cell
p4461
(dp4462
g5
I00
sg10
(I00
I00
tp4463
sba(iModules.cell
Cell
p4464
(dp4465
g5
I00
sg10
(I00
I00
tp4466
sba(iModules.cell
Cell
p4467
(dp4468
g5
I00
sg10
(I00
I00
tp4469
sba(iModules.cell
Cell
p4470
(dp4471
g5
I00
sg10
(I00
I00
tp4472
sba(iModules.cell
Cell
p4473
(dp4474
g5
I00
sg10
(I00
I00
tp4475
sba(iModules.cell
Cell
p4476
(dp4477
g5
I00
sg10
(I00
I00
tp4478
sba(iModules.cell
Cell
p4479
(dp4480
g5
I00
sg10
(I00
I00
tp4481
sba(iModules.cell
Cell
p4482
(dp4483
g5
I00
sg10
(I00
I00
tp4484
sba(iModules.cell
Cell
p4485
(dp4486
g5
I00
sg10
(I00
I00
tp4487
sba(iModules.cell
Cell
p4488
(dp4489
g5
I00
sg10
(I00
I00
tp4490
sba(iModules.cell
Cell
p4491
(dp4492
g5
I00
sg10
(I00
I00
tp4493
sba(iModules.cell
Cell
p4494
(dp4495
g5
I00
sg10
(I00
I00
tp4496
sba(iModules.cell
Cell
p4497
(dp4498
g5
I00
sg10
(I00
I00
tp4499
sba(iModules.cell
Cell
p4500
(dp4501
g5
I00
sg10
(I00
I00
tp4502
sba(iModules.cell
Cell
p4503
(dp4504
g10
(I00
I00
tp4505
sbaa(lp4506
(iModules.cell
Cell
p4507
(dp4508
g5
I00
sg10
(I00
I00
tp4509
sba(iModules.cell
Cell
p4510
(dp4511
g5
I00
sg258
I01
sg10
(I00
I00
tp4512
sba(iModules.cell
Cell
p4513
(dp4514
g5
I00
sg258
I01
sg10
(I01
I01
tp4515
sba(iModules.cell
Cell
p4516
(dp4517
g5
I00
sg258
I01
sg10
(I01
I01
tp4518
sba(iModules.cell
Cell
p4519
(dp4520
g5
I00
sg258
I01
sg10
(I01
I01
tp4521
sba(iModules.cell
Cell
p4522
(dp4523
g5
I00
sg258
I01
sg10
(I01
I01
tp4524
sba(iModules.cell
Cell
p4525
(dp4526
g5
I00
sg258
I01
sg10
(I01
I01
tp4527
sba(iModules.cell
Cell
p4528
(dp4529
g5
I00
sg258
I01
sg10
(I01
I01
tp4530
sba(iModules.cell
Cell
p4531
(dp4532
g5
I00
sg258
I01
sg10
(I01
I01
tp4533
sba(iModules.cell
Cell
p4534
(dp4535
g5
I00
sg258
I01
sg10
(I01
I01
tp4536
sba(iModules.cell
Cell
p4537
(dp4538
g5
I00
sg258
I01
sg10
(I01
I01
tp4539
sba(iModules.cell
Cell
p4540
(dp4541
g5
I00
sg258
I01
sg10
(I01
I01
tp4542
sba(iModules.cell
Cell
p4543
(dp4544
g5
I00
sg258
I01
sg10
(I01
I01
tp4545
sba(iModules.cell
Cell
p4546
(dp4547
g5
I00
sg258
I01
sg10
(I01
I01
tp4548
sba(iModules.cell
Cell
p4549
(dp4550
g5
I00
sg258
I01
sg10
(I01
I01
tp4551
sba(iModules.cell
Cell
p4552
(dp4553
g5
I00
sg258
I01
sg10
(I01
I01
tp4554
sba(iModules.cell
Cell
p4555
(dp4556
g5
I00
sg258
I01
sg10
(I01
I01
tp4557
sba(iModules.cell
Cell
p4558
(dp4559
g5
I00
sg258
I01
sg10
(I01
I01
tp4560
sba(iModules.cell
Cell
p4561
(dp4562
g5
I00
sg258
I01
sg10
(I01
I01
tp4563
sba(iModules.cell
Cell
p4564
(dp4565
g5
I00
sg258
I01
sg10
(I01
I01
tp4566
sba(iModules.cell
Cell
p4567
(dp4568
g5
I00
sg258
I01
sg10
(I01
I01
tp4569
sba(iModules.cell
Cell
p4570
(dp4571
g5
I00
sg258
I01
sg10
(I01
I01
tp4572
sba(iModules.cell
Cell
p4573
(dp4574
g5
I00
sg10
(I01
I01
tp4575
sba(iModules.cell
Cell
p4576
(dp4577
g5
I00
sg10
(I01
I01
tp4578
sba(iModules.cell
Cell
p4579
(dp4580
g5
I00
sg10
(I01
I01
tp4581
sba(iModules.cell
Cell
p4582
(dp4583
g5
I00
sg10
(I01
I01
tp4584
sba(iModules.cell
Cell
p4585
(dp4586
g5
I00
sg10
(I01
I01
tp4587
sba(iModules.cell
Cell
p4588
(dp4589
g5
I00
sg10
(I01
I01
tp4590
sba(iModules.cell
Cell
p4591
(dp4592
g5
I00
sg10
(I01
I01
tp4593
sba(iModules.cell
Cell
p4594
(dp4595
g5
I00
sg10
(I01
I01
tp4596
sba(iModules.cell
Cell
p4597
(dp4598
g5
I00
sg10
(I01
I01
tp4599
sba(iModules.cell
Cell
p4600
(dp4601
g5
I00
sg10
(I01
I01
tp4602
sba(iModules.cell
Cell
p4603
(dp4604
g5
I00
sg10
(I01
I01
tp4605
sba(iModules.cell
Cell
p4606
(dp4607
g5
I00
sg10
(I01
I01
tp4608
sba(iModules.cell
Cell
p4609
(dp4610
g5
I00
sg10
(I01
I01
tp4611
sba(iModules.cell
Cell
p4612
(dp4613
g5
I00
sg10
(I01
I01
tp4614
sba(iModules.cell
Cell
p4615
(dp4616
g5
I00
sg10
(I01
I01
tp4617
sba(iModules.cell
Cell
p4618
(dp4619
g5
I00
sg10
(I01
I01
tp4620
sba(iModules.cell
Cell
p4621
(dp4622
g5
I00
sg10
(I01
I01
tp4623
sba(iModules.cell
Cell
p4624
(dp4625
g5
I00
sg10
(I01
I01
tp4626
sba(iModules.cell
Newt
p4627
(dp4628
g595
g596
sg5
I00
sg597
(iModules.cell
Cell
p4629
(dp4630
g5
I00
sg10
(I01
I01
tp4631
sbsg601
g602
sba(iModules.cell
Cell
p4632
(dp4633
g5
I00
sg10
(I01
I01
tp4634
sba(iModules.cell
Cell
p4635
(dp4636
g5
I00
sg10
(I01
I01
tp4637
sba(iModules.cell
Cell
p4638
(dp4639
g5
I00
sg10
(I01
I01
tp4640
sba(iModules.cell
Cell
p4641
(dp4642
g5
I00
sg10
(I01
I01
tp4643
sba(iModules.cell
Cell
p4644
(dp4645
g5
I00
sg10
(I01
I01
tp4646
sba(iModules.cell
Cell
p4647
(dp4648
g5
I00
sg10
(I01
I01
tp4649
sba(iModules.cell
Cell
p4650
(dp4651
g5
I00
sg10
(I01
I01
tp4652
sba(iModules.cell
Cell
p4653
(dp4654
g5
I00
sg10
(I01
I01
tp4655
sba(iModules.cell
Cell
p4656
(dp4657
g5
I00
sg10
(I01
I01
tp4658
sba(iModules.cell
Cell
p4659
(dp4660
g5
I00
sg10
(I01
I01
tp4661
sba(iModules.cell
Cell
p4662
(dp4663
g5
I00
sg10
(I01
I01
tp4664
sba(iModules.cell
Cell
p4665
(dp4666
g5
I00
sg10
(I01
I01
tp4667
sba(iModules.cell
Cell
p4668
(dp4669
g5
I00
sg10
(I01
I01
tp4670
sba(iModules.cell
Cell
p4671
(dp4672
g5
I00
sg10
(I01
I01
tp4673
sba(iModules.cell
Cell
p4674
(dp4675
g5
I00
sg10
(I01
I01
tp4676
sba(iModules.cell
Cell
p4677
(dp4678
g5
I00
sg10
(I01
I01
tp4679
sba(iModules.cell
Cell
p4680
(dp4681
g5
I00
sg10
(I01
I01
tp4682
sba(iModules.cell
Cell
p4683
(dp4684
g5
I00
sg10
(I01
I01
tp4685
sba(iModules.cell
Cell
p4686
(dp4687
g5
I00
sg10
(I01
I01
tp4688
sba(iModules.cell
Cell
p4689
(dp4690
g5
I00
sg10
(I01
I01
tp4691
sba(iModules.cell
Cell
p4692
(dp4693
g5
I00
sg10
(I00
I00
tp4694
sba(iModules.cell
Cell
p4695
(dp4696
g5
I00
sg10
(I00
I00
tp4697
sba(iModules.cell
Cell
p4698
(dp4699
g5
I00
sg10
(I00
I00
tp4700
sba(iModules.cell
Cell
p4701
(dp4702
g5
I00
sg10
(I00
I00
tp4703
sba(iModules.cell
Cell
p4704
(dp4705
g5
I00
sg10
(I00
I00
tp4706
sba(iModules.cell
Cell
p4707
(dp4708
g5
I00
sg10
(I00
I00
tp4709
sba(iModules.cell
Cell
p4710
(dp4711
g5
I00
sg10
(I00
I00
tp4712
sba(iModules.cell
Cell
p4713
(dp4714
g5
I00
sg10
(I00
I00
tp4715
sba(iModules.cell
Cell
p4716
(dp4717
g5
I00
sg10
(I00
I00
tp4718
sba(iModules.cell
Cell
p4719
(dp4720
g5
I00
sg10
(I00
I00
tp4721
sba(iModules.cell
Cell
p4722
(dp4723
g5
I00
sg10
(I00
I00
tp4724
sba(iModules.cell
Cell
p4725
(dp4726
g5
I00
sg10
(I00
I00
tp4727
sba(iModules.cell
Cell
p4728
(dp4729
g5
I00
sg10
(I00
I00
tp4730
sba(iModules.cell
Cell
p4731
(dp4732
g5
I00
sg10
(I00
I00
tp4733
sba(iModules.cell
Cell
p4734
(dp4735
g5
I00
sg10
(I00
I00
tp4736
sba(iModules.cell
Cell
p4737
(dp4738
g5
I00
sg10
(I00
I00
tp4739
sba(iModules.cell
Cell
p4740
(dp4741
g5
I00
sg10
(I00
I00
tp4742
sba(iModules.cell
Cell
p4743
(dp4744
g5
I00
sg10
(I00
I00
tp4745
sba(iModules.cell
Cell
p4746
(dp4747
g5
I00
sg10
(I00
I00
tp4748
sba(iModules.cell
Cell
p4749
(dp4750
g10
(I00
I00
tp4751
sbaa(lp4752
(iModules.cell
Cell
p4753
(dp4754
g5
I00
sg10
(I00
I00
tp4755
sba(iModules.cell
Cell
p4756
(dp4757
g5
I00
sg258
I01
sg10
(I00
I00
tp4758
sba(iModules.cell
Cell
p4759
(dp4760
g5
I00
sg258
I01
sg10
(I01
I01
tp4761
sba(iModules.cell
Cell
p4762
(dp4763
g5
I00
sg258
I01
sg10
(I01
I01
tp4764
sba(iModules.cell
Cell
p4765
(dp4766
g5
I00
sg258
I01
sg10
(I01
I01
tp4767
sba(iModules.cell
Cell
p4768
(dp4769
g5
I00
sg258
I01
sg10
(I01
I01
tp4770
sba(iModules.cell
Cell
p4771
(dp4772
g5
I00
sg258
I01
sg10
(I01
I01
tp4773
sba(iModules.cell
Cell
p4774
(dp4775
g5
I00
sg258
I01
sg10
(I01
I01
tp4776
sba(iModules.cell
Cell
p4777
(dp4778
g5
I00
sg258
I01
sg10
(I01
I01
tp4779
sba(iModules.cell
Cell
p4780
(dp4781
g5
I00
sg258
I01
sg10
(I01
I01
tp4782
sba(iModules.cell
Cell
p4783
(dp4784
g5
I00
sg258
I01
sg10
(I01
I01
tp4785
sba(iModules.cell
Cell
p4786
(dp4787
g5
I00
sg258
I01
sg10
(I01
I01
tp4788
sba(iModules.cell
Cell
p4789
(dp4790
g5
I00
sg258
I01
sg10
(I01
I01
tp4791
sba(iModules.cell
Cell
p4792
(dp4793
g5
I00
sg258
I01
sg10
(I01
I01
tp4794
sba(iModules.cell
Cell
p4795
(dp4796
g5
I00
sg258
I01
sg10
(I01
I01
tp4797
sba(iModules.cell
Cell
p4798
(dp4799
g5
I00
sg258
I01
sg10
(I01
I01
tp4800
sba(iModules.cell
Cell
p4801
(dp4802
g5
I00
sg258
I01
sg10
(I01
I01
tp4803
sba(iModules.cell
Cell
p4804
(dp4805
g5
I00
sg258
I01
sg10
(I01
I01
tp4806
sba(iModules.cell
Cell
p4807
(dp4808
g5
I00
sg258
I01
sg10
(I01
I01
tp4809
sba(iModules.cell
Cell
p4810
(dp4811
g5
I00
sg258
I01
sg10
(I01
I01
tp4812
sba(iModules.cell
Cell
p4813
(dp4814
g5
I00
sg258
I01
sg10
(I01
I01
tp4815
sba(iModules.cell
Cell
p4816
(dp4817
g5
I00
sg10
(I01
I01
tp4818
sba(iModules.cell
Cell
p4819
(dp4820
g5
I00
sg10
(I01
I01
tp4821
sba(iModules.cell
Cell
p4822
(dp4823
g5
I00
sg10
(I01
I01
tp4824
sba(iModules.cell
Cell
p4825
(dp4826
g5
I00
sg10
(I01
I01
tp4827
sba(iModules.cell
Cell
p4828
(dp4829
g5
I00
sg10
(I01
I01
tp4830
sba(iModules.cell
Cell
p4831
(dp4832
g5
I00
sg10
(I01
I01
tp4833
sba(iModules.cell
Cell
p4834
(dp4835
g5
I00
sg10
(I01
I01
tp4836
sba(iModules.cell
Cell
p4837
(dp4838
g5
I00
sg10
(I01
I01
tp4839
sba(iModules.cell
Cell
p4840
(dp4841
g5
I00
sg10
(I01
I01
tp4842
sba(iModules.cell
Cell
p4843
(dp4844
g5
I00
sg10
(I01
I01
tp4845
sba(iModules.cell
Cell
p4846
(dp4847
g5
I00
sg10
(I01
I01
tp4848
sba(iModules.cell
Cell
p4849
(dp4850
g5
I00
sg10
(I01
I01
tp4851
sba(iModules.cell
Cell
p4852
(dp4853
g5
I00
sg10
(I01
I01
tp4854
sba(iModules.cell
Cell
p4855
(dp4856
g5
I00
sg10
(I01
I01
tp4857
sba(iModules.cell
Cell
p4858
(dp4859
g5
I00
sg10
(I01
I01
tp4860
sba(iModules.cell
Cell
p4861
(dp4862
g5
I00
sg10
(I01
I01
tp4863
sba(iModules.cell
Cell
p4864
(dp4865
g5
I00
sg10
(I01
I01
tp4866
sba(iModules.cell
Cell
p4867
(dp4868
g5
I00
sg10
(I01
I01
tp4869
sba(iModules.cell
Cell
p4870
(dp4871
g5
I00
sg10
(I01
I01
tp4872
sba(iModules.cell
Cell
p4873
(dp4874
g5
I00
sg10
(I01
I01
tp4875
sba(iModules.cell
Cell
p4876
(dp4877
g5
I00
sg10
(I01
I01
tp4878
sba(iModules.cell
Cell
p4879
(dp4880
g5
I00
sg10
(I01
I01
tp4881
sba(iModules.cell
Cell
p4882
(dp4883
g5
I00
sg10
(I01
I01
tp4884
sba(iModules.cell
Cell
p4885
(dp4886
g5
I00
sg10
(I01
I01
tp4887
sba(iModules.cell
Cell
p4888
(dp4889
g5
I00
sg10
(I01
I01
tp4890
sba(iModules.cell
Cell
p4891
(dp4892
g5
I00
sg10
(I01
I01
tp4893
sba(iModules.cell
Cell
p4894
(dp4895
g5
I00
sg10
(I01
I01
tp4896
sba(iModules.cell
Cell
p4897
(dp4898
g5
I00
sg10
(I01
I01
tp4899
sba(iModules.cell
Cell
p4900
(dp4901
g5
I00
sg10
(I01
I01
tp4902
sba(iModules.cell
Cell
p4903
(dp4904
g5
I00
sg10
(I01
I01
tp4905
sba(iModules.cell
Cell
p4906
(dp4907
g5
I00
sg10
(I01
I01
tp4908
sba(iModules.cell
Cell
p4909
(dp4910
g5
I00
sg10
(I01
I01
tp4911
sba(iModules.cell
Cell
p4912
(dp4913
g5
I00
sg10
(I01
I01
tp4914
sba(iModules.cell
Cell
p4915
(dp4916
g5
I00
sg10
(I01
I01
tp4917
sba(iModules.cell
Cell
p4918
(dp4919
g5
I00
sg10
(I01
I01
tp4920
sba(iModules.cell
Cell
p4921
(dp4922
g5
I00
sg10
(I01
I01
tp4923
sba(iModules.cell
Cell
p4924
(dp4925
g5
I00
sg10
(I01
I01
tp4926
sba(iModules.cell
Cell
p4927
(dp4928
g5
I00
sg10
(I01
I01
tp4929
sba(iModules.cell
Cell
p4930
(dp4931
g5
I00
sg10
(I01
I01
tp4932
sba(iModules.cell
Cell
p4933
(dp4934
g5
I00
sg10
(I01
I01
tp4935
sba(iModules.cell
Cell
p4936
(dp4937
g5
I00
sg10
(I00
I00
tp4938
sba(iModules.cell
Cell
p4939
(dp4940
g5
I00
sg10
(I00
I00
tp4941
sba(iModules.cell
Cell
p4942
(dp4943
g5
I00
sg10
(I00
I00
tp4944
sba(iModules.cell
Cell
p4945
(dp4946
g5
I00
sg10
(I00
I00
tp4947
sba(iModules.cell
Cell
p4948
(dp4949
g5
I00
sg10
(I00
I00
tp4950
sba(iModules.cell
Cell
p4951
(dp4952
g5
I00
sg10
(I00
I00
tp4953
sba(iModules.cell
Cell
p4954
(dp4955
g5
I00
sg10
(I00
I00
tp4956
sba(iModules.cell
Cell
p4957
(dp4958
g5
I00
sg10
(I00
I00
tp4959
sba(iModules.cell
Cell
p4960
(dp4961
g5
I00
sg10
(I00
I00
tp4962
sba(iModules.cell
Cell
p4963
(dp4964
g5
I00
sg10
(I00
I00
tp4965
sba(iModules.cell
Cell
p4966
(dp4967
g5
I00
sg10
(I00
I00
tp4968
sba(iModules.cell
Cell
p4969
(dp4970
g5
I00
sg10
(I00
I00
tp4971
sba(iModules.cell
Cell
p4972
(dp4973
g5
I00
sg10
(I00
I00
tp4974
sba(iModules.cell
Cell
p4975
(dp4976
g5
I00
sg10
(I00
I00
tp4977
sba(iModules.cell
Cell
p4978
(dp4979
g5
I00
sg10
(I00
I00
tp4980
sba(iModules.cell
Cell
p4981
(dp4982
g5
I00
sg10
(I00
I00
tp4983
sba(iModules.cell
Cell
p4984
(dp4985
g5
I00
sg10
(I00
I00
tp4986
sba(iModules.cell
Cell
p4987
(dp4988
g5
I00
sg10
(I00
I00
tp4989
sba(iModules.cell
Cell
p4990
(dp4991
g5
I00
sg10
(I00
I00
tp4992
sba(iModules.cell
Cell
p4993
(dp4994
g10
(I00
I00
tp4995
sbaa(lp4996
(iModules.cell
Cell
p4997
(dp4998
g5
I00
sg10
(I00
I00
tp4999
sba(iModules.cell
Cell
p5000
(dp5001
g5
I00
sg258
I01
sg10
(I00
I00
tp5002
sba(iModules.cell
Cell
p5003
(dp5004
g5
I00
sg258
I01
sg10
(I01
I01
tp5005
sba(iModules.cell
Cell
p5006
(dp5007
g5
I00
sg258
I01
sg10
(I01
I01
tp5008
sba(iModules.cell
Cell
p5009
(dp5010
g5
I00
sg258
I01
sg10
(I01
I01
tp5011
sba(iModules.cell
Cell
p5012
(dp5013
g5
I00
sg258
I01
sg10
(I01
I01
tp5014
sba(iModules.cell
Cell
p5015
(dp5016
g5
I00
sg258
I01
sg10
(I01
I01
tp5017
sba(iModules.cell
Cell
p5018
(dp5019
g5
I00
sg258
I01
sg10
(I01
I01
tp5020
sba(iModules.cell
Cell
p5021
(dp5022
g5
I00
sg258
I01
sg10
(I01
I01
tp5023
sba(iModules.cell
Cell
p5024
(dp5025
g5
I00
sg258
I01
sg10
(I01
I01
tp5026
sba(iModules.cell
Cell
p5027
(dp5028
g5
I00
sg258
I01
sg10
(I01
I01
tp5029
sba(iModules.cell
Cell
p5030
(dp5031
g5
I00
sg258
I01
sg10
(I01
I01
tp5032
sba(iModules.cell
Cell
p5033
(dp5034
g5
I00
sg258
I01
sg10
(I01
I01
tp5035
sba(iModules.cell
Cell
p5036
(dp5037
g5
I00
sg258
I01
sg10
(I01
I01
tp5038
sba(iModules.cell
Cell
p5039
(dp5040
g5
I00
sg258
I01
sg10
(I01
I01
tp5041
sba(iModules.cell
Cell
p5042
(dp5043
g5
I00
sg258
I01
sg10
(I01
I01
tp5044
sba(iModules.cell
Cell
p5045
(dp5046
g5
I00
sg258
I01
sg10
(I01
I01
tp5047
sba(iModules.cell
Cell
p5048
(dp5049
g5
I00
sg258
I01
sg10
(I01
I01
tp5050
sba(iModules.cell
Cell
p5051
(dp5052
g5
I00
sg258
I01
sg10
(I01
I01
tp5053
sba(iModules.cell
Cell
p5054
(dp5055
g5
I00
sg258
I01
sg10
(I01
I01
tp5056
sba(iModules.cell
Cell
p5057
(dp5058
g5
I00
sg10
(I01
I01
tp5059
sba(iModules.cell
Cell
p5060
(dp5061
g5
I00
sg10
(I01
I01
tp5062
sba(iModules.cell
Cell
p5063
(dp5064
g5
I00
sg10
(I01
I01
tp5065
sba(iModules.cell
Cell
p5066
(dp5067
g5
I00
sg10
(I01
I01
tp5068
sba(iModules.cell
Cell
p5069
(dp5070
g5
I00
sg10
(I01
I01
tp5071
sba(iModules.cell
Cell
p5072
(dp5073
g5
I00
sg10
(I01
I01
tp5074
sba(iModules.cell
Cell
p5075
(dp5076
g5
I00
sg10
(I01
I01
tp5077
sba(iModules.cell
Cell
p5078
(dp5079
g5
I00
sg10
(I01
I01
tp5080
sba(iModules.cell
Cell
p5081
(dp5082
g5
I00
sg10
(I01
I01
tp5083
sba(iModules.cell
Cell
p5084
(dp5085
g5
I00
sg10
(I01
I01
tp5086
sba(iModules.cell
Cell
p5087
(dp5088
g5
I00
sg10
(I01
I01
tp5089
sba(iModules.cell
Cell
p5090
(dp5091
g5
I00
sg10
(I01
I01
tp5092
sba(iModules.cell
Cell
p5093
(dp5094
g5
I00
sg10
(I01
I01
tp5095
sba(iModules.cell
Cell
p5096
(dp5097
g5
I00
sg10
(I01
I01
tp5098
sba(iModules.cell
Cell
p5099
(dp5100
g5
I00
sg10
(I01
I01
tp5101
sba(iModules.cell
Cell
p5102
(dp5103
g5
I00
sg10
(I01
I01
tp5104
sba(iModules.cell
Cell
p5105
(dp5106
g5
I00
sg10
(I01
I01
tp5107
sba(iModules.cell
Cell
p5108
(dp5109
g5
I00
sg10
(I01
I01
tp5110
sba(iModules.cell
Cell
p5111
(dp5112
g5
I00
sg10
(I01
I01
tp5113
sba(iModules.cell
Cell
p5114
(dp5115
g5
I00
sg10
(I01
I01
tp5116
sba(iModules.cell
Cell
p5117
(dp5118
g5
I00
sg10
(I01
I01
tp5119
sba(iModules.cell
Cell
p5120
(dp5121
g5
I00
sg10
(I01
I01
tp5122
sba(iModules.cell
Cell
p5123
(dp5124
g5
I00
sg10
(I01
I01
tp5125
sba(iModules.cell
Cell
p5126
(dp5127
g5
I00
sg10
(I01
I01
tp5128
sba(iModules.cell
Cell
p5129
(dp5130
g5
I00
sg10
(I01
I01
tp5131
sba(iModules.cell
Cell
p5132
(dp5133
g5
I00
sg10
(I01
I01
tp5134
sba(iModules.cell
Cell
p5135
(dp5136
g5
I00
sg10
(I01
I01
tp5137
sba(iModules.cell
Cell
p5138
(dp5139
g5
I00
sg10
(I01
I01
tp5140
sba(iModules.cell
Cell
p5141
(dp5142
g5
I00
sg10
(I01
I01
tp5143
sba(iModules.cell
Cell
p5144
(dp5145
g5
I00
sg10
(I01
I01
tp5146
sba(iModules.cell
Cell
p5147
(dp5148
g5
I00
sg10
(I01
I01
tp5149
sba(iModules.cell
Cell
p5150
(dp5151
g5
I00
sg10
(I01
I01
tp5152
sba(iModules.cell
Cell
p5153
(dp5154
g5
I00
sg10
(I01
I01
tp5155
sba(iModules.cell
Cell
p5156
(dp5157
g5
I00
sg10
(I01
I01
tp5158
sba(iModules.cell
Cell
p5159
(dp5160
g5
I00
sg10
(I01
I01
tp5161
sba(iModules.cell
Cell
p5162
(dp5163
g5
I00
sg10
(I01
I01
tp5164
sba(iModules.cell
Cell
p5165
(dp5166
g5
I00
sg10
(I01
I01
tp5167
sba(iModules.cell
Cell
p5168
(dp5169
g5
I00
sg10
(I01
I01
tp5170
sba(iModules.cell
Cell
p5171
(dp5172
g5
I00
sg10
(I01
I01
tp5173
sba(iModules.cell
Cell
p5174
(dp5175
g5
I00
sg10
(I01
I01
tp5176
sba(iModules.cell
Cell
p5177
(dp5178
g5
I00
sg10
(I01
I01
tp5179
sba(iModules.cell
Cell
p5180
(dp5181
g5
I00
sg10
(I00
I00
tp5182
sba(iModules.cell
Cell
p5183
(dp5184
g5
I00
sg10
(I00
I00
tp5185
sba(iModules.cell
Cell
p5186
(dp5187
g5
I00
sg10
(I00
I00
tp5188
sba(iModules.cell
Cell
p5189
(dp5190
g5
I00
sg10
(I00
I00
tp5191
sba(iModules.cell
Cell
p5192
(dp5193
g5
I00
sg10
(I00
I00
tp5194
sba(iModules.cell
Cell
p5195
(dp5196
g5
I00
sg10
(I00
I00
tp5197
sba(iModules.cell
Cell
p5198
(dp5199
g5
I00
sg10
(I00
I00
tp5200
sba(iModules.cell
Cell
p5201
(dp5202
g5
I00
sg10
(I00
I00
tp5203
sba(iModules.cell
Cell
p5204
(dp5205
g5
I00
sg10
(I00
I00
tp5206
sba(iModules.cell
Cell
p5207
(dp5208
g5
I00
sg10
(I00
I00
tp5209
sba(iModules.cell
Cell
p5210
(dp5211
g5
I00
sg10
(I00
I00
tp5212
sba(iModules.cell
Cell
p5213
(dp5214
g5
I00
sg10
(I00
I00
tp5215
sba(iModules.cell
Cell
p5216
(dp5217
g5
I00
sg10
(I00
I00
tp5218
sba(iModules.cell
Cell
p5219
(dp5220
g5
I00
sg10
(I00
I00
tp5221
sba(iModules.cell
Cell
p5222
(dp5223
g5
I00
sg10
(I00
I00
tp5224
sba(iModules.cell
Cell
p5225
(dp5226
g5
I00
sg10
(I00
I00
tp5227
sba(iModules.cell
Cell
p5228
(dp5229
g5
I00
sg10
(I00
I00
tp5230
sba(iModules.cell
Cell
p5231
(dp5232
g5
I00
sg10
(I00
I00
tp5233
sba(iModules.cell
Cell
p5234
(dp5235
g5
I00
sg10
(I00
I00
tp5236
sba(iModules.cell
Cell
p5237
(dp5238
g10
(I00
I00
tp5239
sbaa(lp5240
(iModules.cell
Cell
p5241
(dp5242
g5
I00
sg10
(I00
I00
tp5243
sba(iModules.cell
Cell
p5244
(dp5245
g5
I00
sg258
I01
sg10
(I00
I00
tp5246
sba(iModules.cell
Cell
p5247
(dp5248
g5
I00
sg258
I01
sg10
(I01
I01
tp5249
sba(iModules.cell
Cell
p5250
(dp5251
g5
I00
sg258
I01
sg10
(I01
I01
tp5252
sba(iModules.cell
Cell
p5253
(dp5254
g5
I00
sg258
I01
sg10
(I01
I01
tp5255
sba(iModules.cell
Cell
p5256
(dp5257
g5
I00
sg258
I01
sg10
(I01
I01
tp5258
sba(iModules.cell
Cell
p5259
(dp5260
g5
I00
sg258
I01
sg10
(I01
I01
tp5261
sba(iModules.cell
Cell
p5262
(dp5263
g5
I00
sg258
I01
sg10
(I01
I01
tp5264
sba(iModules.cell
Cell
p5265
(dp5266
g5
I00
sg258
I01
sg10
(I01
I01
tp5267
sba(iModules.cell
Cell
p5268
(dp5269
g5
I00
sg258
I01
sg10
(I01
I01
tp5270
sba(iModules.cell
Cell
p5271
(dp5272
g5
I00
sg258
I01
sg10
(I01
I01
tp5273
sba(iModules.cell
Cell
p5274
(dp5275
g5
I00
sg258
I01
sg10
(I01
I01
tp5276
sba(iModules.cell
Cell
p5277
(dp5278
g5
I00
sg258
I01
sg10
(I01
I01
tp5279
sba(iModules.cell
Cell
p5280
(dp5281
g5
I00
sg258
I01
sg10
(I01
I01
tp5282
sba(iModules.cell
Cell
p5283
(dp5284
g5
I00
sg258
I01
sg10
(I01
I01
tp5285
sba(iModules.cell
Cell
p5286
(dp5287
g5
I00
sg258
I01
sg10
(I01
I01
tp5288
sba(iModules.cell
Cell
p5289
(dp5290
g5
I00
sg258
I01
sg10
(I01
I01
tp5291
sba(iModules.cell
Cell
p5292
(dp5293
g5
I00
sg258
I01
sg10
(I01
I01
tp5294
sba(iModules.cell
Cell
p5295
(dp5296
g5
I00
sg258
I01
sg10
(I01
I01
tp5297
sba(iModules.cell
Cell
p5298
(dp5299
g5
I00
sg10
(I01
I01
tp5300
sba(iModules.cell
Cell
p5301
(dp5302
g5
I00
sg10
(I01
I01
tp5303
sba(iModules.cell
Cell
p5304
(dp5305
g5
I00
sg10
(I01
I01
tp5306
sba(iModules.cell
Cell
p5307
(dp5308
g5
I00
sg10
(I01
I01
tp5309
sba(iModules.cell
Cell
p5310
(dp5311
g5
I00
sg10
(I01
I01
tp5312
sba(iModules.cell
Cell
p5313
(dp5314
g5
I00
sg10
(I01
I01
tp5315
sba(iModules.cell
Cell
p5316
(dp5317
g5
I00
sg10
(I01
I01
tp5318
sba(iModules.cell
Cell
p5319
(dp5320
g5
I00
sg10
(I01
I01
tp5321
sba(iModules.cell
Cell
p5322
(dp5323
g5
I00
sg10
(I01
I01
tp5324
sba(iModules.cell
Cell
p5325
(dp5326
g5
I00
sg10
(I01
I01
tp5327
sba(iModules.cell
Cell
p5328
(dp5329
g5
I00
sg10
(I01
I01
tp5330
sba(iModules.cell
Cell
p5331
(dp5332
g5
I00
sg10
(I01
I01
tp5333
sba(iModules.cell
Cell
p5334
(dp5335
g5
I00
sg10
(I01
I01
tp5336
sba(iModules.cell
Cell
p5337
(dp5338
g5
I00
sg10
(I01
I01
tp5339
sba(iModules.cell
Cell
p5340
(dp5341
g5
I00
sg10
(I01
I01
tp5342
sba(iModules.cell
Cell
p5343
(dp5344
g5
I00
sg10
(I01
I01
tp5345
sba(iModules.cell
Cell
p5346
(dp5347
g5
I00
sg10
(I01
I01
tp5348
sba(iModules.cell
Cell
p5349
(dp5350
g5
I00
sg10
(I01
I01
tp5351
sba(iModules.cell
Cell
p5352
(dp5353
g5
I00
sg10
(I01
I01
tp5354
sba(iModules.cell
Cell
p5355
(dp5356
g5
I00
sg10
(I01
I01
tp5357
sba(iModules.cell
Cell
p5358
(dp5359
g5
I00
sg10
(I01
I01
tp5360
sba(iModules.cell
Cell
p5361
(dp5362
g5
I00
sg10
(I01
I01
tp5363
sba(iModules.cell
Cell
p5364
(dp5365
g5
I00
sg10
(I01
I01
tp5366
sba(iModules.cell
Cell
p5367
(dp5368
g5
I00
sg10
(I01
I01
tp5369
sba(iModules.cell
Cell
p5370
(dp5371
g5
I00
sg10
(I01
I01
tp5372
sba(iModules.cell
Newt
p5373
(dp5374
g595
g596
sg5
I00
sg597
(iModules.cell
Cell
p5375
(dp5376
g5
I00
sg10
(I01
I01
tp5377
sbsg601
g602
sba(iModules.cell
Cell
p5378
(dp5379
g5
I00
sg10
(I01
I01
tp5380
sba(iModules.cell
Cell
p5381
(dp5382
g5
I00
sg10
(I01
I01
tp5383
sba(iModules.cell
Cell
p5384
(dp5385
g5
I00
sg10
(I01
I01
tp5386
sba(iModules.cell
Cell
p5387
(dp5388
g5
I00
sg10
(I01
I01
tp5389
sba(iModules.cell
Cell
p5390
(dp5391
g5
I00
sg10
(I01
I01
tp5392
sba(iModules.cell
Cell
p5393
(dp5394
g5
I00
sg10
(I01
I01
tp5395
sba(iModules.cell
Cell
p5396
(dp5397
g5
I00
sg10
(I01
I01
tp5398
sba(iModules.cell
Cell
p5399
(dp5400
g5
I00
sg10
(I01
I01
tp5401
sba(iModules.cell
Cell
p5402
(dp5403
g5
I00
sg10
(I01
I01
tp5404
sba(iModules.cell
Cell
p5405
(dp5406
g5
I00
sg10
(I01
I01
tp5407
sba(iModules.cell
Cell
p5408
(dp5409
g5
I00
sg10
(I01
I01
tp5410
sba(iModules.cell
Cell
p5411
(dp5412
g5
I00
sg10
(I01
I01
tp5413
sba(iModules.cell
Cell
p5414
(dp5415
g5
I00
sg10
(I01
I01
tp5416
sba(iModules.cell
Cell
p5417
(dp5418
g5
I00
sg10
(I01
I01
tp5419
sba(iModules.cell
Cell
p5420
(dp5421
g5
I00
sg10
(I01
I01
tp5422
sba(iModules.cell
Cell
p5423
(dp5424
g5
I00
sg10
(I01
I01
tp5425
sba(iModules.cell
Cell
p5426
(dp5427
g5
I00
sg10
(I00
I00
tp5428
sba(iModules.cell
Cell
p5429
(dp5430
g5
I00
sg10
(I00
I00
tp5431
sba(iModules.cell
Cell
p5432
(dp5433
g5
I00
sg10
(I00
I00
tp5434
sba(iModules.cell
Cell
p5435
(dp5436
g5
I00
sg10
(I00
I00
tp5437
sba(iModules.cell
Cell
p5438
(dp5439
g5
I00
sg10
(I00
I00
tp5440
sba(iModules.cell
Cell
p5441
(dp5442
g5
I00
sg10
(I00
I00
tp5443
sba(iModules.cell
Cell
p5444
(dp5445
g5
I00
sg10
(I00
I00
tp5446
sba(iModules.cell
Cell
p5447
(dp5448
g5
I00
sg10
(I00
I00
tp5449
sba(iModules.cell
Cell
p5450
(dp5451
g5
I00
sg10
(I00
I00
tp5452
sba(iModules.cell
Cell
p5453
(dp5454
g5
I00
sg10
(I00
I00
tp5455
sba(iModules.cell
Cell
p5456
(dp5457
g5
I00
sg10
(I00
I00
tp5458
sba(iModules.cell
Cell
p5459
(dp5460
g5
I00
sg10
(I00
I00
tp5461
sba(iModules.cell
Cell
p5462
(dp5463
g5
I00
sg10
(I00
I00
tp5464
sba(iModules.cell
Cell
p5465
(dp5466
g5
I00
sg10
(I00
I00
tp5467
sba(iModules.cell
Cell
p5468
(dp5469
g5
I00
sg10
(I00
I00
tp5470
sba(iModules.cell
Cell
p5471
(dp5472
g5
I00
sg10
(I00
I00
tp5473
sba(iModules.cell
Cell
p5474
(dp5475
g5
I00
sg10
(I00
I00
tp5476
sba(iModules.cell
Cell
p5477
(dp5478
g5
I00
sg10
(I00
I00
tp5479
sba(iModules.cell
Cell
p5480
(dp5481
g5
I00
sg10
(I00
I00
tp5482
sba(iModules.cell
Cell
p5483
(dp5484
g10
(I00
I00
tp5485
sbaa(lp5486
(iModules.cell
Cell
p5487
(dp5488
g5
I00
sg10
(I00
I00
tp5489
sba(iModules.cell
Cell
p5490
(dp5491
g5
I00
sg258
I01
sg10
(I00
I00
tp5492
sba(iModules.cell
Cell
p5493
(dp5494
g5
I00
sg258
I01
sg10
(I00
I00
tp5495
sba(iModules.cell
Cell
p5496
(dp5497
g5
I00
sg258
I01
sg10
(I00
I00
tp5498
sba(iModules.cell
Cell
p5499
(dp5500
g5
I00
sg258
I01
sg10
(I00
I00
tp5501
sba(iModules.cell
Cell
p5502
(dp5503
g5
I00
sg258
I01
sg10
(I00
I00
tp5504
sba(iModules.cell
Cell
p5505
(dp5506
g5
I00
sg258
I01
sg10
(I00
I00
tp5507
sba(iModules.cell
Cell
p5508
(dp5509
g5
I00
sg258
I01
sg10
(I00
I00
tp5510
sba(iModules.cell
Cell
p5511
(dp5512
g5
I00
sg258
I01
sg10
(I00
I00
tp5513
sba(iModules.cell
Cell
p5514
(dp5515
g5
I00
sg258
I01
sg10
(I00
I00
tp5516
sba(iModules.cell
Cell
p5517
(dp5518
g5
I00
sg258
I01
sg10
(I00
I00
tp5519
sba(iModules.cell
Cell
p5520
(dp5521
g5
I00
sg258
I01
sg10
(I00
I00
tp5522
sba(iModules.cell
Cell
p5523
(dp5524
g5
I00
sg258
I01
sg10
(I00
I00
tp5525
sba(iModules.cell
Cell
p5526
(dp5527
g5
I00
sg258
I01
sg10
(I00
I00
tp5528
sba(iModules.cell
Cell
p5529
(dp5530
g5
I00
sg258
I01
sg10
(I00
I00
tp5531
sba(iModules.cell
Cell
p5532
(dp5533
g5
I00
sg258
I01
sg10
(I00
I00
tp5534
sba(iModules.cell
Cell
p5535
(dp5536
g5
I00
sg258
I01
sg10
(I00
I00
tp5537
sba(iModules.cell
Cell
p5538
(dp5539
g5
I00
sg258
I01
sg10
(I00
I00
tp5540
sba(iModules.cell
Cell
p5541
(dp5542
g5
I00
sg10
(I00
I00
tp5543
sba(iModules.cell
Cell
p5544
(dp5545
g5
I00
sg10
(I00
I00
tp5546
sba(iModules.cell
Cell
p5547
(dp5548
g5
I00
sg10
(I00
I00
tp5549
sba(iModules.cell
Cell
p5550
(dp5551
g5
I00
sg10
(I00
I00
tp5552
sba(iModules.cell
Cell
p5553
(dp5554
g5
I00
sg10
(I00
I00
tp5555
sba(iModules.cell
Cell
p5556
(dp5557
g280
I00
sg5
I00
sg10
(I00
I00
tp5558
sg282
(lp5559
I22
aI23
asba(iModules.cell
Cell
p5560
(dp5561
g280
I00
sg5
I00
sg10
(I00
I00
tp5562
sg282
(lp5563
I22
aI24
asba(iModules.cell
Cell
p5564
(dp5565
g280
I00
sg5
I00
sg10
(I00
I00
tp5566
sg282
(lp5567
I22
aI25
asba(iModules.cell
Cell
p5568
(dp5569
g280
I00
sg5
I00
sg10
(I00
I00
tp5570
sg282
(lp5571
I22
aI26
asba(iModules.cell
Cell
p5572
(dp5573
g280
I00
sg5
I00
sg10
(I00
I00
tp5574
sg282
(lp5575
I22
aI27
asba(iModules.cell
Cell
p5576
(dp5577
g280
I00
sg5
I00
sg10
(I00
I00
tp5578
sg282
(lp5579
I22
aI28
asba(iModules.cell
Cell
p5580
(dp5581
g280
I00
sg5
I00
sg10
(I00
I00
tp5582
sg282
(lp5583
I22
aI29
asba(iModules.cell
Cell
p5584
(dp5585
g280
I00
sg5
I00
sg10
(I00
I00
tp5586
sg282
(lp5587
I22
aI30
asba(iModules.cell
Cell
p5588
(dp5589
g280
I00
sg5
I00
sg10
(I00
I00
tp5590
sg282
(lp5591
I22
aI31
asba(iModules.cell
Cell
p5592
(dp5593
g280
I00
sg5
I00
sg10
(I00
I00
tp5594
sg282
(lp5595
I22
aI32
asba(iModules.cell
Cell
p5596
(dp5597
g280
I00
sg5
I00
sg10
(I00
I00
tp5598
sg282
(lp5599
I22
aI33
asba(iModules.cell
Cell
p5600
(dp5601
g280
I00
sg5
I00
sg10
(I00
I00
tp5602
sg282
(lp5603
I22
aI34
asba(iModules.cell
Cell
p5604
(dp5605
g280
I00
sg5
I00
sg10
(I00
I00
tp5606
sg282
(lp5607
I22
aI35
asba(iModules.cell
Cell
p5608
(dp5609
g280
I00
sg5
I00
sg10
(I00
I00
tp5610
sg282
(lp5611
I22
aI36
asba(iModules.cell
Cell
p5612
(dp5613
g280
I00
sg5
I00
sg10
(I00
I00
tp5614
sg282
(lp5615
I22
aI37
asba(iModules.cell
Cell
p5616
(dp5617
g280
I00
sg5
I00
sg10
(I00
I00
tp5618
sg282
(lp5619
I22
aI38
asba(iModules.cell
Cell
p5620
(dp5621
g280
I00
sg5
I00
sg10
(I00
I00
tp5622
sg282
(lp5623
I22
aI39
asba(iModules.cell
Cell
p5624
(dp5625
g280
I00
sg5
I00
sg10
(I00
I00
tp5626
sg282
(lp5627
I22
aI40
asba(iModules.cell
Cell
p5628
(dp5629
g280
I00
sg5
I00
sg10
(I00
I00
tp5630
sg282
(lp5631
I22
aI41
asba(iModules.cell
Cell
p5632
(dp5633
g280
I00
sg5
I00
sg10
(I00
I00
tp5634
sg282
(lp5635
I22
aI42
asba(iModules.cell
Cell
p5636
(dp5637
g280
I00
sg5
I00
sg10
(I00
I00
tp5638
sg282
(lp5639
I22
aI43
asba(iModules.cell
Cell
p5640
(dp5641
g280
I00
sg5
I00
sg10
(I00
I00
tp5642
sg282
(lp5643
I22
aI44
asba(iModules.cell
Cell
p5644
(dp5645
g280
I00
sg5
I00
sg10
(I00
I00
tp5646
sg282
(lp5647
I22
aI45
asba(iModules.cell
Cell
p5648
(dp5649
g280
I00
sg5
I00
sg10
(I00
I00
tp5650
sg282
(lp5651
I22
aI46
asba(iModules.cell
Cell
p5652
(dp5653
g280
I00
sg5
I00
sg10
(I00
I00
tp5654
sg282
(lp5655
I22
aI47
asba(iModules.cell
Cell
p5656
(dp5657
g280
I00
sg5
I00
sg10
(I00
I00
tp5658
sg282
(lp5659
I22
aI48
asba(iModules.cell
Cell
p5660
(dp5661
g280
I00
sg5
I00
sg10
(I00
I00
tp5662
sg282
(lp5663
I22
aI49
asba(iModules.cell
Cell
p5664
(dp5665
g280
I00
sg5
I00
sg10
(I00
I00
tp5666
sg282
(lp5667
I22
aI50
asba(iModules.cell
Cell
p5668
(dp5669
g280
I00
sg5
I00
sg10
(I00
I00
tp5670
sg282
(lp5671
I22
aI51
asba(iModules.cell
Cell
p5672
(dp5673
g280
I00
sg5
I00
sg10
(I00
I00
tp5674
sg282
(lp5675
I22
aI52
asba(iModules.cell
Cell
p5676
(dp5677
g280
I00
sg5
I00
sg10
(I00
I00
tp5678
sg282
(lp5679
I22
aI53
asba(iModules.cell
Cell
p5680
(dp5681
g280
I00
sg5
I00
sg10
(I00
I00
tp5682
sg282
(lp5683
I22
aI54
asba(iModules.cell
Cell
p5684
(dp5685
g280
I00
sg5
I00
sg10
(I00
I00
tp5686
sg282
(lp5687
I22
aI55
asba(iModules.cell
Cell
p5688
(dp5689
g280
I00
sg5
I00
sg10
(I00
I00
tp5690
sg282
(lp5691
I22
aI56
asba(iModules.cell
Cell
p5692
(dp5693
g280
I00
sg5
I00
sg10
(I00
I00
tp5694
sg282
(lp5695
I22
aI57
asba(iModules.cell
Cell
p5696
(dp5697
g5
I00
sg10
(I00
I00
tp5698
sba(iModules.cell
Cell
p5699
(dp5700
g5
I00
sg10
(I00
I00
tp5701
sba(iModules.cell
Cell
p5702
(dp5703
g5
I00
sg10
(I00
I00
tp5704
sba(iModules.cell
Cell
p5705
(dp5706
g5
I00
sg10
(I00
I00
tp5707
sba(iModules.cell
Cell
p5708
(dp5709
g5
I00
sg10
(I00
I00
tp5710
sba(iModules.cell
Cell
p5711
(dp5712
g5
I00
sg10
(I00
I00
tp5713
sba(iModules.cell
Cell
p5714
(dp5715
g5
I00
sg10
(I00
I00
tp5716
sba(iModules.cell
Cell
p5717
(dp5718
g5
I00
sg10
(I00
I00
tp5719
sba(iModules.cell
Cell
p5720
(dp5721
g5
I00
sg10
(I00
I00
tp5722
sba(iModules.cell
Cell
p5723
(dp5724
g5
I00
sg10
(I00
I00
tp5725
sba(iModules.cell
Cell
p5726
(dp5727
g5
I00
sg10
(I00
I00
tp5728
sba(iModules.cell
Cell
p5729
(dp5730
g5
I00
sg10
(I00
I00
tp5731
sba(iModules.cell
Cell
p5732
(dp5733
g5
I00
sg10
(I00
I00
tp5734
sba(iModules.cell
Cell
p5735
(dp5736
g5
I00
sg10
(I00
I00
tp5737
sba(iModules.cell
Cell
p5738
(dp5739
g5
I00
sg10
(I00
I00
tp5740
sba(iModules.cell
Cell
p5741
(dp5742
g5
I00
sg10
(I00
I00
tp5743
sba(iModules.cell
Cell
p5744
(dp5745
g5
I00
sg10
(I00
I00
tp5746
sba(iModules.cell
Cell
p5747
(dp5748
g5
I00
sg10
(I00
I00
tp5749
sba(iModules.cell
Cell
p5750
(dp5751
g5
I00
sg10
(I00
I00
tp5752
sba(iModules.cell
Cell
p5753
(dp5754
g5
I00
sg10
(I00
I00
tp5755
sba(iModules.cell
Cell
p5756
(dp5757
g5
I00
sg10
(I00
I00
tp5758
sba(iModules.cell
Cell
p5759
(dp5760
g5
I00
sg10
(I00
I00
tp5761
sba(iModules.cell
Cell
p5762
(dp5763
g10
(I00
I00
tp5764
sbaa(lp5765
(iModules.cell
Cell
p5766
(dp5767
g10
(I00
I00
tp5768
sba(iModules.cell
Cell
p5769
(dp5770
g10
(I00
I00
tp5771
sba(iModules.cell
Cell
p5772
(dp5773
g10
(I00
I00
tp5774
sba(iModules.cell
Cell
p5775
(dp5776
g10
(I00
I00
tp5777
sba(iModules.cell
Cell
p5778
(dp5779
g10
(I00
I00
tp5780
sba(iModules.cell
Cell
p5781
(dp5782
g10
(I00
I00
tp5783
sba(iModules.cell
Cell
p5784
(dp5785
g10
(I00
I00
tp5786
sba(iModules.cell
Cell
p5787
(dp5788
g10
(I00
I00
tp5789
sba(iModules.cell
Cell
p5790
(dp5791
g10
(I00
I00
tp5792
sba(iModules.cell
Cell
p5793
(dp5794
g10
(I00
I00
tp5795
sba(iModules.cell
Cell
p5796
(dp5797
g10
(I00
I00
tp5798
sba(iModules.cell
Cell
p5799
(dp5800
g10
(I00
I00
tp5801
sba(iModules.cell
Cell
p5802
(dp5803
g10
(I00
I00
tp5804
sba(iModules.cell
Cell
p5805
(dp5806
g10
(I00
I00
tp5807
sba(iModules.cell
Cell
p5808
(dp5809
g10
(I00
I00
tp5810
sba(iModules.cell
Cell
p5811
(dp5812
g10
(I00
I00
tp5813
sba(iModules.cell
Cell
p5814
(dp5815
g10
(I00
I00
tp5816
sba(iModules.cell
Cell
p5817
(dp5818
g10
(I00
I00
tp5819
sba(iModules.cell
Cell
p5820
(dp5821
g10
(I00
I00
tp5822
sba(iModules.cell
Cell
p5823
(dp5824
g10
(I00
I00
tp5825
sba(iModules.cell
Cell
p5826
(dp5827
g10
(I00
I00
tp5828
sba(iModules.cell
Cell
p5829
(dp5830
g10
(I00
I00
tp5831
sba(iModules.cell
Cell
p5832
(dp5833
g10
(I00
I00
tp5834
sba(iModules.cell
Cell
p5835
(dp5836
g10
(I00
I00
tp5837
sba(iModules.cell
Cell
p5838
(dp5839
g10
(I00
I00
tp5840
sba(iModules.cell
Cell
p5841
(dp5842
g10
(I00
I00
tp5843
sba(iModules.cell
Cell
p5844
(dp5845
g10
(I00
I00
tp5846
sba(iModules.cell
Cell
p5847
(dp5848
g10
(I00
I00
tp5849
sba(iModules.cell
Cell
p5850
(dp5851
g10
(I00
I00
tp5852
sba(iModules.cell
Cell
p5853
(dp5854
g10
(I00
I00
tp5855
sba(iModules.cell
Cell
p5856
(dp5857
g10
(I00
I00
tp5858
sba(iModules.cell
Cell
p5859
(dp5860
g10
(I00
I00
tp5861
sba(iModules.cell
Cell
p5862
(dp5863
g10
(I00
I00
tp5864
sba(iModules.cell
Cell
p5865
(dp5866
g10
(I00
I00
tp5867
sba(iModules.cell
Cell
p5868
(dp5869
g10
(I00
I00
tp5870
sba(iModules.cell
Cell
p5871
(dp5872
g10
(I00
I00
tp5873
sba(iModules.cell
Cell
p5874
(dp5875
g10
(I00
I00
tp5876
sba(iModules.cell
Cell
p5877
(dp5878
g10
(I00
I00
tp5879
sba(iModules.cell
Cell
p5880
(dp5881
g10
(I00
I00
tp5882
sba(iModules.cell
Cell
p5883
(dp5884
g10
(I00
I00
tp5885
sba(iModules.cell
Cell
p5886
(dp5887
g10
(I00
I00
tp5888
sba(iModules.cell
Cell
p5889
(dp5890
g10
(I00
I00
tp5891
sba(iModules.cell
Cell
p5892
(dp5893
g10
(I00
I00
tp5894
sba(iModules.cell
Cell
p5895
(dp5896
g10
(I00
I00
tp5897
sba(iModules.cell
Cell
p5898
(dp5899
g10
(I00
I00
tp5900
sba(iModules.cell
Cell
p5901
(dp5902
g10
(I00
I00
tp5903
sba(iModules.cell
Cell
p5904
(dp5905
g10
(I00
I00
tp5906
sba(iModules.cell
Cell
p5907
(dp5908
g10
(I00
I00
tp5909
sba(iModules.cell
Cell
p5910
(dp5911
g10
(I00
I00
tp5912
sba(iModules.cell
Cell
p5913
(dp5914
g10
(I00
I00
tp5915
sba(iModules.cell
Cell
p5916
(dp5917
g10
(I00
I00
tp5918
sba(iModules.cell
Cell
p5919
(dp5920
g10
(I00
I00
tp5921
sba(iModules.cell
Cell
p5922
(dp5923
g10
(I00
I00
tp5924
sba(iModules.cell
Cell
p5925
(dp5926
g10
(I00
I00
tp5927
sba(iModules.cell
Cell
p5928
(dp5929
g10
(I00
I00
tp5930
sba(iModules.cell
Cell
p5931
(dp5932
g10
(I00
I00
tp5933
sba(iModules.cell
Cell
p5934
(dp5935
g10
(I00
I00
tp5936
sba(iModules.cell
Cell
p5937
(dp5938
g10
(I00
I00
tp5939
sba(iModules.cell
Cell
p5940
(dp5941
g10
(I00
I00
tp5942
sba(iModules.cell
Cell
p5943
(dp5944
g10
(I00
I00
tp5945
sba(iModules.cell
Cell
p5946
(dp5947
g10
(I00
I00
tp5948
sba(iModules.cell
Cell
p5949
(dp5950
g10
(I00
I00
tp5951
sba(iModules.cell
Cell
p5952
(dp5953
g10
(I00
I00
tp5954
sba(iModules.cell
Cell
p5955
(dp5956
g10
(I00
I00
tp5957
sba(iModules.cell
Cell
p5958
(dp5959
g10
(I00
I00
tp5960
sba(iModules.cell
Cell
p5961
(dp5962
g10
(I00
I00
tp5963
sba(iModules.cell
Cell
p5964
(dp5965
g10
(I00
I00
tp5966
sba(iModules.cell
Cell
p5967
(dp5968
g10
(I00
I00
tp5969
sba(iModules.cell
Cell
p5970
(dp5971
g10
(I00
I00
tp5972
sba(iModules.cell
Cell
p5973
(dp5974
g10
(I00
I00
tp5975
sba(iModules.cell
Cell
p5976
(dp5977
g10
(I00
I00
tp5978
sba(iModules.cell
Cell
p5979
(dp5980
g10
(I00
I00
tp5981
sba(iModules.cell
Cell
p5982
(dp5983
g10
(I00
I00
tp5984
sba(iModules.cell
Cell
p5985
(dp5986
g10
(I00
I00
tp5987
sba(iModules.cell
Cell
p5988
(dp5989
g10
(I00
I00
tp5990
sba(iModules.cell
Cell
p5991
(dp5992
g10
(I00
I00
tp5993
sba(iModules.cell
Cell
p5994
(dp5995
g10
(I00
I00
tp5996
sba(iModules.cell
Cell
p5997
(dp5998
g10
(I00
I00
tp5999
sba(iModules.cell
Cell
p6000
(dp6001
g10
(I00
I00
tp6002
sba(iModules.cell
Cell
p6003
(dp6004
g10
(I00
I00
tp6005
sba(iModules.cell
Cell
p6006
(dp6007
g10
(I00
I00
tp6008
sbaa(lp6009
(iModules.cell
Cell
p6010
(dp6011
g10
(I00
I00
tp6012
sba(iModules.cell
Cell
p6013
(dp6014
g10
(I00
I00
tp6015
sba(iModules.cell
Cell
p6016
(dp6017
g10
(I00
I00
tp6018
sba(iModules.cell
Cell
p6019
(dp6020
g10
(I00
I00
tp6021
sba(iModules.cell
Cell
p6022
(dp6023
g10
(I00
I00
tp6024
sba(iModules.cell
Cell
p6025
(dp6026
g10
(I00
I00
tp6027
sba(iModules.cell
Cell
p6028
(dp6029
g10
(I00
I00
tp6030
sba(iModules.cell
Cell
p6031
(dp6032
g10
(I00
I00
tp6033
sba(iModules.cell
Cell
p6034
(dp6035
g10
(I00
I00
tp6036
sba(iModules.cell
Cell
p6037
(dp6038
g10
(I00
I00
tp6039
sba(iModules.cell
Cell
p6040
(dp6041
g10
(I00
I00
tp6042
sba(iModules.cell
Cell
p6043
(dp6044
g10
(I00
I00
tp6045
sba(iModules.cell
Cell
p6046
(dp6047
g10
(I00
I00
tp6048
sba(iModules.cell
Cell
p6049
(dp6050
g10
(I00
I00
tp6051
sba(iModules.cell
Cell
p6052
(dp6053
g10
(I00
I00
tp6054
sba(iModules.cell
Cell
p6055
(dp6056
g10
(I00
I00
tp6057
sba(iModules.cell
Cell
p6058
(dp6059
g10
(I00
I00
tp6060
sba(iModules.cell
Cell
p6061
(dp6062
g10
(I00
I00
tp6063
sba(iModules.cell
Cell
p6064
(dp6065
g10
(I00
I00
tp6066
sba(iModules.cell
Cell
p6067
(dp6068
g10
(I00
I00
tp6069
sba(iModules.cell
Cell
p6070
(dp6071
g10
(I00
I00
tp6072
sba(iModules.cell
Cell
p6073
(dp6074
g10
(I00
I00
tp6075
sba(iModules.cell
Cell
p6076
(dp6077
g10
(I00
I00
tp6078
sba(iModules.cell
Cell
p6079
(dp6080
g10
(I00
I00
tp6081
sba(iModules.cell
Cell
p6082
(dp6083
g10
(I00
I00
tp6084
sba(iModules.cell
Cell
p6085
(dp6086
g10
(I00
I00
tp6087
sba(iModules.cell
Cell
p6088
(dp6089
g10
(I00
I00
tp6090
sba(iModules.cell
Cell
p6091
(dp6092
g10
(I00
I00
tp6093
sba(iModules.cell
Cell
p6094
(dp6095
g10
(I00
I00
tp6096
sba(iModules.cell
Cell
p6097
(dp6098
g10
(I00
I00
tp6099
sba(iModules.cell
Cell
p6100
(dp6101
g10
(I00
I00
tp6102
sba(iModules.cell
Cell
p6103
(dp6104
g10
(I00
I00
tp6105
sba(iModules.cell
Cell
p6106
(dp6107
g10
(I00
I00
tp6108
sba(iModules.cell
Cell
p6109
(dp6110
g10
(I00
I00
tp6111
sba(iModules.cell
Cell
p6112
(dp6113
g10
(I00
I00
tp6114
sba(iModules.cell
Cell
p6115
(dp6116
g10
(I00
I00
tp6117
sba(iModules.cell
Cell
p6118
(dp6119
g10
(I00
I00
tp6120
sba(iModules.cell
Cell
p6121
(dp6122
g10
(I00
I00
tp6123
sba(iModules.cell
Cell
p6124
(dp6125
g10
(I00
I00
tp6126
sba(iModules.cell
Cell
p6127
(dp6128
g10
(I00
I00
tp6129
sba(iModules.cell
Cell
p6130
(dp6131
g10
(I00
I00
tp6132
sba(iModules.cell
Cell
p6133
(dp6134
g10
(I00
I00
tp6135
sba(iModules.cell
Cell
p6136
(dp6137
g10
(I00
I00
tp6138
sba(iModules.cell
Cell
p6139
(dp6140
g10
(I00
I00
tp6141
sba(iModules.cell
Cell
p6142
(dp6143
g10
(I00
I00
tp6144
sba(iModules.cell
Cell
p6145
(dp6146
g10
(I00
I00
tp6147
sba(iModules.cell
Cell
p6148
(dp6149
g10
(I00
I00
tp6150
sba(iModules.cell
Cell
p6151
(dp6152
g10
(I00
I00
tp6153
sba(iModules.cell
Cell
p6154
(dp6155
g10
(I00
I00
tp6156
sba(iModules.cell
Cell
p6157
(dp6158
g10
(I00
I00
tp6159
sba(iModules.cell
Cell
p6160
(dp6161
g10
(I00
I00
tp6162
sba(iModules.cell
Cell
p6163
(dp6164
g10
(I00
I00
tp6165
sba(iModules.cell
Cell
p6166
(dp6167
g10
(I00
I00
tp6168
sba(iModules.cell
Cell
p6169
(dp6170
g10
(I00
I00
tp6171
sba(iModules.cell
Cell
p6172
(dp6173
g10
(I00
I00
tp6174
sba(iModules.cell
Cell
p6175
(dp6176
g10
(I00
I00
tp6177
sba(iModules.cell
Cell
p6178
(dp6179
g10
(I00
I00
tp6180
sba(iModules.cell
Cell
p6181
(dp6182
g10
(I00
I00
tp6183
sba(iModules.cell
Cell
p6184
(dp6185
g10
(I00
I00
tp6186
sba(iModules.cell
Cell
p6187
(dp6188
g10
(I00
I00
tp6189
sba(iModules.cell
Cell
p6190
(dp6191
g10
(I00
I00
tp6192
sba(iModules.cell
Cell
p6193
(dp6194
g10
(I00
I00
tp6195
sba(iModules.cell
Cell
p6196
(dp6197
g10
(I00
I00
tp6198
sba(iModules.cell
Cell
p6199
(dp6200
g10
(I00
I00
tp6201
sba(iModules.cell
Cell
p6202
(dp6203
g10
(I00
I00
tp6204
sba(iModules.cell
Cell
p6205
(dp6206
g10
(I00
I00
tp6207
sba(iModules.cell
Cell
p6208
(dp6209
g10
(I00
I00
tp6210
sba(iModules.cell
Cell
p6211
(dp6212
g10
(I00
I00
tp6213
sba(iModules.cell
Cell
p6214
(dp6215
g10
(I00
I00
tp6216
sba(iModules.cell
Cell
p6217
(dp6218
g10
(I00
I00
tp6219
sba(iModules.cell
Cell
p6220
(dp6221
g10
(I00
I00
tp6222
sba(iModules.cell
Cell
p6223
(dp6224
g10
(I00
I00
tp6225
sba(iModules.cell
Cell
p6226
(dp6227
g10
(I00
I00
tp6228
sba(iModules.cell
Cell
p6229
(dp6230
g10
(I00
I00
tp6231
sba(iModules.cell
Cell
p6232
(dp6233
g10
(I00
I00
tp6234
sba(iModules.cell
Cell
p6235
(dp6236
g10
(I00
I00
tp6237
sba(iModules.cell
Cell
p6238
(dp6239
g10
(I00
I00
tp6240
sba(iModules.cell
Cell
p6241
(dp6242
g10
(I00
I00
tp6243
sba(iModules.cell
Cell
p6244
(dp6245
g10
(I00
I00
tp6246
sba(iModules.cell
Cell
p6247
(dp6248
g10
(I00
I00
tp6249
sba(iModules.cell
Cell
p6250
(dp6251
g10
(I00
I00
tp6252
sbaa.