(lp0
(lp1
(iModules.cell
Cell
p2
(dp3
S'visible'
p4
I00
sS'fov'
p5
I00
sS'explored'
p6
I00
sS'type'
p7
(I00
I00
tp8
sS'pc'
p9
(lp10
I8
aI19
asba(iModules.cell
Cell
p11
(dp12
g4
I00
sg6
I00
sg7
(I00
I00
tp13
sba(iModules.cell
Cell
p14
(dp15
g4
I00
sg6
I00
sg7
(I00
I00
tp16
sba(iModules.cell
Cell
p17
(dp18
g4
I00
sg6
I00
sg7
(I00
I00
tp19
sba(iModules.cell
Cell
p20
(dp21
g4
I00
sg6
I00
sg7
(I00
I00
tp22
sba(iModules.cell
Cell
p23
(dp24
g4
I00
sg6
I00
sg7
(I00
I00
tp25
sba(iModules.cell
Cell
p26
(dp27
g4
I00
sg6
I00
sg7
(I00
I00
tp28
sba(iModules.cell
Cell
p29
(dp30
g4
I00
sg6
I00
sg7
(I00
I00
tp31
sba(iModules.cell
Cell
p32
(dp33
g4
I00
sg6
I00
sg7
(I00
I00
tp34
sba(iModules.cell
Cell
p35
(dp36
g4
I00
sg6
I00
sg7
(I00
I00
tp37
sba(iModules.cell
Cell
p38
(dp39
g4
I00
sg6
I00
sg7
(I00
I00
tp40
sba(iModules.cell
Cell
p41
(dp42
g4
I00
sg6
I00
sg7
(I00
I00
tp43
sba(iModules.cell
Cell
p44
(dp45
g4
I00
sg6
I00
sg7
(I00
I00
tp46
sba(iModules.cell
Cell
p47
(dp48
g4
I00
sg6
I00
sg7
(I00
I00
tp49
sba(iModules.cell
Cell
p50
(dp51
g4
I00
sg6
I00
sg7
(I00
I00
tp52
sba(iModules.cell
Cell
p53
(dp54
g4
I00
sg6
I00
sg7
(I00
I00
tp55
sba(iModules.cell
Cell
p56
(dp57
g4
I00
sg6
I00
sg7
(I00
I00
tp58
sba(iModules.cell
Cell
p59
(dp60
g4
I00
sg6
I00
sg7
(I00
I00
tp61
sba(iModules.cell
Cell
p62
(dp63
g4
I00
sg6
I00
sg7
(I00
I00
tp64
sba(iModules.cell
Cell
p65
(dp66
g4
I00
sg6
I00
sg7
(I00
I00
tp67
sba(iModules.cell
Cell
p68
(dp69
g4
I00
sg6
I00
sg7
(I00
I00
tp70
sba(iModules.cell
Cell
p71
(dp72
g4
I00
sg6
I00
sg7
(I00
I00
tp73
sba(iModules.cell
Cell
p74
(dp75
g4
I00
sg6
I00
sg7
(I00
I00
tp76
sba(iModules.cell
Cell
p77
(dp78
g4
I00
sg6
I00
sg7
(I00
I00
tp79
sba(iModules.cell
Cell
p80
(dp81
g4
I00
sg6
I00
sg7
(I00
I00
tp82
sba(iModules.cell
Cell
p83
(dp84
g4
I00
sg6
I00
sg7
(I00
I00
tp85
sba(iModules.cell
Cell
p86
(dp87
g4
I00
sg6
I00
sg7
(I00
I00
tp88
sba(iModules.cell
Cell
p89
(dp90
g4
I00
sg6
I00
sg7
(I00
I00
tp91
sba(iModules.cell
Cell
p92
(dp93
g4
I00
sg6
I00
sg7
(I00
I00
tp94
sba(iModules.cell
Cell
p95
(dp96
g4
I00
sg6
I00
sg7
(I00
I00
tp97
sba(iModules.cell
Cell
p98
(dp99
g4
I00
sg6
I00
sg7
(I00
I00
tp100
sba(iModules.cell
Cell
p101
(dp102
g4
I00
sg6
I00
sg7
(I00
I00
tp103
sba(iModules.cell
Cell
p104
(dp105
g4
I00
sg6
I00
sg7
(I00
I00
tp106
sba(iModules.cell
Cell
p107
(dp108
g4
I00
sg6
I00
sg7
(I00
I00
tp109
sba(iModules.cell
Cell
p110
(dp111
g4
I00
sg6
I00
sg7
(I00
I00
tp112
sba(iModules.cell
Cell
p113
(dp114
g4
I00
sg6
I00
sg7
(I00
I00
tp115
sba(iModules.cell
Cell
p116
(dp117
g4
I00
sg6
I00
sg7
(I00
I00
tp118
sba(iModules.cell
Cell
p119
(dp120
g4
I00
sg6
I00
sg7
(I00
I00
tp121
sba(iModules.cell
Cell
p122
(dp123
g4
I00
sg6
I00
sg7
(I00
I00
tp124
sba(iModules.cell
Cell
p125
(dp126
g4
I00
sg6
I00
sg7
(I00
I00
tp127
sba(iModules.cell
Cell
p128
(dp129
g4
I00
sg6
I00
sg7
(I00
I00
tp130
sba(iModules.cell
Cell
p131
(dp132
g4
I00
sg6
I00
sg7
(I00
I00
tp133
sba(iModules.cell
Cell
p134
(dp135
g4
I00
sg6
I00
sg7
(I00
I00
tp136
sba(iModules.cell
Cell
p137
(dp138
g4
I00
sg6
I00
sg7
(I00
I00
tp139
sba(iModules.cell
Cell
p140
(dp141
g4
I00
sg6
I00
sg7
(I00
I00
tp142
sba(iModules.cell
Cell
p143
(dp144
g4
I00
sg6
I00
sg7
(I00
I00
tp145
sba(iModules.cell
Cell
p146
(dp147
g4
I00
sg6
I00
sg7
(I00
I00
tp148
sba(iModules.cell
Cell
p149
(dp150
g4
I00
sg6
I00
sg7
(I00
I00
tp151
sba(iModules.cell
Cell
p152
(dp153
g4
I00
sg6
I00
sg7
(I00
I00
tp154
sba(iModules.cell
Cell
p155
(dp156
g4
I00
sg6
I00
sg7
(I00
I00
tp157
sba(iModules.cell
Cell
p158
(dp159
g4
I00
sg6
I00
sg7
(I00
I00
tp160
sba(iModules.cell
Cell
p161
(dp162
g4
I00
sg6
I00
sg7
(I00
I00
tp163
sba(iModules.cell
Cell
p164
(dp165
g4
I00
sg6
I00
sg7
(I00
I00
tp166
sba(iModules.cell
Cell
p167
(dp168
g4
I00
sg6
I00
sg7
(I00
I00
tp169
sba(iModules.cell
Cell
p170
(dp171
g4
I00
sg6
I00
sg7
(I00
I00
tp172
sba(iModules.cell
Cell
p173
(dp174
g4
I00
sg6
I00
sg7
(I00
I00
tp175
sba(iModules.cell
Cell
p176
(dp177
g4
I00
sg6
I00
sg7
(I00
I00
tp178
sba(iModules.cell
Cell
p179
(dp180
g4
I00
sg6
I00
sg7
(I00
I00
tp181
sba(iModules.cell
Cell
p182
(dp183
g4
I00
sg6
I00
sg7
(I00
I00
tp184
sba(iModules.cell
Cell
p185
(dp186
g4
I00
sg6
I00
sg7
(I00
I00
tp187
sba(iModules.cell
Cell
p188
(dp189
g4
I00
sg6
I00
sg7
(I00
I00
tp190
sba(iModules.cell
Cell
p191
(dp192
g4
I00
sg6
I00
sg7
(I00
I00
tp193
sba(iModules.cell
Cell
p194
(dp195
g4
I00
sg6
I00
sg7
(I00
I00
tp196
sba(iModules.cell
Cell
p197
(dp198
g4
I00
sg6
I00
sg7
(I00
I00
tp199
sba(iModules.cell
Cell
p200
(dp201
g4
I00
sg6
I00
sg7
(I00
I00
tp202
sba(iModules.cell
Cell
p203
(dp204
g4
I00
sg6
I00
sg7
(I00
I00
tp205
sba(iModules.cell
Cell
p206
(dp207
g4
I00
sg6
I00
sg7
(I00
I00
tp208
sba(iModules.cell
Cell
p209
(dp210
g4
I00
sg6
I00
sg7
(I00
I00
tp211
sba(iModules.cell
Cell
p212
(dp213
g4
I00
sg6
I00
sg7
(I00
I00
tp214
sba(iModules.cell
Cell
p215
(dp216
g4
I00
sg6
I00
sg7
(I00
I00
tp217
sba(iModules.cell
Cell
p218
(dp219
g4
I00
sg6
I00
sg7
(I00
I00
tp220
sba(iModules.cell
Cell
p221
(dp222
g4
I00
sg6
I00
sg7
(I00
I00
tp223
sba(iModules.cell
Cell
p224
(dp225
g4
I00
sg6
I00
sg7
(I00
I00
tp226
sba(iModules.cell
Cell
p227
(dp228
g4
I00
sg6
I00
sg7
(I00
I00
tp229
sba(iModules.cell
Cell
p230
(dp231
g4
I00
sg6
I00
sg7
(I00
I00
tp232
sba(iModules.cell
Cell
p233
(dp234
g4
I00
sg6
I00
sg7
(I00
I00
tp235
sba(iModules.cell
Cell
p236
(dp237
g4
I00
sg6
I00
sg7
(I00
I00
tp238
sba(iModules.cell
Cell
p239
(dp240
g4
I00
sg6
I00
sg7
(I00
I00
tp241
sba(iModules.cell
Cell
p242
(dp243
g4
I00
sg6
I00
sg7
(I00
I00
tp244
sba(iModules.cell
Cell
p245
(dp246
g4
I00
sg6
I00
sg7
(I00
I00
tp247
sba(iModules.cell
Cell
p248
(dp249
g7
(I00
I00
tp250
sbaa(lp251
(iModules.cell
Cell
p252
(dp253
g4
I00
sg6
I00
sg7
(I00
I00
tp254
sba(iModules.cell
Cell
p255
(dp256
g4
I00
sS'explored'
p257
I00
sg7
(I00
I00
tp258
sba(iModules.cell
Cell
p259
(dp260
g4
I00
sg257
I00
sg7
(I00
I00
tp261
sba(iModules.cell
Cell
p262
(dp263
g4
I00
sg257
I00
sg7
(I00
I00
tp264
sba(iModules.cell
Cell
p265
(dp266
g4
I00
sg257
I00
sg7
(I00
I00
tp267
sba(iModules.cell
Cell
p268
(dp269
g4
I00
sg257
I00
sg7
(I00
I00
tp270
sba(iModules.cell
Cell
p271
(dp272
g4
I00
sg257
I00
sg7
(I00
I00
tp273
sba(iModules.cell
Cell
p274
(dp275
g4
I00
sg257
I00
sg7
(I00
I00
tp276
sba(iModules.cell
Cell
p277
(dp278
g4
I00
sg257
I00
sg7
(I00
I00
tp279
sba(iModules.cell
Cell
p280
(dp281
g4
I00
sg257
I00
sg7
(I00
I00
tp282
sba(iModules.cell
Cell
p283
(dp284
g4
I00
sg257
I00
sg7
(I00
I00
tp285
sba(iModules.cell
Cell
p286
(dp287
g4
I00
sg257
I00
sg7
(I00
I00
tp288
sba(iModules.cell
Cell
p289
(dp290
g4
I00
sg257
I00
sg7
(I00
I00
tp291
sba(iModules.cell
Cell
p292
(dp293
g4
I00
sg257
I00
sg7
(I00
I00
tp294
sba(iModules.cell
Cell
p295
(dp296
g4
I00
sg257
I00
sg7
(I00
I00
tp297
sba(iModules.cell
Cell
p298
(dp299
g4
I00
sS'explored'
p300
I00
sg7
(I00
I00
tp301
sba(iModules.cell
Cell
p302
(dp303
g4
I00
sg300
I00
sg7
(I00
I00
tp304
sba(iModules.cell
Cell
p305
(dp306
g4
I00
sg300
I00
sg7
(I00
I00
tp307
sba(iModules.cell
Cell
p308
(dp309
g4
I00
sg300
I00
sg7
(I00
I00
tp310
sba(iModules.cell
Cell
p311
(dp312
g4
I00
sg300
I00
sg7
(I00
I00
tp313
sba(iModules.cell
Cell
p314
(dp315
g4
I00
sg300
I00
sg7
(I00
I00
tp316
sba(iModules.cell
Cell
p317
(dp318
g4
I00
sg300
I00
sg7
(I00
I00
tp319
sba(iModules.cell
Cell
p320
(dp321
g4
I00
sg300
I00
sg7
(I00
I00
tp322
sba(iModules.cell
Cell
p323
(dp324
g4
I00
sg300
I00
sg7
(I00
I00
tp325
sba(iModules.cell
Cell
p326
(dp327
g4
I00
sg300
I00
sg7
(I00
I00
tp328
sba(iModules.cell
Cell
p329
(dp330
g4
I00
sg300
I00
sg7
(I00
I00
tp331
sba(iModules.cell
Cell
p332
(dp333
g4
I00
sg300
I00
sg7
(I00
I00
tp334
sba(iModules.cell
Cell
p335
(dp336
g4
I00
sg300
I00
sg7
(I00
I00
tp337
sba(iModules.cell
Cell
p338
(dp339
g4
I00
sg300
I00
sg7
(I00
I00
tp340
sba(iModules.cell
Cell
p341
(dp342
g4
I00
sS'explored'
p343
I00
sg7
(I00
I00
tp344
sba(iModules.cell
Cell
p345
(dp346
g4
I00
sg343
I00
sg7
(I00
I00
tp347
sba(iModules.cell
Cell
p348
(dp349
g4
I00
sg343
I00
sg7
(I00
I00
tp350
sba(iModules.cell
Cell
p351
(dp352
g4
I00
sg343
I00
sg7
(I00
I00
tp353
sba(iModules.cell
Cell
p354
(dp355
g4
I00
sg343
I00
sg7
(I00
I00
tp356
sba(iModules.cell
Cell
p357
(dp358
g4
I00
sg343
I00
sg7
(I00
I00
tp359
sba(iModules.cell
Cell
p360
(dp361
g4
I00
sg343
I00
sg7
(I00
I00
tp362
sba(iModules.cell
Cell
p363
(dp364
g4
I00
sg343
I00
sg7
(I00
I00
tp365
sba(iModules.cell
Cell
p366
(dp367
g4
I00
sg343
I00
sg7
(I00
I00
tp368
sba(iModules.cell
Cell
p369
(dp370
g4
I00
sg343
I00
sg7
(I00
I00
tp371
sba(iModules.cell
Cell
p372
(dp373
g4
I00
sg343
I00
sg7
(I00
I00
tp374
sba(iModules.cell
Cell
p375
(dp376
g4
I00
sg343
I00
sg7
(I00
I00
tp377
sba(iModules.cell
Cell
p378
(dp379
g4
I00
sg343
I00
sg7
(I00
I00
tp380
sba(iModules.cell
Cell
p381
(dp382
g4
I00
sg343
I00
sg7
(I00
I00
tp383
sba(iModules.cell
Cell
p384
(dp385
g4
I00
sg343
I00
sg7
(I00
I00
tp386
sba(iModules.cell
Cell
p387
(dp388
g4
I00
sg343
I00
sg7
(I00
I00
tp389
sba(iModules.cell
Cell
p390
(dp391
g4
I00
sg343
I00
sg7
(I00
I00
tp392
sba(iModules.cell
Cell
p393
(dp394
g4
I00
sg343
I00
sg7
(I00
I00
tp395
sba(iModules.cell
Cell
p396
(dp397
g4
I00
sg343
I00
sg7
(I00
I00
tp398
sba(iModules.cell
Cell
p399
(dp400
g4
I00
sg343
I00
sg7
(I00
I00
tp401
sba(iModules.cell
Cell
p402
(dp403
g4
I00
sg343
I00
sg7
(I00
I00
tp404
sba(iModules.cell
Cell
p405
(dp406
g4
I00
sS'explored'
p407
I00
sg7
(I00
I00
tp408
sba(iModules.cell
Cell
p409
(dp410
g4
I00
sg407
I00
sg7
(I00
I00
tp411
sba(iModules.cell
Cell
p412
(dp413
g4
I00
sg407
I00
sg7
(I00
I00
tp414
sba(iModules.cell
Cell
p415
(dp416
g4
I00
sg407
I00
sg7
(I00
I00
tp417
sba(iModules.cell
Cell
p418
(dp419
g4
I00
sg407
I00
sg7
(I00
I00
tp420
sba(iModules.cell
Cell
p421
(dp422
g4
I00
sg407
I00
sg7
(I00
I00
tp423
sba(iModules.cell
Cell
p424
(dp425
g4
I00
sg407
I00
sg7
(I00
I00
tp426
sba(iModules.cell
Cell
p427
(dp428
g4
I00
sg407
I00
sg7
(I00
I00
tp429
sba(iModules.cell
Cell
p430
(dp431
g4
I00
sg407
I00
sg7
(I00
I00
tp432
sba(iModules.cell
Cell
p433
(dp434
g4
I00
sg407
I00
sg7
(I00
I00
tp435
sba(iModules.cell
Cell
p436
(dp437
g4
I00
sg407
I00
sg7
(I00
I00
tp438
sba(iModules.cell
Cell
p439
(dp440
g4
I00
sg407
I00
sg7
(I00
I00
tp441
sba(iModules.cell
Cell
p442
(dp443
g4
I00
sg6
I00
sg7
(I00
I00
tp444
sba(iModules.cell
Cell
p445
(dp446
g4
I00
sg6
I00
sg7
(I00
I00
tp447
sba(iModules.cell
Cell
p448
(dp449
g4
I00
sg6
I00
sg7
(I00
I00
tp450
sba(iModules.cell
Cell
p451
(dp452
g4
I00
sg6
I00
sg7
(I00
I00
tp453
sba(iModules.cell
Cell
p454
(dp455
g4
I00
sg6
I00
sg7
(I00
I00
tp456
sba(iModules.cell
Cell
p457
(dp458
g4
I00
sg6
I00
sg7
(I00
I00
tp459
sba(iModules.cell
Cell
p460
(dp461
g4
I00
sg6
I00
sg7
(I00
I00
tp462
sba(iModules.cell
Cell
p463
(dp464
g4
I00
sg6
I00
sg7
(I00
I00
tp465
sba(iModules.cell
Cell
p466
(dp467
g4
I00
sg6
I00
sg7
(I00
I00
tp468
sba(iModules.cell
Cell
p469
(dp470
g4
I00
sg6
I00
sg7
(I00
I00
tp471
sba(iModules.cell
Cell
p472
(dp473
g4
I00
sg6
I00
sg7
(I00
I00
tp474
sba(iModules.cell
Cell
p475
(dp476
g4
I00
sg6
I00
sg7
(I00
I00
tp477
sba(iModules.cell
Cell
p478
(dp479
g4
I00
sg6
I00
sg7
(I00
I00
tp480
sba(iModules.cell
Cell
p481
(dp482
g4
I00
sg6
I00
sg7
(I00
I00
tp483
sba(iModules.cell
Cell
p484
(dp485
g4
I00
sg6
I00
sg7
(I00
I00
tp486
sba(iModules.cell
Cell
p487
(dp488
g4
I00
sg6
I00
sg7
(I00
I00
tp489
sba(iModules.cell
Cell
p490
(dp491
g4
I00
sg6
I00
sg7
(I00
I00
tp492
sba(iModules.cell
Cell
p493
(dp494
g4
I00
sg6
I00
sg7
(I00
I00
tp495
sba(iModules.cell
Cell
p496
(dp497
g7
(I00
I00
tp498
sbaa(lp499
(iModules.cell
Cell
p500
(dp501
g4
I00
sg6
I00
sg7
(I00
I00
tp502
sba(iModules.cell
Cell
p503
(dp504
g4
I00
sg257
I00
sg7
(I00
I00
tp505
sba(iModules.cell
Cell
p506
(dp507
g4
I00
sg257
I00
sg7
(I01
I01
tp508
sba(iModules.cell
Cell
p509
(dp510
g4
I00
sg257
I00
sg7
(I01
I01
tp511
sba(iModules.cell
Cell
p512
(dp513
g4
I00
sg257
I00
sg7
(I01
I01
tp514
sba(iModules.cell
Cell
p515
(dp516
g4
I00
sg257
I00
sg7
(I01
I01
tp517
sba(iModules.cell
Cell
p518
(dp519
g4
I00
sg257
I00
sg7
(I01
I01
tp520
sba(iModules.cell
Cell
p521
(dp522
g4
I00
sg257
I00
sg7
(I01
I01
tp523
sba(iModules.cell
Cell
p524
(dp525
g4
I00
sg257
I00
sg7
(I01
I01
tp526
sba(iModules.cell
Cell
p527
(dp528
g4
I00
sg257
I00
sg7
(I01
I01
tp529
sba(iModules.cell
Cell
p530
(dp531
g4
I00
sg257
I00
sg7
(I01
I01
tp532
sba(iModules.cell
Cell
p533
(dp534
g4
I00
sg257
I00
sg7
(I01
I01
tp535
sba(iModules.cell
Cell
p536
(dp537
g4
I00
sg257
I00
sg7
(I01
I01
tp538
sba(iModules.cell
Cell
p539
(dp540
g4
I00
sg257
I00
sg7
(I01
I01
tp541
sba(iModules.cell
Cell
p542
(dp543
g4
I00
sg257
I00
sg7
(I01
I01
tp544
sba(iModules.cell
Cell
p545
(dp546
g4
I00
sg300
I00
sg7
(I01
I01
tp547
sba(iModules.cell
Cell
p548
(dp549
g4
I00
sg300
I00
sg7
(I01
I01
tp550
sba(iModules.cell
Cell
p551
(dp552
g4
I00
sg300
I00
sg7
(I01
I01
tp553
sba(iModules.cell
Cell
p554
(dp555
g4
I00
sg300
I00
sg7
(I01
I01
tp556
sba(iModules.cell
Cell
p557
(dp558
g4
I00
sg300
I00
sg7
(I01
I01
tp559
sba(iModules.cell
Cell
p560
(dp561
g4
I00
sg300
I00
sg7
(I01
I01
tp562
sba(iModules.cell
Cell
p563
(dp564
g4
I00
sg300
I00
sg7
(I01
I01
tp565
sba(iModules.cell
Cell
p566
(dp567
g4
I00
sg300
I00
sg7
(I01
I01
tp568
sba(iModules.cell
Cell
p569
(dp570
g4
I00
sg300
I00
sg7
(I01
I01
tp571
sba(iModules.cell
Cell
p572
(dp573
g4
I00
sg300
I00
sg7
(I01
I01
tp574
sba(iModules.cell
Cell
p575
(dp576
g4
I00
sg300
I00
sg7
(I01
I01
tp577
sba(iModules.cell
Cell
p578
(dp579
g4
I00
sg300
I00
sg7
(I01
I01
tp580
sba(iModules.cell
Cell
p581
(dp582
g4
I00
sg300
I00
sg7
(I01
I01
tp583
sba(iModules.cell
Cell
p584
(dp585
g4
I00
sg300
I00
sg7
(I01
I01
tp586
sba(iModules.cell
Cell
p587
(dp588
g4
I00
sg343
I00
sg7
(I01
I01
tp589
sba(iModules.cell
Cell
p590
(dp591
g4
I00
sg343
I00
sg7
(I01
I01
tp592
sba(iModules.cell
Cell
p593
(dp594
g4
I00
sg343
I00
sg7
(I01
I01
tp595
sba(iModules.cell
Cell
p596
(dp597
g4
I00
sg343
I00
sg7
(I01
I01
tp598
sba(iModules.cell
Cell
p599
(dp600
g4
I00
sg343
I00
sg7
(I01
I01
tp601
sba(iModules.cell
Cell
p602
(dp603
g4
I00
sg343
I00
sg7
(I01
I01
tp604
sba(iModules.cell
Cell
p605
(dp606
g4
I00
sg343
I00
sg7
(I01
I01
tp607
sba(iModules.cell
Cell
p608
(dp609
g4
I00
sg343
I00
sg7
(I01
I01
tp610
sba(iModules.cell
Cell
p611
(dp612
g4
I00
sg343
I00
sg7
(I01
I01
tp613
sba(iModules.cell
Cell
p614
(dp615
g4
I00
sg343
I00
sg7
(I01
I01
tp616
sba(iModules.cell
Cell
p617
(dp618
g4
I00
sg343
I00
sg7
(I01
I01
tp619
sba(iModules.cell
Cell
p620
(dp621
g4
I00
sg343
I00
sg7
(I01
I01
tp622
sba(iModules.cell
Cell
p623
(dp624
g4
I00
sg343
I00
sg7
(I01
I01
tp625
sba(iModules.cell
Cell
p626
(dp627
g4
I00
sg343
I00
sg7
(I01
I01
tp628
sba(iModules.cell
Cell
p629
(dp630
g4
I00
sg343
I00
sg7
(I01
I01
tp631
sba(iModules.cell
Cell
p632
(dp633
g4
I00
sg343
I00
sg7
(I01
I01
tp634
sba(iModules.cell
Cell
p635
(dp636
g4
I00
sg343
I00
sg7
(I01
I01
tp637
sba(iModules.cell
Cell
p638
(dp639
g4
I00
sg343
I00
sg7
(I01
I01
tp640
sba(iModules.cell
Cell
p641
(dp642
g4
I00
sg343
I00
sg7
(I01
I01
tp643
sba(iModules.cell
Cell
p644
(dp645
g4
I00
sg343
I00
sg7
(I01
I01
tp646
sba(iModules.cell
Cell
p647
(dp648
g4
I00
sg343
I00
sg7
(I01
I01
tp649
sba(iModules.cell
Cell
p650
(dp651
g4
I00
sg407
I00
sg7
(I01
I01
tp652
sba(iModules.cell
Cell
p653
(dp654
g4
I00
sg407
I00
sg7
(I01
I01
tp655
sba(iModules.cell
Cell
p656
(dp657
g4
I00
sg407
I00
sg7
(I01
I01
tp658
sba(iModules.cell
Cell
p659
(dp660
g4
I00
sg407
I00
sg7
(I01
I01
tp661
sba(iModules.cell
Cell
p662
(dp663
g4
I00
sg407
I00
sg7
(I01
I01
tp664
sba(iModules.cell
Cell
p665
(dp666
g4
I00
sg407
I00
sg7
(I01
I01
tp667
sba(iModules.cell
Cell
p668
(dp669
g4
I00
sg407
I00
sg7
(I01
I01
tp670
sba(iModules.cell
Cell
p671
(dp672
g4
I00
sg407
I00
sg7
(I01
I01
tp673
sba(iModules.cell
Cell
p674
(dp675
g4
I00
sg407
I00
sg7
(I01
I01
tp676
sba(iModules.cell
Cell
p677
(dp678
g4
I00
sg407
I00
sg7
(I01
I01
tp679
sba(iModules.cell
Cell
p680
(dp681
g4
I00
sg407
I00
sg7
(I01
I01
tp682
sba(iModules.cell
Cell
p683
(dp684
g4
I00
sg407
I00
sg7
(I00
I00
tp685
sba(iModules.cell
Cell
p686
(dp687
g4
I00
sg6
I00
sg7
(I00
I00
tp688
sba(iModules.cell
Cell
p689
(dp690
g4
I00
sg6
I00
sg7
(I00
I00
tp691
sba(iModules.cell
Cell
p692
(dp693
g4
I00
sg6
I00
sg7
(I00
I00
tp694
sba(iModules.cell
Cell
p695
(dp696
g4
I00
sg6
I00
sg7
(I00
I00
tp697
sba(iModules.cell
Cell
p698
(dp699
g4
I00
sg6
I00
sg7
(I00
I00
tp700
sba(iModules.cell
Cell
p701
(dp702
g4
I00
sg6
I00
sg7
(I00
I00
tp703
sba(iModules.cell
Cell
p704
(dp705
g4
I00
sg6
I00
sg7
(I00
I00
tp706
sba(iModules.cell
Cell
p707
(dp708
g4
I00
sg6
I00
sg7
(I00
I00
tp709
sba(iModules.cell
Cell
p710
(dp711
g4
I00
sg6
I00
sg7
(I00
I00
tp712
sba(iModules.cell
Cell
p713
(dp714
g4
I00
sg6
I00
sg7
(I00
I00
tp715
sba(iModules.cell
Cell
p716
(dp717
g4
I00
sg6
I00
sg7
(I00
I00
tp718
sba(iModules.cell
Cell
p719
(dp720
g4
I00
sg6
I00
sg7
(I00
I00
tp721
sba(iModules.cell
Cell
p722
(dp723
g4
I00
sg6
I00
sg7
(I00
I00
tp724
sba(iModules.cell
Cell
p725
(dp726
g4
I00
sg6
I00
sg7
(I00
I00
tp727
sba(iModules.cell
Cell
p728
(dp729
g4
I00
sg6
I00
sg7
(I00
I00
tp730
sba(iModules.cell
Cell
p731
(dp732
g4
I00
sg6
I00
sg7
(I00
I00
tp733
sba(iModules.cell
Cell
p734
(dp735
g4
I00
sg6
I00
sg7
(I00
I00
tp736
sba(iModules.cell
Cell
p737
(dp738
g4
I00
sg6
I00
sg7
(I00
I00
tp739
sba(iModules.cell
Cell
p740
(dp741
g7
(I00
I00
tp742
sbaa(lp743
(iModules.cell
Cell
p744
(dp745
g4
I00
sg6
I00
sg7
(I00
I00
tp746
sba(iModules.cell
Cell
p747
(dp748
g4
I00
sg257
I00
sg7
(I00
I00
tp749
sba(iModules.cell
Cell
p750
(dp751
g4
I00
sg257
I00
sg7
(I01
I01
tp752
sba(iModules.cell
Cell
p753
(dp754
g4
I00
sg257
I00
sg7
(I01
I01
tp755
sba(iModules.cell
Cell
p756
(dp757
g4
I00
sg257
I00
sg7
(I01
I01
tp758
sba(iModules.cell
Cell
p759
(dp760
g4
I00
sg257
I00
sg7
(I01
I01
tp761
sba(iModules.cell
Cell
p762
(dp763
g4
I00
sg257
I00
sg7
(I01
I01
tp764
sba(iModules.cell
Cell
p765
(dp766
g4
I00
sg257
I00
sg7
(I01
I01
tp767
sba(iModules.cell
Cell
p768
(dp769
g4
I00
sg257
I00
sg7
(I01
I01
tp770
sba(iModules.cell
Cell
p771
(dp772
g4
I00
sg257
I00
sg7
(I01
I01
tp773
sba(iModules.cell
Cell
p774
(dp775
g4
I00
sg257
I00
sg7
(I01
I01
tp776
sba(iModules.cell
Cell
p777
(dp778
g4
I00
sg257
I00
sg7
(I01
I01
tp779
sba(iModules.cell
Cell
p780
(dp781
g4
I00
sg257
I00
sg7
(I01
I01
tp782
sba(iModules.cell
Cell
p783
(dp784
g4
I00
sg257
I00
sg7
(I01
I01
tp785
sba(iModules.cell
Cell
p786
(dp787
g4
I00
sg257
I00
sg7
(I01
I01
tp788
sba(iModules.cell
Cell
p789
(dp790
g4
I00
sg300
I00
sg7
(I01
I01
tp791
sba(iModules.cell
Cell
p792
(dp793
g4
I00
sg300
I00
sg7
(I01
I01
tp794
sba(iModules.cell
Cell
p795
(dp796
g4
I00
sg300
I00
sg7
(I01
I01
tp797
sba(iModules.cell
Cell
p798
(dp799
g4
I00
sg300
I00
sg7
(I01
I01
tp800
sba(iModules.cell
Cell
p801
(dp802
g4
I00
sg300
I00
sg7
(I01
I01
tp803
sba(iModules.cell
Cell
p804
(dp805
g4
I00
sg300
I00
sg7
(I01
I01
tp806
sba(iModules.cell
Cell
p807
(dp808
g4
I00
sg300
I00
sg7
(I01
I01
tp809
sba(iModules.cell
Cell
p810
(dp811
g4
I00
sg300
I00
sg7
(I01
I01
tp812
sba(iModules.cell
Cell
p813
(dp814
g4
I00
sg300
I00
sg7
(I01
I01
tp815
sba(iModules.cell
Cell
p816
(dp817
g4
I00
sg300
I00
sg7
(I01
I01
tp818
sba(iModules.cell
Cell
p819
(dp820
g4
I00
sg300
I00
sg7
(I01
I01
tp821
sba(iModules.cell
Cell
p822
(dp823
g4
I00
sg300
I00
sg7
(I01
I01
tp824
sba(iModules.cell
Cell
p825
(dp826
g4
I00
sg300
I00
sg7
(I01
I01
tp827
sba(iModules.cell
Cell
p828
(dp829
g4
I00
sg300
I00
sg7
(I01
I01
tp830
sba(iModules.cell
Cell
p831
(dp832
g4
I00
sg343
I00
sg7
(I01
I01
tp833
sba(iModules.cell
Cell
p834
(dp835
g4
I00
sg343
I00
sg7
(I01
I01
tp836
sba(iModules.cell
Cell
p837
(dp838
g4
I00
sg343
I00
sg7
(I01
I01
tp839
sba(iModules.cell
Cell
p840
(dp841
g4
I00
sg343
I00
sg7
(I01
I01
tp842
sba(iModules.cell
Cell
p843
(dp844
g4
I00
sg343
I00
sg7
(I01
I01
tp845
sba(iModules.cell
Cell
p846
(dp847
g4
I00
sg343
I00
sg7
(I01
I01
tp848
sba(iModules.cell
Cell
p849
(dp850
g4
I00
sg343
I00
sg7
(I01
I01
tp851
sba(iModules.cell
Cell
p852
(dp853
g4
I00
sg343
I00
sg7
(I01
I01
tp854
sba(iModules.cell
Cell
p855
(dp856
g4
I00
sg343
I00
sg7
(I01
I01
tp857
sba(iModules.cell
Cell
p858
(dp859
g4
I00
sg343
I00
sg7
(I01
I01
tp860
sba(iModules.cell
Cell
p861
(dp862
g4
I00
sg343
I00
sg7
(I01
I01
tp863
sba(iModules.cell
Cell
p864
(dp865
g4
I00
sg343
I00
sg7
(I01
I01
tp866
sba(iModules.cell
Cell
p867
(dp868
g4
I00
sg343
I00
sg7
(I01
I01
tp869
sba(iModules.cell
Cell
p870
(dp871
g4
I00
sg343
I00
sg7
(I01
I01
tp872
sba(iModules.cell
Cell
p873
(dp874
g4
I00
sg343
I00
sg7
(I01
I01
tp875
sba(iModules.cell
Cell
p876
(dp877
g4
I00
sg343
I00
sg7
(I01
I01
tp878
sba(iModules.cell
Cell
p879
(dp880
g4
I00
sg343
I00
sg7
(I01
I01
tp881
sba(iModules.cell
Cell
p882
(dp883
g4
I00
sg343
I00
sg7
(I01
I01
tp884
sba(iModules.cell
Cell
p885
(dp886
g4
I00
sg343
I00
sg7
(I01
I01
tp887
sba(iModules.cell
Cell
p888
(dp889
g4
I00
sg343
I00
sg7
(I01
I01
tp890
sba(iModules.cell
Cell
p891
(dp892
g4
I00
sg343
I00
sg7
(I01
I01
tp893
sba(iModules.cell
Cell
p894
(dp895
g4
I00
sg407
I00
sg7
(I01
I01
tp896
sba(iModules.cell
Cell
p897
(dp898
g4
I00
sg407
I00
sg7
(I01
I01
tp899
sba(iModules.cell
Cell
p900
(dp901
g4
I00
sg407
I00
sg7
(I01
I01
tp902
sba(iModules.cell
Cell
p903
(dp904
g4
I00
sg407
I00
sg7
(I01
I01
tp905
sba(iModules.cell
Cell
p906
(dp907
g4
I00
sg407
I00
sg7
(I01
I01
tp908
sba(iModules.cell
Cell
p909
(dp910
g4
I00
sg407
I00
sg7
(I01
I01
tp911
sba(iModules.cell
Cell
p912
(dp913
g4
I00
sg407
I00
sg7
(I01
I01
tp914
sba(iModules.cell
Cell
p915
(dp916
g4
I00
sg407
I00
sg7
(I01
I01
tp917
sba(iModules.cell
Cell
p918
(dp919
g4
I00
sg407
I00
sg7
(I01
I01
tp920
sba(iModules.cell
Cell
p921
(dp922
g4
I00
sg407
I00
sg7
(I01
I01
tp923
sba(iModules.cell
Cell
p924
(dp925
g4
I00
sg407
I00
sg7
(I01
I01
tp926
sba(iModules.cell
Cell
p927
(dp928
g4
I00
sg407
I00
sg7
(I00
I00
tp929
sba(iModules.cell
Cell
p930
(dp931
g4
I00
sg6
I00
sg7
(I00
I00
tp932
sba(iModules.cell
Cell
p933
(dp934
g4
I00
sg6
I00
sg7
(I00
I00
tp935
sba(iModules.cell
Cell
p936
(dp937
g4
I00
sg6
I00
sg7
(I00
I00
tp938
sba(iModules.cell
Cell
p939
(dp940
g4
I00
sg6
I00
sg7
(I00
I00
tp941
sba(iModules.cell
Cell
p942
(dp943
g4
I00
sg6
I00
sg7
(I00
I00
tp944
sba(iModules.cell
Cell
p945
(dp946
g4
I00
sg6
I00
sg7
(I00
I00
tp947
sba(iModules.cell
Cell
p948
(dp949
g4
I00
sg6
I00
sg7
(I00
I00
tp950
sba(iModules.cell
Cell
p951
(dp952
g4
I00
sg6
I00
sg7
(I00
I00
tp953
sba(iModules.cell
Cell
p954
(dp955
g4
I00
sg6
I00
sg7
(I00
I00
tp956
sba(iModules.cell
Cell
p957
(dp958
g4
I00
sg6
I00
sg7
(I00
I00
tp959
sba(iModules.cell
Cell
p960
(dp961
g4
I00
sg6
I00
sg7
(I00
I00
tp962
sba(iModules.cell
Cell
p963
(dp964
g4
I00
sg6
I00
sg7
(I00
I00
tp965
sba(iModules.cell
Cell
p966
(dp967
g4
I00
sg6
I00
sg7
(I00
I00
tp968
sba(iModules.cell
Cell
p969
(dp970
g4
I00
sg6
I00
sg7
(I00
I00
tp971
sba(iModules.cell
Cell
p972
(dp973
g4
I00
sg6
I00
sg7
(I00
I00
tp974
sba(iModules.cell
Cell
p975
(dp976
g4
I00
sg6
I00
sg7
(I00
I00
tp977
sba(iModules.cell
Cell
p978
(dp979
g4
I00
sg6
I00
sg7
(I00
I00
tp980
sba(iModules.cell
Cell
p981
(dp982
g4
I00
sg6
I00
sg7
(I00
I00
tp983
sba(iModules.cell
Cell
p984
(dp985
g7
(I00
I00
tp986
sbaa(lp987
(iModules.cell
Cell
p988
(dp989
g4
I00
sg6
I00
sg7
(I00
I00
tp990
sba(iModules.cell
Cell
p991
(dp992
g4
I00
sg257
I00
sg7
(I00
I00
tp993
sba(iModules.cell
Cell
p994
(dp995
g4
I00
sg257
I00
sg7
(I01
I01
tp996
sba(iModules.cell
Cell
p997
(dp998
g4
I00
sg257
I00
sg7
(I01
I01
tp999
sba(iModules.cell
Cell
p1000
(dp1001
g4
I00
sg257
I00
sg7
(I01
I01
tp1002
sba(iModules.cell
Cell
p1003
(dp1004
g4
I00
sg257
I00
sg7
(I01
I01
tp1005
sba(iModules.cell
Cell
p1006
(dp1007
g4
I00
sg257
I00
sg7
(I01
I01
tp1008
sba(iModules.cell
Cell
p1009
(dp1010
g4
I00
sg257
I00
sg7
(I01
I01
tp1011
sba(iModules.cell
Cell
p1012
(dp1013
g4
I00
sg257
I00
sg7
(I01
I01
tp1014
sba(iModules.cell
Cell
p1015
(dp1016
g4
I00
sg257
I00
sg7
(I01
I01
tp1017
sba(iModules.cell
Cell
p1018
(dp1019
g4
I00
sg257
I00
sg7
(I01
I01
tp1020
sba(iModules.cell
Cell
p1021
(dp1022
g4
I00
sg257
I00
sg7
(I01
I01
tp1023
sba(iModules.cell
Cell
p1024
(dp1025
g4
I00
sg257
I00
sg7
(I01
I01
tp1026
sba(iModules.cell
Cell
p1027
(dp1028
g4
I00
sg257
I00
sg7
(I01
I01
tp1029
sba(iModules.cell
Cell
p1030
(dp1031
g4
I00
sg257
I00
sg7
(I01
I01
tp1032
sba(iModules.cell
Cell
p1033
(dp1034
g4
I00
sg300
I00
sg7
(I01
I01
tp1035
sba(iModules.cell
Cell
p1036
(dp1037
g4
I00
sg300
I00
sg7
(I01
I01
tp1038
sba(iModules.cell
Cell
p1039
(dp1040
g4
I00
sg300
I00
sg7
(I01
I01
tp1041
sba(iModules.cell
Cell
p1042
(dp1043
g4
I00
sg300
I00
sg7
(I01
I01
tp1044
sba(iModules.cell
Cell
p1045
(dp1046
g4
I00
sg300
I00
sg7
(I01
I01
tp1047
sba(iModules.cell
Cell
p1048
(dp1049
g4
I00
sg300
I00
sg7
(I01
I01
tp1050
sba(iModules.cell
Cell
p1051
(dp1052
g4
I00
sg300
I00
sg7
(I01
I01
tp1053
sba(iModules.cell
Cell
p1054
(dp1055
g4
I00
sg300
I00
sg7
(I01
I01
tp1056
sba(iModules.cell
Cell
p1057
(dp1058
g4
I00
sg300
I00
sg7
(I01
I01
tp1059
sba(iModules.cell
Cell
p1060
(dp1061
g4
I00
sg300
I00
sg7
(I01
I01
tp1062
sba(iModules.cell
Cell
p1063
(dp1064
g4
I00
sg300
I00
sg7
(I01
I01
tp1065
sba(iModules.cell
Cell
p1066
(dp1067
g4
I00
sg300
I00
sg7
(I01
I01
tp1068
sba(iModules.cell
Cell
p1069
(dp1070
g4
I00
sg300
I00
sg7
(I01
I01
tp1071
sba(iModules.cell
Cell
p1072
(dp1073
g4
I00
sg300
I00
sg7
(I01
I01
tp1074
sba(iModules.cell
Cell
p1075
(dp1076
g4
I00
sg343
I00
sg7
(I01
I01
tp1077
sba(iModules.cell
Cell
p1078
(dp1079
g4
I00
sg343
I00
sg7
(I01
I01
tp1080
sba(iModules.cell
Cell
p1081
(dp1082
g4
I00
sg343
I00
sg7
(I01
I01
tp1083
sba(iModules.cell
Cell
p1084
(dp1085
g4
I00
sg343
I00
sg7
(I01
I01
tp1086
sba(iModules.cell
Cell
p1087
(dp1088
g4
I00
sg343
I00
sg7
(I01
I01
tp1089
sba(iModules.cell
Cell
p1090
(dp1091
g4
I00
sg343
I00
sg7
(I01
I01
tp1092
sba(iModules.cell
Cell
p1093
(dp1094
g4
I00
sg343
I00
sg7
(I01
I01
tp1095
sba(iModules.cell
Cell
p1096
(dp1097
g4
I00
sg343
I00
sg7
(I01
I01
tp1098
sba(iModules.cell
Cell
p1099
(dp1100
g4
I00
sg343
I00
sg7
(I01
I01
tp1101
sba(iModules.cell
Cell
p1102
(dp1103
g4
I00
sg343
I00
sg7
(I01
I01
tp1104
sba(iModules.cell
Cell
p1105
(dp1106
g4
I00
sg343
I00
sg7
(I01
I01
tp1107
sba(iModules.cell
Cell
p1108
(dp1109
g4
I00
sg343
I00
sg7
(I01
I01
tp1110
sba(iModules.cell
Cell
p1111
(dp1112
g4
I00
sg343
I00
sg7
(I01
I01
tp1113
sba(iModules.cell
Cell
p1114
(dp1115
g4
I00
sg343
I00
sg7
(I01
I01
tp1116
sba(iModules.cell
Cell
p1117
(dp1118
g4
I00
sg343
I00
sg7
(I01
I01
tp1119
sba(iModules.cell
Cell
p1120
(dp1121
g4
I00
sg343
I00
sg7
(I01
I01
tp1122
sba(iModules.cell
Cell
p1123
(dp1124
g4
I00
sg343
I00
sg7
(I01
I01
tp1125
sba(iModules.cell
Cell
p1126
(dp1127
g4
I00
sg343
I00
sg7
(I01
I01
tp1128
sba(iModules.cell
Cell
p1129
(dp1130
g4
I00
sg343
I00
sg7
(I01
I01
tp1131
sba(iModules.cell
Cell
p1132
(dp1133
g4
I00
sg343
I00
sg7
(I01
I01
tp1134
sba(iModules.cell
Cell
p1135
(dp1136
g4
I00
sg343
I00
sg7
(I01
I01
tp1137
sba(iModules.cell
Cell
p1138
(dp1139
g4
I00
sg407
I00
sg7
(I01
I01
tp1140
sba(iModules.cell
Cell
p1141
(dp1142
g4
I00
sg407
I00
sg7
(I01
I01
tp1143
sba(iModules.cell
Cell
p1144
(dp1145
g4
I00
sg407
I00
sg7
(I01
I01
tp1146
sba(iModules.cell
Cell
p1147
(dp1148
g4
I00
sg407
I00
sg7
(I01
I01
tp1149
sba(iModules.cell
Cell
p1150
(dp1151
g4
I00
sg407
I00
sg7
(I01
I01
tp1152
sba(iModules.cell
Cell
p1153
(dp1154
g4
I00
sg407
I00
sg7
(I01
I01
tp1155
sba(iModules.cell
Cell
p1156
(dp1157
g4
I00
sg407
I00
sg7
(I01
I01
tp1158
sba(iModules.cell
Cell
p1159
(dp1160
g4
I00
sg407
I00
sg7
(I01
I01
tp1161
sba(iModules.cell
Cell
p1162
(dp1163
g4
I00
sg407
I00
sg7
(I01
I01
tp1164
sba(iModules.cell
Cell
p1165
(dp1166
g4
I00
sg407
I00
sg7
(I01
I01
tp1167
sba(iModules.cell
Cell
p1168
(dp1169
g4
I00
sg407
I00
sg7
(I01
I01
tp1170
sba(iModules.cell
Cell
p1171
(dp1172
g4
I00
sg407
I00
sg7
(I00
I00
tp1173
sba(iModules.cell
Cell
p1174
(dp1175
g4
I00
sg6
I00
sg7
(I00
I00
tp1176
sba(iModules.cell
Cell
p1177
(dp1178
g4
I00
sg6
I00
sg7
(I00
I00
tp1179
sba(iModules.cell
Cell
p1180
(dp1181
g4
I00
sg6
I00
sg7
(I00
I00
tp1182
sba(iModules.cell
Cell
p1183
(dp1184
g4
I00
sg6
I00
sg7
(I00
I00
tp1185
sba(iModules.cell
Cell
p1186
(dp1187
g4
I00
sg6
I00
sg7
(I00
I00
tp1188
sba(iModules.cell
Cell
p1189
(dp1190
g4
I00
sg6
I00
sg7
(I00
I00
tp1191
sba(iModules.cell
Cell
p1192
(dp1193
g4
I00
sg6
I00
sg7
(I00
I00
tp1194
sba(iModules.cell
Cell
p1195
(dp1196
g4
I00
sg6
I00
sg7
(I00
I00
tp1197
sba(iModules.cell
Cell
p1198
(dp1199
g4
I00
sg6
I00
sg7
(I00
I00
tp1200
sba(iModules.cell
Cell
p1201
(dp1202
g4
I00
sg6
I00
sg7
(I00
I00
tp1203
sba(iModules.cell
Cell
p1204
(dp1205
g4
I00
sg6
I00
sg7
(I00
I00
tp1206
sba(iModules.cell
Cell
p1207
(dp1208
g4
I00
sg6
I00
sg7
(I00
I00
tp1209
sba(iModules.cell
Cell
p1210
(dp1211
g4
I00
sg6
I00
sg7
(I00
I00
tp1212
sba(iModules.cell
Cell
p1213
(dp1214
g4
I00
sg6
I00
sg7
(I00
I00
tp1215
sba(iModules.cell
Cell
p1216
(dp1217
g4
I00
sg6
I00
sg7
(I00
I00
tp1218
sba(iModules.cell
Cell
p1219
(dp1220
g4
I00
sg6
I00
sg7
(I00
I00
tp1221
sba(iModules.cell
Cell
p1222
(dp1223
g4
I00
sg6
I00
sg7
(I00
I00
tp1224
sba(iModules.cell
Cell
p1225
(dp1226
g4
I00
sg6
I00
sg7
(I00
I00
tp1227
sba(iModules.cell
Cell
p1228
(dp1229
g7
(I00
I00
tp1230
sbaa(lp1231
(iModules.cell
Cell
p1232
(dp1233
g4
I00
sg6
I00
sg7
(I00
I00
tp1234
sba(iModules.cell
Cell
p1235
(dp1236
g4
I00
sg257
I00
sg7
(I00
I00
tp1237
sba(iModules.cell
Cell
p1238
(dp1239
g4
I00
sg257
I00
sg7
(I01
I01
tp1240
sba(iModules.cell
Cell
p1241
(dp1242
g4
I00
sg257
I00
sg7
(I01
I01
tp1243
sba(iModules.cell
Cell
p1244
(dp1245
g4
I00
sg257
I00
sg7
(I01
I01
tp1246
sba(iModules.cell
Cell
p1247
(dp1248
g4
I00
sg257
I00
sg7
(I01
I01
tp1249
sba(iModules.cell
Cell
p1250
(dp1251
g4
I00
sg257
I00
sg7
(I01
I01
tp1252
sba(iModules.cell
Cell
p1253
(dp1254
g4
I00
sg257
I00
sg7
(I01
I01
tp1255
sba(iModules.cell
Cell
p1256
(dp1257
g4
I00
sg257
I00
sg7
(I01
I01
tp1258
sba(iModules.cell
Cell
p1259
(dp1260
g4
I00
sg257
I00
sg7
(I01
I01
tp1261
sba(iModules.cell
Cell
p1262
(dp1263
g4
I00
sg257
I00
sg7
(I01
I01
tp1264
sba(iModules.cell
Cell
p1265
(dp1266
g4
I00
sg257
I00
sg7
(I01
I01
tp1267
sba(iModules.cell
Cell
p1268
(dp1269
g4
I00
sg257
I00
sg7
(I01
I01
tp1270
sba(iModules.cell
Cell
p1271
(dp1272
g4
I00
sg257
I00
sg7
(I01
I01
tp1273
sba(iModules.cell
Cell
p1274
(dp1275
g4
I00
sg257
I00
sg7
(I01
I01
tp1276
sba(iModules.cell
Cell
p1277
(dp1278
g4
I00
sg300
I00
sg7
(I01
I01
tp1279
sba(iModules.cell
Cell
p1280
(dp1281
g4
I00
sg300
I00
sg7
(I01
I01
tp1282
sba(iModules.cell
Cell
p1283
(dp1284
g4
I00
sg300
I00
sg7
(I01
I01
tp1285
sba(iModules.cell
Cell
p1286
(dp1287
g4
I00
sg300
I00
sg7
(I01
I01
tp1288
sba(iModules.cell
Cell
p1289
(dp1290
g4
I00
sg300
I00
sg7
(I01
I01
tp1291
sba(iModules.cell
Cell
p1292
(dp1293
g4
I00
sg300
I00
sg7
(I01
I01
tp1294
sba(iModules.cell
Cell
p1295
(dp1296
g4
I00
sg300
I00
sg7
(I01
I01
tp1297
sba(iModules.cell
Cell
p1298
(dp1299
g4
I00
sg300
I00
sg7
(I01
I01
tp1300
sba(iModules.cell
Cell
p1301
(dp1302
g4
I00
sg300
I00
sg7
(I01
I01
tp1303
sba(iModules.cell
Cell
p1304
(dp1305
g4
I00
sg300
I00
sg7
(I01
I01
tp1306
sba(iModules.cell
Cell
p1307
(dp1308
g4
I00
sg300
I00
sg7
(I01
I01
tp1309
sba(iModules.cell
Cell
p1310
(dp1311
g4
I00
sg300
I00
sg7
(I01
I01
tp1312
sba(iModules.cell
Cell
p1313
(dp1314
g4
I00
sg300
I00
sg7
(I01
I01
tp1315
sba(iModules.cell
Cell
p1316
(dp1317
g4
I00
sg300
I00
sg7
(I01
I01
tp1318
sba(iModules.cell
Cell
p1319
(dp1320
g4
I00
sg343
I00
sg7
(I01
I01
tp1321
sba(iModules.cell
Cell
p1322
(dp1323
g4
I00
sg343
I00
sg7
(I01
I01
tp1324
sba(iModules.cell
Cell
p1325
(dp1326
g4
I00
sg343
I00
sg7
(I01
I01
tp1327
sba(iModules.cell
Cell
p1328
(dp1329
g4
I00
sg343
I00
sg7
(I01
I01
tp1330
sba(iModules.cell
Cell
p1331
(dp1332
g4
I00
sg343
I00
sg7
(I01
I01
tp1333
sba(iModules.cell
Cell
p1334
(dp1335
g4
I00
sg343
I00
sg7
(I01
I01
tp1336
sba(iModules.cell
Cell
p1337
(dp1338
g4
I00
sg343
I00
sg7
(I01
I01
tp1339
sba(iModules.cell
Cell
p1340
(dp1341
g4
I00
sg343
I00
sg7
(I01
I01
tp1342
sba(iModules.cell
Cell
p1343
(dp1344
g4
I00
sg343
I00
sg7
(I01
I01
tp1345
sba(iModules.cell
Cell
p1346
(dp1347
g4
I00
sg343
I00
sg7
(I01
I01
tp1348
sba(iModules.cell
Cell
p1349
(dp1350
g4
I00
sg343
I00
sg7
(I01
I01
tp1351
sba(iModules.cell
Cell
p1352
(dp1353
g4
I00
sg343
I00
sg7
(I01
I01
tp1354
sba(iModules.cell
Cell
p1355
(dp1356
g4
I00
sg343
I00
sg7
(I01
I01
tp1357
sba(iModules.cell
Cell
p1358
(dp1359
g4
I00
sg343
I00
sg7
(I01
I01
tp1360
sba(iModules.cell
Cell
p1361
(dp1362
g4
I00
sg343
I00
sg7
(I01
I01
tp1363
sba(iModules.cell
Cell
p1364
(dp1365
g4
I00
sg343
I00
sg7
(I01
I01
tp1366
sba(iModules.cell
Cell
p1367
(dp1368
g4
I00
sg343
I00
sg7
(I01
I01
tp1369
sba(iModules.cell
Cell
p1370
(dp1371
g4
I00
sg343
I00
sg7
(I01
I01
tp1372
sba(iModules.cell
Cell
p1373
(dp1374
g4
I00
sg343
I00
sg7
(I01
I01
tp1375
sba(iModules.cell
Cell
p1376
(dp1377
g4
I00
sg343
I00
sg7
(I01
I01
tp1378
sba(iModules.cell
Cell
p1379
(dp1380
g4
I00
sg343
I00
sg7
(I01
I01
tp1381
sba(iModules.cell
Cell
p1382
(dp1383
g4
I00
sg407
I00
sg7
(I01
I01
tp1384
sba(iModules.cell
Cell
p1385
(dp1386
g4
I00
sg407
I00
sg7
(I01
I01
tp1387
sba(iModules.cell
Cell
p1388
(dp1389
g4
I00
sg407
I00
sg7
(I01
I01
tp1390
sba(iModules.cell
Cell
p1391
(dp1392
g4
I00
sg407
I00
sg7
(I01
I01
tp1393
sba(iModules.cell
Cell
p1394
(dp1395
g4
I00
sg407
I00
sg7
(I01
I01
tp1396
sba(iModules.cell
Cell
p1397
(dp1398
g4
I00
sg407
I00
sg7
(I01
I01
tp1399
sba(iModules.cell
Cell
p1400
(dp1401
g4
I00
sg407
I00
sg7
(I01
I01
tp1402
sba(iModules.cell
Cell
p1403
(dp1404
g4
I00
sg407
I00
sg7
(I01
I01
tp1405
sba(iModules.cell
Cell
p1406
(dp1407
g4
I00
sg407
I00
sg7
(I01
I01
tp1408
sba(iModules.cell
Cell
p1409
(dp1410
g4
I00
sg407
I00
sg7
(I01
I01
tp1411
sba(iModules.cell
Cell
p1412
(dp1413
g4
I00
sg407
I00
sg7
(I01
I01
tp1414
sba(iModules.cell
Cell
p1415
(dp1416
g4
I00
sg407
I00
sg7
(I00
I00
tp1417
sba(iModules.cell
Cell
p1418
(dp1419
g4
I00
sg6
I00
sg7
(I00
I00
tp1420
sba(iModules.cell
Cell
p1421
(dp1422
g4
I00
sg6
I00
sg7
(I00
I00
tp1423
sba(iModules.cell
Cell
p1424
(dp1425
g4
I00
sg6
I00
sg7
(I00
I00
tp1426
sba(iModules.cell
Cell
p1427
(dp1428
g4
I00
sg6
I00
sg7
(I00
I00
tp1429
sba(iModules.cell
Cell
p1430
(dp1431
g4
I00
sg6
I00
sg7
(I00
I00
tp1432
sba(iModules.cell
Cell
p1433
(dp1434
g4
I00
sg6
I00
sg7
(I00
I00
tp1435
sba(iModules.cell
Cell
p1436
(dp1437
g4
I00
sg6
I00
sg7
(I00
I00
tp1438
sba(iModules.cell
Cell
p1439
(dp1440
g4
I00
sg6
I00
sg7
(I00
I00
tp1441
sba(iModules.cell
Cell
p1442
(dp1443
g4
I00
sg6
I00
sg7
(I00
I00
tp1444
sba(iModules.cell
Cell
p1445
(dp1446
g4
I00
sg6
I00
sg7
(I00
I00
tp1447
sba(iModules.cell
Cell
p1448
(dp1449
g4
I00
sg6
I00
sg7
(I00
I00
tp1450
sba(iModules.cell
Cell
p1451
(dp1452
g4
I00
sg6
I00
sg7
(I00
I00
tp1453
sba(iModules.cell
Cell
p1454
(dp1455
g4
I00
sg6
I00
sg7
(I00
I00
tp1456
sba(iModules.cell
Cell
p1457
(dp1458
g4
I00
sg6
I00
sg7
(I00
I00
tp1459
sba(iModules.cell
Cell
p1460
(dp1461
g4
I00
sg6
I00
sg7
(I00
I00
tp1462
sba(iModules.cell
Cell
p1463
(dp1464
g4
I00
sg6
I00
sg7
(I00
I00
tp1465
sba(iModules.cell
Cell
p1466
(dp1467
g4
I00
sg6
I00
sg7
(I00
I00
tp1468
sba(iModules.cell
Cell
p1469
(dp1470
g4
I00
sg6
I00
sg7
(I00
I00
tp1471
sba(iModules.cell
Cell
p1472
(dp1473
g7
(I00
I00
tp1474
sbaa(lp1475
(iModules.cell
Cell
p1476
(dp1477
g4
I00
sg6
I00
sg7
(I00
I00
tp1478
sba(iModules.cell
Cell
p1479
(dp1480
g4
I00
sg257
I00
sg7
(I00
I00
tp1481
sba(iModules.cell
Cell
p1482
(dp1483
g4
I00
sg257
I00
sg7
(I01
I01
tp1484
sba(iModules.cell
Cell
p1485
(dp1486
g4
I00
sg257
I00
sg7
(I01
I01
tp1487
sba(iModules.cell
Cell
p1488
(dp1489
g4
I00
sg257
I00
sg7
(I01
I01
tp1490
sba(iModules.cell
Cell
p1491
(dp1492
g4
I00
sg257
I00
sg7
(I01
I01
tp1493
sba(iModules.cell
Cell
p1494
(dp1495
g4
I00
sg257
I00
sg7
(I01
I01
tp1496
sba(iModules.cell
Cell
p1497
(dp1498
g4
I00
sg257
I00
sg7
(I01
I01
tp1499
sba(iModules.cell
Cell
p1500
(dp1501
g4
I00
sg257
I00
sg7
(I01
I01
tp1502
sba(iModules.cell
Cell
p1503
(dp1504
g4
I00
sg257
I00
sg7
(I01
I01
tp1505
sba(iModules.cell
Cell
p1506
(dp1507
g4
I00
sg257
I00
sg7
(I01
I01
tp1508
sba(iModules.cell
Cell
p1509
(dp1510
g4
I00
sg257
I00
sg7
(I01
I01
tp1511
sba(iModules.cell
Cell
p1512
(dp1513
g4
I00
sg257
I00
sg7
(I01
I01
tp1514
sba(iModules.cell
Cell
p1515
(dp1516
g4
I00
sg257
I00
sg7
(I01
I01
tp1517
sba(iModules.cell
Cell
p1518
(dp1519
g4
I00
sg257
I00
sg7
(I01
I01
tp1520
sba(iModules.cell
Cell
p1521
(dp1522
g4
I00
sg300
I00
sg7
(I01
I01
tp1523
sba(iModules.cell
Cell
p1524
(dp1525
g4
I00
sg300
I00
sg7
(I01
I01
tp1526
sba(iModules.cell
Cell
p1527
(dp1528
g4
I00
sg300
I00
sg7
(I01
I01
tp1529
sba(iModules.cell
Cell
p1530
(dp1531
g4
I00
sg300
I00
sg7
(I01
I01
tp1532
sba(iModules.cell
Cell
p1533
(dp1534
g4
I00
sg300
I00
sg7
(I01
I01
tp1535
sba(iModules.cell
Cell
p1536
(dp1537
g4
I00
sg300
I00
sg7
(I01
I01
tp1538
sba(iModules.cell
Cell
p1539
(dp1540
g4
I00
sg300
I00
sg7
(I01
I01
tp1541
sba(iModules.cell
Cell
p1542
(dp1543
g4
I00
sg300
I00
sg7
(I01
I01
tp1544
sba(iModules.cell
Cell
p1545
(dp1546
g4
I00
sg300
I00
sg7
(I01
I01
tp1547
sba(iModules.cell
Cell
p1548
(dp1549
g4
I00
sg300
I00
sg7
(I01
I01
tp1550
sba(iModules.cell
Cell
p1551
(dp1552
g4
I00
sg300
I00
sg7
(I01
I01
tp1553
sba(iModules.cell
Cell
p1554
(dp1555
g4
I00
sg300
I00
sg7
(I01
I01
tp1556
sba(iModules.cell
Cell
p1557
(dp1558
g4
I00
sg300
I00
sg7
(I01
I01
tp1559
sba(iModules.cell
Cell
p1560
(dp1561
g4
I00
sg300
I00
sg7
(I01
I01
tp1562
sba(iModules.cell
Cell
p1563
(dp1564
g4
I00
sg343
I00
sg7
(I01
I01
tp1565
sba(iModules.cell
Cell
p1566
(dp1567
g4
I00
sg343
I00
sg7
(I01
I01
tp1568
sba(iModules.cell
Cell
p1569
(dp1570
g4
I00
sg343
I00
sg7
(I01
I01
tp1571
sba(iModules.cell
Cell
p1572
(dp1573
g4
I00
sg343
I00
sg7
(I01
I01
tp1574
sba(iModules.cell
Cell
p1575
(dp1576
g4
I00
sg343
I00
sg7
(I01
I01
tp1577
sba(iModules.cell
Cell
p1578
(dp1579
g4
I00
sg343
I00
sg7
(I01
I01
tp1580
sba(iModules.cell
Cell
p1581
(dp1582
g4
I00
sg343
I00
sg7
(I01
I01
tp1583
sba(iModules.cell
Cell
p1584
(dp1585
g4
I00
sg343
I00
sg7
(I01
I01
tp1586
sba(iModules.cell
Cell
p1587
(dp1588
g4
I00
sg343
I00
sg7
(I01
I01
tp1589
sba(iModules.cell
Cell
p1590
(dp1591
g4
I00
sg343
I00
sg7
(I01
I01
tp1592
sba(iModules.cell
Cell
p1593
(dp1594
g4
I00
sg343
I00
sg7
(I01
I01
tp1595
sba(iModules.cell
Cell
p1596
(dp1597
g4
I00
sg343
I00
sg7
(I01
I01
tp1598
sba(iModules.cell
Cell
p1599
(dp1600
g4
I00
sg343
I00
sg7
(I01
I01
tp1601
sba(iModules.cell
Cell
p1602
(dp1603
g4
I00
sg343
I00
sg7
(I01
I01
tp1604
sba(iModules.cell
Cell
p1605
(dp1606
g4
I00
sg343
I00
sg7
(I01
I01
tp1607
sba(iModules.cell
Cell
p1608
(dp1609
g4
I00
sg343
I00
sg7
(I01
I01
tp1610
sba(iModules.cell
Cell
p1611
(dp1612
g4
I00
sg343
I00
sg7
(I01
I01
tp1613
sba(iModules.cell
Cell
p1614
(dp1615
g4
I00
sg343
I00
sg7
(I01
I01
tp1616
sba(iModules.cell
Cell
p1617
(dp1618
g4
I00
sg343
I00
sg7
(I01
I01
tp1619
sba(iModules.cell
Cell
p1620
(dp1621
g4
I00
sg343
I00
sg7
(I01
I01
tp1622
sba(iModules.cell
Cell
p1623
(dp1624
g4
I00
sg343
I00
sg7
(I01
I01
tp1625
sba(iModules.cell
Cell
p1626
(dp1627
g4
I00
sg407
I00
sg7
(I01
I01
tp1628
sba(iModules.cell
Cell
p1629
(dp1630
g4
I00
sg407
I00
sg7
(I01
I01
tp1631
sba(iModules.cell
Cell
p1632
(dp1633
g4
I00
sg407
I00
sg7
(I01
I01
tp1634
sba(iModules.cell
Cell
p1635
(dp1636
g4
I00
sg407
I00
sg7
(I01
I01
tp1637
sba(iModules.cell
Cell
p1638
(dp1639
g4
I00
sg407
I00
sg7
(I01
I01
tp1640
sba(iModules.cell
Cell
p1641
(dp1642
g4
I00
sg407
I00
sg7
(I01
I01
tp1643
sba(iModules.cell
Cell
p1644
(dp1645
g4
I00
sg407
I00
sg7
(I01
I01
tp1646
sba(iModules.cell
Cell
p1647
(dp1648
g4
I00
sg407
I00
sg7
(I01
I01
tp1649
sba(iModules.cell
Cell
p1650
(dp1651
g4
I00
sg407
I00
sg7
(I01
I01
tp1652
sba(iModules.cell
Cell
p1653
(dp1654
g4
I00
sg407
I00
sg7
(I01
I01
tp1655
sba(iModules.cell
Cell
p1656
(dp1657
g4
I00
sg407
I00
sg7
(I01
I01
tp1658
sba(iModules.cell
Cell
p1659
(dp1660
g4
I00
sg407
I00
sg7
(I00
I00
tp1661
sba(iModules.cell
Cell
p1662
(dp1663
g4
I00
sg6
I00
sg7
(I00
I00
tp1664
sba(iModules.cell
Cell
p1665
(dp1666
g4
I00
sg6
I00
sg7
(I00
I00
tp1667
sba(iModules.cell
Cell
p1668
(dp1669
g4
I00
sg6
I00
sg7
(I00
I00
tp1670
sba(iModules.cell
Cell
p1671
(dp1672
g4
I00
sg6
I00
sg7
(I00
I00
tp1673
sba(iModules.cell
Cell
p1674
(dp1675
g4
I00
sg6
I00
sg7
(I00
I00
tp1676
sba(iModules.cell
Cell
p1677
(dp1678
g4
I00
sg6
I00
sg7
(I00
I00
tp1679
sba(iModules.cell
Cell
p1680
(dp1681
g4
I00
sg6
I00
sg7
(I00
I00
tp1682
sba(iModules.cell
Cell
p1683
(dp1684
g4
I00
sg6
I00
sg7
(I00
I00
tp1685
sba(iModules.cell
Cell
p1686
(dp1687
g4
I00
sg6
I00
sg7
(I00
I00
tp1688
sba(iModules.cell
Cell
p1689
(dp1690
g4
I00
sg6
I00
sg7
(I00
I00
tp1691
sba(iModules.cell
Cell
p1692
(dp1693
g4
I00
sg6
I00
sg7
(I00
I00
tp1694
sba(iModules.cell
Cell
p1695
(dp1696
g4
I00
sg6
I00
sg7
(I00
I00
tp1697
sba(iModules.cell
Cell
p1698
(dp1699
g4
I00
sg6
I00
sg7
(I00
I00
tp1700
sba(iModules.cell
Cell
p1701
(dp1702
g4
I00
sg6
I00
sg7
(I00
I00
tp1703
sba(iModules.cell
Cell
p1704
(dp1705
g4
I00
sg6
I00
sg7
(I00
I00
tp1706
sba(iModules.cell
Cell
p1707
(dp1708
g4
I00
sg6
I00
sg7
(I00
I00
tp1709
sba(iModules.cell
Cell
p1710
(dp1711
g4
I00
sg6
I00
sg7
(I00
I00
tp1712
sba(iModules.cell
Cell
p1713
(dp1714
g4
I00
sg6
I00
sg7
(I00
I00
tp1715
sba(iModules.cell
Cell
p1716
(dp1717
g7
(I00
I00
tp1718
sbaa(lp1719
(iModules.cell
Cell
p1720
(dp1721
g4
I00
sg6
I00
sg7
(I00
I00
tp1722
sba(iModules.cell
Cell
p1723
(dp1724
g4
I00
sg257
I00
sg7
(I00
I00
tp1725
sba(iModules.cell
Cell
p1726
(dp1727
g4
I00
sg257
I00
sg7
(I01
I01
tp1728
sba(iModules.cell
Cell
p1729
(dp1730
g4
I00
sg257
I00
sg7
(I01
I01
tp1731
sba(iModules.cell
Cell
p1732
(dp1733
g4
I00
sg257
I00
sg7
(I01
I01
tp1734
sba(iModules.cell
Cell
p1735
(dp1736
g4
I00
sg257
I00
sg7
(I01
I01
tp1737
sba(iModules.cell
Cell
p1738
(dp1739
g4
I00
sg257
I00
sg7
(I01
I01
tp1740
sba(iModules.cell
Cell
p1741
(dp1742
g4
I00
sg257
I00
sg7
(I01
I01
tp1743
sba(iModules.cell
Cell
p1744
(dp1745
g4
I00
sg257
I00
sg7
(I01
I01
tp1746
sba(iModules.cell
Cell
p1747
(dp1748
g4
I00
sg257
I00
sg7
(I01
I01
tp1749
sba(iModules.cell
Cell
p1750
(dp1751
g4
I00
sg257
I00
sg7
(I01
I01
tp1752
sba(iModules.cell
Cell
p1753
(dp1754
g4
I00
sg257
I00
sg7
(I01
I01
tp1755
sba(iModules.cell
Cell
p1756
(dp1757
g4
I00
sg257
I00
sg7
(I01
I01
tp1758
sba(iModules.cell
Cell
p1759
(dp1760
g4
I00
sg257
I00
sg7
(I01
I01
tp1761
sba(iModules.cell
Cell
p1762
(dp1763
g4
I00
sg257
I00
sg7
(I01
I01
tp1764
sba(iModules.cell
Cell
p1765
(dp1766
g4
I00
sg300
I00
sg7
(I01
I01
tp1767
sba(iModules.cell
Cell
p1768
(dp1769
g4
I00
sg300
I00
sg7
(I01
I01
tp1770
sba(iModules.cell
Cell
p1771
(dp1772
g4
I01
sg300
I01
sg7
(I00
I00
I00
tp1773
sba(iModules.cell
Cell
p1774
(dp1775
g4
I01
sg300
I01
sg7
(I00
I00
I00
tp1776
sba(iModules.cell
Cell
p1777
(dp1778
g4
I01
sg300
I01
sg7
(I00
I00
I00
tp1779
sba(iModules.cell
Cell
p1780
(dp1781
g4
I01
sg300
I01
sg7
(I00
I00
I00
tp1782
sba(iModules.cell
Cell
p1783
(dp1784
g4
I01
sg300
I01
sg7
(I00
I00
I00
tp1785
sba(iModules.cell
Cell
p1786
(dp1787
g4
I00
sg300
I00
sg7
(I01
I01
tp1788
sba(iModules.cell
Cell
p1789
(dp1790
g4
I00
sg300
I00
sg7
(I01
I01
tp1791
sba(iModules.cell
Cell
p1792
(dp1793
g4
I00
sg300
I00
sg7
(I01
I01
tp1794
sba(iModules.cell
Cell
p1795
(dp1796
g4
I00
sg300
I00
sg7
(I01
I01
tp1797
sba(iModules.cell
Cell
p1798
(dp1799
g4
I00
sg300
I00
sg7
(I01
I01
tp1800
sba(iModules.cell
Cell
p1801
(dp1802
g4
I00
sg300
I00
sg7
(I01
I01
tp1803
sba(iModules.cell
Cell
p1804
(dp1805
g4
I00
sg300
I00
sg7
(I01
I01
tp1806
sba(iModules.cell
Cell
p1807
(dp1808
g4
I00
sg343
I00
sg7
(I01
I01
tp1809
sba(iModules.cell
Cell
p1810
(dp1811
g4
I00
sg343
I00
sg7
(I01
I01
tp1812
sba(iModules.cell
Cell
p1813
(dp1814
g4
I00
sg343
I00
sg7
(I01
I01
tp1815
sba(iModules.cell
Cell
p1816
(dp1817
g4
I00
sg343
I00
sg7
(I01
I01
tp1818
sba(iModules.cell
Cell
p1819
(dp1820
g4
I00
sg343
I00
sg7
(I01
I01
tp1821
sba(iModules.cell
Cell
p1822
(dp1823
g4
I00
sg343
I00
sg7
(I01
I01
tp1824
sba(iModules.cell
Cell
p1825
(dp1826
g4
I00
sg343
I00
sg7
(I01
I01
tp1827
sba(iModules.cell
Cell
p1828
(dp1829
g4
I00
sg343
I00
sg7
(I01
I01
tp1830
sba(iModules.cell
Cell
p1831
(dp1832
g4
I00
sg343
I00
sg7
(I01
I01
tp1833
sba(iModules.cell
Cell
p1834
(dp1835
g4
I00
sg343
I00
sg7
(I01
I01
tp1836
sba(iModules.cell
Cell
p1837
(dp1838
g4
I00
sg343
I00
sg7
(I01
I01
tp1839
sba(iModules.cell
Cell
p1840
(dp1841
g4
I00
sg343
I00
sg7
(I01
I01
tp1842
sba(iModules.cell
Cell
p1843
(dp1844
g4
I00
sg343
I00
sg7
(I01
I01
tp1845
sba(iModules.cell
Cell
p1846
(dp1847
g4
I00
sg343
I00
sg7
(I01
I01
tp1848
sba(iModules.cell
Cell
p1849
(dp1850
g4
I00
sg343
I00
sg7
(I01
I01
tp1851
sba(iModules.cell
Cell
p1852
(dp1853
g4
I00
sg343
I00
sg7
(I01
I01
tp1854
sba(iModules.cell
Cell
p1855
(dp1856
g4
I00
sg343
I00
sg7
(I01
I01
tp1857
sba(iModules.cell
Cell
p1858
(dp1859
g4
I00
sg343
I00
sg7
(I01
I01
tp1860
sba(iModules.cell
Cell
p1861
(dp1862
g4
I00
sg343
I00
sg7
(I01
I01
tp1863
sba(iModules.cell
Cell
p1864
(dp1865
g4
I00
sg343
I00
sg7
(I01
I01
tp1866
sba(iModules.cell
Cell
p1867
(dp1868
g4
I00
sg343
I00
sg7
(I01
I01
tp1869
sba(iModules.cell
Cell
p1870
(dp1871
g4
I00
sg407
I00
sg7
(I01
I01
tp1872
sba(iModules.cell
Cell
p1873
(dp1874
g4
I00
sg407
I00
sg7
(I01
I01
tp1875
sba(iModules.cell
Cell
p1876
(dp1877
g4
I00
sg407
I00
sg7
(I01
I01
tp1878
sba(iModules.cell
Cell
p1879
(dp1880
g4
I00
sg407
I00
sg7
(I01
I01
tp1881
sba(iModules.cell
Cell
p1882
(dp1883
g4
I00
sg407
I00
sg7
(I01
I01
tp1884
sba(iModules.cell
Cell
p1885
(dp1886
g4
I00
sg407
I00
sg7
(I01
I01
tp1887
sba(iModules.cell
Cell
p1888
(dp1889
g4
I00
sg407
I00
sg7
(I01
I01
tp1890
sba(iModules.cell
Cell
p1891
(dp1892
g4
I00
sg407
I00
sg7
(I01
I01
tp1893
sba(iModules.cell
Cell
p1894
(dp1895
g4
I00
sg407
I00
sg7
(I01
I01
tp1896
sba(iModules.cell
Cell
p1897
(dp1898
g4
I00
sg407
I00
sg7
(I01
I01
tp1899
sba(iModules.cell
Cell
p1900
(dp1901
g4
I00
sg407
I00
sg7
(I01
I01
tp1902
sba(iModules.cell
Cell
p1903
(dp1904
g4
I00
sg407
I00
sg7
(I00
I00
tp1905
sba(iModules.cell
Cell
p1906
(dp1907
g4
I00
sg6
I00
sg7
(I00
I00
tp1908
sba(iModules.cell
Cell
p1909
(dp1910
g4
I00
sg6
I00
sg7
(I00
I00
tp1911
sba(iModules.cell
Cell
p1912
(dp1913
g4
I00
sg6
I00
sg7
(I00
I00
tp1914
sba(iModules.cell
Cell
p1915
(dp1916
g4
I00
sg6
I00
sg7
(I00
I00
tp1917
sba(iModules.cell
Cell
p1918
(dp1919
g4
I00
sg6
I00
sg7
(I00
I00
tp1920
sba(iModules.cell
Cell
p1921
(dp1922
g4
I00
sg6
I00
sg7
(I00
I00
tp1923
sba(iModules.cell
Cell
p1924
(dp1925
g4
I00
sg6
I00
sg7
(I00
I00
tp1926
sba(iModules.cell
Cell
p1927
(dp1928
g4
I00
sg6
I00
sg7
(I00
I00
tp1929
sba(iModules.cell
Cell
p1930
(dp1931
g4
I00
sg6
I00
sg7
(I00
I00
tp1932
sba(iModules.cell
Cell
p1933
(dp1934
g4
I00
sg6
I00
sg7
(I00
I00
tp1935
sba(iModules.cell
Cell
p1936
(dp1937
g4
I00
sg6
I00
sg7
(I00
I00
tp1938
sba(iModules.cell
Cell
p1939
(dp1940
g4
I00
sg6
I00
sg7
(I00
I00
tp1941
sba(iModules.cell
Cell
p1942
(dp1943
g4
I00
sg6
I00
sg7
(I00
I00
tp1944
sba(iModules.cell
Cell
p1945
(dp1946
g4
I00
sg6
I00
sg7
(I00
I00
tp1947
sba(iModules.cell
Cell
p1948
(dp1949
g4
I00
sg6
I00
sg7
(I00
I00
tp1950
sba(iModules.cell
Cell
p1951
(dp1952
g4
I00
sg6
I00
sg7
(I00
I00
tp1953
sba(iModules.cell
Cell
p1954
(dp1955
g4
I00
sg6
I00
sg7
(I00
I00
tp1956
sba(iModules.cell
Cell
p1957
(dp1958
g4
I00
sg6
I00
sg7
(I00
I00
tp1959
sba(iModules.cell
Cell
p1960
(dp1961
g7
(I00
I00
tp1962
sbaa(lp1963
(iModules.cell
Cell
p1964
(dp1965
g4
I00
sg6
I00
sg7
(I00
I00
tp1966
sba(iModules.cell
Cell
p1967
(dp1968
g4
I00
sg257
I00
sg7
(I00
I00
tp1969
sba(iModules.cell
Cell
p1970
(dp1971
g4
I00
sg257
I00
sg7
(I01
I01
tp1972
sba(iModules.cell
Cell
p1973
(dp1974
g4
I00
sg257
I00
sg7
(I01
I01
tp1975
sba(iModules.cell
Cell
p1976
(dp1977
g4
I00
sg257
I00
sg7
(I00
I00
I00
tp1978
sba(iModules.cell
Cell
p1979
(dp1980
g4
I00
sg257
I00
sg7
(I00
I00
I00
tp1981
sba(iModules.cell
Cell
p1982
(dp1983
g4
I00
sg257
I00
sg7
(I00
I00
I00
tp1984
sba(iModules.cell
Cell
p1985
(dp1986
g4
I00
sg257
I00
sg7
(I00
I00
I00
tp1987
sba(iModules.cell
Cell
p1988
(dp1989
g4
I00
sg257
I00
sg7
(I00
I00
I00
tp1990
sba(iModules.cell
Cell
p1991
(dp1992
g4
I00
sg257
I00
sg7
(I01
I01
tp1993
sba(iModules.cell
Cell
p1994
(dp1995
g4
I00
sg257
I00
sg7
(I01
I01
tp1996
sba(iModules.cell
Cell
p1997
(dp1998
g4
I00
sg257
I00
sg7
(I01
I01
tp1999
sba(iModules.cell
Cell
p2000
(dp2001
g4
I00
sg257
I00
sg7
(I01
I01
tp2002
sba(iModules.cell
Cell
p2003
(dp2004
g4
I00
sg257
I00
sg7
(I01
I01
tp2005
sba(iModules.cell
Cell
p2006
(dp2007
g4
I00
sg257
I00
sg7
(I01
I01
tp2008
sba(iModules.cell
Cell
p2009
(dp2010
g4
I00
sg300
I00
sg7
(I01
I01
tp2011
sba(iModules.cell
Cell
p2012
(dp2013
g4
I00
sg300
I00
sg7
(I01
I01
tp2014
sba(iModules.cell
Cell
p2015
(dp2016
g4
I01
sg300
I01
sg7
(I00
I00
I00
tp2017
sba(iModules.cell
Cell
p2018
(dp2019
S'lit'
p2020
I01
sg4
I01
sg300
I01
sg7
(I01
I01
tp2021
sba(iModules.cell
Cell
p2022
(dp2023
g2020
I01
sg4
I01
sg300
I01
sg7
(I01
I01
tp2024
sba(iModules.cell
Cell
p2025
(dp2026
g2020
I01
sg4
I01
sg300
I01
sg7
(I01
I01
tp2027
sba(iModules.cell
Cell
p2028
(dp2029
g4
I01
sg300
I01
sg7
(I00
I00
I00
tp2030
sba(iModules.cell
Cell
p2031
(dp2032
g4
I00
sg300
I00
sg7
(I01
I01
tp2033
sba(iModules.cell
Cell
p2034
(dp2035
g4
I00
sg300
I00
sg7
(I01
I01
tp2036
sba(iModules.cell
Cell
p2037
(dp2038
g4
I00
sg300
I00
sg7
(I01
I01
tp2039
sba(iModules.cell
Cell
p2040
(dp2041
g4
I00
sg300
I00
sg7
(I01
I01
tp2042
sba(iModules.cell
Cell
p2043
(dp2044
g4
I00
sg300
I00
sg7
(I01
I01
tp2045
sba(iModules.cell
Cell
p2046
(dp2047
g4
I00
sg300
I00
sg7
(I01
I01
tp2048
sba(iModules.cell
Cell
p2049
(dp2050
g4
I00
sg300
I00
sg7
(I01
I01
tp2051
sba(iModules.cell
Cell
p2052
(dp2053
g4
I00
sg343
I00
sg7
(I01
I01
tp2054
sba(iModules.cell
Cell
p2055
(dp2056
g4
I00
sg343
I00
sg7
(I01
I01
tp2057
sba(iModules.cell
Cell
p2058
(dp2059
g4
I00
sg343
I00
sg7
(I01
I01
tp2060
sba(iModules.cell
Cell
p2061
(dp2062
g4
I00
sg343
I00
sg7
(I01
I01
tp2063
sba(iModules.cell
Cell
p2064
(dp2065
g4
I00
sg343
I00
sg7
(I01
I01
tp2066
sba(iModules.cell
Cell
p2067
(dp2068
g4
I00
sg343
I00
sg7
(I01
I01
tp2069
sba(iModules.cell
Cell
p2070
(dp2071
g4
I00
sg343
I00
sg7
(I01
I01
tp2072
sba(iModules.cell
Cell
p2073
(dp2074
g4
I00
sg343
I00
sg7
(I01
I01
tp2075
sba(iModules.cell
Cell
p2076
(dp2077
g4
I00
sg343
I00
sg7
(I01
I01
tp2078
sba(iModules.cell
Cell
p2079
(dp2080
g4
I00
sg343
I00
sg7
(I01
I01
tp2081
sba(iModules.cell
Cell
p2082
(dp2083
g4
I00
sg343
I00
sg7
(I01
I01
tp2084
sba(iModules.cell
Cell
p2085
(dp2086
g4
I00
sg343
I00
sg7
(I01
I01
tp2087
sba(iModules.cell
Cell
p2088
(dp2089
g4
I00
sg343
I00
sg7
(I01
I01
tp2090
sba(iModules.cell
Cell
p2091
(dp2092
g4
I00
sg343
I00
sg7
(I01
I01
tp2093
sba(iModules.cell
Cell
p2094
(dp2095
g4
I00
sg343
I00
sg7
(I01
I01
tp2096
sba(iModules.cell
Cell
p2097
(dp2098
g4
I00
sg343
I00
sg7
(I01
I01
tp2099
sba(iModules.cell
Cell
p2100
(dp2101
g4
I00
sg343
I00
sg7
(I01
I01
tp2102
sba(iModules.cell
Cell
p2103
(dp2104
g4
I00
sg343
I00
sg7
(I01
I01
tp2105
sba(iModules.cell
Cell
p2106
(dp2107
g4
I00
sg343
I00
sg7
(I01
I01
tp2108
sba(iModules.cell
Cell
p2109
(dp2110
g4
I00
sg343
I00
sg7
(I01
I01
tp2111
sba(iModules.cell
Cell
p2112
(dp2113
g4
I00
sg343
I00
sg7
(I01
I01
tp2114
sba(iModules.cell
Cell
p2115
(dp2116
g4
I00
sg407
I00
sg7
(I01
I01
tp2117
sba(iModules.cell
Cell
p2118
(dp2119
g4
I00
sg407
I00
sg7
(I01
I01
tp2120
sba(iModules.cell
Cell
p2121
(dp2122
g4
I00
sg407
I00
sg7
(I01
I01
tp2123
sba(iModules.cell
Cell
p2124
(dp2125
g4
I00
sg407
I00
sg7
(I01
I01
tp2126
sba(iModules.cell
Cell
p2127
(dp2128
g4
I00
sg407
I00
sg7
(I01
I01
tp2129
sba(iModules.cell
Cell
p2130
(dp2131
g4
I00
sg407
I00
sg7
(I01
I01
tp2132
sba(iModules.cell
Cell
p2133
(dp2134
g4
I00
sg407
I00
sg7
(I01
I01
tp2135
sba(iModules.cell
Cell
p2136
(dp2137
g4
I00
sg407
I00
sg7
(I01
I01
tp2138
sba(iModules.cell
Cell
p2139
(dp2140
g4
I00
sg407
I00
sg7
(I01
I01
tp2141
sba(iModules.cell
Cell
p2142
(dp2143
g4
I00
sg407
I00
sg7
(I01
I01
tp2144
sba(iModules.cell
Cell
p2145
(dp2146
g4
I00
sg407
I00
sg7
(I01
I01
tp2147
sba(iModules.cell
Cell
p2148
(dp2149
g4
I00
sg407
I00
sg7
(I00
I00
tp2150
sba(iModules.cell
Cell
p2151
(dp2152
g4
I00
sg6
I00
sg7
(I00
I00
tp2153
sba(iModules.cell
Cell
p2154
(dp2155
g4
I00
sg6
I00
sg7
(I00
I00
tp2156
sba(iModules.cell
Cell
p2157
(dp2158
g4
I00
sg6
I00
sg7
(I00
I00
tp2159
sba(iModules.cell
Cell
p2160
(dp2161
g4
I00
sg6
I00
sg7
(I00
I00
tp2162
sba(iModules.cell
Cell
p2163
(dp2164
g4
I00
sg6
I00
sg7
(I00
I00
tp2165
sba(iModules.cell
Cell
p2166
(dp2167
g4
I00
sg6
I00
sg7
(I00
I00
tp2168
sba(iModules.cell
Cell
p2169
(dp2170
g4
I00
sg6
I00
sg7
(I00
I00
tp2171
sba(iModules.cell
Cell
p2172
(dp2173
g4
I00
sg6
I00
sg7
(I00
I00
tp2174
sba(iModules.cell
Cell
p2175
(dp2176
g4
I00
sg6
I00
sg7
(I00
I00
tp2177
sba(iModules.cell
Cell
p2178
(dp2179
g4
I00
sg6
I00
sg7
(I00
I00
tp2180
sba(iModules.cell
Cell
p2181
(dp2182
g4
I00
sg6
I00
sg7
(I00
I00
tp2183
sba(iModules.cell
Cell
p2184
(dp2185
g4
I00
sg6
I00
sg7
(I00
I00
tp2186
sba(iModules.cell
Cell
p2187
(dp2188
g4
I00
sg6
I00
sg7
(I00
I00
tp2189
sba(iModules.cell
Cell
p2190
(dp2191
g4
I00
sg6
I00
sg7
(I00
I00
tp2192
sba(iModules.cell
Cell
p2193
(dp2194
g4
I00
sg6
I00
sg7
(I00
I00
tp2195
sba(iModules.cell
Cell
p2196
(dp2197
g4
I00
sg6
I00
sg7
(I00
I00
tp2198
sba(iModules.cell
Cell
p2199
(dp2200
g4
I00
sg6
I00
sg7
(I00
I00
tp2201
sba(iModules.cell
Cell
p2202
(dp2203
g4
I00
sg6
I00
sg7
(I00
I00
tp2204
sba(iModules.cell
Cell
p2205
(dp2206
g7
(I00
I00
tp2207
sbaa(lp2208
(iModules.cell
Cell
p2209
(dp2210
g4
I00
sg6
I00
sg7
(I00
I00
tp2211
sba(iModules.cell
Cell
p2212
(dp2213
g4
I00
sg257
I00
sg7
(I00
I00
tp2214
sba(iModules.cell
Cell
p2215
(dp2216
g4
I00
sg257
I00
sg7
(I01
I01
tp2217
sba(iModules.cell
Cell
p2218
(dp2219
g4
I00
sg257
I00
sg7
(I01
I01
tp2220
sba(iModules.cell
Cell
p2221
(dp2222
g4
I00
sg257
I00
sg7
(I00
I00
I00
tp2223
sba(iModules.cell
Cell
p2224
(dp2225
g4
I00
sg257
I01
sg7
(I01
I01
tp2226
sba(iModules.cell
Mob
p2227
(dp2228
S'char'
p2229
S'D'
p2230
sS'visible'
p2231
I00
sS'undercell'
p2232
(iModules.cell
Cell
p2233
(dp2234
S'visible'
p2235
I00
sg300
I00
sS'type'
p2236
(I01
I01
tp2237
sbsS'name'
p2238
S'Dragon'
p2239
sg6
I00
sba(iModules.cell
Cell
p2240
(dp2241
g4
I00
sg257
I00
sg7
(I01
I01
tp2242
sba(iModules.cell
Cell
p2243
(dp2244
g4
I00
sg257
I00
sg7
(I00
I00
I00
tp2245
sba(iModules.cell
Cell
p2246
(dp2247
g4
I00
sg257
I00
sg7
(I01
I01
tp2248
sba(iModules.cell
Cell
p2249
(dp2250
g4
I00
sg257
I00
sg7
(I01
I01
tp2251
sba(iModules.cell
Cell
p2252
(dp2253
g4
I00
sg257
I00
sg7
(I01
I01
tp2254
sba(iModules.cell
Cell
p2255
(dp2256
g4
I00
sg257
I00
sg7
(I01
I01
tp2257
sba(iModules.cell
Cell
p2258
(dp2259
g4
I00
sg257
I00
sg7
(I01
I01
tp2260
sba(iModules.cell
Cell
p2261
(dp2262
g4
I00
sg257
I00
sg7
(I01
I01
tp2263
sba(iModules.cell
Cell
p2264
(dp2265
g4
I00
sg300
I00
sg7
(I01
I01
tp2266
sba(iModules.cell
Cell
p2267
(dp2268
g4
I00
sg300
I00
sg7
(I01
I01
tp2269
sba(iModules.cell
Cell
p2270
(dp2271
g4
I01
sg300
I01
sg7
(I00
I00
I00
tp2272
sba(iModules.cell
Cell
p2273
(dp2274
g2020
I01
sg4
I01
sg300
I01
sg7
(I01
I01
tp2275
sba(iModules.cell
Dragon
p2276
(dp2277
S'undercell'
p2278
(iModules.cell
Cell
p2279
(dp2280
g2020
I01
sg4
I01
sg300
I01
sg7
(I01
I01
tp2281
sbsS'name'
p2282
S'Dragon'
p2283
sS'hp'
p2284
I-45
sS'char'
p2285
S'D'
p2286
sS'visible'
p2287
I01
sS'explored'
p2288
I01
sba(iModules.cell
Cell
p2289
(dp2290
g2020
I01
sg4
I01
sg300
I01
sg7
(I01
I01
tp2291
sba(iModules.cell
Cell
p2292
(dp2293
g4
I01
sg300
I01
sg7
(I00
I00
I00
tp2294
sba(iModules.cell
Cell
p2295
(dp2296
g4
I00
sg300
I00
sg7
(I01
I01
tp2297
sba(iModules.cell
Cell
p2298
(dp2299
g4
I00
sg300
I00
sg7
(I01
I01
tp2300
sba(iModules.cell
Cell
p2301
(dp2302
g4
I00
sg300
I00
sg7
(I01
I01
tp2303
sba(iModules.cell
Cell
p2304
(dp2305
g4
I00
sg300
I00
sg7
(I01
I01
tp2306
sba(iModules.cell
Cell
p2307
(dp2308
g4
I00
sg300
I00
sg7
(I01
I01
tp2309
sba(iModules.cell
Cell
p2310
(dp2311
g4
I00
sg300
I00
sg7
(I01
I01
tp2312
sba(iModules.cell
Cell
p2313
(dp2314
g4
I00
sg300
I00
sg7
(I01
I01
tp2315
sba(iModules.cell
Cell
p2316
(dp2317
g4
I00
sg343
I00
sg7
(I01
I01
tp2318
sba(iModules.cell
Cell
p2319
(dp2320
g4
I00
sg343
I00
sg7
(I01
I01
tp2321
sba(iModules.cell
Cell
p2322
(dp2323
g4
I00
sg343
I00
sg7
(I01
I01
tp2324
sba(iModules.cell
Cell
p2325
(dp2326
g4
I00
sg343
I00
sg7
(I01
I01
tp2327
sba(iModules.cell
Cell
p2328
(dp2329
g4
I00
sg343
I00
sg7
(I01
I01
tp2330
sba(iModules.cell
Cell
p2331
(dp2332
g4
I00
sg343
I00
sg7
(I01
I01
tp2333
sba(iModules.cell
Cell
p2334
(dp2335
g4
I00
sg343
I00
sg7
(I01
I01
tp2336
sba(iModules.cell
Cell
p2337
(dp2338
g4
I00
sg343
I00
sg7
(I01
I01
tp2339
sba(iModules.cell
Cell
p2340
(dp2341
g4
I00
sg343
I00
sg7
(I01
I01
tp2342
sba(iModules.cell
Cell
p2343
(dp2344
g4
I00
sg343
I00
sg7
(I01
I01
tp2345
sba(iModules.cell
Cell
p2346
(dp2347
g4
I00
sg343
I00
sg7
(I01
I01
tp2348
sba(iModules.cell
Cell
p2349
(dp2350
g4
I00
sg343
I00
sg7
(I01
I01
tp2351
sba(iModules.cell
Cell
p2352
(dp2353
g4
I00
sg343
I00
sg7
(I01
I01
tp2354
sba(iModules.cell
Cell
p2355
(dp2356
g4
I00
sg343
I00
sg7
(I01
I01
tp2357
sba(iModules.cell
Cell
p2358
(dp2359
g4
I00
sg343
I00
sg7
(I01
I01
tp2360
sba(iModules.cell
Cell
p2361
(dp2362
g4
I00
sg343
I00
sg7
(I01
I01
tp2363
sba(iModules.cell
Cell
p2364
(dp2365
g4
I00
sg343
I00
sg7
(I01
I01
tp2366
sba(iModules.cell
Cell
p2367
(dp2368
g4
I00
sg343
I00
sg7
(I01
I01
tp2369
sba(iModules.cell
Cell
p2370
(dp2371
g4
I00
sg343
I00
sg7
(I01
I01
tp2372
sba(iModules.cell
Cell
p2373
(dp2374
g4
I00
sg343
I00
sg7
(I01
I01
tp2375
sba(iModules.cell
Cell
p2376
(dp2377
g4
I00
sg343
I00
sg7
(I01
I01
tp2378
sba(iModules.cell
Cell
p2379
(dp2380
g4
I00
sg407
I00
sg7
(I01
I01
tp2381
sba(iModules.cell
Cell
p2382
(dp2383
g4
I00
sg407
I00
sg7
(I01
I01
tp2384
sba(iModules.cell
Cell
p2385
(dp2386
g4
I00
sg407
I00
sg7
(I01
I01
tp2387
sba(iModules.cell
Cell
p2388
(dp2389
g4
I00
sg407
I00
sg7
(I01
I01
tp2390
sba(iModules.cell
Cell
p2391
(dp2392
g4
I00
sg407
I00
sg7
(I01
I01
tp2393
sba(iModules.cell
Cell
p2394
(dp2395
g4
I00
sg407
I00
sg7
(I01
I01
tp2396
sba(iModules.cell
Cell
p2397
(dp2398
g4
I00
sg407
I00
sg7
(I01
I01
tp2399
sba(iModules.cell
Cell
p2400
(dp2401
g4
I00
sg407
I00
sg7
(I01
I01
tp2402
sba(iModules.cell
Cell
p2403
(dp2404
g4
I00
sg407
I00
sg7
(I01
I01
tp2405
sba(iModules.cell
Cell
p2406
(dp2407
g4
I00
sg407
I00
sg7
(I01
I01
tp2408
sba(iModules.cell
Cell
p2409
(dp2410
g4
I00
sg407
I00
sg7
(I01
I01
tp2411
sba(iModules.cell
Cell
p2412
(dp2413
g4
I00
sg407
I00
sg7
(I00
I00
tp2414
sba(iModules.cell
Cell
p2415
(dp2416
g4
I00
sg6
I00
sg7
(I00
I00
tp2417
sba(iModules.cell
Cell
p2418
(dp2419
g4
I00
sg6
I00
sg7
(I00
I00
tp2420
sba(iModules.cell
Cell
p2421
(dp2422
g4
I00
sg6
I00
sg7
(I00
I00
tp2423
sba(iModules.cell
Cell
p2424
(dp2425
g4
I00
sg6
I00
sg7
(I00
I00
tp2426
sba(iModules.cell
Cell
p2427
(dp2428
g4
I00
sg6
I00
sg7
(I00
I00
tp2429
sba(iModules.cell
Cell
p2430
(dp2431
g4
I00
sg6
I00
sg7
(I00
I00
tp2432
sba(iModules.cell
Cell
p2433
(dp2434
g4
I00
sg6
I00
sg7
(I00
I00
tp2435
sba(iModules.cell
Cell
p2436
(dp2437
g4
I00
sg6
I00
sg7
(I00
I00
tp2438
sba(iModules.cell
Cell
p2439
(dp2440
g4
I00
sg6
I00
sg7
(I00
I00
tp2441
sba(iModules.cell
Cell
p2442
(dp2443
g4
I00
sg6
I00
sg7
(I00
I00
tp2444
sba(iModules.cell
Cell
p2445
(dp2446
g4
I00
sg6
I00
sg7
(I00
I00
tp2447
sba(iModules.cell
Cell
p2448
(dp2449
g4
I00
sg6
I00
sg7
(I00
I00
tp2450
sba(iModules.cell
Cell
p2451
(dp2452
g4
I00
sg6
I00
sg7
(I00
I00
tp2453
sba(iModules.cell
Cell
p2454
(dp2455
g4
I00
sg6
I00
sg7
(I00
I00
tp2456
sba(iModules.cell
Cell
p2457
(dp2458
g4
I00
sg6
I00
sg7
(I00
I00
tp2459
sba(iModules.cell
Cell
p2460
(dp2461
g4
I00
sg6
I00
sg7
(I00
I00
tp2462
sba(iModules.cell
Cell
p2463
(dp2464
g4
I00
sg6
I00
sg7
(I00
I00
tp2465
sba(iModules.cell
Cell
p2466
(dp2467
g4
I00
sg6
I00
sg7
(I00
I00
tp2468
sba(iModules.cell
Cell
p2469
(dp2470
g7
(I00
I00
tp2471
sbaa(lp2472
(iModules.cell
Cell
p2473
(dp2474
g4
I00
sg6
I00
sg7
(I00
I00
tp2475
sba(iModules.cell
Cell
p2476
(dp2477
g4
I00
sg257
I00
sg7
(I00
I00
tp2478
sba(iModules.cell
Cell
p2479
(dp2480
g4
I00
sg257
I00
sg7
(I01
I01
tp2481
sba(iModules.cell
Cell
p2482
(dp2483
g4
I00
sg257
I00
sg7
(I01
I01
tp2484
sba(iModules.cell
Cell
p2485
(dp2486
g4
I00
sg257
I00
sg7
(I00
I00
I00
tp2487
sba(iModules.cell
Door
p2488
(dp2489
g2235
I00
sg300
I00
sg2236
(I00
I00
tp2490
sS'opened'
p2491
I00
sba(iModules.cell
Cell
p2492
(dp2493
g2235
I00
sg300
I00
sg2236
(I00
I00
I00
tp2494
sba(iModules.cell
Cell
p2495
(dp2496
g4
I00
sg257
I00
sg7
(I00
I00
I00
tp2497
sba(iModules.cell
Cell
p2498
(dp2499
g4
I00
sg257
I00
sg7
(I00
I00
I00
tp2500
sba(iModules.cell
Cell
p2501
(dp2502
g4
I00
sg257
I00
sg7
(I01
I01
tp2503
sba(iModules.cell
Cell
p2504
(dp2505
g4
I00
sg257
I00
sg7
(I00
I00
I00
tp2506
sba(iModules.cell
Cell
p2507
(dp2508
g4
I00
sg257
I00
sg7
(I00
I00
I00
tp2509
sba(iModules.cell
Cell
p2510
(dp2511
g4
I00
sg257
I00
sg7
(I00
I00
I00
tp2512
sba(iModules.cell
Cell
p2513
(dp2514
g4
I00
sg257
I00
sg7
(I01
I01
tp2515
sba(iModules.cell
Cell
p2516
(dp2517
g4
I00
sg257
I00
sg7
(I01
I01
tp2518
sba(iModules.cell
Cell
p2519
(dp2520
g4
I00
sg300
I00
sg7
(I01
I01
tp2521
sba(iModules.cell
Cell
p2522
(dp2523
g4
I00
sg300
I00
sg7
(I01
I01
tp2524
sba(iModules.cell
Cell
p2525
(dp2526
g4
I01
sg300
I01
sg7
(I00
I00
I00
tp2527
sba(iModules.cell
Cell
p2528
(dp2529
g4
I01
sg300
I01
sg7
(I00
I00
I00
tp2530
sba(iModules.cell
Door
p2531
(dp2532
g2231
I01
sS'explored'
p2533
I01
sS'type'
p2534
(I00
I00
tp2535
sS'opened'
p2536
I00
sba(iModules.cell
Cell
p2537
(dp2538
g4
I01
sg300
I01
sg7
(I00
I00
I00
tp2539
sba(iModules.cell
Cell
p2540
(dp2541
g4
I01
sg300
I01
sg7
(I00
I00
I00
tp2542
sba(iModules.cell
Cell
p2543
(dp2544
g4
I00
sg300
I00
sg7
(I01
I01
tp2545
sba(iModules.cell
Cell
p2546
(dp2547
g4
I00
sg300
I00
sg7
(I01
I01
tp2548
sba(iModules.cell
Cell
p2549
(dp2550
g4
I00
sg300
I00
sg7
(I01
I01
tp2551
sba(iModules.cell
Cell
p2552
(dp2553
g4
I00
sg300
I00
sg7
(I01
I01
tp2554
sba(iModules.cell
Cell
p2555
(dp2556
g4
I00
sg300
I00
sg7
(I00
I00
I00
tp2557
sba(iModules.cell
Cell
p2558
(dp2559
g4
I00
sg300
I00
sg7
(I00
I00
I00
tp2560
sba(iModules.cell
Cell
p2561
(dp2562
g4
I00
sg300
I00
sg7
(I00
I00
I00
tp2563
sba(iModules.cell
Cell
p2564
(dp2565
g4
I00
sg343
I00
sg7
(I01
I01
tp2566
sba(iModules.cell
Cell
p2567
(dp2568
g4
I00
sg343
I00
sg7
(I01
I01
tp2569
sba(iModules.cell
Cell
p2570
(dp2571
g4
I00
sg343
I00
sg7
(I01
I01
tp2572
sba(iModules.cell
Cell
p2573
(dp2574
g4
I00
sg343
I00
sg7
(I01
I01
tp2575
sba(iModules.cell
Cell
p2576
(dp2577
g4
I00
sg343
I00
sg7
(I01
I01
tp2578
sba(iModules.cell
Cell
p2579
(dp2580
g4
I00
sg343
I00
sg7
(I01
I01
tp2581
sba(iModules.cell
Cell
p2582
(dp2583
g4
I00
sg343
I00
sg7
(I01
I01
tp2584
sba(iModules.cell
Cell
p2585
(dp2586
g4
I00
sg343
I00
sg7
(I01
I01
tp2587
sba(iModules.cell
Cell
p2588
(dp2589
g4
I00
sg343
I00
sg7
(I01
I01
tp2590
sba(iModules.cell
Cell
p2591
(dp2592
g4
I00
sg343
I00
sg7
(I01
I01
tp2593
sba(iModules.cell
Cell
p2594
(dp2595
g4
I00
sg343
I00
sg7
(I01
I01
tp2596
sba(iModules.cell
Cell
p2597
(dp2598
g4
I00
sg343
I00
sg7
(I01
I01
tp2599
sba(iModules.cell
Cell
p2600
(dp2601
g4
I00
sg343
I00
sg7
(I01
I01
tp2602
sba(iModules.cell
Cell
p2603
(dp2604
g4
I00
sg343
I00
sg7
(I01
I01
tp2605
sba(iModules.cell
Cell
p2606
(dp2607
g4
I00
sg343
I00
sg7
(I01
I01
tp2608
sba(iModules.cell
Cell
p2609
(dp2610
g4
I00
sg343
I00
sg7
(I01
I01
tp2611
sba(iModules.cell
Cell
p2612
(dp2613
g4
I00
sg343
I00
sg7
(I01
I01
tp2614
sba(iModules.cell
Cell
p2615
(dp2616
g4
I00
sg343
I00
sg7
(I01
I01
tp2617
sba(iModules.cell
Cell
p2618
(dp2619
g4
I00
sg343
I00
sg7
(I01
I01
tp2620
sba(iModules.cell
Cell
p2621
(dp2622
g4
I00
sg343
I00
sg7
(I01
I01
tp2623
sba(iModules.cell
Cell
p2624
(dp2625
g4
I00
sg343
I00
sg7
(I01
I01
tp2626
sba(iModules.cell
Cell
p2627
(dp2628
g4
I00
sg407
I00
sg7
(I01
I01
tp2629
sba(iModules.cell
Cell
p2630
(dp2631
g4
I00
sg407
I00
sg7
(I01
I01
tp2632
sba(iModules.cell
Cell
p2633
(dp2634
g4
I00
sg407
I00
sg7
(I01
I01
tp2635
sba(iModules.cell
Cell
p2636
(dp2637
g4
I00
sg407
I00
sg7
(I01
I01
tp2638
sba(iModules.cell
Cell
p2639
(dp2640
g4
I00
sg407
I00
sg7
(I01
I01
tp2641
sba(iModules.cell
Cell
p2642
(dp2643
g4
I00
sg407
I00
sg7
(I01
I01
tp2644
sba(iModules.cell
Cell
p2645
(dp2646
g4
I00
sg407
I00
sg7
(I01
I01
tp2647
sba(iModules.cell
Cell
p2648
(dp2649
g4
I00
sg407
I00
sg7
(I01
I01
tp2650
sba(iModules.cell
Cell
p2651
(dp2652
g4
I00
sg407
I00
sg7
(I01
I01
tp2653
sba(iModules.cell
Cell
p2654
(dp2655
g4
I00
sg407
I00
sg7
(I01
I01
tp2656
sba(iModules.cell
Cell
p2657
(dp2658
g4
I00
sg407
I00
sg7
(I01
I01
tp2659
sba(iModules.cell
Cell
p2660
(dp2661
g4
I00
sg407
I00
sg7
(I00
I00
tp2662
sba(iModules.cell
Cell
p2663
(dp2664
g4
I00
sg6
I00
sg7
(I00
I00
tp2665
sba(iModules.cell
Cell
p2666
(dp2667
g4
I00
sg6
I00
sg7
(I00
I00
tp2668
sba(iModules.cell
Cell
p2669
(dp2670
g4
I00
sg6
I00
sg7
(I00
I00
tp2671
sba(iModules.cell
Cell
p2672
(dp2673
g4
I00
sg6
I00
sg7
(I00
I00
tp2674
sba(iModules.cell
Cell
p2675
(dp2676
g4
I00
sg6
I00
sg7
(I00
I00
tp2677
sba(iModules.cell
Cell
p2678
(dp2679
g4
I00
sg6
I00
sg7
(I00
I00
tp2680
sba(iModules.cell
Cell
p2681
(dp2682
g4
I00
sg6
I00
sg7
(I00
I00
tp2683
sba(iModules.cell
Cell
p2684
(dp2685
g4
I00
sg6
I00
sg7
(I00
I00
tp2686
sba(iModules.cell
Cell
p2687
(dp2688
g4
I00
sg6
I00
sg7
(I00
I00
tp2689
sba(iModules.cell
Cell
p2690
(dp2691
g4
I00
sg6
I00
sg7
(I00
I00
tp2692
sba(iModules.cell
Cell
p2693
(dp2694
g4
I00
sg6
I00
sg7
(I00
I00
tp2695
sba(iModules.cell
Cell
p2696
(dp2697
g4
I00
sg6
I00
sg7
(I00
I00
tp2698
sba(iModules.cell
Cell
p2699
(dp2700
g4
I00
sg6
I00
sg7
(I00
I00
tp2701
sba(iModules.cell
Cell
p2702
(dp2703
g4
I00
sg6
I00
sg7
(I00
I00
tp2704
sba(iModules.cell
Cell
p2705
(dp2706
g4
I00
sg6
I00
sg7
(I00
I00
tp2707
sba(iModules.cell
Cell
p2708
(dp2709
g4
I00
sg6
I00
sg7
(I00
I00
tp2710
sba(iModules.cell
Cell
p2711
(dp2712
g4
I00
sg6
I00
sg7
(I00
I00
tp2713
sba(iModules.cell
Cell
p2714
(dp2715
g4
I00
sg6
I00
sg7
(I00
I00
tp2716
sba(iModules.cell
Cell
p2717
(dp2718
g7
(I00
I00
tp2719
sbaa(lp2720
(iModules.cell
Cell
p2721
(dp2722
g4
I00
sg6
I00
sg7
(I00
I00
tp2723
sba(iModules.cell
Cell
p2724
(dp2725
g4
I00
sg257
I00
sg7
(I00
I00
tp2726
sba(iModules.cell
Cell
p2727
(dp2728
g4
I00
sg257
I00
sg7
(I01
I01
tp2729
sba(iModules.cell
Cell
p2730
(dp2731
g4
I00
sg257
I00
sg7
(I01
I01
tp2732
sba(iModules.cell
Cell
p2733
(dp2734
g4
I00
sg257
I00
sg7
(I00
I00
I00
tp2735
sba(iModules.cell
Cell
p2736
(dp2737
g4
I00
sg257
I00
sg7
(I01
I01
tp2738
sba(iModules.cell
Cell
p2739
(dp2740
g4
I00
sg257
I00
sg7
(I00
I00
I00
tp2741
sba(iModules.cell
Cell
p2742
(dp2743
g4
I00
sg257
I00
sg7
(I01
I01
tp2744
sba(iModules.cell
Cell
p2745
(dp2746
g4
I00
sg257
I00
sg7
(I01
I01
tp2747
sba(iModules.cell
Cell
p2748
(dp2749
g4
I00
sg257
I00
sg7
(I01
I01
tp2750
sba(iModules.cell
Cell
p2751
(dp2752
g4
I00
sg257
I00
sg7
(I00
I00
I00
tp2753
sba(iModules.cell
Cell
p2754
(dp2755
g4
I00
sg257
I00
sg7
(I01
I01
tp2756
sba(iModules.cell
Cell
p2757
(dp2758
g4
I00
sg257
I00
sg7
(I00
I00
I00
tp2759
sba(iModules.cell
Cell
p2760
(dp2761
g4
I00
sg257
I00
sg7
(I00
I00
I00
tp2762
sba(iModules.cell
Cell
p2763
(dp2764
g4
I00
sg257
I00
sg7
(I00
I00
I00
tp2765
sba(iModules.cell
Cell
p2766
(dp2767
g4
I00
sg300
I00
sg7
(I00
I00
I00
tp2768
sba(iModules.cell
Cell
p2769
(dp2770
g4
I00
sg300
I00
sg7
(I00
I00
I00
tp2771
sba(iModules.cell
Cell
p2772
(dp2773
g4
I00
sg300
I00
sg7
(I00
I00
I00
tp2774
sba(iModules.cell
Cell
p2775
(dp2776
g4
I00
sg300
I00
sg7
(I01
I01
tp2777
sba(iModules.cell
Cell
p2778
(dp2779
g4
I00
sg300
I00
sg7
(I01
I01
tp2780
sba(iModules.cell
Cell
p2781
(dp2782
g4
I00
sg300
I00
sg7
(I01
I01
tp2783
sba(iModules.cell
Cell
p2784
(dp2785
g4
I00
sg300
I00
sg7
(I00
I00
I00
tp2786
sba(iModules.cell
Cell
p2787
(dp2788
g4
I00
sg300
I00
sg7
(I01
I01
tp2789
sba(iModules.cell
Cell
p2790
(dp2791
g4
I00
sg300
I00
sg7
(I01
I01
tp2792
sba(iModules.cell
Cell
p2793
(dp2794
g4
I00
sg300
I00
sg7
(I01
I01
tp2795
sba(iModules.cell
Cell
p2796
(dp2797
g4
I00
sg300
I00
sg7
(I01
I01
tp2798
sba(iModules.cell
Cell
p2799
(dp2800
g4
I00
sg300
I00
sg7
(I00
I00
I00
tp2801
sba(iModules.cell
Cell
p2802
(dp2803
g4
I00
sg300
I00
sg7
(I01
I01
tp2804
sba(iModules.cell
Cell
p2805
(dp2806
g4
I00
sg300
I00
sg7
(I00
I00
I00
tp2807
sba(iModules.cell
Cell
p2808
(dp2809
g4
I00
sg343
I00
sg7
(I01
I01
tp2810
sba(iModules.cell
Cell
p2811
(dp2812
g4
I00
sg343
I00
sg7
(I01
I01
tp2813
sba(iModules.cell
Cell
p2814
(dp2815
g4
I00
sg343
I00
sg7
(I01
I01
tp2816
sba(iModules.cell
Cell
p2817
(dp2818
g4
I00
sg343
I00
sg7
(I01
I01
tp2819
sba(iModules.cell
Cell
p2820
(dp2821
g4
I00
sg343
I00
sg7
(I01
I01
tp2822
sba(iModules.cell
Cell
p2823
(dp2824
g4
I00
sg343
I00
sg7
(I01
I01
tp2825
sba(iModules.cell
Cell
p2826
(dp2827
g4
I00
sg343
I00
sg7
(I01
I01
tp2828
sba(iModules.cell
Cell
p2829
(dp2830
g4
I00
sg343
I00
sg7
(I01
I01
tp2831
sba(iModules.cell
Cell
p2832
(dp2833
g4
I00
sg343
I00
sg7
(I01
I01
tp2834
sba(iModules.cell
Cell
p2835
(dp2836
g4
I00
sg343
I00
sg7
(I01
I01
tp2837
sba(iModules.cell
Cell
p2838
(dp2839
g4
I00
sg343
I00
sg7
(I01
I01
tp2840
sba(iModules.cell
Cell
p2841
(dp2842
g4
I00
sg343
I00
sg7
(I01
I01
tp2843
sba(iModules.cell
Cell
p2844
(dp2845
g4
I00
sg343
I00
sg7
(I01
I01
tp2846
sba(iModules.cell
Cell
p2847
(dp2848
g4
I00
sg343
I00
sg7
(I01
I01
tp2849
sba(iModules.cell
Cell
p2850
(dp2851
g4
I00
sg343
I00
sg7
(I01
I01
tp2852
sba(iModules.cell
Cell
p2853
(dp2854
g4
I00
sg343
I00
sg7
(I01
I01
tp2855
sba(iModules.cell
Cell
p2856
(dp2857
g4
I00
sg343
I00
sg7
(I01
I01
tp2858
sba(iModules.cell
Cell
p2859
(dp2860
g4
I00
sg343
I00
sg7
(I01
I01
tp2861
sba(iModules.cell
Cell
p2862
(dp2863
g4
I00
sg343
I00
sg7
(I01
I01
tp2864
sba(iModules.cell
Cell
p2865
(dp2866
g4
I00
sg343
I00
sg7
(I01
I01
tp2867
sba(iModules.cell
Cell
p2868
(dp2869
g4
I00
sg343
I00
sg7
(I01
I01
tp2870
sba(iModules.cell
Cell
p2871
(dp2872
g4
I00
sg407
I00
sg7
(I01
I01
tp2873
sba(iModules.cell
Cell
p2874
(dp2875
g4
I00
sg407
I00
sg7
(I01
I01
tp2876
sba(iModules.cell
Cell
p2877
(dp2878
g4
I00
sg407
I00
sg7
(I01
I01
tp2879
sba(iModules.cell
Cell
p2880
(dp2881
g4
I00
sg407
I00
sg7
(I01
I01
tp2882
sba(iModules.cell
Cell
p2883
(dp2884
g4
I00
sg407
I00
sg7
(I01
I01
tp2885
sba(iModules.cell
Cell
p2886
(dp2887
g4
I00
sg407
I00
sg7
(I01
I01
tp2888
sba(iModules.cell
Cell
p2889
(dp2890
g4
I00
sg407
I00
sg7
(I01
I01
tp2891
sba(iModules.cell
Cell
p2892
(dp2893
g4
I00
sg407
I00
sg7
(I01
I01
tp2894
sba(iModules.cell
Cell
p2895
(dp2896
g4
I00
sg407
I00
sg7
(I01
I01
tp2897
sba(iModules.cell
Cell
p2898
(dp2899
g4
I00
sg407
I00
sg7
(I01
I01
tp2900
sba(iModules.cell
Cell
p2901
(dp2902
g4
I00
sg407
I00
sg7
(I01
I01
tp2903
sba(iModules.cell
Cell
p2904
(dp2905
g4
I00
sg407
I00
sg7
(I00
I00
tp2906
sba(iModules.cell
Cell
p2907
(dp2908
g4
I00
sg6
I00
sg7
(I00
I00
tp2909
sba(iModules.cell
Cell
p2910
(dp2911
g4
I00
sg6
I00
sg7
(I00
I00
tp2912
sba(iModules.cell
Cell
p2913
(dp2914
g4
I00
sg6
I00
sg7
(I00
I00
tp2915
sba(iModules.cell
Cell
p2916
(dp2917
g4
I00
sg6
I00
sg7
(I00
I00
tp2918
sba(iModules.cell
Cell
p2919
(dp2920
g4
I00
sg6
I00
sg7
(I00
I00
tp2921
sba(iModules.cell
Cell
p2922
(dp2923
g4
I00
sg6
I00
sg7
(I00
I00
tp2924
sba(iModules.cell
Cell
p2925
(dp2926
g4
I00
sg6
I00
sg7
(I00
I00
tp2927
sba(iModules.cell
Cell
p2928
(dp2929
g4
I00
sg6
I00
sg7
(I00
I00
tp2930
sba(iModules.cell
Cell
p2931
(dp2932
g4
I00
sg6
I00
sg7
(I00
I00
tp2933
sba(iModules.cell
Cell
p2934
(dp2935
g4
I00
sg6
I00
sg7
(I00
I00
tp2936
sba(iModules.cell
Cell
p2937
(dp2938
g4
I00
sg6
I00
sg7
(I00
I00
tp2939
sba(iModules.cell
Cell
p2940
(dp2941
g4
I00
sg6
I00
sg7
(I00
I00
tp2942
sba(iModules.cell
Cell
p2943
(dp2944
g4
I00
sg6
I00
sg7
(I00
I00
tp2945
sba(iModules.cell
Cell
p2946
(dp2947
g4
I00
sg6
I00
sg7
(I00
I00
tp2948
sba(iModules.cell
Cell
p2949
(dp2950
g4
I00
sg6
I00
sg7
(I00
I00
tp2951
sba(iModules.cell
Cell
p2952
(dp2953
g4
I00
sg6
I00
sg7
(I00
I00
tp2954
sba(iModules.cell
Cell
p2955
(dp2956
g4
I00
sg6
I00
sg7
(I00
I00
tp2957
sba(iModules.cell
Cell
p2958
(dp2959
g4
I00
sg6
I00
sg7
(I00
I00
tp2960
sba(iModules.cell
Cell
p2961
(dp2962
g7
(I00
I00
tp2963
sbaa(lp2964
(iModules.cell
Cell
p2965
(dp2966
g4
I00
sg6
I00
sg7
(I00
I00
tp2967
sba(iModules.cell
Cell
p2968
(dp2969
g4
I00
sg257
I00
sg7
(I00
I00
tp2970
sba(iModules.cell
Cell
p2971
(dp2972
g4
I00
sg257
I00
sg7
(I01
I01
tp2973
sba(iModules.cell
Cell
p2974
(dp2975
g4
I00
sg257
I00
sg7
(I01
I01
tp2976
sba(iModules.cell
Cell
p2977
(dp2978
g4
I00
sg257
I00
sg7
(I00
I00
I00
tp2979
sba(iModules.cell
Cell
p2980
(dp2981
g4
I00
sg257
I00
sg7
(I01
I01
tp2982
sba(iModules.cell
Cell
p2983
(dp2984
g4
I00
sg257
I00
sg7
(I00
I00
I00
tp2985
sba(iModules.cell
Cell
p2986
(dp2987
g4
I00
sg257
I00
sg7
(I00
I00
I00
tp2988
sba(iModules.cell
Cell
p2989
(dp2990
g4
I00
sg257
I00
sg7
(I00
I00
I00
tp2991
sba(iModules.cell
Cell
p2992
(dp2993
g4
I00
sg257
I00
sg7
(I00
I00
I00
tp2994
sba(iModules.cell
Cell
p2995
(dp2996
g4
I00
sg257
I00
sg7
(I00
I00
I00
tp2997
sba(iModules.cell
Cell
p2998
(dp2999
g4
I00
sg257
I00
sg7
(I01
I01
tp3000
sba(iModules.cell
Cell
p3001
(dp3002
g4
I00
sg257
I00
sg7
(I00
I00
I00
tp3003
sba(iModules.cell
Cell
p3004
(dp3005
g4
I00
sg257
I00
sg7
(I01
I01
tp3006
sba(iModules.cell
Cell
p3007
(dp3008
g4
I00
sg257
I00
sg7
(I01
I01
tp3009
sba(iModules.cell
Cell
p3010
(dp3011
g4
I00
sg300
I00
sg7
(I01
I01
tp3012
sba(iModules.cell
Cell
p3013
(dp3014
g4
I00
sg300
I00
sg7
(I01
I01
tp3015
sba(iModules.cell
Cell
p3016
(dp3017
g4
I00
sg300
I00
sg7
(I01
I01
tp3018
sba(iModules.cell
Cell
p3019
(dp3020
g4
I00
sg300
I00
sg7
(I01
I01
tp3021
sba(iModules.cell
Cell
p3022
(dp3023
g4
I00
sg300
I00
sg7
(I00
I00
I00
tp3024
sba(iModules.cell
Cell
p3025
(dp3026
g4
I00
sg300
I00
sg7
(I00
I00
I00
tp3027
sba(iModules.cell
Cell
p3028
(dp3029
g4
I00
sg300
I00
sg7
(I00
I00
I00
tp3030
sba(iModules.cell
Cell
p3031
(dp3032
g4
I00
sg300
I00
sg7
(I00
I00
I00
tp3033
sba(iModules.cell
Cell
p3034
(dp3035
g4
I00
sg300
I00
sg7
(I01
I01
tp3036
sba(iModules.cell
Cell
p3037
(dp3038
g4
I00
sg300
I00
sg7
(I00
I00
I00
tp3039
sba(iModules.cell
Cell
p3040
(dp3041
g4
I00
sg300
I00
sg7
(I00
I00
I00
tp3042
sba(iModules.cell
Cell
p3043
(dp3044
g4
I00
sg300
I00
sg7
(I00
I00
I00
tp3045
sba(iModules.cell
Cell
p3046
(dp3047
g4
I00
sg300
I00
sg7
(I01
I01
tp3048
sba(iModules.cell
Cell
p3049
(dp3050
g4
I00
sg300
I00
sg7
(I00
I00
I00
tp3051
sba(iModules.cell
Cell
p3052
(dp3053
g4
I00
sg343
I00
sg7
(I01
I01
tp3054
sba(iModules.cell
Cell
p3055
(dp3056
g4
I00
sg343
I00
sg7
(I01
I01
tp3057
sba(iModules.cell
Cell
p3058
(dp3059
g4
I00
sg343
I00
sg7
(I01
I01
tp3060
sba(iModules.cell
Cell
p3061
(dp3062
g4
I00
sg343
I00
sg7
(I01
I01
tp3063
sba(iModules.cell
Cell
p3064
(dp3065
g4
I00
sg343
I00
sg7
(I01
I01
tp3066
sba(iModules.cell
Cell
p3067
(dp3068
g4
I00
sg343
I00
sg7
(I01
I01
tp3069
sba(iModules.cell
Cell
p3070
(dp3071
g4
I00
sg343
I00
sg7
(I01
I01
tp3072
sba(iModules.cell
Cell
p3073
(dp3074
g4
I00
sg343
I00
sg7
(I01
I01
tp3075
sba(iModules.cell
Cell
p3076
(dp3077
g4
I00
sg343
I00
sg7
(I01
I01
tp3078
sba(iModules.cell
Cell
p3079
(dp3080
g4
I00
sg343
I00
sg7
(I01
I01
tp3081
sba(iModules.cell
Cell
p3082
(dp3083
g4
I00
sg343
I00
sg7
(I01
I01
tp3084
sba(iModules.cell
Cell
p3085
(dp3086
g4
I00
sg343
I00
sg7
(I01
I01
tp3087
sba(iModules.cell
Cell
p3088
(dp3089
g4
I00
sg343
I00
sg7
(I01
I01
tp3090
sba(iModules.cell
Cell
p3091
(dp3092
g4
I00
sg343
I00
sg7
(I01
I01
tp3093
sba(iModules.cell
Cell
p3094
(dp3095
g4
I00
sg343
I00
sg7
(I01
I01
tp3096
sba(iModules.cell
Cell
p3097
(dp3098
g4
I00
sg343
I00
sg7
(I01
I01
tp3099
sba(iModules.cell
Cell
p3100
(dp3101
g4
I00
sg343
I00
sg7
(I01
I01
tp3102
sba(iModules.cell
Cell
p3103
(dp3104
g4
I00
sg343
I00
sg7
(I01
I01
tp3105
sba(iModules.cell
Cell
p3106
(dp3107
g4
I00
sg343
I00
sg7
(I01
I01
tp3108
sba(iModules.cell
Cell
p3109
(dp3110
g4
I00
sg343
I00
sg7
(I01
I01
tp3111
sba(iModules.cell
Cell
p3112
(dp3113
g4
I00
sg343
I00
sg7
(I01
I01
tp3114
sba(iModules.cell
Cell
p3115
(dp3116
g4
I00
sg407
I00
sg7
(I01
I01
tp3117
sba(iModules.cell
Cell
p3118
(dp3119
g4
I00
sg407
I00
sg7
(I01
I01
tp3120
sba(iModules.cell
Cell
p3121
(dp3122
g4
I00
sg407
I00
sg7
(I01
I01
tp3123
sba(iModules.cell
Cell
p3124
(dp3125
g4
I00
sg407
I00
sg7
(I01
I01
tp3126
sba(iModules.cell
Cell
p3127
(dp3128
g4
I00
sg407
I00
sg7
(I01
I01
tp3129
sba(iModules.cell
Cell
p3130
(dp3131
g4
I00
sg407
I00
sg7
(I01
I01
tp3132
sba(iModules.cell
Cell
p3133
(dp3134
g4
I00
sg407
I00
sg7
(I01
I01
tp3135
sba(iModules.cell
Cell
p3136
(dp3137
g4
I00
sg407
I00
sg7
(I01
I01
tp3138
sba(iModules.cell
Cell
p3139
(dp3140
g4
I00
sg407
I00
sg7
(I01
I01
tp3141
sba(iModules.cell
Cell
p3142
(dp3143
g4
I00
sg407
I00
sg7
(I01
I01
tp3144
sba(iModules.cell
Cell
p3145
(dp3146
g4
I00
sg407
I00
sg7
(I01
I01
tp3147
sba(iModules.cell
Cell
p3148
(dp3149
g4
I00
sg407
I00
sg7
(I00
I00
tp3150
sba(iModules.cell
Cell
p3151
(dp3152
g4
I00
sg6
I00
sg7
(I00
I00
tp3153
sba(iModules.cell
Cell
p3154
(dp3155
g4
I00
sg6
I00
sg7
(I00
I00
tp3156
sba(iModules.cell
Cell
p3157
(dp3158
g4
I00
sg6
I00
sg7
(I00
I00
tp3159
sba(iModules.cell
Cell
p3160
(dp3161
g4
I00
sg6
I00
sg7
(I00
I00
tp3162
sba(iModules.cell
Cell
p3163
(dp3164
g4
I00
sg6
I00
sg7
(I00
I00
tp3165
sba(iModules.cell
Cell
p3166
(dp3167
g4
I00
sg6
I00
sg7
(I00
I00
tp3168
sba(iModules.cell
Cell
p3169
(dp3170
g4
I00
sg6
I00
sg7
(I00
I00
tp3171
sba(iModules.cell
Cell
p3172
(dp3173
g4
I00
sg6
I00
sg7
(I00
I00
tp3174
sba(iModules.cell
Cell
p3175
(dp3176
g4
I00
sg6
I00
sg7
(I00
I00
tp3177
sba(iModules.cell
Cell
p3178
(dp3179
g4
I00
sg6
I00
sg7
(I00
I00
tp3180
sba(iModules.cell
Cell
p3181
(dp3182
g4
I00
sg6
I00
sg7
(I00
I00
tp3183
sba(iModules.cell
Cell
p3184
(dp3185
g4
I00
sg6
I00
sg7
(I00
I00
tp3186
sba(iModules.cell
Cell
p3187
(dp3188
g4
I00
sg6
I00
sg7
(I00
I00
tp3189
sba(iModules.cell
Cell
p3190
(dp3191
g4
I00
sg6
I00
sg7
(I00
I00
tp3192
sba(iModules.cell
Cell
p3193
(dp3194
g4
I00
sg6
I00
sg7
(I00
I00
tp3195
sba(iModules.cell
Cell
p3196
(dp3197
g4
I00
sg6
I00
sg7
(I00
I00
tp3198
sba(iModules.cell
Cell
p3199
(dp3200
g4
I00
sg6
I00
sg7
(I00
I00
tp3201
sba(iModules.cell
Cell
p3202
(dp3203
g4
I00
sg6
I00
sg7
(I00
I00
tp3204
sba(iModules.cell
Cell
p3205
(dp3206
g7
(I00
I00
tp3207
sbaa(lp3208
(iModules.cell
Cell
p3209
(dp3210
g4
I00
sg6
I00
sg7
(I00
I00
tp3211
sba(iModules.cell
Cell
p3212
(dp3213
g4
I00
sg257
I00
sg7
(I00
I00
tp3214
sba(iModules.cell
Cell
p3215
(dp3216
g4
I00
sg257
I00
sg7
(I01
I01
tp3217
sba(iModules.cell
Cell
p3218
(dp3219
g4
I00
sg257
I00
sg7
(I01
I01
tp3220
sba(iModules.cell
Cell
p3221
(dp3222
g4
I00
sg257
I00
sg7
(I00
I00
I00
tp3223
sba(iModules.cell
Cell
p3224
(dp3225
g4
I00
sg257
I00
sg7
(I01
I01
tp3226
sba(iModules.cell
Cell
p3227
(dp3228
g4
I00
sg257
I00
sg7
(I01
I01
tp3229
sba(iModules.cell
Cell
p3230
(dp3231
g4
I00
sg257
I00
sg7
(I01
I01
tp3232
sba(iModules.cell
Cell
p3233
(dp3234
g4
I00
sg257
I00
sg7
(I01
I01
tp3235
sba(iModules.cell
Cell
p3236
(dp3237
g4
I00
sg257
I00
sg7
(I01
I01
tp3238
sba(iModules.cell
Cell
p3239
(dp3240
g4
I00
sg257
I00
sg7
(I01
I01
tp3241
sba(iModules.cell
Cell
p3242
(dp3243
S'visible'
p3244
I00
sS'explored'
p3245
I00
sS'type'
p3246
(I01
I01
tp3247
sba(iModules.cell
Cell
p3248
(dp3249
g3244
I00
sg3245
I00
sg3246
(I00
I00
I00
tp3250
sba(iModules.cell
Cell
p3251
(dp3252
g3244
I00
sg3245
I00
sg3246
(I01
I01
tp3253
sba(iModules.cell
Cell
p3254
(dp3255
g4
I00
sg257
I00
sg7
(I01
I01
tp3256
sba(iModules.cell
Cell
p3257
(dp3258
g4
I00
sg300
I00
sg7
(I01
I01
tp3259
sba(iModules.cell
Cell
p3260
(dp3261
g4
I00
sg300
I00
sg7
(I01
I01
tp3262
sba(iModules.cell
Cell
p3263
(dp3264
g4
I00
sg300
I00
sg7
(I01
I01
tp3265
sba(iModules.cell
Cell
p3266
(dp3267
g4
I00
sg300
I00
sg7
(I01
I01
tp3268
sba(iModules.cell
Cell
p3269
(dp3270
g4
I00
sg300
I00
sg7
(I01
I01
tp3271
sba(iModules.cell
Cell
p3272
(dp3273
g4
I00
sg300
I00
sg7
(I01
I01
tp3274
sba(iModules.cell
Cell
p3275
(dp3276
g4
I00
sg300
I00
sg7
(I01
I01
tp3277
sba(iModules.cell
Cell
p3278
(dp3279
g4
I00
sg300
I00
sg7
(I00
I00
I00
tp3280
sba(iModules.cell
Cell
p3281
(dp3282
g4
I00
sg300
I00
sg7
(I00
I00
I00
tp3283
sba(iModules.cell
Cell
p3284
(dp3285
g4
I00
sg300
I00
sg7
(I00
I00
I00
tp3286
sba(iModules.cell
Cell
p3287
(dp3288
g4
I00
sg300
I00
sg7
(I01
I01
tp3289
sba(iModules.cell
Cell
p3290
(dp3291
g4
I00
sg300
I00
sg7
(I01
I01
tp3292
sba(iModules.cell
Cell
p3293
(dp3294
g4
I00
sg300
I00
sg7
(I01
I01
tp3295
sba(iModules.cell
Cell
p3296
(dp3297
g4
I00
sg300
I00
sg7
(I00
I00
I00
tp3298
sba(iModules.cell
Cell
p3299
(dp3300
g4
I00
sg343
I00
sg7
(I01
I01
tp3301
sba(iModules.cell
Cell
p3302
(dp3303
g4
I00
sg343
I00
sg7
(I01
I01
tp3304
sba(iModules.cell
Cell
p3305
(dp3306
g4
I00
sg343
I00
sg7
(I01
I01
tp3307
sba(iModules.cell
Cell
p3308
(dp3309
g4
I00
sg343
I00
sg7
(I01
I01
tp3310
sba(iModules.cell
Cell
p3311
(dp3312
g4
I00
sg343
I00
sg7
(I01
I01
tp3313
sba(iModules.cell
Cell
p3314
(dp3315
g4
I00
sg343
I00
sg7
(I01
I01
tp3316
sba(iModules.cell
Cell
p3317
(dp3318
g4
I00
sg343
I00
sg7
(I01
I01
tp3319
sba(iModules.cell
Cell
p3320
(dp3321
g4
I00
sg343
I00
sg7
(I01
I01
tp3322
sba(iModules.cell
Cell
p3323
(dp3324
g4
I00
sg343
I00
sg7
(I01
I01
tp3325
sba(iModules.cell
Cell
p3326
(dp3327
g4
I00
sg343
I00
sg7
(I01
I01
tp3328
sba(iModules.cell
Cell
p3329
(dp3330
g4
I00
sg343
I00
sg7
(I01
I01
tp3331
sba(iModules.cell
Cell
p3332
(dp3333
g4
I00
sg343
I00
sg7
(I01
I01
tp3334
sba(iModules.cell
Cell
p3335
(dp3336
g4
I00
sg343
I00
sg7
(I01
I01
tp3337
sba(iModules.cell
Cell
p3338
(dp3339
g4
I00
sg343
I00
sg7
(I01
I01
tp3340
sba(iModules.cell
Cell
p3341
(dp3342
g4
I00
sg343
I00
sg7
(I01
I01
tp3343
sba(iModules.cell
Cell
p3344
(dp3345
g4
I00
sg343
I00
sg7
(I01
I01
tp3346
sba(iModules.cell
Cell
p3347
(dp3348
g4
I00
sg343
I00
sg7
(I01
I01
tp3349
sba(iModules.cell
Cell
p3350
(dp3351
g4
I00
sg343
I00
sg7
(I01
I01
tp3352
sba(iModules.cell
Cell
p3353
(dp3354
g4
I00
sg343
I00
sg7
(I01
I01
tp3355
sba(iModules.cell
Cell
p3356
(dp3357
g4
I00
sg343
I00
sg7
(I01
I01
tp3358
sba(iModules.cell
Cell
p3359
(dp3360
g4
I00
sg343
I00
sg7
(I01
I01
tp3361
sba(iModules.cell
Cell
p3362
(dp3363
g4
I00
sg407
I00
sg7
(I01
I01
tp3364
sba(iModules.cell
Cell
p3365
(dp3366
g4
I00
sg407
I00
sg7
(I01
I01
tp3367
sba(iModules.cell
Cell
p3368
(dp3369
g4
I00
sg407
I00
sg7
(I01
I01
tp3370
sba(iModules.cell
Cell
p3371
(dp3372
g4
I00
sg407
I00
sg7
(I01
I01
tp3373
sba(iModules.cell
Cell
p3374
(dp3375
g4
I00
sg407
I00
sg7
(I01
I01
tp3376
sba(iModules.cell
Cell
p3377
(dp3378
g4
I00
sg407
I00
sg7
(I01
I01
tp3379
sba(iModules.cell
Cell
p3380
(dp3381
g4
I00
sg407
I00
sg7
(I01
I01
tp3382
sba(iModules.cell
Cell
p3383
(dp3384
g4
I00
sg407
I00
sg7
(I01
I01
tp3385
sba(iModules.cell
Cell
p3386
(dp3387
g4
I00
sg407
I00
sg7
(I01
I01
tp3388
sba(iModules.cell
Cell
p3389
(dp3390
g4
I00
sg407
I00
sg7
(I01
I01
tp3391
sba(iModules.cell
Cell
p3392
(dp3393
g4
I00
sg407
I00
sg7
(I01
I01
tp3394
sba(iModules.cell
Cell
p3395
(dp3396
g4
I00
sg407
I00
sg7
(I00
I00
tp3397
sba(iModules.cell
Cell
p3398
(dp3399
g4
I00
sg6
I00
sg7
(I00
I00
tp3400
sba(iModules.cell
Cell
p3401
(dp3402
g4
I00
sg6
I00
sg7
(I00
I00
tp3403
sba(iModules.cell
Cell
p3404
(dp3405
g4
I00
sg6
I00
sg7
(I00
I00
tp3406
sba(iModules.cell
Cell
p3407
(dp3408
g4
I00
sg6
I00
sg7
(I00
I00
tp3409
sba(iModules.cell
Cell
p3410
(dp3411
g4
I00
sg6
I00
sg7
(I00
I00
tp3412
sba(iModules.cell
Cell
p3413
(dp3414
g4
I00
sg6
I00
sg7
(I00
I00
tp3415
sba(iModules.cell
Cell
p3416
(dp3417
g4
I00
sg6
I00
sg7
(I00
I00
tp3418
sba(iModules.cell
Cell
p3419
(dp3420
g4
I00
sg6
I00
sg7
(I00
I00
tp3421
sba(iModules.cell
Cell
p3422
(dp3423
g4
I00
sg6
I00
sg7
(I00
I00
tp3424
sba(iModules.cell
Cell
p3425
(dp3426
g4
I00
sg6
I00
sg7
(I00
I00
tp3427
sba(iModules.cell
Cell
p3428
(dp3429
g4
I00
sg6
I00
sg7
(I00
I00
tp3430
sba(iModules.cell
Cell
p3431
(dp3432
g4
I00
sg6
I00
sg7
(I00
I00
tp3433
sba(iModules.cell
Cell
p3434
(dp3435
g4
I00
sg6
I00
sg7
(I00
I00
tp3436
sba(iModules.cell
Cell
p3437
(dp3438
g4
I00
sg6
I00
sg7
(I00
I00
tp3439
sba(iModules.cell
Cell
p3440
(dp3441
g4
I00
sg6
I00
sg7
(I00
I00
tp3442
sba(iModules.cell
Cell
p3443
(dp3444
g4
I00
sg6
I00
sg7
(I00
I00
tp3445
sba(iModules.cell
Cell
p3446
(dp3447
g4
I00
sg6
I00
sg7
(I00
I00
tp3448
sba(iModules.cell
Cell
p3449
(dp3450
g4
I00
sg6
I00
sg7
(I00
I00
tp3451
sba(iModules.cell
Cell
p3452
(dp3453
g7
(I00
I00
tp3454
sbaa(lp3455
(iModules.cell
Cell
p3456
(dp3457
g4
I00
sg6
I00
sg7
(I00
I00
tp3458
sba(iModules.cell
Cell
p3459
(dp3460
g4
I00
sg257
I00
sg7
(I00
I00
tp3461
sba(iModules.cell
Cell
p3462
(dp3463
g4
I00
sg257
I00
sg7
(I01
I01
tp3464
sba(iModules.cell
Cell
p3465
(dp3466
g4
I00
sg257
I00
sg7
(I01
I01
tp3467
sba(iModules.cell
Cell
p3468
(dp3469
g4
I00
sg257
I00
sg7
(I00
I00
I00
tp3470
sba(iModules.cell
Cell
p3471
(dp3472
g4
I00
sg257
I00
sg7
(I00
I00
I00
tp3473
sba(iModules.cell
Cell
p3474
(dp3475
g4
I00
sg257
I00
sg7
(I00
I00
I00
tp3476
sba(iModules.cell
Cell
p3477
(dp3478
g4
I00
sg257
I00
sg7
(I00
I00
I00
tp3479
sba(iModules.cell
Cell
p3480
(dp3481
g4
I00
sg257
I00
sg7
(I00
I00
I00
tp3482
sba(iModules.cell
Cell
p3483
(dp3484
g4
I00
sg257
I00
sg7
(I00
I00
I00
tp3485
sba(iModules.cell
Cell
p3486
(dp3487
g4
I00
sg257
I00
sg7
(I00
I00
I00
tp3488
sba(iModules.cell
Cell
p3489
(dp3490
g3244
I00
sg3245
I00
sg3246
(I01
I01
tp3491
sba(iModules.cell
Cell
p3492
(dp3493
g3244
I00
sg3245
I00
sg3246
(I00
I00
I00
tp3494
sba(iModules.cell
Cell
p3495
(dp3496
g3244
I00
sg3245
I00
sg3246
(I01
I01
tp3497
sba(iModules.cell
Cell
p3498
(dp3499
g4
I00
sg257
I00
sg7
(I01
I01
tp3500
sba(iModules.cell
Cell
p3501
(dp3502
g4
I00
sg300
I00
sg7
(I01
I01
tp3503
sba(iModules.cell
Cell
p3504
(dp3505
g4
I00
sg300
I00
sg7
(I01
I01
tp3506
sba(iModules.cell
Cell
p3507
(dp3508
g4
I00
sg300
I00
sg7
(I01
I01
tp3509
sba(iModules.cell
Cell
p3510
(dp3511
g4
I00
sg300
I00
sg7
(I01
I01
tp3512
sba(iModules.cell
Cell
p3513
(dp3514
g4
I00
sg300
I00
sg7
(I01
I01
tp3515
sba(iModules.cell
Cell
p3516
(dp3517
g2231
I00
sg2533
I00
sg2534
(I01
I01
tp3518
sba(iModules.cell
Cell
p3519
(dp3520
g4
I00
sg300
I00
sg7
(I01
I01
tp3521
sba(iModules.cell
Cell
p3522
(dp3523
S'visible'
p3524
I00
sS'explored'
p3525
I00
sS'type'
p3526
(I01
I01
tp3527
sba(iModules.cell
Cell
p3528
(dp3529
g4
I00
sg300
I00
sg7
(I01
I01
tp3530
sba(iModules.cell
Cell
p3531
(dp3532
g4
I00
sg300
I00
sg7
(I01
I01
tp3533
sba(iModules.cell
Cell
p3534
(dp3535
g4
I00
sg300
I00
sg7
(I01
I01
tp3536
sba(iModules.cell
Cell
p3537
(dp3538
g4
I00
sg300
I00
sg7
(I00
I00
I00
tp3539
sba(iModules.cell
Cell
p3540
(dp3541
g4
I00
sg300
I00
sg7
(I00
I00
I00
tp3542
sba(iModules.cell
Cell
p3543
(dp3544
g4
I00
sg300
I00
sg7
(I00
I00
I00
tp3545
sba(iModules.cell
Cell
p3546
(dp3547
g4
I00
sg343
I00
sg7
(I01
I01
tp3548
sba(iModules.cell
Cell
p3549
(dp3550
g4
I00
sg343
I00
sg7
(I01
I01
tp3551
sba(iModules.cell
Cell
p3552
(dp3553
g4
I00
sg343
I00
sg7
(I01
I01
tp3554
sba(iModules.cell
Cell
p3555
(dp3556
g4
I00
sg343
I00
sg7
(I01
I01
tp3557
sba(iModules.cell
Cell
p3558
(dp3559
g4
I00
sg343
I00
sg7
(I01
I01
tp3560
sba(iModules.cell
Cell
p3561
(dp3562
g4
I00
sg343
I00
sg7
(I01
I01
tp3563
sba(iModules.cell
Cell
p3564
(dp3565
g4
I00
sg343
I00
sg7
(I01
I01
tp3566
sba(iModules.cell
Cell
p3567
(dp3568
g4
I00
sg343
I00
sg7
(I01
I01
tp3569
sba(iModules.cell
Cell
p3570
(dp3571
g4
I00
sg343
I00
sg7
(I01
I01
tp3572
sba(iModules.cell
Cell
p3573
(dp3574
g4
I00
sg343
I00
sg7
(I01
I01
tp3575
sba(iModules.cell
Cell
p3576
(dp3577
g4
I00
sg343
I00
sg7
(I01
I01
tp3578
sba(iModules.cell
Cell
p3579
(dp3580
g4
I00
sg343
I00
sg7
(I01
I01
tp3581
sba(iModules.cell
Cell
p3582
(dp3583
g4
I00
sg343
I00
sg7
(I01
I01
tp3584
sba(iModules.cell
Cell
p3585
(dp3586
g4
I00
sg343
I00
sg7
(I01
I01
tp3587
sba(iModules.cell
Cell
p3588
(dp3589
g4
I00
sg343
I00
sg7
(I01
I01
tp3590
sba(iModules.cell
Cell
p3591
(dp3592
g4
I00
sg343
I00
sg7
(I01
I01
tp3593
sba(iModules.cell
Cell
p3594
(dp3595
g4
I00
sg343
I00
sg7
(I01
I01
tp3596
sba(iModules.cell
Cell
p3597
(dp3598
g4
I00
sg343
I00
sg7
(I01
I01
tp3599
sba(iModules.cell
Cell
p3600
(dp3601
g4
I00
sg343
I00
sg7
(I01
I01
tp3602
sba(iModules.cell
Cell
p3603
(dp3604
g4
I00
sg343
I00
sg7
(I01
I01
tp3605
sba(iModules.cell
Cell
p3606
(dp3607
g4
I00
sg343
I00
sg7
(I01
I01
tp3608
sba(iModules.cell
Cell
p3609
(dp3610
g4
I00
sg407
I00
sg7
(I01
I01
tp3611
sba(iModules.cell
Cell
p3612
(dp3613
g4
I00
sg407
I00
sg7
(I01
I01
tp3614
sba(iModules.cell
Cell
p3615
(dp3616
g4
I00
sg407
I00
sg7
(I01
I01
tp3617
sba(iModules.cell
Cell
p3618
(dp3619
g4
I00
sg407
I00
sg7
(I01
I01
tp3620
sba(iModules.cell
Cell
p3621
(dp3622
g4
I00
sg407
I00
sg7
(I01
I01
tp3623
sba(iModules.cell
Cell
p3624
(dp3625
g4
I00
sg407
I00
sg7
(I01
I01
tp3626
sba(iModules.cell
Cell
p3627
(dp3628
g4
I00
sg407
I00
sg7
(I01
I01
tp3629
sba(iModules.cell
Cell
p3630
(dp3631
g4
I00
sg407
I00
sg7
(I01
I01
tp3632
sba(iModules.cell
Cell
p3633
(dp3634
g4
I00
sg407
I00
sg7
(I01
I01
tp3635
sba(iModules.cell
Cell
p3636
(dp3637
g4
I00
sg407
I00
sg7
(I01
I01
tp3638
sba(iModules.cell
Cell
p3639
(dp3640
g4
I00
sg407
I00
sg7
(I01
I01
tp3641
sba(iModules.cell
Cell
p3642
(dp3643
g4
I00
sg407
I00
sg7
(I00
I00
tp3644
sba(iModules.cell
Cell
p3645
(dp3646
g4
I00
sg6
I00
sg7
(I00
I00
tp3647
sba(iModules.cell
Cell
p3648
(dp3649
g4
I00
sg6
I00
sg7
(I00
I00
tp3650
sba(iModules.cell
Cell
p3651
(dp3652
g4
I00
sg6
I00
sg7
(I00
I00
tp3653
sba(iModules.cell
Cell
p3654
(dp3655
g4
I00
sg6
I00
sg7
(I00
I00
tp3656
sba(iModules.cell
Cell
p3657
(dp3658
g4
I00
sg6
I00
sg7
(I00
I00
tp3659
sba(iModules.cell
Cell
p3660
(dp3661
g4
I00
sg6
I00
sg7
(I00
I00
tp3662
sba(iModules.cell
Cell
p3663
(dp3664
g4
I00
sg6
I00
sg7
(I00
I00
tp3665
sba(iModules.cell
Cell
p3666
(dp3667
g4
I00
sg6
I00
sg7
(I00
I00
tp3668
sba(iModules.cell
Cell
p3669
(dp3670
g4
I00
sg6
I00
sg7
(I00
I00
tp3671
sba(iModules.cell
Cell
p3672
(dp3673
g4
I00
sg6
I00
sg7
(I00
I00
tp3674
sba(iModules.cell
Cell
p3675
(dp3676
g4
I00
sg6
I00
sg7
(I00
I00
tp3677
sba(iModules.cell
Cell
p3678
(dp3679
g4
I00
sg6
I00
sg7
(I00
I00
tp3680
sba(iModules.cell
Cell
p3681
(dp3682
g4
I00
sg6
I00
sg7
(I00
I00
tp3683
sba(iModules.cell
Cell
p3684
(dp3685
g4
I00
sg6
I00
sg7
(I00
I00
tp3686
sba(iModules.cell
Cell
p3687
(dp3688
g4
I00
sg6
I00
sg7
(I00
I00
tp3689
sba(iModules.cell
Cell
p3690
(dp3691
g4
I00
sg6
I00
sg7
(I00
I00
tp3692
sba(iModules.cell
Cell
p3693
(dp3694
g4
I00
sg6
I00
sg7
(I00
I00
tp3695
sba(iModules.cell
Cell
p3696
(dp3697
g4
I00
sg6
I00
sg7
(I00
I00
tp3698
sba(iModules.cell
Cell
p3699
(dp3700
g7
(I00
I00
tp3701
sbaa(lp3702
(iModules.cell
Cell
p3703
(dp3704
g4
I00
sg6
I00
sg7
(I00
I00
tp3705
sba(iModules.cell
Cell
p3706
(dp3707
g4
I00
sg257
I00
sg7
(I00
I00
tp3708
sba(iModules.cell
Cell
p3709
(dp3710
g4
I00
sg257
I00
sg7
(I01
I01
tp3711
sba(iModules.cell
Cell
p3712
(dp3713
g4
I00
sg257
I00
sg7
(I01
I01
tp3714
sba(iModules.cell
Cell
p3715
(dp3716
g4
I00
sg257
I00
sg7
(I01
I01
tp3717
sba(iModules.cell
Cell
p3718
(dp3719
g4
I00
sg257
I00
sg7
(I01
I01
tp3720
sba(iModules.cell
Cell
p3721
(dp3722
g4
I00
sg257
I00
sg7
(I01
I01
tp3723
sba(iModules.cell
Cell
p3724
(dp3725
g4
I00
sg257
I00
sg7
(I01
I01
tp3726
sba(iModules.cell
Cell
p3727
(dp3728
g4
I00
sg257
I00
sg7
(I01
I01
tp3729
sba(iModules.cell
Cell
p3730
(dp3731
g4
I00
sg257
I00
sg7
(I01
I01
tp3732
sba(iModules.cell
Cell
p3733
(dp3734
g4
I00
sg257
I00
sg7
(I00
I00
I00
tp3735
sba(iModules.cell
Cell
p3736
(dp3737
g3244
I00
sg3245
I00
sg3246
(I01
I01
tp3738
sba(iModules.cell
Cell
p3739
(dp3740
g3244
I00
sg3245
I00
sg3246
(I00
I00
I00
tp3741
sba(iModules.cell
Door
p3742
(dp3743
g2231
I00
sg2533
I00
sg2534
(I00
I00
tp3744
sg2536
I00
sba(iModules.cell
Cell
p3745
(dp3746
S'visible'
p3747
I00
sS'explored'
p3748
I00
sS'type'
p3749
(I00
I00
I00
tp3750
sba(iModules.cell
Cell
p3751
(dp3752
g4
I00
sg300
I00
sg7
(I00
I00
I00
tp3753
sba(iModules.cell
Cell
p3754
(dp3755
g4
I00
sg300
I00
sg7
(I00
I00
I00
tp3756
sba(iModules.cell
Cell
p3757
(dp3758
g4
I00
sg300
I00
sg7
(I00
I00
I00
tp3759
sba(iModules.cell
Cell
p3760
(dp3761
g4
I00
sg300
I00
sg7
(I00
I00
I00
tp3762
sba(iModules.cell
Cell
p3763
(dp3764
g4
I00
sg300
I00
sg7
(I00
I00
I00
tp3765
sba(iModules.cell
Door
p3766
(dp3767
g2231
I00
sg2533
I00
sg2534
(I00
I00
tp3768
sg2536
I00
sba(iModules.cell
Cell
p3769
(dp3770
g4
I00
sg300
I00
sg7
(I00
I00
I00
tp3771
sba(iModules.cell
Cell
p3772
(dp3773
g4
I00
sg300
I00
sg7
(I00
I00
I00
tp3774
sba(iModules.cell
Cell
p3775
(dp3776
g4
I00
sg300
I00
sg7
(I01
I01
tp3777
sba(iModules.cell
Cell
p3778
(dp3779
g4
I00
sg300
I00
sg7
(I01
I01
tp3780
sba(iModules.cell
Cell
p3781
(dp3782
g4
I00
sg300
I00
sg7
(I00
I00
I00
tp3783
sba(iModules.cell
Cell
p3784
(dp3785
g4
I00
sg300
I00
sg7
(I00
I00
I00
tp3786
sba(iModules.cell
Cell
p3787
(dp3788
g4
I00
sg300
I00
sg7
(I01
I01
tp3789
sba(iModules.cell
Cell
p3790
(dp3791
g4
I00
sg300
I00
sg7
(I01
I01
tp3792
sba(iModules.cell
Cell
p3793
(dp3794
g4
I00
sg343
I00
sg7
(I01
I01
tp3795
sba(iModules.cell
Cell
p3796
(dp3797
g4
I00
sg343
I00
sg7
(I01
I01
tp3798
sba(iModules.cell
Cell
p3799
(dp3800
g4
I00
sg343
I00
sg7
(I00
I00
I00
tp3801
sba(iModules.cell
Cell
p3802
(dp3803
g4
I00
sg343
I00
sg7
(I00
I00
I00
tp3804
sba(iModules.cell
Cell
p3805
(dp3806
g4
I00
sg343
I00
sg7
(I00
I00
I00
tp3807
sba(iModules.cell
Cell
p3808
(dp3809
g4
I00
sg343
I00
sg7
(I01
I01
tp3810
sba(iModules.cell
Cell
p3811
(dp3812
g4
I00
sg343
I00
sg7
(I01
I01
tp3813
sba(iModules.cell
Cell
p3814
(dp3815
g4
I00
sg343
I00
sg7
(I01
I01
tp3816
sba(iModules.cell
Cell
p3817
(dp3818
g4
I00
sg343
I00
sg7
(I01
I01
tp3819
sba(iModules.cell
Cell
p3820
(dp3821
g4
I00
sg343
I00
sg7
(I01
I01
tp3822
sba(iModules.cell
Cell
p3823
(dp3824
g4
I00
sg343
I00
sg7
(I01
I01
tp3825
sba(iModules.cell
Cell
p3826
(dp3827
g4
I00
sg343
I00
sg7
(I01
I01
tp3828
sba(iModules.cell
Cell
p3829
(dp3830
g4
I00
sg343
I00
sg7
(I01
I01
tp3831
sba(iModules.cell
Cell
p3832
(dp3833
g4
I00
sg343
I00
sg7
(I01
I01
tp3834
sba(iModules.cell
Cell
p3835
(dp3836
g4
I00
sg343
I00
sg7
(I01
I01
tp3837
sba(iModules.cell
Cell
p3838
(dp3839
g4
I00
sg343
I00
sg7
(I01
I01
tp3840
sba(iModules.cell
Cell
p3841
(dp3842
g4
I00
sg343
I00
sg7
(I01
I01
tp3843
sba(iModules.cell
Cell
p3844
(dp3845
g4
I00
sg343
I00
sg7
(I01
I01
tp3846
sba(iModules.cell
Cell
p3847
(dp3848
g4
I00
sg343
I00
sg7
(I01
I01
tp3849
sba(iModules.cell
Cell
p3850
(dp3851
g4
I00
sg343
I00
sg7
(I01
I01
tp3852
sba(iModules.cell
Cell
p3853
(dp3854
g4
I00
sg343
I00
sg7
(I01
I01
tp3855
sba(iModules.cell
Cell
p3856
(dp3857
g4
I00
sg407
I00
sg7
(I01
I01
tp3858
sba(iModules.cell
Cell
p3859
(dp3860
g4
I00
sg407
I00
sg7
(I01
I01
tp3861
sba(iModules.cell
Cell
p3862
(dp3863
g4
I00
sg407
I00
sg7
(I01
I01
tp3864
sba(iModules.cell
Cell
p3865
(dp3866
g4
I00
sg407
I00
sg7
(I01
I01
tp3867
sba(iModules.cell
Cell
p3868
(dp3869
g4
I00
sg407
I00
sg7
(I01
I01
tp3870
sba(iModules.cell
Cell
p3871
(dp3872
g4
I00
sg407
I00
sg7
(I01
I01
tp3873
sba(iModules.cell
Cell
p3874
(dp3875
g4
I00
sg407
I00
sg7
(I01
I01
tp3876
sba(iModules.cell
Cell
p3877
(dp3878
g4
I00
sg407
I00
sg7
(I01
I01
tp3879
sba(iModules.cell
Cell
p3880
(dp3881
g4
I00
sg407
I00
sg7
(I01
I01
tp3882
sba(iModules.cell
Cell
p3883
(dp3884
g4
I00
sg407
I00
sg7
(I01
I01
tp3885
sba(iModules.cell
Cell
p3886
(dp3887
g4
I00
sg407
I00
sg7
(I01
I01
tp3888
sba(iModules.cell
Cell
p3889
(dp3890
g4
I00
sg407
I00
sg7
(I00
I00
tp3891
sba(iModules.cell
Cell
p3892
(dp3893
g4
I00
sg6
I00
sg7
(I00
I00
tp3894
sba(iModules.cell
Cell
p3895
(dp3896
g4
I00
sg6
I00
sg7
(I00
I00
tp3897
sba(iModules.cell
Cell
p3898
(dp3899
g4
I00
sg6
I00
sg7
(I00
I00
tp3900
sba(iModules.cell
Cell
p3901
(dp3902
g4
I00
sg6
I00
sg7
(I00
I00
tp3903
sba(iModules.cell
Cell
p3904
(dp3905
g4
I00
sg6
I00
sg7
(I00
I00
tp3906
sba(iModules.cell
Cell
p3907
(dp3908
g4
I00
sg6
I00
sg7
(I00
I00
tp3909
sba(iModules.cell
Cell
p3910
(dp3911
g4
I00
sg6
I00
sg7
(I00
I00
tp3912
sba(iModules.cell
Cell
p3913
(dp3914
g4
I00
sg6
I00
sg7
(I00
I00
tp3915
sba(iModules.cell
Cell
p3916
(dp3917
g4
I00
sg6
I00
sg7
(I00
I00
tp3918
sba(iModules.cell
Cell
p3919
(dp3920
g4
I00
sg6
I00
sg7
(I00
I00
tp3921
sba(iModules.cell
Cell
p3922
(dp3923
g4
I00
sg6
I00
sg7
(I00
I00
tp3924
sba(iModules.cell
Cell
p3925
(dp3926
g4
I00
sg6
I00
sg7
(I00
I00
tp3927
sba(iModules.cell
Cell
p3928
(dp3929
g4
I00
sg6
I00
sg7
(I00
I00
tp3930
sba(iModules.cell
Cell
p3931
(dp3932
g4
I00
sg6
I00
sg7
(I00
I00
tp3933
sba(iModules.cell
Cell
p3934
(dp3935
g4
I00
sg6
I00
sg7
(I00
I00
tp3936
sba(iModules.cell
Cell
p3937
(dp3938
g4
I00
sg6
I00
sg7
(I00
I00
tp3939
sba(iModules.cell
Cell
p3940
(dp3941
g4
I00
sg6
I00
sg7
(I00
I00
tp3942
sba(iModules.cell
Cell
p3943
(dp3944
g4
I00
sg6
I00
sg7
(I00
I00
tp3945
sba(iModules.cell
Cell
p3946
(dp3947
g7
(I00
I00
tp3948
sbaa(lp3949
(iModules.cell
Cell
p3950
(dp3951
g4
I00
sg6
I00
sg7
(I00
I00
tp3952
sba(iModules.cell
Cell
p3953
(dp3954
g4
I00
sg300
I00
sg7
(I00
I00
tp3955
sba(iModules.cell
Cell
p3956
(dp3957
g4
I00
sg300
I00
sg7
(I01
I01
tp3958
sba(iModules.cell
Cell
p3959
(dp3960
g4
I00
sg300
I00
sg7
(I01
I01
tp3961
sba(iModules.cell
Cell
p3962
(dp3963
g4
I00
sg300
I00
sg7
(I01
I01
tp3964
sba(iModules.cell
Cell
p3965
(dp3966
g4
I00
sg300
I00
sg7
(I01
I01
tp3967
sba(iModules.cell
Cell
p3968
(dp3969
g4
I00
sg300
I00
sg7
(I01
I01
tp3970
sba(iModules.cell
Cell
p3971
(dp3972
g4
I00
sg300
I00
sg7
(I01
I01
tp3973
sba(iModules.cell
Cell
p3974
(dp3975
g4
I00
sg300
I00
sg7
(I01
I01
tp3976
sba(iModules.cell
Cell
p3977
(dp3978
g4
I00
sg300
I00
sg7
(I01
I01
tp3979
sba(iModules.cell
Cell
p3980
(dp3981
g3244
I00
sg3245
I00
sg3246
(I00
I00
I00
tp3982
sba(iModules.cell
Cell
p3983
(dp3984
g3244
I00
sg3245
I00
sg3246
(I01
I01
tp3985
sba(iModules.cell
Cell
p3986
(dp3987
g3244
I00
sg3245
I00
sg3246
(I01
I01
tp3988
sba(iModules.cell
Cell
p3989
(dp3990
g3244
I00
sg3245
I00
sg3246
(I01
I01
tp3991
sba(iModules.cell
Cell
p3992
(dp3993
g3747
I00
sg3748
I00
sg3749
(I00
I00
I00
tp3994
sba(iModules.cell
Cell
p3995
(dp3996
g3747
I00
sg3748
I00
sg3749
(I01
I01
tp3997
sba(iModules.cell
Cell
p3998
(dp3999
g4
I00
sg300
I00
sg7
(I01
I01
tp4000
sba(iModules.cell
Cell
p4001
(dp4002
g4
I00
sg300
I00
sg7
(I01
I01
tp4003
sba(iModules.cell
Cell
p4004
(dp4005
g4
I00
sg300
I00
sg7
(I01
I01
tp4006
sba(iModules.cell
Cell
p4007
(dp4008
g4
I00
sg300
I00
sg7
(I00
I00
I00
tp4009
sba(iModules.cell
Mob
p4010
(dp4011
g2229
g2230
sg2231
I00
sg2232
(iModules.cell
Cell
p4012
(dp4013
g4
I00
sg300
I01
sg7
(I01
I01
tp4014
sbsg2238
g2239
sg6
I00
sba(iModules.cell
Cell
p4015
(dp4016
g4
I00
sg300
I00
sg7
(I00
I00
I00
tp4017
sba(iModules.cell
Cell
p4018
(dp4019
g4
I00
sg300
I00
sg7
(I01
I01
tp4020
sba(iModules.cell
Cell
p4021
(dp4022
g4
I00
sg300
I00
sg7
(I01
I01
tp4023
sba(iModules.cell
Cell
p4024
(dp4025
g4
I00
sg300
I00
sg7
(I01
I01
tp4026
sba(iModules.cell
Cell
p4027
(dp4028
g4
I00
sg300
I00
sg7
(I00
I00
I00
tp4029
sba(iModules.cell
Cell
p4030
(dp4031
g4
I00
sg300
I00
sg7
(I00
I00
I00
tp4032
sba(iModules.cell
Cell
p4033
(dp4034
g4
I00
sg300
I00
sg7
(I01
I01
tp4035
sba(iModules.cell
Cell
p4036
(dp4037
g4
I00
sg407
I00
sg7
(I01
I01
tp4038
sba(iModules.cell
Cell
p4039
(dp4040
g4
I00
sg407
I00
sg7
(I01
I01
tp4041
sba(iModules.cell
Cell
p4042
(dp4043
g4
I00
sg407
I00
sg7
(I01
I01
tp4044
sba(iModules.cell
Cell
p4045
(dp4046
g4
I00
sg407
I00
sg7
(I00
I00
I00
tp4047
sba(iModules.cell
Cell
p4048
(dp4049
g4
I00
sg407
I00
sg7
(I01
I01
tp4050
sba(iModules.cell
Cell
p4051
(dp4052
g4
I00
sg407
I00
sg7
(I00
I00
I00
tp4053
sba(iModules.cell
Cell
p4054
(dp4055
g4
I00
sg407
I00
sg7
(I01
I01
tp4056
sba(iModules.cell
Cell
p4057
(dp4058
g4
I00
sg407
I00
sg7
(I01
I01
tp4059
sba(iModules.cell
Cell
p4060
(dp4061
g4
I00
sg407
I00
sg7
(I01
I01
tp4062
sba(iModules.cell
Cell
p4063
(dp4064
g4
I00
sg407
I00
sg7
(I01
I01
tp4065
sba(iModules.cell
Cell
p4066
(dp4067
g4
I00
sg407
I00
sg7
(I01
I01
tp4068
sba(iModules.cell
Cell
p4069
(dp4070
g4
I00
sg407
I00
sg7
(I01
I01
tp4071
sba(iModules.cell
Cell
p4072
(dp4073
g4
I00
sg407
I00
sg7
(I01
I01
tp4074
sba(iModules.cell
Cell
p4075
(dp4076
g4
I00
sg407
I00
sg7
(I01
I01
tp4077
sba(iModules.cell
Cell
p4078
(dp4079
g4
I00
sg407
I00
sg7
(I01
I01
tp4080
sba(iModules.cell
Cell
p4081
(dp4082
g4
I00
sg407
I00
sg7
(I01
I01
tp4083
sba(iModules.cell
Cell
p4084
(dp4085
g4
I00
sg407
I00
sg7
(I01
I01
tp4086
sba(iModules.cell
Cell
p4087
(dp4088
g4
I00
sg407
I00
sg7
(I01
I01
tp4089
sba(iModules.cell
Cell
p4090
(dp4091
g4
I00
sg407
I00
sg7
(I01
I01
tp4092
sba(iModules.cell
Cell
p4093
(dp4094
g4
I00
sg407
I00
sg7
(I01
I01
tp4095
sba(iModules.cell
Cell
p4096
(dp4097
g4
I00
sg407
I00
sg7
(I01
I01
tp4098
sba(iModules.cell
Cell
p4099
(dp4100
g4
I00
sg407
I00
sg7
(I01
I01
tp4101
sba(iModules.cell
Cell
p4102
(dp4103
g4
I00
sg407
I00
sg7
(I01
I01
tp4104
sba(iModules.cell
Cell
p4105
(dp4106
g4
I00
sg407
I00
sg7
(I01
I01
tp4107
sba(iModules.cell
Cell
p4108
(dp4109
g4
I00
sg407
I00
sg7
(I01
I01
tp4110
sba(iModules.cell
Cell
p4111
(dp4112
g4
I00
sg407
I00
sg7
(I01
I01
tp4113
sba(iModules.cell
Cell
p4114
(dp4115
g4
I00
sg407
I00
sg7
(I01
I01
tp4116
sba(iModules.cell
Cell
p4117
(dp4118
g4
I00
sg407
I00
sg7
(I01
I01
tp4119
sba(iModules.cell
Cell
p4120
(dp4121
g4
I00
sg407
I00
sg7
(I01
I01
tp4122
sba(iModules.cell
Cell
p4123
(dp4124
g4
I00
sg407
I00
sg7
(I01
I01
tp4125
sba(iModules.cell
Cell
p4126
(dp4127
g4
I00
sg407
I00
sg7
(I01
I01
tp4128
sba(iModules.cell
Cell
p4129
(dp4130
g4
I00
sg407
I00
sg7
(I01
I01
tp4131
sba(iModules.cell
Cell
p4132
(dp4133
g4
I00
sg407
I00
sg7
(I01
I01
tp4134
sba(iModules.cell
Cell
p4135
(dp4136
g4
I00
sg407
I00
sg7
(I00
I00
tp4137
sba(iModules.cell
Cell
p4138
(dp4139
g4
I00
sg6
I00
sg7
(I00
I00
tp4140
sba(iModules.cell
Cell
p4141
(dp4142
g4
I00
sg6
I00
sg7
(I00
I00
tp4143
sba(iModules.cell
Cell
p4144
(dp4145
g4
I00
sg6
I00
sg7
(I00
I00
tp4146
sba(iModules.cell
Cell
p4147
(dp4148
g4
I00
sg6
I00
sg7
(I00
I00
tp4149
sba(iModules.cell
Cell
p4150
(dp4151
g4
I00
sg6
I00
sg7
(I00
I00
tp4152
sba(iModules.cell
Cell
p4153
(dp4154
g4
I00
sg6
I00
sg7
(I00
I00
tp4155
sba(iModules.cell
Cell
p4156
(dp4157
g4
I00
sg6
I00
sg7
(I00
I00
tp4158
sba(iModules.cell
Cell
p4159
(dp4160
g4
I00
sg6
I00
sg7
(I00
I00
tp4161
sba(iModules.cell
Cell
p4162
(dp4163
g4
I00
sg6
I00
sg7
(I00
I00
tp4164
sba(iModules.cell
Cell
p4165
(dp4166
g4
I00
sg6
I00
sg7
(I00
I00
tp4167
sba(iModules.cell
Cell
p4168
(dp4169
g4
I00
sg6
I00
sg7
(I00
I00
tp4170
sba(iModules.cell
Cell
p4171
(dp4172
g4
I00
sg6
I00
sg7
(I00
I00
tp4173
sba(iModules.cell
Cell
p4174
(dp4175
g4
I00
sg6
I00
sg7
(I00
I00
tp4176
sba(iModules.cell
Cell
p4177
(dp4178
g4
I00
sg6
I00
sg7
(I00
I00
tp4179
sba(iModules.cell
Cell
p4180
(dp4181
g4
I00
sg6
I00
sg7
(I00
I00
tp4182
sba(iModules.cell
Cell
p4183
(dp4184
g4
I00
sg6
I00
sg7
(I00
I00
tp4185
sba(iModules.cell
Cell
p4186
(dp4187
g4
I00
sg6
I00
sg7
(I00
I00
tp4188
sba(iModules.cell
Cell
p4189
(dp4190
g4
I00
sg6
I00
sg7
(I00
I00
tp4191
sba(iModules.cell
Cell
p4192
(dp4193
g7
(I00
I00
tp4194
sbaa(lp4195
(iModules.cell
Cell
p4196
(dp4197
g4
I00
sg6
I00
sg7
(I00
I00
tp4198
sba(iModules.cell
Cell
p4199
(dp4200
g4
I00
sg300
I00
sg7
(I00
I00
tp4201
sba(iModules.cell
Cell
p4202
(dp4203
g4
I00
sg300
I00
sg7
(I01
I01
tp4204
sba(iModules.cell
Cell
p4205
(dp4206
g4
I00
sg300
I00
sg7
(I01
I01
tp4207
sba(iModules.cell
Cell
p4208
(dp4209
g4
I00
sg300
I00
sg7
(I01
I01
tp4210
sba(iModules.cell
Cell
p4211
(dp4212
g4
I00
sg300
I00
sg7
(I01
I01
tp4213
sba(iModules.cell
Cell
p4214
(dp4215
g4
I00
sg300
I00
sg7
(I01
I01
tp4216
sba(iModules.cell
Cell
p4217
(dp4218
g4
I00
sg300
I00
sg7
(I01
I01
tp4219
sba(iModules.cell
Cell
p4220
(dp4221
g4
I00
sg300
I00
sg7
(I01
I01
tp4222
sba(iModules.cell
Cell
p4223
(dp4224
g4
I00
sg300
I00
sg7
(I01
I01
tp4225
sba(iModules.cell
Cell
p4226
(dp4227
g3244
I00
sg3245
I00
sg3246
(I00
I00
I00
tp4228
sba(iModules.cell
Cell
p4229
(dp4230
g3244
I00
sg3245
I00
sg3246
(I01
I01
tp4231
sba(iModules.cell
Cell
p4232
(dp4233
g4
I00
sg300
I00
sg7
(I01
I01
tp4234
sba(iModules.cell
Cell
p4235
(dp4236
g3244
I00
sg3245
I00
sg3246
(I01
I01
tp4237
sba(iModules.cell
Cell
p4238
(dp4239
g4
I00
sg300
I00
sg7
(I00
I00
I00
tp4240
sba(iModules.cell
Cell
p4241
(dp4242
g4
I00
sg300
I00
sg7
(I01
I01
tp4243
sba(iModules.cell
Cell
p4244
(dp4245
g4
I00
sg300
I00
sg7
(I01
I01
tp4246
sba(iModules.cell
Cell
p4247
(dp4248
g4
I00
sg300
I00
sg7
(I01
I01
tp4249
sba(iModules.cell
Cell
p4250
(dp4251
g4
I00
sg300
I00
sg7
(I01
I01
tp4252
sba(iModules.cell
Cell
p4253
(dp4254
g4
I00
sg300
I00
sg7
(I00
I00
I00
tp4255
sba(iModules.cell
Cell
p4256
(dp4257
g4
I00
sg300
I00
sg7
(I00
I00
I00
tp4258
sba(iModules.cell
Cell
p4259
(dp4260
g4
I00
sg300
I00
sg7
(I00
I00
I00
tp4261
sba(iModules.cell
Cell
p4262
(dp4263
g4
I00
sg300
I00
sg7
(I01
I01
tp4264
sba(iModules.cell
Cell
p4265
(dp4266
g4
I00
sg300
I00
sg7
(I00
I00
I00
tp4267
sba(iModules.cell
Cell
p4268
(dp4269
g4
I00
sg300
I00
sg7
(I00
I00
I00
tp4270
sba(iModules.cell
Cell
p4271
(dp4272
g4
I00
sg300
I00
sg7
(I00
I00
I00
tp4273
sba(iModules.cell
Cell
p4274
(dp4275
g4
I00
sg300
I00
sg7
(I00
I00
I00
tp4276
sba(iModules.cell
Cell
p4277
(dp4278
g4
I00
sS'explored'
p4279
I00
sg7
(I01
I01
tp4280
sba(iModules.cell
Cell
p4281
(dp4282
g4
I00
sg407
I00
sg7
(I01
I01
tp4283
sba(iModules.cell
Cell
p4284
(dp4285
g4
I00
sg407
I00
sg7
(I01
I01
tp4286
sba(iModules.cell
Cell
p4287
(dp4288
g4
I00
sg407
I00
sg7
(I00
I00
I00
tp4289
sba(iModules.cell
Cell
p4290
(dp4291
g4
I00
sg407
I00
sg7
(I00
I00
I00
tp4292
sba(iModules.cell
Cell
p4293
(dp4294
g4
I00
sg407
I00
sg7
(I01
I01
tp4295
sba(iModules.cell
Cell
p4296
(dp4297
g4
I00
sg407
I00
sg7
(I00
I00
I00
tp4298
sba(iModules.cell
Cell
p4299
(dp4300
g4
I00
sg407
I00
sg7
(I01
I01
tp4301
sba(iModules.cell
Cell
p4302
(dp4303
g4
I00
sg407
I00
sg7
(I01
I01
tp4304
sba(iModules.cell
Cell
p4305
(dp4306
g4
I00
sg407
I00
sg7
(I01
I01
tp4307
sba(iModules.cell
Cell
p4308
(dp4309
g4
I00
sg407
I00
sg7
(I01
I01
tp4310
sba(iModules.cell
Cell
p4311
(dp4312
g4
I00
sg407
I00
sg7
(I01
I01
tp4313
sba(iModules.cell
Cell
p4314
(dp4315
g4
I00
sg407
I00
sg7
(I01
I01
tp4316
sba(iModules.cell
Cell
p4317
(dp4318
g4
I00
sg407
I00
sg7
(I01
I01
tp4319
sba(iModules.cell
Cell
p4320
(dp4321
g4
I00
sg407
I00
sg7
(I01
I01
tp4322
sba(iModules.cell
Cell
p4323
(dp4324
g4
I00
sg407
I00
sg7
(I01
I01
tp4325
sba(iModules.cell
Cell
p4326
(dp4327
g4
I00
sg407
I00
sg7
(I01
I01
tp4328
sba(iModules.cell
Cell
p4329
(dp4330
g4
I00
sg407
I00
sg7
(I01
I01
tp4331
sba(iModules.cell
Cell
p4332
(dp4333
g4
I00
sg407
I00
sg7
(I01
I01
tp4334
sba(iModules.cell
Cell
p4335
(dp4336
g4
I00
sg407
I00
sg7
(I01
I01
tp4337
sba(iModules.cell
Cell
p4338
(dp4339
g4
I00
sg407
I00
sg7
(I01
I01
tp4340
sba(iModules.cell
Cell
p4341
(dp4342
g4
I00
sg407
I00
sg7
(I01
I01
tp4343
sba(iModules.cell
Cell
p4344
(dp4345
g4
I00
sg407
I00
sg7
(I01
I01
tp4346
sba(iModules.cell
Cell
p4347
(dp4348
g4
I00
sg407
I00
sg7
(I01
I01
tp4349
sba(iModules.cell
Cell
p4350
(dp4351
g4
I00
sg407
I00
sg7
(I01
I01
tp4352
sba(iModules.cell
Cell
p4353
(dp4354
g4
I00
sg407
I00
sg7
(I01
I01
tp4355
sba(iModules.cell
Cell
p4356
(dp4357
g4
I00
sg407
I00
sg7
(I01
I01
tp4358
sba(iModules.cell
Cell
p4359
(dp4360
g4
I00
sg407
I00
sg7
(I01
I01
tp4361
sba(iModules.cell
Cell
p4362
(dp4363
g4
I00
sg407
I00
sg7
(I01
I01
tp4364
sba(iModules.cell
Cell
p4365
(dp4366
g4
I00
sg407
I00
sg7
(I01
I01
tp4367
sba(iModules.cell
Cell
p4368
(dp4369
g4
I00
sg407
I00
sg7
(I01
I01
tp4370
sba(iModules.cell
Cell
p4371
(dp4372
g4
I00
sg407
I00
sg7
(I01
I01
tp4373
sba(iModules.cell
Cell
p4374
(dp4375
g4
I00
sg407
I00
sg7
(I01
I01
tp4376
sba(iModules.cell
Cell
p4377
(dp4378
g4
I00
sg407
I00
sg7
(I01
I01
tp4379
sba(iModules.cell
Cell
p4380
(dp4381
g4
I00
sg407
I00
sg7
(I00
I00
tp4382
sba(iModules.cell
Cell
p4383
(dp4384
g4
I00
sg6
I00
sg7
(I00
I00
tp4385
sba(iModules.cell
Cell
p4386
(dp4387
g4
I00
sg6
I00
sg7
(I00
I00
tp4388
sba(iModules.cell
Cell
p4389
(dp4390
g4
I00
sg6
I00
sg7
(I00
I00
tp4391
sba(iModules.cell
Cell
p4392
(dp4393
g4
I00
sg6
I00
sg7
(I00
I00
tp4394
sba(iModules.cell
Cell
p4395
(dp4396
g4
I00
sg6
I00
sg7
(I00
I00
tp4397
sba(iModules.cell
Cell
p4398
(dp4399
g4
I00
sg6
I00
sg7
(I00
I00
tp4400
sba(iModules.cell
Cell
p4401
(dp4402
g4
I00
sg6
I00
sg7
(I00
I00
tp4403
sba(iModules.cell
Cell
p4404
(dp4405
g4
I00
sg6
I00
sg7
(I00
I00
tp4406
sba(iModules.cell
Cell
p4407
(dp4408
g4
I00
sg6
I00
sg7
(I00
I00
tp4409
sba(iModules.cell
Cell
p4410
(dp4411
g4
I00
sg6
I00
sg7
(I00
I00
tp4412
sba(iModules.cell
Cell
p4413
(dp4414
g4
I00
sg6
I00
sg7
(I00
I00
tp4415
sba(iModules.cell
Cell
p4416
(dp4417
g4
I00
sg6
I00
sg7
(I00
I00
tp4418
sba(iModules.cell
Cell
p4419
(dp4420
g4
I00
sg6
I00
sg7
(I00
I00
tp4421
sba(iModules.cell
Cell
p4422
(dp4423
g4
I00
sg6
I00
sg7
(I00
I00
tp4424
sba(iModules.cell
Cell
p4425
(dp4426
g4
I00
sg6
I00
sg7
(I00
I00
tp4427
sba(iModules.cell
Cell
p4428
(dp4429
g4
I00
sg6
I00
sg7
(I00
I00
tp4430
sba(iModules.cell
Cell
p4431
(dp4432
g4
I00
sg6
I00
sg7
(I00
I00
tp4433
sba(iModules.cell
Cell
p4434
(dp4435
g4
I00
sg6
I00
sg7
(I00
I00
tp4436
sba(iModules.cell
Cell
p4437
(dp4438
g7
(I00
I00
tp4439
sbaa(lp4440
(iModules.cell
Cell
p4441
(dp4442
g4
I00
sg6
I00
sg7
(I00
I00
tp4443
sba(iModules.cell
Cell
p4444
(dp4445
g4
I00
sg300
I00
sg7
(I00
I00
tp4446
sba(iModules.cell
Cell
p4447
(dp4448
g4
I00
sg300
I00
sg7
(I01
I01
tp4449
sba(iModules.cell
Cell
p4450
(dp4451
g4
I00
sg300
I00
sg7
(I01
I01
tp4452
sba(iModules.cell
Cell
p4453
(dp4454
g4
I00
sg300
I00
sg7
(I01
I01
tp4455
sba(iModules.cell
Cell
p4456
(dp4457
g4
I00
sg300
I00
sg7
(I01
I01
tp4458
sba(iModules.cell
Cell
p4459
(dp4460
g4
I00
sg300
I00
sg7
(I01
I01
tp4461
sba(iModules.cell
Cell
p4462
(dp4463
g4
I00
sg300
I00
sg7
(I01
I01
tp4464
sba(iModules.cell
Cell
p4465
(dp4466
g4
I00
sg300
I00
sg7
(I01
I01
tp4467
sba(iModules.cell
Cell
p4468
(dp4469
g3244
I00
sg3245
I00
sg3246
(I01
I01
tp4470
sba(iModules.cell
Cell
p4471
(dp4472
g3244
I00
sg3245
I00
sg3246
(I00
I00
I00
tp4473
sba(iModules.cell
Cell
p4474
(dp4475
g3244
I00
sg3245
I00
sg3246
(I00
I00
I00
tp4476
sba(iModules.cell
Cell
p4477
(dp4478
g3244
I00
sg3245
I00
sg3246
(I00
I00
I00
tp4479
sba(iModules.cell
Cell
p4480
(dp4481
g3244
I00
sg3245
I00
sg3246
(I00
I00
I00
tp4482
sba(iModules.cell
Cell
p4483
(dp4484
g4
I00
sg300
I00
sg7
(I00
I00
I00
tp4485
sba(iModules.cell
Cell
p4486
(dp4487
g4
I00
sg300
I00
sg7
(I01
I01
tp4488
sba(iModules.cell
Cell
p4489
(dp4490
g4
I00
sg300
I00
sg7
(I01
I01
tp4491
sba(iModules.cell
Cell
p4492
(dp4493
g4
I00
sg300
I00
sg7
(I01
I01
tp4494
sba(iModules.cell
Cell
p4495
(dp4496
g4
I00
sg300
I00
sg7
(I01
I01
tp4497
sba(iModules.cell
Cell
p4498
(dp4499
g4
I00
sg300
I00
sg7
(I01
I01
tp4500
sba(iModules.cell
Cell
p4501
(dp4502
g4
I00
sg300
I00
sg7
(I00
I00
I00
tp4503
sba(iModules.cell
Cell
p4504
(dp4505
g4
I00
sg300
I00
sg7
(I01
I01
tp4506
sba(iModules.cell
Cell
p4507
(dp4508
g4
I00
sg300
I00
sg7
(I01
I01
tp4509
sba(iModules.cell
Cell
p4510
(dp4511
g4
I00
sg300
I00
sg7
(I00
I00
I00
tp4512
sba(iModules.cell
Cell
p4513
(dp4514
g4
I00
sg300
I00
sg7
(I01
I01
tp4515
sba(iModules.cell
Cell
p4516
(dp4517
g4
I00
sg300
I00
sg7
(I01
I01
tp4518
sba(iModules.cell
Cell
p4519
(dp4520
g4
I00
sg4279
I00
sg7
(I01
I01
tp4521
sba(iModules.cell
Cell
p4522
(dp4523
g3524
I00
sg3525
I00
sg3526
(I01
I01
tp4524
sba(iModules.cell
Cell
p4525
(dp4526
g4
I00
sg407
I00
sg7
(I01
I01
tp4527
sba(iModules.cell
Cell
p4528
(dp4529
g4
I00
sg407
I00
sg7
(I01
I01
tp4530
sba(iModules.cell
Cell
p4531
(dp4532
g4
I00
sg407
I00
sg7
(I00
I00
I00
tp4533
sba(iModules.cell
Cell
p4534
(dp4535
g4
I00
sg407
I00
sg7
(I01
I01
tp4536
sba(iModules.cell
Cell
p4537
(dp4538
g4
I00
sg407
I00
sg7
(I00
I00
I00
tp4539
sba(iModules.cell
Cell
p4540
(dp4541
g4
I00
sg407
I00
sg7
(I00
I00
I00
tp4542
sba(iModules.cell
Cell
p4543
(dp4544
g4
I00
sg407
I00
sg7
(I01
I01
tp4545
sba(iModules.cell
Cell
p4546
(dp4547
g4
I00
sg407
I00
sg7
(I01
I01
tp4548
sba(iModules.cell
Cell
p4549
(dp4550
g4
I00
sg407
I00
sg7
(I01
I01
tp4551
sba(iModules.cell
Cell
p4552
(dp4553
g4
I00
sg407
I00
sg7
(I01
I01
tp4554
sba(iModules.cell
Cell
p4555
(dp4556
g4
I00
sg407
I00
sg7
(I01
I01
tp4557
sba(iModules.cell
Cell
p4558
(dp4559
g4
I00
sg407
I00
sg7
(I01
I01
tp4560
sba(iModules.cell
Cell
p4561
(dp4562
g4
I00
sg407
I00
sg7
(I01
I01
tp4563
sba(iModules.cell
Cell
p4564
(dp4565
g4
I00
sg407
I00
sg7
(I01
I01
tp4566
sba(iModules.cell
Cell
p4567
(dp4568
g4
I00
sg407
I00
sg7
(I01
I01
tp4569
sba(iModules.cell
Cell
p4570
(dp4571
g4
I00
sg407
I00
sg7
(I01
I01
tp4572
sba(iModules.cell
Cell
p4573
(dp4574
g4
I00
sg407
I00
sg7
(I01
I01
tp4575
sba(iModules.cell
Cell
p4576
(dp4577
g4
I00
sg407
I00
sg7
(I01
I01
tp4578
sba(iModules.cell
Cell
p4579
(dp4580
g4
I00
sg407
I00
sg7
(I01
I01
tp4581
sba(iModules.cell
Cell
p4582
(dp4583
g4
I00
sg407
I00
sg7
(I01
I01
tp4584
sba(iModules.cell
Cell
p4585
(dp4586
g4
I00
sg407
I00
sg7
(I01
I01
tp4587
sba(iModules.cell
Cell
p4588
(dp4589
g4
I00
sg407
I00
sg7
(I01
I01
tp4590
sba(iModules.cell
Cell
p4591
(dp4592
g4
I00
sg407
I00
sg7
(I01
I01
tp4593
sba(iModules.cell
Cell
p4594
(dp4595
g4
I00
sg407
I00
sg7
(I01
I01
tp4596
sba(iModules.cell
Cell
p4597
(dp4598
g4
I00
sg407
I00
sg7
(I01
I01
tp4599
sba(iModules.cell
Cell
p4600
(dp4601
g4
I00
sg407
I00
sg7
(I01
I01
tp4602
sba(iModules.cell
Cell
p4603
(dp4604
g4
I00
sg407
I00
sg7
(I01
I01
tp4605
sba(iModules.cell
Cell
p4606
(dp4607
g4
I00
sg407
I00
sg7
(I01
I01
tp4608
sba(iModules.cell
Cell
p4609
(dp4610
g4
I00
sg407
I00
sg7
(I01
I01
tp4611
sba(iModules.cell
Cell
p4612
(dp4613
g4
I00
sg407
I00
sg7
(I01
I01
tp4614
sba(iModules.cell
Cell
p4615
(dp4616
g4
I00
sg407
I00
sg7
(I01
I01
tp4617
sba(iModules.cell
Cell
p4618
(dp4619
g4
I00
sg407
I00
sg7
(I01
I01
tp4620
sba(iModules.cell
Cell
p4621
(dp4622
g4
I00
sg407
I00
sg7
(I01
I01
tp4623
sba(iModules.cell
Cell
p4624
(dp4625
g4
I00
sg407
I00
sg7
(I00
I00
tp4626
sba(iModules.cell
Cell
p4627
(dp4628
g4
I00
sg6
I00
sg7
(I00
I00
tp4629
sba(iModules.cell
Cell
p4630
(dp4631
g4
I00
sg6
I00
sg7
(I00
I00
tp4632
sba(iModules.cell
Cell
p4633
(dp4634
g4
I00
sg6
I00
sg7
(I00
I00
tp4635
sba(iModules.cell
Cell
p4636
(dp4637
g4
I00
sg6
I00
sg7
(I00
I00
tp4638
sba(iModules.cell
Cell
p4639
(dp4640
g4
I00
sg6
I00
sg7
(I00
I00
tp4641
sba(iModules.cell
Cell
p4642
(dp4643
g4
I00
sg6
I00
sg7
(I00
I00
tp4644
sba(iModules.cell
Cell
p4645
(dp4646
g4
I00
sg6
I00
sg7
(I00
I00
tp4647
sba(iModules.cell
Cell
p4648
(dp4649
g4
I00
sg6
I00
sg7
(I00
I00
tp4650
sba(iModules.cell
Cell
p4651
(dp4652
g4
I00
sg6
I00
sg7
(I00
I00
tp4653
sba(iModules.cell
Cell
p4654
(dp4655
g4
I00
sg6
I00
sg7
(I00
I00
tp4656
sba(iModules.cell
Cell
p4657
(dp4658
g4
I00
sg6
I00
sg7
(I00
I00
tp4659
sba(iModules.cell
Cell
p4660
(dp4661
g4
I00
sg6
I00
sg7
(I00
I00
tp4662
sba(iModules.cell
Cell
p4663
(dp4664
g4
I00
sg6
I00
sg7
(I00
I00
tp4665
sba(iModules.cell
Cell
p4666
(dp4667
g4
I00
sg6
I00
sg7
(I00
I00
tp4668
sba(iModules.cell
Cell
p4669
(dp4670
g4
I00
sg6
I00
sg7
(I00
I00
tp4671
sba(iModules.cell
Cell
p4672
(dp4673
g4
I00
sg6
I00
sg7
(I00
I00
tp4674
sba(iModules.cell
Cell
p4675
(dp4676
g4
I00
sg6
I00
sg7
(I00
I00
tp4677
sba(iModules.cell
Cell
p4678
(dp4679
g4
I00
sg6
I00
sg7
(I00
I00
tp4680
sba(iModules.cell
Cell
p4681
(dp4682
g7
(I00
I00
tp4683
sbaa(lp4684
(iModules.cell
Cell
p4685
(dp4686
g4
I00
sg6
I00
sg7
(I00
I00
tp4687
sba(iModules.cell
Cell
p4688
(dp4689
g4
I00
sg300
I00
sg7
(I00
I00
tp4690
sba(iModules.cell
Cell
p4691
(dp4692
g4
I00
sg300
I00
sg7
(I01
I01
tp4693
sba(iModules.cell
Cell
p4694
(dp4695
g4
I00
sg300
I00
sg7
(I01
I01
tp4696
sba(iModules.cell
Cell
p4697
(dp4698
g4
I00
sg300
I00
sg7
(I01
I01
tp4699
sba(iModules.cell
Cell
p4700
(dp4701
g4
I00
sg300
I00
sg7
(I01
I01
tp4702
sba(iModules.cell
Cell
p4703
(dp4704
g4
I00
sg300
I00
sg7
(I01
I01
tp4705
sba(iModules.cell
Cell
p4706
(dp4707
g4
I00
sg300
I00
sg7
(I01
I01
tp4708
sba(iModules.cell
Cell
p4709
(dp4710
g4
I00
sg300
I00
sg7
(I01
I01
tp4711
sba(iModules.cell
Cell
p4712
(dp4713
g4
I00
sg300
I00
sg7
(I01
I01
tp4714
sba(iModules.cell
Cell
p4715
(dp4716
g3244
I00
sg3245
I00
sg3246
(I01
I01
tp4717
sba(iModules.cell
Cell
p4718
(dp4719
g4
I00
sg300
I00
sg7
(I01
I01
tp4720
sba(iModules.cell
Cell
p4721
(dp4722
g4
I00
sg300
I00
sg7
(I01
I01
tp4723
sba(iModules.cell
Cell
p4724
(dp4725
g4
I00
sg300
I00
sg7
(I01
I01
tp4726
sba(iModules.cell
Cell
p4727
(dp4728
g4
I00
sg300
I00
sg7
(I01
I01
tp4729
sba(iModules.cell
Cell
p4730
(dp4731
g4
I00
sg300
I00
sg7
(I01
I01
tp4732
sba(iModules.cell
Cell
p4733
(dp4734
g4
I00
sg300
I00
sg7
(I01
I01
tp4735
sba(iModules.cell
Cell
p4736
(dp4737
g4
I00
sg300
I00
sg7
(I01
I01
tp4738
sba(iModules.cell
Cell
p4739
(dp4740
g4
I00
sg300
I00
sg7
(I01
I01
tp4741
sba(iModules.cell
Cell
p4742
(dp4743
g4
I00
sg300
I00
sg7
(I01
I01
tp4744
sba(iModules.cell
Cell
p4745
(dp4746
g4
I00
sg300
I00
sg7
(I00
I00
I00
tp4747
sba(iModules.cell
Cell
p4748
(dp4749
g4
I00
sg300
I00
sg7
(I01
I01
tp4750
sba(iModules.cell
Cell
p4751
(dp4752
g4
I00
sg300
I00
sg7
(I01
I01
tp4753
sba(iModules.cell
Cell
p4754
(dp4755
g4
I00
sg300
I00
sg7
(I00
I00
I00
tp4756
sba(iModules.cell
Cell
p4757
(dp4758
g4
I00
sg300
I00
sg7
(I01
I01
tp4759
sba(iModules.cell
Cell
p4760
(dp4761
g4
I00
sg3748
I00
sg7
(I01
I01
tp4762
sba(iModules.cell
Cell
p4763
(dp4764
g4
I00
sg4279
I00
sg7
(I01
I01
tp4765
sba(iModules.cell
Cell
p4766
(dp4767
g4
I00
sg4279
I00
sg7
(I00
I00
I00
tp4768
sba(iModules.cell
Cell
p4769
(dp4770
g4
I00
sg407
I00
sg7
(I00
I00
I00
tp4771
sba(iModules.cell
Cell
p4772
(dp4773
g4
I00
sg407
I00
sg7
(I00
I00
I00
tp4774
sba(iModules.cell
Cell
p4775
(dp4776
g4
I00
sg407
I00
sg7
(I00
I00
I00
tp4777
sba(iModules.cell
Cell
p4778
(dp4779
g4
I00
sg407
I00
sg7
(I01
I01
tp4780
sba(iModules.cell
Cell
p4781
(dp4782
g4
I00
sg407
I00
sg7
(I00
I00
I00
tp4783
sba(iModules.cell
Cell
p4784
(dp4785
g4
I00
sg407
I00
sg7
(I01
I01
tp4786
sba(iModules.cell
Cell
p4787
(dp4788
g4
I00
sg407
I00
sg7
(I01
I01
tp4789
sba(iModules.cell
Cell
p4790
(dp4791
g4
I00
sg407
I00
sg7
(I01
I01
tp4792
sba(iModules.cell
Cell
p4793
(dp4794
g4
I00
sg407
I00
sg7
(I01
I01
tp4795
sba(iModules.cell
Cell
p4796
(dp4797
g4
I00
sg407
I00
sg7
(I01
I01
tp4798
sba(iModules.cell
Cell
p4799
(dp4800
g4
I00
sg407
I00
sg7
(I01
I01
tp4801
sba(iModules.cell
Cell
p4802
(dp4803
g4
I00
sg407
I00
sg7
(I01
I01
tp4804
sba(iModules.cell
Cell
p4805
(dp4806
g4
I00
sg407
I00
sg7
(I01
I01
tp4807
sba(iModules.cell
Cell
p4808
(dp4809
g4
I00
sg407
I00
sg7
(I01
I01
tp4810
sba(iModules.cell
Cell
p4811
(dp4812
g4
I00
sg407
I00
sg7
(I01
I01
tp4813
sba(iModules.cell
Cell
p4814
(dp4815
g4
I00
sg407
I00
sg7
(I01
I01
tp4816
sba(iModules.cell
Cell
p4817
(dp4818
g4
I00
sg407
I00
sg7
(I01
I01
tp4819
sba(iModules.cell
Cell
p4820
(dp4821
g4
I00
sg407
I00
sg7
(I01
I01
tp4822
sba(iModules.cell
Cell
p4823
(dp4824
g4
I00
sg407
I00
sg7
(I01
I01
tp4825
sba(iModules.cell
Cell
p4826
(dp4827
g4
I00
sg407
I00
sg7
(I01
I01
tp4828
sba(iModules.cell
Cell
p4829
(dp4830
g4
I00
sg407
I00
sg7
(I01
I01
tp4831
sba(iModules.cell
Cell
p4832
(dp4833
g4
I00
sg407
I00
sg7
(I01
I01
tp4834
sba(iModules.cell
Cell
p4835
(dp4836
g4
I00
sg407
I00
sg7
(I01
I01
tp4837
sba(iModules.cell
Cell
p4838
(dp4839
g4
I00
sg407
I00
sg7
(I01
I01
tp4840
sba(iModules.cell
Cell
p4841
(dp4842
g4
I00
sg407
I00
sg7
(I01
I01
tp4843
sba(iModules.cell
Cell
p4844
(dp4845
g4
I00
sg407
I00
sg7
(I01
I01
tp4846
sba(iModules.cell
Cell
p4847
(dp4848
g4
I00
sg407
I00
sg7
(I01
I01
tp4849
sba(iModules.cell
Cell
p4850
(dp4851
g4
I00
sg407
I00
sg7
(I01
I01
tp4852
sba(iModules.cell
Cell
p4853
(dp4854
g4
I00
sg407
I00
sg7
(I01
I01
tp4855
sba(iModules.cell
Cell
p4856
(dp4857
g4
I00
sg407
I00
sg7
(I01
I01
tp4858
sba(iModules.cell
Cell
p4859
(dp4860
g4
I00
sg407
I00
sg7
(I01
I01
tp4861
sba(iModules.cell
Cell
p4862
(dp4863
g4
I00
sg407
I00
sg7
(I01
I01
tp4864
sba(iModules.cell
Cell
p4865
(dp4866
g4
I00
sg407
I00
sg7
(I01
I01
tp4867
sba(iModules.cell
Cell
p4868
(dp4869
g4
I00
sg407
I00
sg7
(I00
I00
tp4870
sba(iModules.cell
Cell
p4871
(dp4872
g4
I00
sg6
I00
sg7
(I00
I00
tp4873
sba(iModules.cell
Cell
p4874
(dp4875
g4
I00
sg6
I00
sg7
(I00
I00
tp4876
sba(iModules.cell
Cell
p4877
(dp4878
g4
I00
sg6
I00
sg7
(I00
I00
tp4879
sba(iModules.cell
Cell
p4880
(dp4881
g4
I00
sg6
I00
sg7
(I00
I00
tp4882
sba(iModules.cell
Cell
p4883
(dp4884
g4
I00
sg6
I00
sg7
(I00
I00
tp4885
sba(iModules.cell
Cell
p4886
(dp4887
g4
I00
sg6
I00
sg7
(I00
I00
tp4888
sba(iModules.cell
Cell
p4889
(dp4890
g4
I00
sg6
I00
sg7
(I00
I00
tp4891
sba(iModules.cell
Cell
p4892
(dp4893
g4
I00
sg6
I00
sg7
(I00
I00
tp4894
sba(iModules.cell
Cell
p4895
(dp4896
g4
I00
sg6
I00
sg7
(I00
I00
tp4897
sba(iModules.cell
Cell
p4898
(dp4899
g4
I00
sg6
I00
sg7
(I00
I00
tp4900
sba(iModules.cell
Cell
p4901
(dp4902
g4
I00
sg6
I00
sg7
(I00
I00
tp4903
sba(iModules.cell
Cell
p4904
(dp4905
g4
I00
sg6
I00
sg7
(I00
I00
tp4906
sba(iModules.cell
Cell
p4907
(dp4908
g4
I00
sg6
I00
sg7
(I00
I00
tp4909
sba(iModules.cell
Cell
p4910
(dp4911
g4
I00
sg6
I00
sg7
(I00
I00
tp4912
sba(iModules.cell
Cell
p4913
(dp4914
g4
I00
sg6
I00
sg7
(I00
I00
tp4915
sba(iModules.cell
Cell
p4916
(dp4917
g4
I00
sg6
I00
sg7
(I00
I00
tp4918
sba(iModules.cell
Cell
p4919
(dp4920
g4
I00
sg6
I00
sg7
(I00
I00
tp4921
sba(iModules.cell
Cell
p4922
(dp4923
g4
I00
sg6
I00
sg7
(I00
I00
tp4924
sba(iModules.cell
Cell
p4925
(dp4926
g7
(I00
I00
tp4927
sbaa(lp4928
(iModules.cell
Cell
p4929
(dp4930
g4
I00
sg6
I00
sg7
(I00
I00
tp4931
sba(iModules.cell
Cell
p4932
(dp4933
g4
I00
sg300
I00
sg7
(I00
I00
tp4934
sba(iModules.cell
Cell
p4935
(dp4936
g4
I00
sg300
I00
sg7
(I01
I01
tp4937
sba(iModules.cell
Cell
p4938
(dp4939
g4
I00
sg300
I00
sg7
(I01
I01
tp4940
sba(iModules.cell
Cell
p4941
(dp4942
g4
I00
sg300
I00
sg7
(I01
I01
tp4943
sba(iModules.cell
Cell
p4944
(dp4945
g4
I00
sg300
I00
sg7
(I01
I01
tp4946
sba(iModules.cell
Cell
p4947
(dp4948
g4
I00
sg300
I00
sg7
(I01
I01
tp4949
sba(iModules.cell
Cell
p4950
(dp4951
g4
I00
sg300
I00
sg7
(I01
I01
tp4952
sba(iModules.cell
Cell
p4953
(dp4954
g4
I00
sg300
I00
sg7
(I01
I01
tp4955
sba(iModules.cell
Cell
p4956
(dp4957
g4
I00
sg300
I00
sg7
(I01
I01
tp4958
sba(iModules.cell
Cell
p4959
(dp4960
g4
I00
sg300
I00
sg7
(I01
I01
tp4961
sba(iModules.cell
Cell
p4962
(dp4963
g4
I00
sg300
I00
sg7
(I01
I01
tp4964
sba(iModules.cell
Cell
p4965
(dp4966
g4
I00
sg300
I00
sg7
(I01
I01
tp4967
sba(iModules.cell
Cell
p4968
(dp4969
g4
I00
sg300
I00
sg7
(I01
I01
tp4970
sba(iModules.cell
Cell
p4971
(dp4972
g4
I00
sg300
I00
sg7
(I01
I01
tp4973
sba(iModules.cell
Cell
p4974
(dp4975
g4
I00
sg300
I00
sg7
(I01
I01
tp4976
sba(iModules.cell
Cell
p4977
(dp4978
g4
I00
sg300
I00
sg7
(I01
I01
tp4979
sba(iModules.cell
Cell
p4980
(dp4981
g4
I00
sg300
I00
sg7
(I01
I01
tp4982
sba(iModules.cell
Cell
p4983
(dp4984
g4
I00
sg300
I00
sg7
(I01
I01
tp4985
sba(iModules.cell
Cell
p4986
(dp4987
g4
I00
sg300
I00
sg7
(I01
I01
tp4988
sba(iModules.cell
Cell
p4989
(dp4990
g4
I00
sg300
I00
sg7
(I00
I00
I00
tp4991
sba(iModules.cell
Cell
p4992
(dp4993
g4
I00
sg300
I00
sg7
(I01
I01
tp4994
sba(iModules.cell
Cell
p4995
(dp4996
g4
I00
sg300
I00
sg7
(I01
I01
tp4997
sba(iModules.cell
Cell
p4998
(dp4999
g4
I00
sg300
I00
sg7
(I00
I00
I00
tp5000
sba(iModules.cell
Cell
p5001
(dp5002
g4
I00
sg3748
I00
sg7
(I00
I00
I00
tp5003
sba(iModules.cell
Cell
p5004
(dp5005
g4
I00
sg3748
I00
sg7
(I00
I00
I00
tp5006
sba(iModules.cell
Cell
p5007
(dp5008
g4
I00
sg4279
I00
sg7
(I00
I00
I00
tp5009
sba(iModules.cell
Cell
p5010
(dp5011
g4
I00
sg4279
I00
sg7
(I00
I00
I00
tp5012
sba(iModules.cell
Cell
p5013
(dp5014
g4
I00
sg407
I00
sg7
(I01
I01
tp5015
sba(iModules.cell
Cell
p5016
(dp5017
g4
I00
sg407
I00
sg7
(I01
I01
tp5018
sba(iModules.cell
Cell
p5019
(dp5020
g4
I00
sg407
I00
sg7
(I01
I01
tp5021
sba(iModules.cell
Cell
p5022
(dp5023
g4
I00
sg407
I00
sg7
(I01
I01
tp5024
sba(iModules.cell
Cell
p5025
(dp5026
g4
I00
sg407
I00
sg7
(I00
I00
I00
tp5027
sba(iModules.cell
Cell
p5028
(dp5029
g4
I00
sg407
I00
sg7
(I01
I01
tp5030
sba(iModules.cell
Cell
p5031
(dp5032
g4
I00
sg407
I00
sg7
(I01
I01
tp5033
sba(iModules.cell
Cell
p5034
(dp5035
g4
I00
sg407
I00
sg7
(I01
I01
tp5036
sba(iModules.cell
Cell
p5037
(dp5038
g4
I00
sg407
I00
sg7
(I01
I01
tp5039
sba(iModules.cell
Cell
p5040
(dp5041
g4
I00
sg407
I00
sg7
(I01
I01
tp5042
sba(iModules.cell
Cell
p5043
(dp5044
g4
I00
sg407
I00
sg7
(I01
I01
tp5045
sba(iModules.cell
Cell
p5046
(dp5047
g4
I00
sg407
I00
sg7
(I01
I01
tp5048
sba(iModules.cell
Cell
p5049
(dp5050
g4
I00
sg407
I00
sg7
(I01
I01
tp5051
sba(iModules.cell
Cell
p5052
(dp5053
g4
I00
sg407
I00
sg7
(I01
I01
tp5054
sba(iModules.cell
Cell
p5055
(dp5056
g4
I00
sg407
I00
sg7
(I01
I01
tp5057
sba(iModules.cell
Cell
p5058
(dp5059
g4
I00
sg407
I00
sg7
(I01
I01
tp5060
sba(iModules.cell
Cell
p5061
(dp5062
g4
I00
sg407
I00
sg7
(I01
I01
tp5063
sba(iModules.cell
Cell
p5064
(dp5065
g4
I00
sg407
I00
sg7
(I01
I01
tp5066
sba(iModules.cell
Cell
p5067
(dp5068
g4
I00
sg407
I00
sg7
(I01
I01
tp5069
sba(iModules.cell
Cell
p5070
(dp5071
g4
I00
sg407
I00
sg7
(I01
I01
tp5072
sba(iModules.cell
Cell
p5073
(dp5074
g4
I00
sg407
I00
sg7
(I01
I01
tp5075
sba(iModules.cell
Cell
p5076
(dp5077
g4
I00
sg407
I00
sg7
(I01
I01
tp5078
sba(iModules.cell
Cell
p5079
(dp5080
g4
I00
sg407
I00
sg7
(I01
I01
tp5081
sba(iModules.cell
Cell
p5082
(dp5083
g4
I00
sg407
I00
sg7
(I01
I01
tp5084
sba(iModules.cell
Cell
p5085
(dp5086
g4
I00
sg407
I00
sg7
(I01
I01
tp5087
sba(iModules.cell
Cell
p5088
(dp5089
g4
I00
sg407
I00
sg7
(I01
I01
tp5090
sba(iModules.cell
Cell
p5091
(dp5092
g4
I00
sg407
I00
sg7
(I01
I01
tp5093
sba(iModules.cell
Cell
p5094
(dp5095
g4
I00
sg407
I00
sg7
(I01
I01
tp5096
sba(iModules.cell
Cell
p5097
(dp5098
g4
I00
sg407
I00
sg7
(I01
I01
tp5099
sba(iModules.cell
Cell
p5100
(dp5101
g4
I00
sg407
I00
sg7
(I01
I01
tp5102
sba(iModules.cell
Cell
p5103
(dp5104
g4
I00
sg407
I00
sg7
(I01
I01
tp5105
sba(iModules.cell
Cell
p5106
(dp5107
g4
I00
sg407
I00
sg7
(I01
I01
tp5108
sba(iModules.cell
Cell
p5109
(dp5110
g4
I00
sg407
I00
sg7
(I01
I01
tp5111
sba(iModules.cell
Cell
p5112
(dp5113
g4
I00
sg407
I00
sg7
(I00
I00
tp5114
sba(iModules.cell
Cell
p5115
(dp5116
g4
I00
sg6
I00
sg7
(I00
I00
tp5117
sba(iModules.cell
Cell
p5118
(dp5119
g4
I00
sg6
I00
sg7
(I00
I00
tp5120
sba(iModules.cell
Cell
p5121
(dp5122
g4
I00
sg6
I00
sg7
(I00
I00
tp5123
sba(iModules.cell
Cell
p5124
(dp5125
g4
I00
sg6
I00
sg7
(I00
I00
tp5126
sba(iModules.cell
Cell
p5127
(dp5128
g4
I00
sg6
I00
sg7
(I00
I00
tp5129
sba(iModules.cell
Cell
p5130
(dp5131
g4
I00
sg6
I00
sg7
(I00
I00
tp5132
sba(iModules.cell
Cell
p5133
(dp5134
g4
I00
sg6
I00
sg7
(I00
I00
tp5135
sba(iModules.cell
Cell
p5136
(dp5137
g4
I00
sg6
I00
sg7
(I00
I00
tp5138
sba(iModules.cell
Cell
p5139
(dp5140
g4
I00
sg6
I00
sg7
(I00
I00
tp5141
sba(iModules.cell
Cell
p5142
(dp5143
g4
I00
sg6
I00
sg7
(I00
I00
tp5144
sba(iModules.cell
Cell
p5145
(dp5146
g4
I00
sg6
I00
sg7
(I00
I00
tp5147
sba(iModules.cell
Cell
p5148
(dp5149
g4
I00
sg6
I00
sg7
(I00
I00
tp5150
sba(iModules.cell
Cell
p5151
(dp5152
g4
I00
sg6
I00
sg7
(I00
I00
tp5153
sba(iModules.cell
Cell
p5154
(dp5155
g4
I00
sg6
I00
sg7
(I00
I00
tp5156
sba(iModules.cell
Cell
p5157
(dp5158
g4
I00
sg6
I00
sg7
(I00
I00
tp5159
sba(iModules.cell
Cell
p5160
(dp5161
g4
I00
sg6
I00
sg7
(I00
I00
tp5162
sba(iModules.cell
Cell
p5163
(dp5164
g4
I00
sg6
I00
sg7
(I00
I00
tp5165
sba(iModules.cell
Cell
p5166
(dp5167
g4
I00
sg6
I00
sg7
(I00
I00
tp5168
sba(iModules.cell
Cell
p5169
(dp5170
g7
(I00
I00
tp5171
sbaa(lp5172
(iModules.cell
Cell
p5173
(dp5174
g4
I00
sg6
I00
sg7
(I00
I00
tp5175
sba(iModules.cell
Cell
p5176
(dp5177
g4
I00
sg300
I00
sg7
(I00
I00
tp5178
sba(iModules.cell
Cell
p5179
(dp5180
g4
I00
sg300
I00
sg7
(I01
I01
tp5181
sba(iModules.cell
Cell
p5182
(dp5183
g4
I00
sg300
I00
sg7
(I01
I01
tp5184
sba(iModules.cell
Cell
p5185
(dp5186
g4
I00
sg300
I00
sg7
(I01
I01
tp5187
sba(iModules.cell
Cell
p5188
(dp5189
g4
I00
sg300
I00
sg7
(I01
I01
tp5190
sba(iModules.cell
Cell
p5191
(dp5192
g4
I00
sg300
I00
sg7
(I01
I01
tp5193
sba(iModules.cell
Cell
p5194
(dp5195
g4
I00
sg300
I00
sg7
(I01
I01
tp5196
sba(iModules.cell
Cell
p5197
(dp5198
g4
I00
sg300
I00
sg7
(I01
I01
tp5199
sba(iModules.cell
Cell
p5200
(dp5201
g4
I00
sg300
I00
sg7
(I01
I01
tp5202
sba(iModules.cell
Cell
p5203
(dp5204
g4
I00
sg300
I00
sg7
(I01
I01
tp5205
sba(iModules.cell
Cell
p5206
(dp5207
g4
I00
sg300
I00
sg7
(I01
I01
tp5208
sba(iModules.cell
Cell
p5209
(dp5210
g4
I00
sg300
I00
sg7
(I01
I01
tp5211
sba(iModules.cell
Cell
p5212
(dp5213
g4
I00
sg300
I00
sg7
(I01
I01
tp5214
sba(iModules.cell
Cell
p5215
(dp5216
g4
I00
sg300
I00
sg7
(I01
I01
tp5217
sba(iModules.cell
Cell
p5218
(dp5219
g4
I00
sg300
I00
sg7
(I01
I01
tp5220
sba(iModules.cell
Cell
p5221
(dp5222
g4
I00
sg300
I00
sg7
(I01
I01
tp5223
sba(iModules.cell
Cell
p5224
(dp5225
g4
I00
sg300
I00
sg7
(I01
I01
tp5226
sba(iModules.cell
Cell
p5227
(dp5228
g4
I00
sg300
I00
sg7
(I01
I01
tp5229
sba(iModules.cell
Cell
p5230
(dp5231
g4
I00
sg300
I00
sg7
(I01
I01
tp5232
sba(iModules.cell
Cell
p5233
(dp5234
g4
I00
sg300
I00
sg7
(I00
I00
I00
tp5235
sba(iModules.cell
Cell
p5236
(dp5237
g4
I00
sg300
I00
sg7
(I01
I01
tp5238
sba(iModules.cell
Cell
p5239
(dp5240
g4
I00
sg300
I00
sg7
(I01
I01
tp5241
sba(iModules.cell
Cell
p5242
(dp5243
g4
I00
sg3748
I00
sg7
(I01
I01
tp5244
sba(iModules.cell
Cell
p5245
(dp5246
g4
I00
sg3748
I00
sg7
(I01
I01
tp5247
sba(iModules.cell
Cell
p5248
(dp5249
g4
I00
sg3748
I00
sg7
(I01
I01
tp5250
sba(iModules.cell
Cell
p5251
(dp5252
g4
I00
sg4279
I00
sg7
(I01
I01
tp5253
sba(iModules.cell
Cell
p5254
(dp5255
g4
I00
sg4279
I00
sg7
(I01
I01
tp5256
sba(iModules.cell
Cell
p5257
(dp5258
g4
I00
sg407
I00
sg7
(I01
I01
tp5259
sba(iModules.cell
Cell
p5260
(dp5261
g4
I00
sg407
I00
sg7
(I01
I01
tp5262
sba(iModules.cell
Cell
p5263
(dp5264
g4
I00
sg407
I00
sg7
(I01
I01
tp5265
sba(iModules.cell
Cell
p5266
(dp5267
g4
I00
sg407
I00
sg7
(I01
I01
tp5268
sba(iModules.cell
Cell
p5269
(dp5270
g4
I00
sg407
I00
sg7
(I00
I00
I00
tp5271
sba(iModules.cell
Cell
p5272
(dp5273
g4
I00
sg407
I00
sg7
(I01
I01
tp5274
sba(iModules.cell
Cell
p5275
(dp5276
g4
I00
sg407
I00
sg7
(I01
I01
tp5277
sba(iModules.cell
Cell
p5278
(dp5279
g4
I00
sg407
I00
sg7
(I01
I01
tp5280
sba(iModules.cell
Cell
p5281
(dp5282
g4
I00
sg407
I00
sg7
(I01
I01
tp5283
sba(iModules.cell
Cell
p5284
(dp5285
g4
I00
sg407
I00
sg7
(I01
I01
tp5286
sba(iModules.cell
Cell
p5287
(dp5288
g4
I00
sg407
I00
sg7
(I01
I01
tp5289
sba(iModules.cell
Cell
p5290
(dp5291
g4
I00
sg407
I00
sg7
(I01
I01
tp5292
sba(iModules.cell
Cell
p5293
(dp5294
g4
I00
sg407
I00
sg7
(I01
I01
tp5295
sba(iModules.cell
Cell
p5296
(dp5297
g4
I00
sg407
I00
sg7
(I01
I01
tp5298
sba(iModules.cell
Cell
p5299
(dp5300
g4
I00
sg407
I00
sg7
(I01
I01
tp5301
sba(iModules.cell
Cell
p5302
(dp5303
g4
I00
sg407
I00
sg7
(I01
I01
tp5304
sba(iModules.cell
Cell
p5305
(dp5306
g4
I00
sg407
I00
sg7
(I01
I01
tp5307
sba(iModules.cell
Cell
p5308
(dp5309
g4
I00
sg407
I00
sg7
(I01
I01
tp5310
sba(iModules.cell
Cell
p5311
(dp5312
g4
I00
sg407
I00
sg7
(I01
I01
tp5313
sba(iModules.cell
Cell
p5314
(dp5315
g4
I00
sg407
I00
sg7
(I01
I01
tp5316
sba(iModules.cell
Cell
p5317
(dp5318
g4
I00
sg407
I00
sg7
(I01
I01
tp5319
sba(iModules.cell
Cell
p5320
(dp5321
g4
I00
sg407
I00
sg7
(I01
I01
tp5322
sba(iModules.cell
Cell
p5323
(dp5324
g4
I00
sg407
I00
sg7
(I01
I01
tp5325
sba(iModules.cell
Cell
p5326
(dp5327
g4
I00
sg407
I00
sg7
(I01
I01
tp5328
sba(iModules.cell
Cell
p5329
(dp5330
g4
I00
sg407
I00
sg7
(I01
I01
tp5331
sba(iModules.cell
Cell
p5332
(dp5333
g4
I00
sg407
I00
sg7
(I01
I01
tp5334
sba(iModules.cell
Cell
p5335
(dp5336
g4
I00
sg407
I00
sg7
(I01
I01
tp5337
sba(iModules.cell
Cell
p5338
(dp5339
g4
I00
sg407
I00
sg7
(I01
I01
tp5340
sba(iModules.cell
Cell
p5341
(dp5342
g4
I00
sg407
I00
sg7
(I01
I01
tp5343
sba(iModules.cell
Cell
p5344
(dp5345
g4
I00
sg407
I00
sg7
(I01
I01
tp5346
sba(iModules.cell
Cell
p5347
(dp5348
g4
I00
sg407
I00
sg7
(I01
I01
tp5349
sba(iModules.cell
Cell
p5350
(dp5351
g4
I00
sg407
I00
sg7
(I01
I01
tp5352
sba(iModules.cell
Cell
p5353
(dp5354
g4
I00
sg407
I00
sg7
(I01
I01
tp5355
sba(iModules.cell
Cell
p5356
(dp5357
g4
I00
sg407
I00
sg7
(I00
I00
tp5358
sba(iModules.cell
Cell
p5359
(dp5360
g4
I00
sg6
I00
sg7
(I00
I00
tp5361
sba(iModules.cell
Cell
p5362
(dp5363
g4
I00
sg6
I00
sg7
(I00
I00
tp5364
sba(iModules.cell
Cell
p5365
(dp5366
g4
I00
sg6
I00
sg7
(I00
I00
tp5367
sba(iModules.cell
Cell
p5368
(dp5369
g4
I00
sg6
I00
sg7
(I00
I00
tp5370
sba(iModules.cell
Cell
p5371
(dp5372
g4
I00
sg6
I00
sg7
(I00
I00
tp5373
sba(iModules.cell
Cell
p5374
(dp5375
g4
I00
sg6
I00
sg7
(I00
I00
tp5376
sba(iModules.cell
Cell
p5377
(dp5378
g4
I00
sg6
I00
sg7
(I00
I00
tp5379
sba(iModules.cell
Cell
p5380
(dp5381
g4
I00
sg6
I00
sg7
(I00
I00
tp5382
sba(iModules.cell
Cell
p5383
(dp5384
g4
I00
sg6
I00
sg7
(I00
I00
tp5385
sba(iModules.cell
Cell
p5386
(dp5387
g4
I00
sg6
I00
sg7
(I00
I00
tp5388
sba(iModules.cell
Cell
p5389
(dp5390
g4
I00
sg6
I00
sg7
(I00
I00
tp5391
sba(iModules.cell
Cell
p5392
(dp5393
g4
I00
sg6
I00
sg7
(I00
I00
tp5394
sba(iModules.cell
Cell
p5395
(dp5396
g4
I00
sg6
I00
sg7
(I00
I00
tp5397
sba(iModules.cell
Cell
p5398
(dp5399
g4
I00
sg6
I00
sg7
(I00
I00
tp5400
sba(iModules.cell
Cell
p5401
(dp5402
g4
I00
sg6
I00
sg7
(I00
I00
tp5403
sba(iModules.cell
Cell
p5404
(dp5405
g4
I00
sg6
I00
sg7
(I00
I00
tp5406
sba(iModules.cell
Cell
p5407
(dp5408
g4
I00
sg6
I00
sg7
(I00
I00
tp5409
sba(iModules.cell
Cell
p5410
(dp5411
g4
I00
sg6
I00
sg7
(I00
I00
tp5412
sba(iModules.cell
Cell
p5413
(dp5414
g7
(I00
I00
tp5415
sbaa(lp5416
(iModules.cell
Cell
p5417
(dp5418
g4
I00
sg6
I00
sg7
(I00
I00
tp5419
sba(iModules.cell
Cell
p5420
(dp5421
g4
I00
sg300
I00
sg7
(I00
I00
tp5422
sba(iModules.cell
Cell
p5423
(dp5424
g4
I00
sg300
I00
sg7
(I00
I00
tp5425
sba(iModules.cell
Cell
p5426
(dp5427
g4
I00
sg300
I00
sg7
(I00
I00
tp5428
sba(iModules.cell
Cell
p5429
(dp5430
g4
I00
sg300
I00
sg7
(I00
I00
tp5431
sba(iModules.cell
Cell
p5432
(dp5433
g4
I00
sg300
I00
sg7
(I00
I00
tp5434
sba(iModules.cell
Cell
p5435
(dp5436
g4
I00
sg300
I00
sg7
(I00
I00
tp5437
sba(iModules.cell
Cell
p5438
(dp5439
g4
I00
sg300
I00
sg7
(I00
I00
tp5440
sba(iModules.cell
Cell
p5441
(dp5442
g4
I00
sg300
I00
sg7
(I00
I00
tp5443
sba(iModules.cell
Cell
p5444
(dp5445
g4
I00
sg300
I00
sg7
(I00
I00
tp5446
sba(iModules.cell
Cell
p5447
(dp5448
g4
I00
sg300
I00
sg7
(I00
I00
tp5449
sba(iModules.cell
Cell
p5450
(dp5451
g4
I00
sg300
I00
sg7
(I00
I00
tp5452
sba(iModules.cell
Cell
p5453
(dp5454
g4
I00
sg300
I00
sg7
(I00
I00
tp5455
sba(iModules.cell
Cell
p5456
(dp5457
g4
I00
sg300
I00
sg7
(I00
I00
tp5458
sba(iModules.cell
Cell
p5459
(dp5460
g4
I00
sg300
I00
sg7
(I00
I00
tp5461
sba(iModules.cell
Cell
p5462
(dp5463
g4
I00
sg300
I00
sg7
(I00
I00
tp5464
sba(iModules.cell
Cell
p5465
(dp5466
g4
I00
sg300
I00
sg7
(I00
I00
tp5467
sba(iModules.cell
Cell
p5468
(dp5469
g4
I00
sg300
I00
sg7
(I00
I00
tp5470
sba(iModules.cell
Cell
p5471
(dp5472
g4
I00
sg300
I00
sg7
(I00
I00
tp5473
sba(iModules.cell
Cell
p5474
(dp5475
g4
I00
sg300
I00
sg7
(I00
I00
tp5476
sba(iModules.cell
Cell
p5477
(dp5478
g4
I00
sg300
I00
sg7
(I00
I00
tp5479
sba(iModules.cell
Cell
p5480
(dp5481
g4
I00
sg300
I00
sg7
(I00
I00
tp5482
sba(iModules.cell
Cell
p5483
(dp5484
g4
I00
sg3748
I00
sg7
(I00
I00
tp5485
sba(iModules.cell
Cell
p5486
(dp5487
g4
I00
sg3748
I00
sg7
(I00
I00
tp5488
sba(iModules.cell
Cell
p5489
(dp5490
g4
I00
sg3748
I00
sg7
(I00
I00
tp5491
sba(iModules.cell
Cell
p5492
(dp5493
g4
I00
sg3748
I00
sg7
(I00
I00
tp5494
sba(iModules.cell
Cell
p5495
(dp5496
g4
I00
sg4279
I00
sg7
(I00
I00
tp5497
sba(iModules.cell
Cell
p5498
(dp5499
g4
I00
sg4279
I00
sg7
(I00
I00
tp5500
sba(iModules.cell
Cell
p5501
(dp5502
g4
I00
sg407
I00
sg7
(I00
I00
tp5503
sba(iModules.cell
Cell
p5504
(dp5505
g4
I00
sg407
I00
sg7
(I00
I00
tp5506
sba(iModules.cell
Cell
p5507
(dp5508
g4
I00
sg407
I00
sg7
(I00
I00
tp5509
sba(iModules.cell
Cell
p5510
(dp5511
g4
I00
sg407
I00
sg7
(I00
I00
tp5512
sba(iModules.cell
Cell
p5513
(dp5514
g4
I00
sg407
I00
sg7
(I00
I00
tp5515
sba(iModules.cell
Cell
p5516
(dp5517
g4
I00
sg407
I00
sg7
(I00
I00
tp5518
sba(iModules.cell
Cell
p5519
(dp5520
g4
I00
sg407
I00
sg7
(I00
I00
tp5521
sba(iModules.cell
Cell
p5522
(dp5523
g4
I00
sg407
I00
sg7
(I00
I00
tp5524
sba(iModules.cell
Cell
p5525
(dp5526
g4
I00
sg407
I00
sg7
(I00
I00
tp5527
sba(iModules.cell
Cell
p5528
(dp5529
g4
I00
sg407
I00
sg7
(I00
I00
tp5530
sba(iModules.cell
Cell
p5531
(dp5532
g4
I00
sg407
I00
sg7
(I00
I00
tp5533
sba(iModules.cell
Cell
p5534
(dp5535
g4
I00
sg407
I00
sg7
(I00
I00
tp5536
sba(iModules.cell
Cell
p5537
(dp5538
g4
I00
sg407
I00
sg7
(I00
I00
tp5539
sba(iModules.cell
Cell
p5540
(dp5541
g4
I00
sg407
I00
sg7
(I00
I00
tp5542
sba(iModules.cell
Cell
p5543
(dp5544
g4
I00
sg407
I00
sg7
(I00
I00
tp5545
sba(iModules.cell
Cell
p5546
(dp5547
g4
I00
sg407
I00
sg7
(I00
I00
tp5548
sba(iModules.cell
Cell
p5549
(dp5550
g4
I00
sg407
I00
sg7
(I00
I00
tp5551
sba(iModules.cell
Cell
p5552
(dp5553
g4
I00
sg407
I00
sg7
(I00
I00
tp5554
sba(iModules.cell
Cell
p5555
(dp5556
g4
I00
sg407
I00
sg7
(I00
I00
tp5557
sba(iModules.cell
Cell
p5558
(dp5559
g4
I00
sg407
I00
sg7
(I00
I00
tp5560
sba(iModules.cell
Cell
p5561
(dp5562
g4
I00
sg407
I00
sg7
(I00
I00
tp5563
sba(iModules.cell
Cell
p5564
(dp5565
g4
I00
sg407
I00
sg7
(I00
I00
tp5566
sba(iModules.cell
Cell
p5567
(dp5568
g4
I00
sg407
I00
sg7
(I00
I00
tp5569
sba(iModules.cell
Cell
p5570
(dp5571
g4
I00
sg407
I00
sg7
(I00
I00
tp5572
sba(iModules.cell
Cell
p5573
(dp5574
g4
I00
sg407
I00
sg7
(I00
I00
tp5575
sba(iModules.cell
Cell
p5576
(dp5577
g4
I00
sg407
I00
sg7
(I00
I00
tp5578
sba(iModules.cell
Cell
p5579
(dp5580
g4
I00
sg407
I00
sg7
(I00
I00
tp5581
sba(iModules.cell
Cell
p5582
(dp5583
g4
I00
sg407
I00
sg7
(I00
I00
tp5584
sba(iModules.cell
Cell
p5585
(dp5586
g4
I00
sg407
I00
sg7
(I00
I00
tp5587
sba(iModules.cell
Cell
p5588
(dp5589
g4
I00
sg407
I00
sg7
(I00
I00
tp5590
sba(iModules.cell
Cell
p5591
(dp5592
g4
I00
sg407
I00
sg7
(I00
I00
tp5593
sba(iModules.cell
Cell
p5594
(dp5595
g4
I00
sg407
I00
sg7
(I00
I00
tp5596
sba(iModules.cell
Cell
p5597
(dp5598
g4
I00
sg407
I00
sg7
(I00
I00
tp5599
sba(iModules.cell
Cell
p5600
(dp5601
g4
I00
sg407
I00
sg7
(I00
I00
tp5602
sba(iModules.cell
Cell
p5603
(dp5604
g4
I00
sg6
I00
sg7
(I00
I00
tp5605
sba(iModules.cell
Cell
p5606
(dp5607
g4
I00
sg6
I00
sg7
(I00
I00
tp5608
sba(iModules.cell
Cell
p5609
(dp5610
g4
I00
sg6
I00
sg7
(I00
I00
tp5611
sba(iModules.cell
Cell
p5612
(dp5613
g4
I00
sg6
I00
sg7
(I00
I00
tp5614
sba(iModules.cell
Cell
p5615
(dp5616
g4
I00
sg6
I00
sg7
(I00
I00
tp5617
sba(iModules.cell
Cell
p5618
(dp5619
g4
I00
sg6
I00
sg7
(I00
I00
tp5620
sba(iModules.cell
Cell
p5621
(dp5622
g4
I00
sg6
I00
sg7
(I00
I00
tp5623
sba(iModules.cell
Cell
p5624
(dp5625
g4
I00
sg6
I00
sg7
(I00
I00
tp5626
sba(iModules.cell
Cell
p5627
(dp5628
g4
I00
sg6
I00
sg7
(I00
I00
tp5629
sba(iModules.cell
Cell
p5630
(dp5631
g4
I00
sg6
I00
sg7
(I00
I00
tp5632
sba(iModules.cell
Cell
p5633
(dp5634
g4
I00
sg6
I00
sg7
(I00
I00
tp5635
sba(iModules.cell
Cell
p5636
(dp5637
g4
I00
sg6
I00
sg7
(I00
I00
tp5638
sba(iModules.cell
Cell
p5639
(dp5640
g4
I00
sg6
I00
sg7
(I00
I00
tp5641
sba(iModules.cell
Cell
p5642
(dp5643
g4
I00
sg6
I00
sg7
(I00
I00
tp5644
sba(iModules.cell
Cell
p5645
(dp5646
g4
I00
sg6
I00
sg7
(I00
I00
tp5647
sba(iModules.cell
Cell
p5648
(dp5649
g4
I00
sg6
I00
sg7
(I00
I00
tp5650
sba(iModules.cell
Cell
p5651
(dp5652
g4
I00
sg6
I00
sg7
(I00
I00
tp5653
sba(iModules.cell
Cell
p5654
(dp5655
g4
I00
sg6
I00
sg7
(I00
I00
tp5656
sba(iModules.cell
Cell
p5657
(dp5658
g7
(I00
I00
tp5659
sbaa(lp5660
(iModules.cell
Cell
p5661
(dp5662
g7
(I00
I00
tp5663
sba(iModules.cell
Cell
p5664
(dp5665
g7
(I00
I00
tp5666
sba(iModules.cell
Cell
p5667
(dp5668
g7
(I00
I00
tp5669
sba(iModules.cell
Cell
p5670
(dp5671
g7
(I00
I00
tp5672
sba(iModules.cell
Cell
p5673
(dp5674
g7
(I00
I00
tp5675
sba(iModules.cell
Cell
p5676
(dp5677
g7
(I00
I00
tp5678
sba(iModules.cell
Cell
p5679
(dp5680
g7
(I00
I00
tp5681
sba(iModules.cell
Cell
p5682
(dp5683
g7
(I00
I00
tp5684
sba(iModules.cell
Cell
p5685
(dp5686
g7
(I00
I00
tp5687
sba(iModules.cell
Cell
p5688
(dp5689
g7
(I00
I00
tp5690
sba(iModules.cell
Cell
p5691
(dp5692
g7
(I00
I00
tp5693
sba(iModules.cell
Cell
p5694
(dp5695
g7
(I00
I00
tp5696
sba(iModules.cell
Cell
p5697
(dp5698
g7
(I00
I00
tp5699
sba(iModules.cell
Cell
p5700
(dp5701
g7
(I00
I00
tp5702
sba(iModules.cell
Cell
p5703
(dp5704
g7
(I00
I00
tp5705
sba(iModules.cell
Cell
p5706
(dp5707
g7
(I00
I00
tp5708
sba(iModules.cell
Cell
p5709
(dp5710
g7
(I00
I00
tp5711
sba(iModules.cell
Cell
p5712
(dp5713
g7
(I00
I00
tp5714
sba(iModules.cell
Cell
p5715
(dp5716
g7
(I00
I00
tp5717
sba(iModules.cell
Cell
p5718
(dp5719
g7
(I00
I00
tp5720
sba(iModules.cell
Cell
p5721
(dp5722
g7
(I00
I00
tp5723
sba(iModules.cell
Cell
p5724
(dp5725
g7
(I00
I00
tp5726
sba(iModules.cell
Cell
p5727
(dp5728
g7
(I00
I00
tp5729
sba(iModules.cell
Cell
p5730
(dp5731
g7
(I00
I00
tp5732
sba(iModules.cell
Cell
p5733
(dp5734
g7
(I00
I00
tp5735
sba(iModules.cell
Cell
p5736
(dp5737
g7
(I00
I00
tp5738
sba(iModules.cell
Cell
p5739
(dp5740
g7
(I00
I00
tp5741
sba(iModules.cell
Cell
p5742
(dp5743
g7
(I00
I00
tp5744
sba(iModules.cell
Cell
p5745
(dp5746
g7
(I00
I00
tp5747
sba(iModules.cell
Cell
p5748
(dp5749
g7
(I00
I00
tp5750
sba(iModules.cell
Cell
p5751
(dp5752
g7
(I00
I00
tp5753
sba(iModules.cell
Cell
p5754
(dp5755
g7
(I00
I00
tp5756
sba(iModules.cell
Cell
p5757
(dp5758
g7
(I00
I00
tp5759
sba(iModules.cell
Cell
p5760
(dp5761
g7
(I00
I00
tp5762
sba(iModules.cell
Cell
p5763
(dp5764
g7
(I00
I00
tp5765
sba(iModules.cell
Cell
p5766
(dp5767
g7
(I00
I00
tp5768
sba(iModules.cell
Cell
p5769
(dp5770
g7
(I00
I00
tp5771
sba(iModules.cell
Cell
p5772
(dp5773
g7
(I00
I00
tp5774
sba(iModules.cell
Cell
p5775
(dp5776
g7
(I00
I00
tp5777
sba(iModules.cell
Cell
p5778
(dp5779
g7
(I00
I00
tp5780
sba(iModules.cell
Cell
p5781
(dp5782
g7
(I00
I00
tp5783
sba(iModules.cell
Cell
p5784
(dp5785
g7
(I00
I00
tp5786
sba(iModules.cell
Cell
p5787
(dp5788
g7
(I00
I00
tp5789
sba(iModules.cell
Cell
p5790
(dp5791
g7
(I00
I00
tp5792
sba(iModules.cell
Cell
p5793
(dp5794
g7
(I00
I00
tp5795
sba(iModules.cell
Cell
p5796
(dp5797
g7
(I00
I00
tp5798
sba(iModules.cell
Cell
p5799
(dp5800
g7
(I00
I00
tp5801
sba(iModules.cell
Cell
p5802
(dp5803
g7
(I00
I00
tp5804
sba(iModules.cell
Cell
p5805
(dp5806
g7
(I00
I00
tp5807
sba(iModules.cell
Cell
p5808
(dp5809
g7
(I00
I00
tp5810
sba(iModules.cell
Cell
p5811
(dp5812
g7
(I00
I00
tp5813
sba(iModules.cell
Cell
p5814
(dp5815
g7
(I00
I00
tp5816
sba(iModules.cell
Cell
p5817
(dp5818
g7
(I00
I00
tp5819
sba(iModules.cell
Cell
p5820
(dp5821
g7
(I00
I00
tp5822
sba(iModules.cell
Cell
p5823
(dp5824
g7
(I00
I00
tp5825
sba(iModules.cell
Cell
p5826
(dp5827
g7
(I00
I00
tp5828
sba(iModules.cell
Cell
p5829
(dp5830
g7
(I00
I00
tp5831
sba(iModules.cell
Cell
p5832
(dp5833
g7
(I00
I00
tp5834
sba(iModules.cell
Cell
p5835
(dp5836
g7
(I00
I00
tp5837
sba(iModules.cell
Cell
p5838
(dp5839
g7
(I00
I00
tp5840
sba(iModules.cell
Cell
p5841
(dp5842
g7
(I00
I00
tp5843
sba(iModules.cell
Cell
p5844
(dp5845
g7
(I00
I00
tp5846
sba(iModules.cell
Cell
p5847
(dp5848
g7
(I00
I00
tp5849
sba(iModules.cell
Cell
p5850
(dp5851
g7
(I00
I00
tp5852
sba(iModules.cell
Cell
p5853
(dp5854
g7
(I00
I00
tp5855
sba(iModules.cell
Cell
p5856
(dp5857
g7
(I00
I00
tp5858
sba(iModules.cell
Cell
p5859
(dp5860
g7
(I00
I00
tp5861
sba(iModules.cell
Cell
p5862
(dp5863
g7
(I00
I00
tp5864
sba(iModules.cell
Cell
p5865
(dp5866
g7
(I00
I00
tp5867
sba(iModules.cell
Cell
p5868
(dp5869
g7
(I00
I00
tp5870
sba(iModules.cell
Cell
p5871
(dp5872
g7
(I00
I00
tp5873
sba(iModules.cell
Cell
p5874
(dp5875
g7
(I00
I00
tp5876
sba(iModules.cell
Cell
p5877
(dp5878
g7
(I00
I00
tp5879
sba(iModules.cell
Cell
p5880
(dp5881
g7
(I00
I00
tp5882
sba(iModules.cell
Cell
p5883
(dp5884
g7
(I00
I00
tp5885
sba(iModules.cell
Cell
p5886
(dp5887
g7
(I00
I00
tp5888
sba(iModules.cell
Cell
p5889
(dp5890
g7
(I00
I00
tp5891
sba(iModules.cell
Cell
p5892
(dp5893
g7
(I00
I00
tp5894
sba(iModules.cell
Cell
p5895
(dp5896
g7
(I00
I00
tp5897
sba(iModules.cell
Cell
p5898
(dp5899
g7
(I00
I00
tp5900
sba(iModules.cell
Cell
p5901
(dp5902
g7
(I00
I00
tp5903
sbaa(lp5904
(iModules.cell
Cell
p5905
(dp5906
g7
(I00
I00
tp5907
sba(iModules.cell
Cell
p5908
(dp5909
g7
(I00
I00
tp5910
sba(iModules.cell
Cell
p5911
(dp5912
g7
(I00
I00
tp5913
sba(iModules.cell
Cell
p5914
(dp5915
g7
(I00
I00
tp5916
sba(iModules.cell
Cell
p5917
(dp5918
g7
(I00
I00
tp5919
sba(iModules.cell
Cell
p5920
(dp5921
g7
(I00
I00
tp5922
sba(iModules.cell
Cell
p5923
(dp5924
g7
(I00
I00
tp5925
sba(iModules.cell
Cell
p5926
(dp5927
g7
(I00
I00
tp5928
sba(iModules.cell
Cell
p5929
(dp5930
g7
(I00
I00
tp5931
sba(iModules.cell
Cell
p5932
(dp5933
g7
(I00
I00
tp5934
sba(iModules.cell
Cell
p5935
(dp5936
g7
(I00
I00
tp5937
sba(iModules.cell
Cell
p5938
(dp5939
g7
(I00
I00
tp5940
sba(iModules.cell
Cell
p5941
(dp5942
g7
(I00
I00
tp5943
sba(iModules.cell
Cell
p5944
(dp5945
g7
(I00
I00
tp5946
sba(iModules.cell
Cell
p5947
(dp5948
g7
(I00
I00
tp5949
sba(iModules.cell
Cell
p5950
(dp5951
g7
(I00
I00
tp5952
sba(iModules.cell
Cell
p5953
(dp5954
g7
(I00
I00
tp5955
sba(iModules.cell
Cell
p5956
(dp5957
g7
(I00
I00
tp5958
sba(iModules.cell
Cell
p5959
(dp5960
g7
(I00
I00
tp5961
sba(iModules.cell
Cell
p5962
(dp5963
g7
(I00
I00
tp5964
sba(iModules.cell
Cell
p5965
(dp5966
g7
(I00
I00
tp5967
sba(iModules.cell
Cell
p5968
(dp5969
g7
(I00
I00
tp5970
sba(iModules.cell
Cell
p5971
(dp5972
g7
(I00
I00
tp5973
sba(iModules.cell
Cell
p5974
(dp5975
g7
(I00
I00
tp5976
sba(iModules.cell
Cell
p5977
(dp5978
g7
(I00
I00
tp5979
sba(iModules.cell
Cell
p5980
(dp5981
g7
(I00
I00
tp5982
sba(iModules.cell
Cell
p5983
(dp5984
g7
(I00
I00
tp5985
sba(iModules.cell
Cell
p5986
(dp5987
g7
(I00
I00
tp5988
sba(iModules.cell
Cell
p5989
(dp5990
g7
(I00
I00
tp5991
sba(iModules.cell
Cell
p5992
(dp5993
g7
(I00
I00
tp5994
sba(iModules.cell
Cell
p5995
(dp5996
g7
(I00
I00
tp5997
sba(iModules.cell
Cell
p5998
(dp5999
g7
(I00
I00
tp6000
sba(iModules.cell
Cell
p6001
(dp6002
g7
(I00
I00
tp6003
sba(iModules.cell
Cell
p6004
(dp6005
g7
(I00
I00
tp6006
sba(iModules.cell
Cell
p6007
(dp6008
g7
(I00
I00
tp6009
sba(iModules.cell
Cell
p6010
(dp6011
g7
(I00
I00
tp6012
sba(iModules.cell
Cell
p6013
(dp6014
g7
(I00
I00
tp6015
sba(iModules.cell
Cell
p6016
(dp6017
g7
(I00
I00
tp6018
sba(iModules.cell
Cell
p6019
(dp6020
g7
(I00
I00
tp6021
sba(iModules.cell
Cell
p6022
(dp6023
g7
(I00
I00
tp6024
sba(iModules.cell
Cell
p6025
(dp6026
g7
(I00
I00
tp6027
sba(iModules.cell
Cell
p6028
(dp6029
g7
(I00
I00
tp6030
sba(iModules.cell
Cell
p6031
(dp6032
g7
(I00
I00
tp6033
sba(iModules.cell
Cell
p6034
(dp6035
g7
(I00
I00
tp6036
sba(iModules.cell
Cell
p6037
(dp6038
g7
(I00
I00
tp6039
sba(iModules.cell
Cell
p6040
(dp6041
g7
(I00
I00
tp6042
sba(iModules.cell
Cell
p6043
(dp6044
g7
(I00
I00
tp6045
sba(iModules.cell
Cell
p6046
(dp6047
g7
(I00
I00
tp6048
sba(iModules.cell
Cell
p6049
(dp6050
g7
(I00
I00
tp6051
sba(iModules.cell
Cell
p6052
(dp6053
g7
(I00
I00
tp6054
sba(iModules.cell
Cell
p6055
(dp6056
g7
(I00
I00
tp6057
sba(iModules.cell
Cell
p6058
(dp6059
g7
(I00
I00
tp6060
sba(iModules.cell
Cell
p6061
(dp6062
g7
(I00
I00
tp6063
sba(iModules.cell
Cell
p6064
(dp6065
g7
(I00
I00
tp6066
sba(iModules.cell
Cell
p6067
(dp6068
g7
(I00
I00
tp6069
sba(iModules.cell
Cell
p6070
(dp6071
g7
(I00
I00
tp6072
sba(iModules.cell
Cell
p6073
(dp6074
g7
(I00
I00
tp6075
sba(iModules.cell
Cell
p6076
(dp6077
g7
(I00
I00
tp6078
sba(iModules.cell
Cell
p6079
(dp6080
g7
(I00
I00
tp6081
sba(iModules.cell
Cell
p6082
(dp6083
g7
(I00
I00
tp6084
sba(iModules.cell
Cell
p6085
(dp6086
g7
(I00
I00
tp6087
sba(iModules.cell
Cell
p6088
(dp6089
g7
(I00
I00
tp6090
sba(iModules.cell
Cell
p6091
(dp6092
g7
(I00
I00
tp6093
sba(iModules.cell
Cell
p6094
(dp6095
g7
(I00
I00
tp6096
sba(iModules.cell
Cell
p6097
(dp6098
g7
(I00
I00
tp6099
sba(iModules.cell
Cell
p6100
(dp6101
g7
(I00
I00
tp6102
sba(iModules.cell
Cell
p6103
(dp6104
g7
(I00
I00
tp6105
sba(iModules.cell
Cell
p6106
(dp6107
g7
(I00
I00
tp6108
sba(iModules.cell
Cell
p6109
(dp6110
g7
(I00
I00
tp6111
sba(iModules.cell
Cell
p6112
(dp6113
g7
(I00
I00
tp6114
sba(iModules.cell
Cell
p6115
(dp6116
g7
(I00
I00
tp6117
sba(iModules.cell
Cell
p6118
(dp6119
g7
(I00
I00
tp6120
sba(iModules.cell
Cell
p6121
(dp6122
g7
(I00
I00
tp6123
sba(iModules.cell
Cell
p6124
(dp6125
g7
(I00
I00
tp6126
sba(iModules.cell
Cell
p6127
(dp6128
g7
(I00
I00
tp6129
sba(iModules.cell
Cell
p6130
(dp6131
g7
(I00
I00
tp6132
sba(iModules.cell
Cell
p6133
(dp6134
g7
(I00
I00
tp6135
sba(iModules.cell
Cell
p6136
(dp6137
g7
(I00
I00
tp6138
sba(iModules.cell
Cell
p6139
(dp6140
g7
(I00
I00
tp6141
sba(iModules.cell
Cell
p6142
(dp6143
g7
(I00
I00
tp6144
sba(iModules.cell
Cell
p6145
(dp6146
g7
(I00
I00
tp6147
sbaa.