(lp0
(lp1
(iModules.cell
Cell
p2
(dp3
S'pc'
p4
(lp5
I2
aI6
asS'fov'
p6
I01
sS'visible'
p7
I00
sS'turns'
p8
I49
sS'hp'
p9
I30
sS'type'
p10
(I00
I00
tp11
sba(iModules.cell
Cell
p12
(dp13
g7
I00
sg10
(I00
I00
tp14
sba(iModules.cell
Cell
p15
(dp16
g7
I00
sg10
(I00
I00
tp17
sba(iModules.cell
Cell
p18
(dp19
g7
I00
sg10
(I00
I00
tp20
sba(iModules.cell
Cell
p21
(dp22
g7
I00
sg10
(I00
I00
tp23
sba(iModules.cell
Cell
p24
(dp25
g7
I00
sg10
(I00
I00
tp26
sba(iModules.cell
Cell
p27
(dp28
g7
I00
sg10
(I00
I00
tp29
sba(iModules.cell
Cell
p30
(dp31
g7
I00
sg10
(I00
I00
tp32
sba(iModules.cell
Cell
p33
(dp34
g7
I00
sg10
(I00
I00
tp35
sba(iModules.cell
Cell
p36
(dp37
g7
I00
sg10
(I00
I00
tp38
sba(iModules.cell
Cell
p39
(dp40
g7
I00
sg10
(I00
I00
tp41
sba(iModules.cell
Cell
p42
(dp43
g7
I00
sg10
(I00
I00
tp44
sba(iModules.cell
Cell
p45
(dp46
g7
I00
sg10
(I00
I00
tp47
sba(iModules.cell
Cell
p48
(dp49
g7
I00
sg10
(I00
I00
tp50
sba(iModules.cell
Cell
p51
(dp52
g7
I00
sg10
(I00
I00
tp53
sba(iModules.cell
Cell
p54
(dp55
g7
I00
sg10
(I00
I00
tp56
sba(iModules.cell
Cell
p57
(dp58
g7
I00
sg10
(I00
I00
tp59
sba(iModules.cell
Cell
p60
(dp61
g7
I00
sg10
(I00
I00
tp62
sba(iModules.cell
Cell
p63
(dp64
g7
I00
sg10
(I00
I00
tp65
sba(iModules.cell
Cell
p66
(dp67
g7
I00
sg10
(I00
I00
tp68
sba(iModules.cell
Cell
p69
(dp70
g7
I00
sg10
(I00
I00
tp71
sba(iModules.cell
Cell
p72
(dp73
g7
I00
sg10
(I00
I00
tp74
sba(iModules.cell
Cell
p75
(dp76
g7
I00
sg10
(I00
I00
tp77
sba(iModules.cell
Cell
p78
(dp79
g7
I00
sg10
(I00
I00
tp80
sba(iModules.cell
Cell
p81
(dp82
g7
I00
sg10
(I00
I00
tp83
sba(iModules.cell
Cell
p84
(dp85
g7
I00
sg10
(I00
I00
tp86
sba(iModules.cell
Cell
p87
(dp88
g7
I00
sg10
(I00
I00
tp89
sba(iModules.cell
Cell
p90
(dp91
g7
I00
sg10
(I00
I00
tp92
sba(iModules.cell
Cell
p93
(dp94
g7
I00
sg10
(I00
I00
tp95
sba(iModules.cell
Cell
p96
(dp97
g7
I00
sg10
(I00
I00
tp98
sba(iModules.cell
Cell
p99
(dp100
g7
I00
sg10
(I00
I00
tp101
sba(iModules.cell
Cell
p102
(dp103
g7
I00
sg10
(I00
I00
tp104
sba(iModules.cell
Cell
p105
(dp106
g7
I00
sg10
(I00
I00
tp107
sba(iModules.cell
Cell
p108
(dp109
g7
I00
sg10
(I00
I00
tp110
sba(iModules.cell
Cell
p111
(dp112
g7
I00
sg10
(I00
I00
tp113
sba(iModules.cell
Cell
p114
(dp115
g7
I00
sg10
(I00
I00
tp116
sba(iModules.cell
Cell
p117
(dp118
g7
I00
sg10
(I00
I00
tp119
sba(iModules.cell
Cell
p120
(dp121
g7
I00
sg10
(I00
I00
tp122
sba(iModules.cell
Cell
p123
(dp124
g7
I00
sg10
(I00
I00
tp125
sba(iModules.cell
Cell
p126
(dp127
g7
I00
sg10
(I00
I00
tp128
sba(iModules.cell
Cell
p129
(dp130
g7
I00
sg10
(I00
I00
tp131
sba(iModules.cell
Cell
p132
(dp133
g7
I00
sg10
(I00
I00
tp134
sba(iModules.cell
Cell
p135
(dp136
g7
I00
sg10
(I00
I00
tp137
sba(iModules.cell
Cell
p138
(dp139
g7
I00
sg10
(I00
I00
tp140
sba(iModules.cell
Cell
p141
(dp142
g7
I00
sg10
(I00
I00
tp143
sba(iModules.cell
Cell
p144
(dp145
g7
I00
sg10
(I00
I00
tp146
sba(iModules.cell
Cell
p147
(dp148
g7
I00
sg10
(I00
I00
tp149
sba(iModules.cell
Cell
p150
(dp151
g7
I00
sg10
(I00
I00
tp152
sba(iModules.cell
Cell
p153
(dp154
g7
I00
sg10
(I00
I00
tp155
sba(iModules.cell
Cell
p156
(dp157
g7
I00
sg10
(I00
I00
tp158
sba(iModules.cell
Cell
p159
(dp160
g7
I00
sg10
(I00
I00
tp161
sba(iModules.cell
Cell
p162
(dp163
g7
I00
sg10
(I00
I00
tp164
sba(iModules.cell
Cell
p165
(dp166
g7
I00
sg10
(I00
I00
tp167
sba(iModules.cell
Cell
p168
(dp169
g7
I00
sg10
(I00
I00
tp170
sba(iModules.cell
Cell
p171
(dp172
g7
I00
sg10
(I00
I00
tp173
sba(iModules.cell
Cell
p174
(dp175
g7
I00
sg10
(I00
I00
tp176
sba(iModules.cell
Cell
p177
(dp178
g7
I00
sg10
(I00
I00
tp179
sba(iModules.cell
Cell
p180
(dp181
g7
I00
sg10
(I00
I00
tp182
sba(iModules.cell
Cell
p183
(dp184
g7
I00
sg10
(I00
I00
tp185
sba(iModules.cell
Cell
p186
(dp187
g7
I00
sg10
(I00
I00
tp188
sba(iModules.cell
Cell
p189
(dp190
g7
I00
sg10
(I00
I00
tp191
sba(iModules.cell
Cell
p192
(dp193
g7
I00
sg10
(I00
I00
tp194
sba(iModules.cell
Cell
p195
(dp196
g7
I00
sg10
(I00
I00
tp197
sba(iModules.cell
Cell
p198
(dp199
g7
I00
sg10
(I00
I00
tp200
sba(iModules.cell
Cell
p201
(dp202
g7
I00
sg10
(I00
I00
tp203
sba(iModules.cell
Cell
p204
(dp205
g7
I00
sg10
(I00
I00
tp206
sba(iModules.cell
Cell
p207
(dp208
g7
I00
sg10
(I00
I00
tp209
sba(iModules.cell
Cell
p210
(dp211
g7
I00
sg10
(I00
I00
tp212
sba(iModules.cell
Cell
p213
(dp214
g7
I00
sg10
(I00
I00
tp215
sba(iModules.cell
Cell
p216
(dp217
g7
I00
sg10
(I00
I00
tp218
sba(iModules.cell
Cell
p219
(dp220
g7
I00
sg10
(I00
I00
tp221
sba(iModules.cell
Cell
p222
(dp223
g7
I00
sg10
(I00
I00
tp224
sba(iModules.cell
Cell
p225
(dp226
g7
I00
sg10
(I00
I00
tp227
sba(iModules.cell
Cell
p228
(dp229
g7
I00
sg10
(I00
I00
tp230
sba(iModules.cell
Cell
p231
(dp232
g7
I00
sg10
(I00
I00
tp233
sba(iModules.cell
Cell
p234
(dp235
g7
I00
sg10
(I00
I00
tp236
sba(iModules.cell
Cell
p237
(dp238
g7
I00
sg10
(I00
I00
tp239
sba(iModules.cell
Cell
p240
(dp241
g7
I00
sg10
(I00
I00
tp242
sba(iModules.cell
Cell
p243
(dp244
g7
I00
sg10
(I00
I00
tp245
sba(iModules.cell
Cell
p246
(dp247
g7
I00
sg10
(I00
I00
tp248
sba(iModules.cell
Cell
p249
(dp250
g10
(I00
I00
tp251
sbaa(lp252
(iModules.cell
Cell
p253
(dp254
g7
I00
sg10
(I00
I00
tp255
sba(iModules.cell
Cell
p256
(dp257
g7
I00
sS'explored'
p258
I01
sg10
(I00
I00
tp259
sba(iModules.cell
Cell
p260
(dp261
g7
I00
sg258
I01
sg10
(I00
I00
tp262
sba(iModules.cell
Cell
p263
(dp264
g7
I00
sg258
I01
sg10
(I00
I00
tp265
sba(iModules.cell
Cell
p266
(dp267
g7
I00
sg258
I01
sg10
(I00
I00
tp268
sba(iModules.cell
Cell
p269
(dp270
g7
I00
sg258
I01
sg10
(I00
I00
tp271
sba(iModules.cell
Cell
p272
(dp273
g7
I00
sg258
I01
sg10
(I00
I00
tp274
sba(iModules.cell
Cell
p275
(dp276
g7
I00
sg258
I01
sg10
(I00
I00
tp277
sba(iModules.cell
Cell
p278
(dp279
g7
I00
sg258
I01
sg10
(I00
I00
tp280
sba(iModules.cell
Cell
p281
(dp282
g7
I00
sg258
I01
sg10
(I00
I00
tp283
sba(iModules.cell
Cell
p284
(dp285
g7
I00
sg258
I01
sg10
(I00
I00
tp286
sba(iModules.cell
Cell
p287
(dp288
g7
I00
sg258
I01
sg10
(I00
I00
tp289
sba(iModules.cell
Cell
p290
(dp291
g7
I00
sg258
I01
sg10
(I00
I00
tp292
sba(iModules.cell
Cell
p293
(dp294
g7
I00
sg258
I01
sg10
(I00
I00
tp295
sba(iModules.cell
Cell
p296
(dp297
g7
I00
sg258
I01
sg10
(I00
I00
tp298
sba(iModules.cell
Cell
p299
(dp300
g7
I00
sg258
I01
sg10
(I00
I00
tp301
sba(iModules.cell
Cell
p302
(dp303
g7
I00
sg258
I01
sg10
(I00
I00
tp304
sba(iModules.cell
Cell
p305
(dp306
g7
I00
sg258
I01
sg10
(I00
I00
tp307
sba(iModules.cell
Cell
p308
(dp309
g7
I00
sg258
I01
sg10
(I00
I00
tp310
sba(iModules.cell
Cell
p311
(dp312
g7
I00
sg258
I01
sg10
(I00
I00
tp313
sba(iModules.cell
Cell
p314
(dp315
g7
I00
sg258
I01
sg10
(I00
I00
tp316
sba(iModules.cell
Cell
p317
(dp318
g7
I00
sg258
I01
sg10
(I00
I00
tp319
sba(iModules.cell
Cell
p320
(dp321
g7
I00
sg258
I01
sg10
(I00
I00
tp322
sba(iModules.cell
Cell
p323
(dp324
g7
I00
sg258
I01
sg10
(I00
I00
tp325
sba(iModules.cell
Cell
p326
(dp327
g7
I00
sg258
I01
sg10
(I00
I00
tp328
sba(iModules.cell
Cell
p329
(dp330
g7
I00
sg258
I01
sg10
(I00
I00
tp331
sba(iModules.cell
Cell
p332
(dp333
g7
I00
sg258
I01
sg10
(I00
I00
tp334
sba(iModules.cell
Cell
p335
(dp336
g7
I00
sg258
I01
sg10
(I00
I00
tp337
sba(iModules.cell
Cell
p338
(dp339
g7
I00
sg10
(I00
I00
tp340
sba(iModules.cell
Cell
p341
(dp342
g7
I00
sg10
(I00
I00
tp343
sba(iModules.cell
Cell
p344
(dp345
g7
I00
sg10
(I00
I00
tp346
sba(iModules.cell
Cell
p347
(dp348
g7
I00
sg10
(I00
I00
tp349
sba(iModules.cell
Cell
p350
(dp351
g7
I00
sg10
(I00
I00
tp352
sba(iModules.cell
Cell
p353
(dp354
g7
I00
sg10
(I00
I00
tp355
sba(iModules.cell
Cell
p356
(dp357
g7
I00
sg10
(I00
I00
tp358
sba(iModules.cell
Cell
p359
(dp360
g7
I00
sg10
(I00
I00
tp361
sba(iModules.cell
Cell
p362
(dp363
g7
I00
sg10
(I00
I00
tp364
sba(iModules.cell
Cell
p365
(dp366
g7
I00
sg10
(I00
I00
tp367
sba(iModules.cell
Cell
p368
(dp369
g7
I00
sg10
(I00
I00
tp370
sba(iModules.cell
Cell
p371
(dp372
g7
I00
sg10
(I00
I00
tp373
sba(iModules.cell
Cell
p374
(dp375
g7
I00
sg10
(I00
I00
tp376
sba(iModules.cell
Cell
p377
(dp378
g7
I00
sg10
(I00
I00
tp379
sba(iModules.cell
Cell
p380
(dp381
g7
I00
sg10
(I00
I00
tp382
sba(iModules.cell
Cell
p383
(dp384
g7
I00
sg10
(I00
I00
tp385
sba(iModules.cell
Cell
p386
(dp387
g7
I00
sg10
(I00
I00
tp388
sba(iModules.cell
Cell
p389
(dp390
g7
I00
sg10
(I00
I00
tp391
sba(iModules.cell
Cell
p392
(dp393
g7
I00
sg10
(I00
I00
tp394
sba(iModules.cell
Cell
p395
(dp396
g7
I00
sg10
(I00
I00
tp397
sba(iModules.cell
Cell
p398
(dp399
g7
I00
sg10
(I00
I00
tp400
sba(iModules.cell
Cell
p401
(dp402
g7
I00
sg10
(I00
I00
tp403
sba(iModules.cell
Cell
p404
(dp405
g7
I00
sg10
(I00
I00
tp406
sba(iModules.cell
Cell
p407
(dp408
g7
I00
sg10
(I00
I00
tp409
sba(iModules.cell
Cell
p410
(dp411
g7
I00
sg10
(I00
I00
tp412
sba(iModules.cell
Cell
p413
(dp414
g7
I00
sg10
(I00
I00
tp415
sba(iModules.cell
Cell
p416
(dp417
g7
I00
sg10
(I00
I00
tp418
sba(iModules.cell
Cell
p419
(dp420
g7
I00
sg10
(I00
I00
tp421
sba(iModules.cell
Cell
p422
(dp423
g7
I00
sg10
(I00
I00
tp424
sba(iModules.cell
Cell
p425
(dp426
g7
I00
sg10
(I00
I00
tp427
sba(iModules.cell
Cell
p428
(dp429
g7
I00
sg10
(I00
I00
tp430
sba(iModules.cell
Cell
p431
(dp432
g7
I00
sg10
(I00
I00
tp433
sba(iModules.cell
Cell
p434
(dp435
g7
I00
sg10
(I00
I00
tp436
sba(iModules.cell
Cell
p437
(dp438
g7
I00
sg10
(I00
I00
tp439
sba(iModules.cell
Cell
p440
(dp441
g7
I00
sg10
(I00
I00
tp442
sba(iModules.cell
Cell
p443
(dp444
g7
I00
sg10
(I00
I00
tp445
sba(iModules.cell
Cell
p446
(dp447
g7
I00
sg10
(I00
I00
tp448
sba(iModules.cell
Cell
p449
(dp450
g7
I00
sg10
(I00
I00
tp451
sba(iModules.cell
Cell
p452
(dp453
g7
I00
sg10
(I00
I00
tp454
sba(iModules.cell
Cell
p455
(dp456
g7
I00
sg10
(I00
I00
tp457
sba(iModules.cell
Cell
p458
(dp459
g7
I00
sg10
(I00
I00
tp460
sba(iModules.cell
Cell
p461
(dp462
g7
I00
sg10
(I00
I00
tp463
sba(iModules.cell
Cell
p464
(dp465
g7
I00
sg10
(I00
I00
tp466
sba(iModules.cell
Cell
p467
(dp468
g7
I00
sg10
(I00
I00
tp469
sba(iModules.cell
Cell
p470
(dp471
g7
I00
sg10
(I00
I00
tp472
sba(iModules.cell
Cell
p473
(dp474
g7
I00
sg10
(I00
I00
tp475
sba(iModules.cell
Cell
p476
(dp477
g7
I00
sg10
(I00
I00
tp478
sba(iModules.cell
Cell
p479
(dp480
g7
I00
sg10
(I00
I00
tp481
sba(iModules.cell
Cell
p482
(dp483
g7
I00
sg10
(I00
I00
tp484
sba(iModules.cell
Cell
p485
(dp486
g7
I00
sg10
(I00
I00
tp487
sba(iModules.cell
Cell
p488
(dp489
g7
I00
sg10
(I00
I00
tp490
sba(iModules.cell
Cell
p491
(dp492
g7
I00
sg10
(I00
I00
tp493
sba(iModules.cell
Cell
p494
(dp495
g10
(I00
I00
tp496
sbaa(lp497
(iModules.cell
Cell
p498
(dp499
g7
I00
sg10
(I00
I00
tp500
sba(iModules.cell
Cell
p501
(dp502
g7
I00
sg258
I01
sg10
(I00
I00
tp503
sba(iModules.cell
Cell
p504
(dp505
g7
I00
sg258
I01
sg10
(I01
I01
tp506
sba(iModules.cell
Cell
p507
(dp508
g7
I00
sg258
I01
sg10
(I01
I01
tp509
sba(iModules.cell
Cell
p510
(dp511
g7
I00
sg258
I01
sg10
(I01
I01
tp512
sba(iModules.cell
Cell
p513
(dp514
g7
I00
sg258
I01
sg10
(I01
I01
tp515
sba(iModules.cell
Cell
p516
(dp517
g7
I00
sg258
I01
sg10
(I01
I01
tp518
sba(iModules.cell
Cell
p519
(dp520
g7
I00
sg258
I01
sg10
(I01
I01
tp521
sba(iModules.cell
Cell
p522
(dp523
g7
I00
sg258
I01
sg10
(I01
I01
tp524
sba(iModules.cell
Cell
p525
(dp526
g7
I00
sg258
I01
sg10
(I01
I01
tp527
sba(iModules.cell
Cell
p528
(dp529
g7
I00
sg258
I01
sg10
(I01
I01
tp530
sba(iModules.cell
Cell
p531
(dp532
g7
I00
sg258
I01
sg10
(I01
I01
tp533
sba(iModules.cell
Cell
p534
(dp535
g7
I00
sg258
I01
sg10
(I01
I01
tp536
sba(iModules.cell
Cell
p537
(dp538
g7
I00
sg258
I01
sg10
(I01
I01
tp539
sba(iModules.cell
Cell
p540
(dp541
g7
I00
sg258
I01
sg10
(I01
I01
tp542
sba(iModules.cell
Cell
p543
(dp544
g7
I00
sg258
I01
sg10
(I01
I01
tp545
sba(iModules.cell
Cell
p546
(dp547
g7
I00
sg258
I01
sg10
(I01
I01
tp548
sba(iModules.cell
Cell
p549
(dp550
g7
I00
sg258
I01
sg10
(I01
I01
tp551
sba(iModules.cell
Cell
p552
(dp553
g7
I00
sg258
I01
sg10
(I01
I01
tp554
sba(iModules.cell
Cell
p555
(dp556
g7
I00
sg258
I01
sg10
(I01
I01
tp557
sba(iModules.cell
Cell
p558
(dp559
g7
I00
sg258
I01
sg10
(I01
I01
tp560
sba(iModules.cell
Cell
p561
(dp562
g7
I00
sg258
I01
sg10
(I01
I01
tp563
sba(iModules.cell
Cell
p564
(dp565
g7
I00
sg258
I01
sg10
(I01
I01
tp566
sba(iModules.cell
Cell
p567
(dp568
g7
I00
sg258
I01
sg10
(I01
I01
tp569
sba(iModules.cell
Cell
p570
(dp571
g7
I00
sg258
I01
sg10
(I01
I01
tp572
sba(iModules.cell
Cell
p573
(dp574
g7
I00
sg258
I01
sg10
(I01
I01
tp575
sba(iModules.cell
Cell
p576
(dp577
g7
I00
sg258
I01
sg10
(I01
I01
tp578
sba(iModules.cell
Cell
p579
(dp580
g7
I00
sg258
I01
sg10
(I01
I01
tp581
sba(iModules.cell
Cell
p582
(dp583
g7
I00
sg10
(I01
I01
tp584
sba(iModules.cell
Cell
p585
(dp586
g7
I00
sg10
(I01
I01
tp587
sba(iModules.cell
Cell
p588
(dp589
g7
I00
sg10
(I01
I01
tp590
sba(iModules.cell
Cell
p591
(dp592
g7
I00
sg10
(I01
I01
tp593
sba(iModules.cell
Cell
p594
(dp595
g7
I00
sg10
(I01
I01
tp596
sba(iModules.cell
Cell
p597
(dp598
g7
I00
sg10
(I01
I01
tp599
sba(iModules.cell
Cell
p600
(dp601
g7
I00
sg10
(I01
I01
tp602
sba(iModules.cell
Cell
p603
(dp604
g7
I00
sg10
(I01
I01
tp605
sba(iModules.cell
Cell
p606
(dp607
g7
I00
sg10
(I01
I01
tp608
sba(iModules.cell
Cell
p609
(dp610
g7
I00
sg10
(I01
I01
tp611
sba(iModules.cell
Cell
p612
(dp613
g7
I00
sg10
(I01
I01
tp614
sba(iModules.cell
Cell
p615
(dp616
g7
I00
sg10
(I01
I01
tp617
sba(iModules.cell
Cell
p618
(dp619
g7
I00
sg10
(I01
I01
tp620
sba(iModules.cell
Cell
p621
(dp622
g7
I00
sg10
(I01
I01
tp623
sba(iModules.cell
Cell
p624
(dp625
g7
I00
sg10
(I01
I01
tp626
sba(iModules.cell
Cell
p627
(dp628
g7
I00
sg10
(I01
I01
tp629
sba(iModules.cell
Cell
p630
(dp631
g7
I00
sg10
(I01
I01
tp632
sba(iModules.cell
Cell
p633
(dp634
g7
I00
sg10
(I01
I01
tp635
sba(iModules.cell
Cell
p636
(dp637
g7
I00
sg10
(I01
I01
tp638
sba(iModules.cell
Cell
p639
(dp640
g7
I00
sg10
(I01
I01
tp641
sba(iModules.cell
Cell
p642
(dp643
g7
I00
sg10
(I01
I01
tp644
sba(iModules.cell
Cell
p645
(dp646
g7
I00
sg10
(I01
I01
tp647
sba(iModules.cell
Cell
p648
(dp649
g7
I00
sg10
(I01
I01
tp650
sba(iModules.cell
Cell
p651
(dp652
g7
I00
sg10
(I01
I01
tp653
sba(iModules.cell
Cell
p654
(dp655
g7
I00
sg10
(I01
I01
tp656
sba(iModules.cell
Cell
p657
(dp658
g7
I00
sg10
(I01
I01
tp659
sba(iModules.cell
Cell
p660
(dp661
g7
I00
sg10
(I01
I01
tp662
sba(iModules.cell
Cell
p663
(dp664
g7
I00
sg10
(I01
I01
tp665
sba(iModules.cell
Cell
p666
(dp667
g7
I00
sg10
(I01
I01
tp668
sba(iModules.cell
Cell
p669
(dp670
g7
I00
sg10
(I01
I01
tp671
sba(iModules.cell
Cell
p672
(dp673
g7
I00
sg10
(I01
I01
tp674
sba(iModules.cell
Cell
p675
(dp676
g7
I00
sg10
(I01
I01
tp677
sba(iModules.cell
Cell
p678
(dp679
g7
I00
sg10
(I01
I01
tp680
sba(iModules.cell
Cell
p681
(dp682
g7
I00
sg10
(I00
I00
tp683
sba(iModules.cell
Cell
p684
(dp685
g7
I00
sg10
(I00
I00
tp686
sba(iModules.cell
Cell
p687
(dp688
g7
I00
sg10
(I00
I00
tp689
sba(iModules.cell
Cell
p690
(dp691
g7
I00
sg10
(I00
I00
tp692
sba(iModules.cell
Cell
p693
(dp694
g7
I00
sg10
(I00
I00
tp695
sba(iModules.cell
Cell
p696
(dp697
g7
I00
sg10
(I00
I00
tp698
sba(iModules.cell
Cell
p699
(dp700
g7
I00
sg10
(I00
I00
tp701
sba(iModules.cell
Cell
p702
(dp703
g7
I00
sg10
(I00
I00
tp704
sba(iModules.cell
Cell
p705
(dp706
g7
I00
sg10
(I00
I00
tp707
sba(iModules.cell
Cell
p708
(dp709
g7
I00
sg10
(I00
I00
tp710
sba(iModules.cell
Cell
p711
(dp712
g7
I00
sg10
(I00
I00
tp713
sba(iModules.cell
Cell
p714
(dp715
g7
I00
sg10
(I00
I00
tp716
sba(iModules.cell
Cell
p717
(dp718
g7
I00
sg10
(I00
I00
tp719
sba(iModules.cell
Cell
p720
(dp721
g7
I00
sg10
(I00
I00
tp722
sba(iModules.cell
Cell
p723
(dp724
g7
I00
sg10
(I00
I00
tp725
sba(iModules.cell
Cell
p726
(dp727
g7
I00
sg10
(I00
I00
tp728
sba(iModules.cell
Cell
p729
(dp730
g7
I00
sg10
(I00
I00
tp731
sba(iModules.cell
Cell
p732
(dp733
g7
I00
sg10
(I00
I00
tp734
sba(iModules.cell
Cell
p735
(dp736
g7
I00
sg10
(I00
I00
tp737
sba(iModules.cell
Cell
p738
(dp739
g10
(I00
I00
tp740
sbaa(lp741
(iModules.cell
Cell
p742
(dp743
g7
I00
sg10
(I00
I00
tp744
sba(iModules.cell
Cell
p745
(dp746
g7
I00
sg258
I01
sg10
(I00
I00
tp747
sba(iModules.cell
Cell
p748
(dp749
g7
I00
sg258
I01
sg10
(I01
I01
tp750
sba(iModules.cell
Cell
p751
(dp752
g7
I00
sg258
I01
sg10
(I01
I01
tp753
sba(iModules.cell
Cell
p754
(dp755
g7
I00
sg258
I01
sg10
(I01
I01
tp756
sba(iModules.cell
Cell
p757
(dp758
g7
I00
sg258
I01
sg10
(I01
I01
tp759
sba(iModules.cell
Cell
p760
(dp761
g7
I00
sg258
I01
sg10
(I01
I01
tp762
sba(iModules.cell
Cell
p763
(dp764
g7
I00
sg258
I01
sg10
(I01
I01
tp765
sba(iModules.cell
Cell
p766
(dp767
g7
I00
sg258
I01
sg10
(I01
I01
tp768
sba(iModules.cell
Cell
p769
(dp770
g7
I00
sg258
I01
sg10
(I01
I01
tp771
sba(iModules.cell
Cell
p772
(dp773
g7
I00
sg258
I01
sg10
(I01
I01
tp774
sba(iModules.cell
Cell
p775
(dp776
g7
I00
sg258
I01
sg10
(I01
I01
tp777
sba(iModules.cell
Cell
p778
(dp779
g7
I00
sg258
I01
sg10
(I01
I01
tp780
sba(iModules.cell
Cell
p781
(dp782
g7
I00
sg258
I01
sg10
(I01
I01
tp783
sba(iModules.cell
Cell
p784
(dp785
g7
I00
sg258
I01
sg10
(I01
I01
tp786
sba(iModules.cell
Cell
p787
(dp788
g7
I00
sg258
I01
sg10
(I01
I01
tp789
sba(iModules.cell
Cell
p790
(dp791
g7
I00
sg258
I01
sg10
(I01
I01
tp792
sba(iModules.cell
Cell
p793
(dp794
g7
I00
sg258
I01
sg10
(I01
I01
tp795
sba(iModules.cell
Cell
p796
(dp797
g7
I00
sg258
I01
sg10
(I01
I01
tp798
sba(iModules.cell
Cell
p799
(dp800
g7
I00
sg258
I01
sg10
(I01
I01
tp801
sba(iModules.cell
Cell
p802
(dp803
g7
I00
sg258
I01
sg10
(I01
I01
tp804
sba(iModules.cell
Cell
p805
(dp806
g7
I00
sg258
I01
sg10
(I01
I01
tp807
sba(iModules.cell
Cell
p808
(dp809
g7
I00
sg258
I01
sg10
(I01
I01
tp810
sba(iModules.cell
Cell
p811
(dp812
g7
I00
sg258
I01
sg10
(I01
I01
tp813
sba(iModules.cell
Cell
p814
(dp815
g7
I00
sg258
I01
sg10
(I01
I01
tp816
sba(iModules.cell
Cell
p817
(dp818
g7
I00
sg258
I01
sg10
(I01
I01
tp819
sba(iModules.cell
Cell
p820
(dp821
g7
I00
sg258
I01
sg10
(I01
I01
tp822
sba(iModules.cell
Cell
p823
(dp824
g7
I00
sg258
I01
sg10
(I01
I01
tp825
sba(iModules.cell
Cell
p826
(dp827
g7
I00
sg10
(I01
I01
tp828
sba(iModules.cell
Cell
p829
(dp830
g7
I00
sg10
(I01
I01
tp831
sba(iModules.cell
Cell
p832
(dp833
g7
I00
sg10
(I01
I01
tp834
sba(iModules.cell
Cell
p835
(dp836
g7
I00
sg10
(I01
I01
tp837
sba(iModules.cell
Cell
p838
(dp839
g7
I00
sg10
(I01
I01
tp840
sba(iModules.cell
Cell
p841
(dp842
g7
I00
sg10
(I01
I01
tp843
sba(iModules.cell
Cell
p844
(dp845
g7
I00
sg10
(I01
I01
tp846
sba(iModules.cell
Cell
p847
(dp848
g7
I00
sg10
(I01
I01
tp849
sba(iModules.cell
Cell
p850
(dp851
g7
I00
sg10
(I01
I01
tp852
sba(iModules.cell
Cell
p853
(dp854
g7
I00
sg10
(I01
I01
tp855
sba(iModules.cell
Cell
p856
(dp857
g7
I00
sg10
(I01
I01
tp858
sba(iModules.cell
Cell
p859
(dp860
g7
I00
sg10
(I01
I01
tp861
sba(iModules.cell
Cell
p862
(dp863
g7
I00
sg10
(I01
I01
tp864
sba(iModules.cell
Cell
p865
(dp866
g7
I00
sg10
(I01
I01
tp867
sba(iModules.cell
Cell
p868
(dp869
g7
I00
sg10
(I01
I01
tp870
sba(iModules.cell
Cell
p871
(dp872
g7
I00
sg10
(I01
I01
tp873
sba(iModules.cell
Cell
p874
(dp875
g7
I00
sg10
(I01
I01
tp876
sba(iModules.cell
Cell
p877
(dp878
g7
I00
sg10
(I01
I01
tp879
sba(iModules.cell
Cell
p880
(dp881
g7
I00
sg10
(I01
I01
tp882
sba(iModules.cell
Cell
p883
(dp884
g7
I00
sg10
(I01
I01
tp885
sba(iModules.cell
Cell
p886
(dp887
g7
I00
sg10
(I01
I01
tp888
sba(iModules.cell
Cell
p889
(dp890
g7
I00
sg10
(I01
I01
tp891
sba(iModules.cell
Cell
p892
(dp893
g7
I00
sg10
(I01
I01
tp894
sba(iModules.cell
Cell
p895
(dp896
g7
I00
sg10
(I01
I01
tp897
sba(iModules.cell
Cell
p898
(dp899
g7
I00
sg10
(I01
I01
tp900
sba(iModules.cell
Cell
p901
(dp902
g7
I00
sg10
(I01
I01
tp903
sba(iModules.cell
Cell
p904
(dp905
g7
I00
sg10
(I01
I01
tp906
sba(iModules.cell
Cell
p907
(dp908
g7
I00
sg10
(I01
I01
tp909
sba(iModules.cell
Cell
p910
(dp911
g7
I00
sg10
(I01
I01
tp912
sba(iModules.cell
Cell
p913
(dp914
g7
I00
sg10
(I01
I01
tp915
sba(iModules.cell
Cell
p916
(dp917
g7
I00
sg10
(I01
I01
tp918
sba(iModules.cell
Cell
p919
(dp920
g7
I00
sg10
(I01
I01
tp921
sba(iModules.cell
Cell
p922
(dp923
g7
I00
sg10
(I01
I01
tp924
sba(iModules.cell
Cell
p925
(dp926
g7
I00
sg10
(I00
I00
tp927
sba(iModules.cell
Cell
p928
(dp929
g7
I00
sg10
(I00
I00
tp930
sba(iModules.cell
Cell
p931
(dp932
g7
I00
sg10
(I00
I00
tp933
sba(iModules.cell
Cell
p934
(dp935
g7
I00
sg10
(I00
I00
tp936
sba(iModules.cell
Cell
p937
(dp938
g7
I00
sg10
(I00
I00
tp939
sba(iModules.cell
Cell
p940
(dp941
g7
I00
sg10
(I00
I00
tp942
sba(iModules.cell
Cell
p943
(dp944
g7
I00
sg10
(I00
I00
tp945
sba(iModules.cell
Cell
p946
(dp947
g7
I00
sg10
(I00
I00
tp948
sba(iModules.cell
Cell
p949
(dp950
g7
I00
sg10
(I00
I00
tp951
sba(iModules.cell
Cell
p952
(dp953
g7
I00
sg10
(I00
I00
tp954
sba(iModules.cell
Cell
p955
(dp956
g7
I00
sg10
(I00
I00
tp957
sba(iModules.cell
Cell
p958
(dp959
g7
I00
sg10
(I00
I00
tp960
sba(iModules.cell
Cell
p961
(dp962
g7
I00
sg10
(I00
I00
tp963
sba(iModules.cell
Cell
p964
(dp965
g7
I00
sg10
(I00
I00
tp966
sba(iModules.cell
Cell
p967
(dp968
g7
I00
sg10
(I00
I00
tp969
sba(iModules.cell
Cell
p970
(dp971
g7
I00
sg10
(I00
I00
tp972
sba(iModules.cell
Cell
p973
(dp974
g7
I00
sg10
(I00
I00
tp975
sba(iModules.cell
Cell
p976
(dp977
g7
I00
sg10
(I00
I00
tp978
sba(iModules.cell
Cell
p979
(dp980
g7
I00
sg10
(I00
I00
tp981
sba(iModules.cell
Cell
p982
(dp983
g10
(I00
I00
tp984
sbaa(lp985
(iModules.cell
Cell
p986
(dp987
g7
I00
sg10
(I00
I00
tp988
sba(iModules.cell
Cell
p989
(dp990
g7
I00
sg258
I01
sg10
(I00
I00
tp991
sba(iModules.cell
Cell
p992
(dp993
g7
I00
sg258
I01
sg10
(I01
I01
tp994
sba(iModules.cell
Cell
p995
(dp996
g7
I00
sg258
I01
sg10
(I01
I01
tp997
sba(iModules.cell
Cell
p998
(dp999
g7
I00
sg258
I01
sg10
(I01
I01
tp1000
sba(iModules.cell
Cell
p1001
(dp1002
S'lit'
p1003
I01
sg7
I01
sg258
I01
sg10
(I01
I01
tp1004
sba(iModules.cell
Cell
p1005
(dp1006
g1003
I01
sg7
I01
sg258
I01
sg10
(I01
I01
tp1007
sba(iModules.cell
Cell
p1008
(dp1009
g1003
I01
sg7
I01
sg258
I01
sg10
(I01
I01
tp1010
sba(iModules.cell
Cell
p1011
(dp1012
g7
I00
sg258
I01
sg10
(I01
I01
tp1013
sba(iModules.cell
Cell
p1014
(dp1015
g7
I00
sg258
I01
sg10
(I01
I01
tp1016
sba(iModules.cell
Cell
p1017
(dp1018
g7
I00
sg258
I01
sg10
(I01
I01
tp1019
sba(iModules.cell
Cell
p1020
(dp1021
g7
I00
sg258
I01
sg10
(I01
I01
tp1022
sba(iModules.cell
Cell
p1023
(dp1024
g7
I00
sg258
I01
sg10
(I01
I01
tp1025
sba(iModules.cell
Cell
p1026
(dp1027
g7
I00
sg258
I01
sg10
(I01
I01
tp1028
sba(iModules.cell
Cell
p1029
(dp1030
g7
I00
sg258
I01
sg10
(I01
I01
tp1031
sba(iModules.cell
Cell
p1032
(dp1033
g7
I00
sg258
I01
sg10
(I01
I01
tp1034
sba(iModules.cell
Cell
p1035
(dp1036
g7
I00
sg258
I01
sg10
(I01
I01
tp1037
sba(iModules.cell
Cell
p1038
(dp1039
g7
I00
sg258
I01
sg10
(I01
I01
tp1040
sba(iModules.cell
Cell
p1041
(dp1042
g7
I00
sg258
I01
sg10
(I01
I01
tp1043
sba(iModules.cell
Cell
p1044
(dp1045
g7
I00
sg258
I01
sg10
(I01
I01
tp1046
sba(iModules.cell
Cell
p1047
(dp1048
g7
I00
sg258
I01
sg10
(I01
I01
tp1049
sba(iModules.cell
Cell
p1050
(dp1051
g7
I00
sg258
I01
sg10
(I01
I01
tp1052
sba(iModules.cell
Cell
p1053
(dp1054
g7
I00
sg258
I01
sg10
(I01
I01
tp1055
sba(iModules.cell
Cell
p1056
(dp1057
g7
I00
sg258
I01
sg10
(I01
I01
tp1058
sba(iModules.cell
Cell
p1059
(dp1060
g7
I00
sg258
I01
sg10
(I01
I01
tp1061
sba(iModules.cell
Cell
p1062
(dp1063
g7
I00
sg258
I01
sg10
(I01
I01
tp1064
sba(iModules.cell
Cell
p1065
(dp1066
g7
I00
sg258
I01
sg10
(I01
I01
tp1067
sba(iModules.cell
Cell
p1068
(dp1069
g7
I00
sg258
I01
sg10
(I01
I01
tp1070
sba(iModules.cell
Cell
p1071
(dp1072
g7
I00
sg10
(I01
I01
tp1073
sba(iModules.cell
Cell
p1074
(dp1075
g7
I00
sg10
(I01
I01
tp1076
sba(iModules.cell
Cell
p1077
(dp1078
g7
I00
sg10
(I01
I01
tp1079
sba(iModules.cell
Cell
p1080
(dp1081
g7
I00
sg10
(I01
I01
tp1082
sba(iModules.cell
Cell
p1083
(dp1084
g7
I00
sg10
(I01
I01
tp1085
sba(iModules.cell
Cell
p1086
(dp1087
g7
I00
sg10
(I01
I01
tp1088
sba(iModules.cell
Cell
p1089
(dp1090
g7
I00
sg10
(I01
I01
tp1091
sba(iModules.cell
Cell
p1092
(dp1093
g7
I00
sg10
(I01
I01
tp1094
sba(iModules.cell
Cell
p1095
(dp1096
g7
I00
sg10
(I01
I01
tp1097
sba(iModules.cell
Cell
p1098
(dp1099
g7
I00
sg10
(I01
I01
tp1100
sba(iModules.cell
Cell
p1101
(dp1102
g7
I00
sg10
(I01
I01
tp1103
sba(iModules.cell
Cell
p1104
(dp1105
g7
I00
sg10
(I01
I01
tp1106
sba(iModules.cell
Cell
p1107
(dp1108
g7
I00
sg10
(I01
I01
tp1109
sba(iModules.cell
Cell
p1110
(dp1111
g7
I00
sg10
(I01
I01
tp1112
sba(iModules.cell
Cell
p1113
(dp1114
g7
I00
sg10
(I01
I01
tp1115
sba(iModules.cell
Cell
p1116
(dp1117
g7
I00
sg10
(I01
I01
tp1118
sba(iModules.cell
Cell
p1119
(dp1120
g7
I00
sg10
(I01
I01
tp1121
sba(iModules.cell
Cell
p1122
(dp1123
g7
I00
sg10
(I01
I01
tp1124
sba(iModules.cell
Cell
p1125
(dp1126
g7
I00
sg10
(I01
I01
tp1127
sba(iModules.cell
Cell
p1128
(dp1129
g7
I00
sg10
(I01
I01
tp1130
sba(iModules.cell
Cell
p1131
(dp1132
g7
I00
sg10
(I01
I01
tp1133
sba(iModules.cell
Cell
p1134
(dp1135
g7
I00
sg10
(I01
I01
tp1136
sba(iModules.cell
Cell
p1137
(dp1138
g7
I00
sg10
(I01
I01
tp1139
sba(iModules.cell
Cell
p1140
(dp1141
g7
I00
sg10
(I01
I01
tp1142
sba(iModules.cell
Cell
p1143
(dp1144
g7
I00
sg10
(I01
I01
tp1145
sba(iModules.cell
Cell
p1146
(dp1147
g7
I00
sg10
(I01
I01
tp1148
sba(iModules.cell
Cell
p1149
(dp1150
g7
I00
sg10
(I01
I01
tp1151
sba(iModules.cell
Cell
p1152
(dp1153
g7
I00
sg10
(I01
I01
tp1154
sba(iModules.cell
Cell
p1155
(dp1156
g7
I00
sg10
(I01
I01
tp1157
sba(iModules.cell
Cell
p1158
(dp1159
g7
I00
sg10
(I01
I01
tp1160
sba(iModules.cell
Cell
p1161
(dp1162
g7
I00
sg10
(I01
I01
tp1163
sba(iModules.cell
Cell
p1164
(dp1165
g7
I00
sg10
(I01
I01
tp1166
sba(iModules.cell
Cell
p1167
(dp1168
g7
I00
sg10
(I01
I01
tp1169
sba(iModules.cell
Cell
p1170
(dp1171
g7
I00
sg10
(I00
I00
tp1172
sba(iModules.cell
Cell
p1173
(dp1174
g7
I00
sg10
(I00
I00
tp1175
sba(iModules.cell
Cell
p1176
(dp1177
g7
I00
sg10
(I00
I00
tp1178
sba(iModules.cell
Cell
p1179
(dp1180
g7
I00
sg10
(I00
I00
tp1181
sba(iModules.cell
Cell
p1182
(dp1183
g7
I00
sg10
(I00
I00
tp1184
sba(iModules.cell
Cell
p1185
(dp1186
g7
I00
sg10
(I00
I00
tp1187
sba(iModules.cell
Cell
p1188
(dp1189
g7
I00
sg10
(I00
I00
tp1190
sba(iModules.cell
Cell
p1191
(dp1192
g7
I00
sg10
(I00
I00
tp1193
sba(iModules.cell
Cell
p1194
(dp1195
g7
I00
sg10
(I00
I00
tp1196
sba(iModules.cell
Cell
p1197
(dp1198
g7
I00
sg10
(I00
I00
tp1199
sba(iModules.cell
Cell
p1200
(dp1201
g7
I00
sg10
(I00
I00
tp1202
sba(iModules.cell
Cell
p1203
(dp1204
g7
I00
sg10
(I00
I00
tp1205
sba(iModules.cell
Cell
p1206
(dp1207
g7
I00
sg10
(I00
I00
tp1208
sba(iModules.cell
Cell
p1209
(dp1210
g7
I00
sg10
(I00
I00
tp1211
sba(iModules.cell
Cell
p1212
(dp1213
g7
I00
sg10
(I00
I00
tp1214
sba(iModules.cell
Cell
p1215
(dp1216
g7
I00
sg10
(I00
I00
tp1217
sba(iModules.cell
Cell
p1218
(dp1219
g7
I00
sg10
(I00
I00
tp1220
sba(iModules.cell
Cell
p1221
(dp1222
g7
I00
sg10
(I00
I00
tp1223
sba(iModules.cell
Cell
p1224
(dp1225
g7
I00
sg10
(I00
I00
tp1226
sba(iModules.cell
Cell
p1227
(dp1228
g10
(I00
I00
tp1229
sbaa(lp1230
(iModules.cell
Cell
p1231
(dp1232
g7
I00
sg10
(I00
I00
tp1233
sba(iModules.cell
Cell
p1234
(dp1235
g7
I00
sg258
I01
sg10
(I00
I00
tp1236
sba(iModules.cell
Cell
p1237
(dp1238
g7
I00
sg258
I01
sg10
(I01
I01
tp1239
sba(iModules.cell
Cell
p1240
(dp1241
g7
I00
sg258
I01
sg10
(I01
I01
tp1242
sba(iModules.cell
Cell
p1243
(dp1244
g7
I00
sg258
I01
sg10
(I01
I01
tp1245
sba(iModules.cell
Cell
p1246
(dp1247
g1003
I00
sg7
I00
sg258
I01
sg10
(I00
I00
I00
tp1248
sS'lit_by'
p1249
(lp1250
I5
aI5
asba(iModules.cell
Cell
p1251
(dp1252
g1003
I00
sg7
I00
sg258
I01
sg10
(I00
I00
I00
tp1253
sg1249
(lp1254
I5
aI6
asba(iModules.cell
Cell
p1255
(dp1256
g1003
I00
sg7
I00
sg258
I01
sg10
(I00
I00
I00
tp1257
sg1249
(lp1258
I5
aI7
asba(iModules.cell
Cell
p1259
(dp1260
g7
I00
sg258
I01
sg10
(I01
I01
tp1261
sba(iModules.cell
Cell
p1262
(dp1263
g7
I00
sg258
I01
sg10
(I01
I01
tp1264
sba(iModules.cell
Cell
p1265
(dp1266
g7
I00
sg258
I01
sg10
(I01
I01
tp1267
sba(iModules.cell
Cell
p1268
(dp1269
g7
I00
sg258
I01
sg10
(I01
I01
tp1270
sba(iModules.cell
Cell
p1271
(dp1272
g7
I00
sg258
I01
sg10
(I01
I01
tp1273
sba(iModules.cell
Cell
p1274
(dp1275
g7
I00
sg258
I01
sg10
(I01
I01
tp1276
sba(iModules.cell
Cell
p1277
(dp1278
g7
I00
sg258
I01
sg10
(I01
I01
tp1279
sba(iModules.cell
Cell
p1280
(dp1281
g7
I00
sg258
I01
sg10
(I01
I01
tp1282
sba(iModules.cell
Cell
p1283
(dp1284
g7
I00
sg258
I01
sg10
(I01
I01
tp1285
sba(iModules.cell
Cell
p1286
(dp1287
g7
I00
sg258
I01
sg10
(I01
I01
tp1288
sba(iModules.cell
Cell
p1289
(dp1290
g7
I00
sg258
I01
sg10
(I01
I01
tp1291
sba(iModules.cell
Cell
p1292
(dp1293
g7
I00
sg258
I01
sg10
(I01
I01
tp1294
sba(iModules.cell
Cell
p1295
(dp1296
g7
I00
sg258
I01
sg10
(I01
I01
tp1297
sba(iModules.cell
Cell
p1298
(dp1299
g7
I00
sg258
I01
sg10
(I01
I01
tp1300
sba(iModules.cell
Cell
p1301
(dp1302
g7
I00
sg258
I01
sg10
(I01
I01
tp1303
sba(iModules.cell
Cell
p1304
(dp1305
g7
I00
sg258
I01
sg10
(I01
I01
tp1306
sba(iModules.cell
Cell
p1307
(dp1308
g7
I00
sg258
I01
sg10
(I01
I01
tp1309
sba(iModules.cell
Cell
p1310
(dp1311
g7
I00
sg258
I01
sg10
(I01
I01
tp1312
sba(iModules.cell
Cell
p1313
(dp1314
g7
I00
sg258
I01
sg10
(I01
I01
tp1315
sba(iModules.cell
Cell
p1316
(dp1317
g7
I00
sg258
I01
sg10
(I01
I01
tp1318
sba(iModules.cell
Cell
p1319
(dp1320
g7
I00
sg10
(I01
I01
tp1321
sba(iModules.cell
Cell
p1322
(dp1323
g7
I00
sg10
(I01
I01
tp1324
sba(iModules.cell
Cell
p1325
(dp1326
g7
I00
sg10
(I01
I01
tp1327
sba(iModules.cell
Cell
p1328
(dp1329
g7
I00
sg10
(I01
I01
tp1330
sba(iModules.cell
Cell
p1331
(dp1332
g7
I00
sg10
(I01
I01
tp1333
sba(iModules.cell
Cell
p1334
(dp1335
g7
I00
sg10
(I01
I01
tp1336
sba(iModules.cell
Cell
p1337
(dp1338
g7
I00
sg10
(I01
I01
tp1339
sba(iModules.cell
Cell
p1340
(dp1341
g7
I00
sg10
(I01
I01
tp1342
sba(iModules.cell
Cell
p1343
(dp1344
g7
I00
sg10
(I01
I01
tp1345
sba(iModules.cell
Cell
p1346
(dp1347
g7
I00
sg10
(I01
I01
tp1348
sba(iModules.cell
Cell
p1349
(dp1350
g7
I00
sg10
(I01
I01
tp1351
sba(iModules.cell
Cell
p1352
(dp1353
g7
I00
sg10
(I01
I01
tp1354
sba(iModules.cell
Cell
p1355
(dp1356
g7
I00
sg10
(I01
I01
tp1357
sba(iModules.cell
Cell
p1358
(dp1359
g7
I00
sg10
(I01
I01
tp1360
sba(iModules.cell
Cell
p1361
(dp1362
g7
I00
sg10
(I01
I01
tp1363
sba(iModules.cell
Cell
p1364
(dp1365
g7
I00
sg10
(I01
I01
tp1366
sba(iModules.cell
Cell
p1367
(dp1368
g7
I00
sg10
(I01
I01
tp1369
sba(iModules.cell
Cell
p1370
(dp1371
g7
I00
sg10
(I01
I01
tp1372
sba(iModules.cell
Cell
p1373
(dp1374
g7
I00
sg10
(I01
I01
tp1375
sba(iModules.cell
Cell
p1376
(dp1377
g7
I00
sg10
(I01
I01
tp1378
sba(iModules.cell
Cell
p1379
(dp1380
g7
I00
sg10
(I01
I01
tp1381
sba(iModules.cell
Cell
p1382
(dp1383
g7
I00
sg10
(I01
I01
tp1384
sba(iModules.cell
Cell
p1385
(dp1386
g7
I00
sg10
(I01
I01
tp1387
sba(iModules.cell
Cell
p1388
(dp1389
g7
I00
sg10
(I01
I01
tp1390
sba(iModules.cell
Cell
p1391
(dp1392
g7
I00
sg10
(I01
I01
tp1393
sba(iModules.cell
Cell
p1394
(dp1395
g7
I00
sg10
(I01
I01
tp1396
sba(iModules.cell
Cell
p1397
(dp1398
g7
I00
sg10
(I01
I01
tp1399
sba(iModules.cell
Cell
p1400
(dp1401
g7
I00
sg10
(I01
I01
tp1402
sba(iModules.cell
Cell
p1403
(dp1404
g7
I00
sg10
(I01
I01
tp1405
sba(iModules.cell
Cell
p1406
(dp1407
g7
I00
sg10
(I01
I01
tp1408
sba(iModules.cell
Cell
p1409
(dp1410
g7
I00
sg10
(I01
I01
tp1411
sba(iModules.cell
Cell
p1412
(dp1413
g7
I00
sg10
(I01
I01
tp1414
sba(iModules.cell
Cell
p1415
(dp1416
g7
I00
sg10
(I01
I01
tp1417
sba(iModules.cell
Cell
p1418
(dp1419
g7
I00
sg10
(I00
I00
tp1420
sba(iModules.cell
Cell
p1421
(dp1422
g7
I00
sg10
(I00
I00
tp1423
sba(iModules.cell
Cell
p1424
(dp1425
g7
I00
sg10
(I00
I00
tp1426
sba(iModules.cell
Cell
p1427
(dp1428
g7
I00
sg10
(I00
I00
tp1429
sba(iModules.cell
Cell
p1430
(dp1431
g7
I00
sg10
(I00
I00
tp1432
sba(iModules.cell
Cell
p1433
(dp1434
g7
I00
sg10
(I00
I00
tp1435
sba(iModules.cell
Cell
p1436
(dp1437
g7
I00
sg10
(I00
I00
tp1438
sba(iModules.cell
Cell
p1439
(dp1440
g7
I00
sg10
(I00
I00
tp1441
sba(iModules.cell
Cell
p1442
(dp1443
g7
I00
sg10
(I00
I00
tp1444
sba(iModules.cell
Cell
p1445
(dp1446
g7
I00
sg10
(I00
I00
tp1447
sba(iModules.cell
Cell
p1448
(dp1449
g7
I00
sg10
(I00
I00
tp1450
sba(iModules.cell
Cell
p1451
(dp1452
g7
I00
sg10
(I00
I00
tp1453
sba(iModules.cell
Cell
p1454
(dp1455
g7
I00
sg10
(I00
I00
tp1456
sba(iModules.cell
Cell
p1457
(dp1458
g7
I00
sg10
(I00
I00
tp1459
sba(iModules.cell
Cell
p1460
(dp1461
g7
I00
sg10
(I00
I00
tp1462
sba(iModules.cell
Cell
p1463
(dp1464
g7
I00
sg10
(I00
I00
tp1465
sba(iModules.cell
Cell
p1466
(dp1467
g7
I00
sg10
(I00
I00
tp1468
sba(iModules.cell
Cell
p1469
(dp1470
g7
I00
sg10
(I00
I00
tp1471
sba(iModules.cell
Cell
p1472
(dp1473
g7
I00
sg10
(I00
I00
tp1474
sba(iModules.cell
Cell
p1475
(dp1476
g10
(I00
I00
tp1477
sbaa(lp1478
(iModules.cell
Cell
p1479
(dp1480
g7
I00
sg10
(I00
I00
tp1481
sba(iModules.cell
Cell
p1482
(dp1483
g7
I00
sg258
I01
sg10
(I00
I00
tp1484
sba(iModules.cell
Cell
p1485
(dp1486
g7
I00
sg258
I01
sg10
(I01
I01
tp1487
sba(iModules.cell
Cell
p1488
(dp1489
g7
I00
sg258
I01
sg10
(I01
I01
tp1490
sba(iModules.cell
Cell
p1491
(dp1492
g7
I00
sg258
I01
sg10
(I01
I01
tp1493
sba(iModules.cell
Cell
p1494
(dp1495
g7
I00
sg258
I01
sg10
(I01
I01
tp1496
sba(iModules.cell
Cell
p1497
(dp1498
g7
I00
sg258
I01
sg10
(I01
I01
tp1499
sba(iModules.cell
Cell
p1500
(dp1501
g7
I00
sg258
I01
sg10
(I01
I01
tp1502
sba(iModules.cell
Cell
p1503
(dp1504
g7
I00
sg258
I01
sg10
(I01
I01
tp1505
sba(iModules.cell
Cell
p1506
(dp1507
g7
I00
sg258
I01
sg10
(I01
I01
tp1508
sba(iModules.cell
Cell
p1509
(dp1510
g7
I00
sg258
I01
sg10
(I01
I01
tp1511
sba(iModules.cell
Cell
p1512
(dp1513
g7
I00
sg258
I01
sg10
(I01
I01
tp1514
sba(iModules.cell
Cell
p1515
(dp1516
g7
I00
sg258
I01
sg10
(I01
I01
tp1517
sba(iModules.cell
Cell
p1518
(dp1519
g7
I00
sg258
I01
sg10
(I01
I01
tp1520
sba(iModules.cell
Cell
p1521
(dp1522
g7
I00
sg258
I01
sg10
(I01
I01
tp1523
sba(iModules.cell
Cell
p1524
(dp1525
g7
I00
sg258
I01
sg10
(I01
I01
tp1526
sba(iModules.cell
Cell
p1527
(dp1528
g7
I00
sg258
I01
sg10
(I01
I01
tp1529
sba(iModules.cell
Cell
p1530
(dp1531
g7
I00
sg258
I01
sg10
(I01
I01
tp1532
sba(iModules.cell
Cell
p1533
(dp1534
g7
I00
sg258
I01
sg10
(I01
I01
tp1535
sba(iModules.cell
Cell
p1536
(dp1537
g7
I00
sg258
I01
sg10
(I01
I01
tp1538
sba(iModules.cell
Cell
p1539
(dp1540
g7
I00
sg258
I01
sg10
(I01
I01
tp1541
sba(iModules.cell
Cell
p1542
(dp1543
g7
I00
sg258
I01
sg10
(I01
I01
tp1544
sba(iModules.cell
Cell
p1545
(dp1546
g7
I00
sg258
I01
sg10
(I01
I01
tp1547
sba(iModules.cell
Cell
p1548
(dp1549
g7
I00
sg258
I01
sg10
(I01
I01
tp1550
sba(iModules.cell
Cell
p1551
(dp1552
g7
I00
sg258
I01
sg10
(I01
I01
tp1553
sba(iModules.cell
Cell
p1554
(dp1555
g7
I00
sg258
I01
sg10
(I01
I01
tp1556
sba(iModules.cell
Cell
p1557
(dp1558
g7
I00
sg258
I01
sg10
(I01
I01
tp1559
sba(iModules.cell
Cell
p1560
(dp1561
g7
I00
sg258
I01
sg10
(I01
I01
tp1562
sba(iModules.cell
Cell
p1563
(dp1564
g7
I00
sg10
(I01
I01
tp1565
sba(iModules.cell
Cell
p1566
(dp1567
g7
I00
sg10
(I01
I01
tp1568
sba(iModules.cell
Cell
p1569
(dp1570
g7
I00
sg10
(I01
I01
tp1571
sba(iModules.cell
Cell
p1572
(dp1573
g7
I00
sg10
(I01
I01
tp1574
sba(iModules.cell
Cell
p1575
(dp1576
g7
I00
sg10
(I01
I01
tp1577
sba(iModules.cell
Cell
p1578
(dp1579
g7
I00
sg10
(I01
I01
tp1580
sba(iModules.cell
Cell
p1581
(dp1582
g7
I00
sg10
(I01
I01
tp1583
sba(iModules.cell
Cell
p1584
(dp1585
g7
I00
sg10
(I01
I01
tp1586
sba(iModules.cell
Cell
p1587
(dp1588
g7
I00
sg10
(I01
I01
tp1589
sba(iModules.cell
Cell
p1590
(dp1591
g7
I00
sg10
(I01
I01
tp1592
sba(iModules.cell
Cell
p1593
(dp1594
g7
I00
sg10
(I01
I01
tp1595
sba(iModules.cell
Cell
p1596
(dp1597
g7
I00
sg10
(I01
I01
tp1598
sba(iModules.cell
Cell
p1599
(dp1600
g7
I00
sg10
(I01
I01
tp1601
sba(iModules.cell
Cell
p1602
(dp1603
g7
I00
sg10
(I01
I01
tp1604
sba(iModules.cell
Cell
p1605
(dp1606
g7
I00
sg10
(I01
I01
tp1607
sba(iModules.cell
Cell
p1608
(dp1609
g7
I00
sg10
(I01
I01
tp1610
sba(iModules.cell
Cell
p1611
(dp1612
g7
I00
sg10
(I01
I01
tp1613
sba(iModules.cell
Cell
p1614
(dp1615
g7
I00
sg10
(I01
I01
tp1616
sba(iModules.cell
Cell
p1617
(dp1618
g7
I00
sg10
(I01
I01
tp1619
sba(iModules.cell
Cell
p1620
(dp1621
g7
I00
sg10
(I01
I01
tp1622
sba(iModules.cell
Cell
p1623
(dp1624
g7
I00
sg10
(I01
I01
tp1625
sba(iModules.cell
Cell
p1626
(dp1627
g7
I00
sg10
(I01
I01
tp1628
sba(iModules.cell
Cell
p1629
(dp1630
g7
I00
sg10
(I01
I01
tp1631
sba(iModules.cell
Cell
p1632
(dp1633
g7
I00
sg10
(I01
I01
tp1634
sba(iModules.cell
Cell
p1635
(dp1636
g7
I00
sg10
(I01
I01
tp1637
sba(iModules.cell
Cell
p1638
(dp1639
g7
I00
sg10
(I01
I01
tp1640
sba(iModules.cell
Cell
p1641
(dp1642
g7
I00
sg10
(I01
I01
tp1643
sba(iModules.cell
Cell
p1644
(dp1645
g7
I00
sg10
(I01
I01
tp1646
sba(iModules.cell
Cell
p1647
(dp1648
g7
I00
sg10
(I01
I01
tp1649
sba(iModules.cell
Cell
p1650
(dp1651
g7
I00
sg10
(I01
I01
tp1652
sba(iModules.cell
Cell
p1653
(dp1654
g7
I00
sg10
(I01
I01
tp1655
sba(iModules.cell
Cell
p1656
(dp1657
g7
I00
sg10
(I01
I01
tp1658
sba(iModules.cell
Cell
p1659
(dp1660
g7
I00
sg10
(I01
I01
tp1661
sba(iModules.cell
Cell
p1662
(dp1663
g7
I00
sg10
(I00
I00
tp1664
sba(iModules.cell
Cell
p1665
(dp1666
g7
I00
sg10
(I00
I00
tp1667
sba(iModules.cell
Cell
p1668
(dp1669
g7
I00
sg10
(I00
I00
tp1670
sba(iModules.cell
Cell
p1671
(dp1672
g7
I00
sg10
(I00
I00
tp1673
sba(iModules.cell
Cell
p1674
(dp1675
g7
I00
sg10
(I00
I00
tp1676
sba(iModules.cell
Cell
p1677
(dp1678
g7
I00
sg10
(I00
I00
tp1679
sba(iModules.cell
Cell
p1680
(dp1681
g7
I00
sg10
(I00
I00
tp1682
sba(iModules.cell
Cell
p1683
(dp1684
g7
I00
sg10
(I00
I00
tp1685
sba(iModules.cell
Cell
p1686
(dp1687
g7
I00
sg10
(I00
I00
tp1688
sba(iModules.cell
Cell
p1689
(dp1690
g7
I00
sg10
(I00
I00
tp1691
sba(iModules.cell
Cell
p1692
(dp1693
g7
I00
sg10
(I00
I00
tp1694
sba(iModules.cell
Cell
p1695
(dp1696
g7
I00
sg10
(I00
I00
tp1697
sba(iModules.cell
Cell
p1698
(dp1699
g7
I00
sg10
(I00
I00
tp1700
sba(iModules.cell
Cell
p1701
(dp1702
g7
I00
sg10
(I00
I00
tp1703
sba(iModules.cell
Cell
p1704
(dp1705
g7
I00
sg10
(I00
I00
tp1706
sba(iModules.cell
Cell
p1707
(dp1708
g7
I00
sg10
(I00
I00
tp1709
sba(iModules.cell
Cell
p1710
(dp1711
g7
I00
sg10
(I00
I00
tp1712
sba(iModules.cell
Cell
p1713
(dp1714
g7
I00
sg10
(I00
I00
tp1715
sba(iModules.cell
Cell
p1716
(dp1717
g7
I00
sg10
(I00
I00
tp1718
sba(iModules.cell
Cell
p1719
(dp1720
g10
(I00
I00
tp1721
sbaa(lp1722
(iModules.cell
Cell
p1723
(dp1724
g7
I00
sg10
(I00
I00
tp1725
sba(iModules.cell
Cell
p1726
(dp1727
g7
I00
sg258
I01
sg10
(I00
I00
tp1728
sba(iModules.cell
Cell
p1729
(dp1730
g7
I00
sg258
I01
sg10
(I01
I01
tp1731
sba(iModules.cell
Cell
p1732
(dp1733
g7
I00
sg258
I01
sg10
(I01
I01
tp1734
sba(iModules.cell
Cell
p1735
(dp1736
g7
I00
sg258
I01
sg10
(I01
I01
tp1737
sba(iModules.cell
Cell
p1738
(dp1739
g7
I00
sg258
I01
sg10
(I01
I01
tp1740
sba(iModules.cell
Cell
p1741
(dp1742
g7
I00
sg258
I01
sg10
(I01
I01
tp1743
sba(iModules.cell
Cell
p1744
(dp1745
g7
I00
sg258
I01
sg10
(I01
I01
tp1746
sba(iModules.cell
Cell
p1747
(dp1748
g7
I00
sg258
I01
sg10
(I01
I01
tp1749
sba(iModules.cell
Cell
p1750
(dp1751
g7
I00
sg258
I01
sg10
(I01
I01
tp1752
sba(iModules.cell
Cell
p1753
(dp1754
g7
I00
sg258
I01
sg10
(I01
I01
tp1755
sba(iModules.cell
Cell
p1756
(dp1757
g7
I00
sg258
I01
sg10
(I01
I01
tp1758
sba(iModules.cell
Cell
p1759
(dp1760
g7
I00
sg258
I01
sg10
(I01
I01
tp1761
sba(iModules.cell
Cell
p1762
(dp1763
g7
I00
sg258
I01
sg10
(I01
I01
tp1764
sba(iModules.cell
Cell
p1765
(dp1766
g7
I00
sg258
I01
sg10
(I01
I01
tp1767
sba(iModules.cell
Cell
p1768
(dp1769
g7
I00
sg258
I01
sg10
(I01
I01
tp1770
sba(iModules.cell
Cell
p1771
(dp1772
g7
I00
sg258
I01
sg10
(I01
I01
tp1773
sba(iModules.cell
Cell
p1774
(dp1775
g7
I00
sg258
I01
sg10
(I01
I01
tp1776
sba(iModules.cell
Cell
p1777
(dp1778
g7
I00
sg258
I01
sg10
(I01
I01
tp1779
sba(iModules.cell
Cell
p1780
(dp1781
g7
I00
sg258
I01
sg10
(I01
I01
tp1782
sba(iModules.cell
Cell
p1783
(dp1784
g7
I00
sg258
I01
sg10
(I01
I01
tp1785
sba(iModules.cell
Cell
p1786
(dp1787
g7
I00
sg258
I01
sg10
(I01
I01
tp1788
sba(iModules.cell
Cell
p1789
(dp1790
g7
I00
sg258
I01
sg10
(I01
I01
tp1791
sba(iModules.cell
Cell
p1792
(dp1793
g7
I00
sg258
I01
sg10
(I01
I01
tp1794
sba(iModules.cell
Cell
p1795
(dp1796
g7
I00
sg258
I01
sg10
(I01
I01
tp1797
sba(iModules.cell
Cell
p1798
(dp1799
g7
I00
sg258
I01
sg10
(I01
I01
tp1800
sba(iModules.cell
Cell
p1801
(dp1802
g7
I00
sg258
I01
sg10
(I01
I01
tp1803
sba(iModules.cell
Cell
p1804
(dp1805
g7
I00
sg258
I01
sg10
(I01
I01
tp1806
sba(iModules.cell
Cell
p1807
(dp1808
g7
I00
sg10
(I01
I01
tp1809
sba(iModules.cell
Cell
p1810
(dp1811
g7
I00
sg10
(I01
I01
tp1812
sba(iModules.cell
Cell
p1813
(dp1814
g7
I00
sg10
(I01
I01
tp1815
sba(iModules.cell
Cell
p1816
(dp1817
g7
I00
sg10
(I01
I01
tp1818
sba(iModules.cell
Cell
p1819
(dp1820
g7
I00
sg10
(I01
I01
tp1821
sba(iModules.cell
Cell
p1822
(dp1823
g7
I00
sg10
(I01
I01
tp1824
sba(iModules.cell
Cell
p1825
(dp1826
g7
I00
sg10
(I01
I01
tp1827
sba(iModules.cell
Cell
p1828
(dp1829
g7
I00
sg10
(I01
I01
tp1830
sba(iModules.cell
Cell
p1831
(dp1832
g7
I00
sg10
(I01
I01
tp1833
sba(iModules.cell
Cell
p1834
(dp1835
g7
I00
sg10
(I01
I01
tp1836
sba(iModules.cell
Cell
p1837
(dp1838
g7
I00
sg10
(I01
I01
tp1839
sba(iModules.cell
Cell
p1840
(dp1841
g7
I00
sg10
(I01
I01
tp1842
sba(iModules.cell
Cell
p1843
(dp1844
g7
I00
sg10
(I01
I01
tp1845
sba(iModules.cell
Cell
p1846
(dp1847
g7
I00
sg10
(I01
I01
tp1848
sba(iModules.cell
Cell
p1849
(dp1850
g7
I00
sg10
(I01
I01
tp1851
sba(iModules.cell
Cell
p1852
(dp1853
g7
I00
sg10
(I01
I01
tp1854
sba(iModules.cell
Cell
p1855
(dp1856
g7
I00
sg10
(I01
I01
tp1857
sba(iModules.cell
Cell
p1858
(dp1859
g7
I00
sg10
(I01
I01
tp1860
sba(iModules.cell
Cell
p1861
(dp1862
g7
I00
sg10
(I01
I01
tp1863
sba(iModules.cell
Cell
p1864
(dp1865
g7
I00
sg10
(I01
I01
tp1866
sba(iModules.cell
Cell
p1867
(dp1868
g7
I00
sg10
(I01
I01
tp1869
sba(iModules.cell
Cell
p1870
(dp1871
g7
I00
sg10
(I01
I01
tp1872
sba(iModules.cell
Cell
p1873
(dp1874
g7
I00
sg10
(I01
I01
tp1875
sba(iModules.cell
Cell
p1876
(dp1877
g7
I00
sg10
(I01
I01
tp1878
sba(iModules.cell
Cell
p1879
(dp1880
g7
I00
sg10
(I01
I01
tp1881
sba(iModules.cell
Cell
p1882
(dp1883
g7
I00
sg10
(I01
I01
tp1884
sba(iModules.cell
Cell
p1885
(dp1886
g7
I00
sg10
(I01
I01
tp1887
sba(iModules.cell
Cell
p1888
(dp1889
g7
I00
sg10
(I01
I01
tp1890
sba(iModules.cell
Cell
p1891
(dp1892
g7
I00
sg10
(I01
I01
tp1893
sba(iModules.cell
Cell
p1894
(dp1895
g7
I00
sg10
(I01
I01
tp1896
sba(iModules.cell
Cell
p1897
(dp1898
g7
I00
sg10
(I01
I01
tp1899
sba(iModules.cell
Cell
p1900
(dp1901
g7
I00
sg10
(I01
I01
tp1902
sba(iModules.cell
Cell
p1903
(dp1904
g7
I00
sg10
(I01
I01
tp1905
sba(iModules.cell
Cell
p1906
(dp1907
g7
I00
sg10
(I00
I00
tp1908
sba(iModules.cell
Cell
p1909
(dp1910
g7
I00
sg10
(I00
I00
tp1911
sba(iModules.cell
Cell
p1912
(dp1913
g7
I00
sg10
(I00
I00
tp1914
sba(iModules.cell
Cell
p1915
(dp1916
g7
I00
sg10
(I00
I00
tp1917
sba(iModules.cell
Cell
p1918
(dp1919
g7
I00
sg10
(I00
I00
tp1920
sba(iModules.cell
Cell
p1921
(dp1922
g7
I00
sg10
(I00
I00
tp1923
sba(iModules.cell
Cell
p1924
(dp1925
g7
I00
sg10
(I00
I00
tp1926
sba(iModules.cell
Cell
p1927
(dp1928
g7
I00
sg10
(I00
I00
tp1929
sba(iModules.cell
Cell
p1930
(dp1931
g7
I00
sg10
(I00
I00
tp1932
sba(iModules.cell
Cell
p1933
(dp1934
g7
I00
sg10
(I00
I00
tp1935
sba(iModules.cell
Cell
p1936
(dp1937
g7
I00
sg10
(I00
I00
tp1938
sba(iModules.cell
Cell
p1939
(dp1940
g7
I00
sg10
(I00
I00
tp1941
sba(iModules.cell
Cell
p1942
(dp1943
g7
I00
sg10
(I00
I00
tp1944
sba(iModules.cell
Cell
p1945
(dp1946
g7
I00
sg10
(I00
I00
tp1947
sba(iModules.cell
Cell
p1948
(dp1949
g7
I00
sg10
(I00
I00
tp1950
sba(iModules.cell
Cell
p1951
(dp1952
g7
I00
sg10
(I00
I00
tp1953
sba(iModules.cell
Cell
p1954
(dp1955
g7
I00
sg10
(I00
I00
tp1956
sba(iModules.cell
Cell
p1957
(dp1958
g7
I00
sg10
(I00
I00
tp1959
sba(iModules.cell
Cell
p1960
(dp1961
g7
I00
sg10
(I00
I00
tp1962
sba(iModules.cell
Cell
p1963
(dp1964
g10
(I00
I00
tp1965
sbaa(lp1966
(iModules.cell
Cell
p1967
(dp1968
g7
I00
sg10
(I00
I00
tp1969
sba(iModules.cell
Cell
p1970
(dp1971
g7
I00
sg258
I01
sg10
(I00
I00
tp1972
sba(iModules.cell
Cell
p1973
(dp1974
g7
I00
sg258
I01
sg10
(I01
I01
tp1975
sba(iModules.cell
Cell
p1976
(dp1977
g7
I00
sg258
I01
sg10
(I01
I01
tp1978
sba(iModules.cell
Cell
p1979
(dp1980
g7
I00
sg258
I01
sg10
(I01
I01
tp1981
sba(iModules.cell
Cell
p1982
(dp1983
g7
I00
sg258
I01
sg10
(I01
I01
tp1984
sba(iModules.cell
Cell
p1985
(dp1986
g7
I00
sg258
I01
sg10
(I01
I01
tp1987
sba(iModules.cell
Cell
p1988
(dp1989
g7
I00
sg258
I01
sg10
(I01
I01
tp1990
sba(iModules.cell
Cell
p1991
(dp1992
g7
I00
sg258
I01
sg10
(I01
I01
tp1993
sba(iModules.cell
Cell
p1994
(dp1995
g7
I00
sg258
I01
sg10
(I01
I01
tp1996
sba(iModules.cell
Cell
p1997
(dp1998
g7
I00
sg258
I01
sg10
(I01
I01
tp1999
sba(iModules.cell
Cell
p2000
(dp2001
g7
I00
sg258
I01
sg10
(I01
I01
tp2002
sba(iModules.cell
Cell
p2003
(dp2004
g7
I00
sg258
I01
sg10
(I01
I01
tp2005
sba(iModules.cell
Cell
p2006
(dp2007
g7
I00
sg258
I01
sg10
(I01
I01
tp2008
sba(iModules.cell
Cell
p2009
(dp2010
g7
I00
sg258
I01
sg10
(I01
I01
tp2011
sba(iModules.cell
Cell
p2012
(dp2013
g7
I00
sg258
I01
sg10
(I01
I01
tp2014
sba(iModules.cell
Cell
p2015
(dp2016
g7
I00
sg258
I01
sg10
(I01
I01
tp2017
sba(iModules.cell
Cell
p2018
(dp2019
g7
I00
sg258
I01
sg10
(I01
I01
tp2020
sba(iModules.cell
Cell
p2021
(dp2022
g7
I00
sg258
I01
sg10
(I01
I01
tp2023
sba(iModules.cell
Cell
p2024
(dp2025
g7
I00
sg258
I01
sg10
(I01
I01
tp2026
sba(iModules.cell
Cell
p2027
(dp2028
g7
I00
sg258
I01
sg10
(I01
I01
tp2029
sba(iModules.cell
Cell
p2030
(dp2031
g7
I00
sg258
I01
sg10
(I01
I01
tp2032
sba(iModules.cell
Cell
p2033
(dp2034
g7
I00
sg258
I01
sg10
(I01
I01
tp2035
sba(iModules.cell
Cell
p2036
(dp2037
g7
I00
sg258
I01
sg10
(I01
I01
tp2038
sba(iModules.cell
Cell
p2039
(dp2040
g7
I00
sg258
I01
sg10
(I01
I01
tp2041
sba(iModules.cell
Cell
p2042
(dp2043
g7
I00
sg258
I01
sg10
(I01
I01
tp2044
sba(iModules.cell
Cell
p2045
(dp2046
g7
I00
sg258
I01
sg10
(I01
I01
tp2047
sba(iModules.cell
Cell
p2048
(dp2049
g7
I00
sg258
I01
sg10
(I01
I01
tp2050
sba(iModules.cell
Cell
p2051
(dp2052
g7
I00
sg10
(I01
I01
tp2053
sba(iModules.cell
Cell
p2054
(dp2055
g7
I00
sg10
(I01
I01
tp2056
sba(iModules.cell
Cell
p2057
(dp2058
g7
I00
sg10
(I01
I01
tp2059
sba(iModules.cell
Cell
p2060
(dp2061
g7
I00
sg10
(I01
I01
tp2062
sba(iModules.cell
Cell
p2063
(dp2064
g7
I00
sg10
(I01
I01
tp2065
sba(iModules.cell
Cell
p2066
(dp2067
g7
I00
sg10
(I01
I01
tp2068
sba(iModules.cell
Cell
p2069
(dp2070
g7
I00
sg10
(I01
I01
tp2071
sba(iModules.cell
Cell
p2072
(dp2073
g7
I00
sg10
(I01
I01
tp2074
sba(iModules.cell
Cell
p2075
(dp2076
g7
I00
sg10
(I01
I01
tp2077
sba(iModules.cell
Cell
p2078
(dp2079
g7
I00
sg10
(I01
I01
tp2080
sba(iModules.cell
Cell
p2081
(dp2082
g7
I00
sg10
(I01
I01
tp2083
sba(iModules.cell
Cell
p2084
(dp2085
g7
I00
sg10
(I01
I01
tp2086
sba(iModules.cell
Cell
p2087
(dp2088
g7
I00
sg10
(I01
I01
tp2089
sba(iModules.cell
Cell
p2090
(dp2091
g7
I00
sg10
(I01
I01
tp2092
sba(iModules.cell
Cell
p2093
(dp2094
g7
I00
sg10
(I01
I01
tp2095
sba(iModules.cell
Cell
p2096
(dp2097
g7
I00
sg10
(I01
I01
tp2098
sba(iModules.cell
Cell
p2099
(dp2100
g7
I00
sg10
(I01
I01
tp2101
sba(iModules.cell
Cell
p2102
(dp2103
g7
I00
sg10
(I01
I01
tp2104
sba(iModules.cell
Cell
p2105
(dp2106
g7
I00
sg10
(I01
I01
tp2107
sba(iModules.cell
Cell
p2108
(dp2109
g7
I00
sg10
(I01
I01
tp2110
sba(iModules.cell
Cell
p2111
(dp2112
g7
I00
sg10
(I01
I01
tp2113
sba(iModules.cell
Cell
p2114
(dp2115
g7
I00
sg10
(I01
I01
tp2116
sba(iModules.cell
Cell
p2117
(dp2118
g7
I00
sg10
(I01
I01
tp2119
sba(iModules.cell
Cell
p2120
(dp2121
g7
I00
sg10
(I01
I01
tp2122
sba(iModules.cell
Cell
p2123
(dp2124
g7
I00
sg10
(I01
I01
tp2125
sba(iModules.cell
Cell
p2126
(dp2127
g7
I00
sg10
(I01
I01
tp2128
sba(iModules.cell
Cell
p2129
(dp2130
g7
I00
sg10
(I01
I01
tp2131
sba(iModules.cell
Cell
p2132
(dp2133
g7
I00
sg10
(I01
I01
tp2134
sba(iModules.cell
Cell
p2135
(dp2136
g7
I00
sg10
(I01
I01
tp2137
sba(iModules.cell
Cell
p2138
(dp2139
g7
I00
sg10
(I01
I01
tp2140
sba(iModules.cell
Cell
p2141
(dp2142
g7
I00
sg10
(I01
I01
tp2143
sba(iModules.cell
Cell
p2144
(dp2145
g7
I00
sg10
(I01
I01
tp2146
sba(iModules.cell
Cell
p2147
(dp2148
g7
I00
sg10
(I01
I01
tp2149
sba(iModules.cell
Cell
p2150
(dp2151
g7
I00
sg10
(I00
I00
tp2152
sba(iModules.cell
Cell
p2153
(dp2154
g7
I00
sg10
(I00
I00
tp2155
sba(iModules.cell
Cell
p2156
(dp2157
g7
I00
sg10
(I00
I00
tp2158
sba(iModules.cell
Cell
p2159
(dp2160
g7
I00
sg10
(I00
I00
tp2161
sba(iModules.cell
Cell
p2162
(dp2163
g7
I00
sg10
(I00
I00
tp2164
sba(iModules.cell
Cell
p2165
(dp2166
g7
I00
sg10
(I00
I00
tp2167
sba(iModules.cell
Cell
p2168
(dp2169
g7
I00
sg10
(I00
I00
tp2170
sba(iModules.cell
Cell
p2171
(dp2172
g7
I00
sg10
(I00
I00
tp2173
sba(iModules.cell
Cell
p2174
(dp2175
g7
I00
sg10
(I00
I00
tp2176
sba(iModules.cell
Cell
p2177
(dp2178
g7
I00
sg10
(I00
I00
tp2179
sba(iModules.cell
Cell
p2180
(dp2181
g7
I00
sg10
(I00
I00
tp2182
sba(iModules.cell
Cell
p2183
(dp2184
g7
I00
sg10
(I00
I00
tp2185
sba(iModules.cell
Cell
p2186
(dp2187
g7
I00
sg10
(I00
I00
tp2188
sba(iModules.cell
Cell
p2189
(dp2190
g7
I00
sg10
(I00
I00
tp2191
sba(iModules.cell
Cell
p2192
(dp2193
g7
I00
sg10
(I00
I00
tp2194
sba(iModules.cell
Cell
p2195
(dp2196
g7
I00
sg10
(I00
I00
tp2197
sba(iModules.cell
Cell
p2198
(dp2199
g7
I00
sg10
(I00
I00
tp2200
sba(iModules.cell
Cell
p2201
(dp2202
g7
I00
sg10
(I00
I00
tp2203
sba(iModules.cell
Cell
p2204
(dp2205
g7
I00
sg10
(I00
I00
tp2206
sba(iModules.cell
Cell
p2207
(dp2208
g10
(I00
I00
tp2209
sbaa(lp2210
(iModules.cell
Cell
p2211
(dp2212
g7
I00
sg10
(I00
I00
tp2213
sba(iModules.cell
Cell
p2214
(dp2215
g7
I00
sg258
I01
sg10
(I00
I00
tp2216
sba(iModules.cell
Cell
p2217
(dp2218
g7
I00
sg258
I01
sg10
(I01
I01
tp2219
sba(iModules.cell
Cell
p2220
(dp2221
g7
I00
sg258
I01
sg10
(I01
I01
tp2222
sba(iModules.cell
Cell
p2223
(dp2224
g7
I00
sg258
I01
sg10
(I01
I01
tp2225
sba(iModules.cell
Cell
p2226
(dp2227
g7
I00
sg258
I01
sg10
(I01
I01
tp2228
sba(iModules.cell
Cell
p2229
(dp2230
g7
I00
sg258
I01
sg10
(I01
I01
tp2231
sba(iModules.cell
Cell
p2232
(dp2233
g7
I00
sg258
I01
sg10
(I01
I01
tp2234
sba(iModules.cell
Cell
p2235
(dp2236
g7
I00
sg258
I01
sg10
(I01
I01
tp2237
sba(iModules.cell
Cell
p2238
(dp2239
g7
I00
sg258
I01
sg10
(I01
I01
tp2240
sba(iModules.cell
Cell
p2241
(dp2242
g7
I00
sg258
I01
sg10
(I01
I01
tp2243
sba(iModules.cell
Cell
p2244
(dp2245
g7
I00
sg258
I01
sg10
(I01
I01
tp2246
sba(iModules.cell
Cell
p2247
(dp2248
g7
I00
sg258
I01
sg10
(I01
I01
tp2249
sba(iModules.cell
Cell
p2250
(dp2251
g7
I00
sg258
I01
sg10
(I01
I01
tp2252
sba(iModules.cell
Cell
p2253
(dp2254
g7
I00
sg258
I01
sg10
(I01
I01
tp2255
sba(iModules.cell
Cell
p2256
(dp2257
g7
I00
sg258
I01
sg10
(I01
I01
tp2258
sba(iModules.cell
Cell
p2259
(dp2260
g7
I00
sg258
I01
sg10
(I01
I01
tp2261
sba(iModules.cell
Cell
p2262
(dp2263
g7
I00
sg258
I01
sg10
(I01
I01
tp2264
sba(iModules.cell
Cell
p2265
(dp2266
g7
I00
sg258
I01
sg10
(I01
I01
tp2267
sba(iModules.cell
Cell
p2268
(dp2269
g7
I00
sg258
I01
sg10
(I01
I01
tp2270
sba(iModules.cell
Cell
p2271
(dp2272
g7
I00
sg258
I01
sg10
(I01
I01
tp2273
sba(iModules.cell
Cell
p2274
(dp2275
g7
I00
sg258
I01
sg10
(I01
I01
tp2276
sba(iModules.cell
Cell
p2277
(dp2278
g7
I00
sg258
I01
sg10
(I01
I01
tp2279
sba(iModules.cell
Cell
p2280
(dp2281
g7
I00
sg258
I01
sg10
(I01
I01
tp2282
sba(iModules.cell
Cell
p2283
(dp2284
g7
I00
sg258
I01
sg10
(I01
I01
tp2285
sba(iModules.cell
Cell
p2286
(dp2287
g7
I00
sg258
I01
sg10
(I01
I01
tp2288
sba(iModules.cell
Cell
p2289
(dp2290
g7
I00
sg258
I01
sg10
(I01
I01
tp2291
sba(iModules.cell
Cell
p2292
(dp2293
g7
I00
sg258
I01
sg10
(I01
I01
tp2294
sba(iModules.cell
Cell
p2295
(dp2296
g7
I00
sg10
(I01
I01
tp2297
sba(iModules.cell
Cell
p2298
(dp2299
g7
I00
sg10
(I01
I01
tp2300
sba(iModules.cell
Cell
p2301
(dp2302
g7
I00
sg10
(I01
I01
tp2303
sba(iModules.cell
Cell
p2304
(dp2305
g7
I00
sg10
(I01
I01
tp2306
sba(iModules.cell
Cell
p2307
(dp2308
g7
I00
sg10
(I01
I01
tp2309
sba(iModules.cell
Cell
p2310
(dp2311
g7
I00
sg10
(I01
I01
tp2312
sba(iModules.cell
Cell
p2313
(dp2314
g7
I00
sg10
(I01
I01
tp2315
sba(iModules.cell
Cell
p2316
(dp2317
g7
I00
sg10
(I01
I01
tp2318
sba(iModules.cell
Cell
p2319
(dp2320
g7
I00
sg10
(I01
I01
tp2321
sba(iModules.cell
Cell
p2322
(dp2323
g7
I00
sg10
(I01
I01
tp2324
sba(iModules.cell
Cell
p2325
(dp2326
g7
I00
sg10
(I01
I01
tp2327
sba(iModules.cell
Cell
p2328
(dp2329
g7
I00
sg10
(I01
I01
tp2330
sba(iModules.cell
Cell
p2331
(dp2332
g7
I00
sg10
(I01
I01
tp2333
sba(iModules.cell
Cell
p2334
(dp2335
g7
I00
sg10
(I01
I01
tp2336
sba(iModules.cell
Cell
p2337
(dp2338
g7
I00
sg10
(I01
I01
tp2339
sba(iModules.cell
Cell
p2340
(dp2341
g7
I00
sg10
(I01
I01
tp2342
sba(iModules.cell
Cell
p2343
(dp2344
g7
I00
sg10
(I01
I01
tp2345
sba(iModules.cell
Cell
p2346
(dp2347
g7
I00
sg10
(I01
I01
tp2348
sba(iModules.cell
Cell
p2349
(dp2350
g7
I00
sg10
(I01
I01
tp2351
sba(iModules.cell
Cell
p2352
(dp2353
g7
I00
sg10
(I01
I01
tp2354
sba(iModules.cell
Cell
p2355
(dp2356
g7
I00
sg10
(I01
I01
tp2357
sba(iModules.cell
Cell
p2358
(dp2359
g7
I00
sg10
(I01
I01
tp2360
sba(iModules.cell
Cell
p2361
(dp2362
g7
I00
sg10
(I01
I01
tp2363
sba(iModules.cell
Cell
p2364
(dp2365
g7
I00
sg10
(I01
I01
tp2366
sba(iModules.cell
Cell
p2367
(dp2368
g7
I00
sg10
(I01
I01
tp2369
sba(iModules.cell
Cell
p2370
(dp2371
g7
I00
sg10
(I01
I01
tp2372
sba(iModules.cell
Cell
p2373
(dp2374
g7
I00
sg10
(I01
I01
tp2375
sba(iModules.cell
Cell
p2376
(dp2377
g7
I00
sg10
(I01
I01
tp2378
sba(iModules.cell
Cell
p2379
(dp2380
g7
I00
sg10
(I01
I01
tp2381
sba(iModules.cell
Cell
p2382
(dp2383
g7
I00
sg10
(I01
I01
tp2384
sba(iModules.cell
Cell
p2385
(dp2386
g7
I00
sg10
(I01
I01
tp2387
sba(iModules.cell
Cell
p2388
(dp2389
g7
I00
sg10
(I01
I01
tp2390
sba(iModules.cell
Cell
p2391
(dp2392
g7
I00
sg10
(I01
I01
tp2393
sba(iModules.cell
Cell
p2394
(dp2395
g7
I00
sg10
(I00
I00
tp2396
sba(iModules.cell
Cell
p2397
(dp2398
g7
I00
sg10
(I00
I00
tp2399
sba(iModules.cell
Cell
p2400
(dp2401
g7
I00
sg10
(I00
I00
tp2402
sba(iModules.cell
Cell
p2403
(dp2404
g7
I00
sg10
(I00
I00
tp2405
sba(iModules.cell
Cell
p2406
(dp2407
g7
I00
sg10
(I00
I00
tp2408
sba(iModules.cell
Cell
p2409
(dp2410
g7
I00
sg10
(I00
I00
tp2411
sba(iModules.cell
Cell
p2412
(dp2413
g7
I00
sg10
(I00
I00
tp2414
sba(iModules.cell
Cell
p2415
(dp2416
g7
I00
sg10
(I00
I00
tp2417
sba(iModules.cell
Cell
p2418
(dp2419
g7
I00
sg10
(I00
I00
tp2420
sba(iModules.cell
Cell
p2421
(dp2422
g7
I00
sg10
(I00
I00
tp2423
sba(iModules.cell
Cell
p2424
(dp2425
g7
I00
sg10
(I00
I00
tp2426
sba(iModules.cell
Cell
p2427
(dp2428
g7
I00
sg10
(I00
I00
tp2429
sba(iModules.cell
Cell
p2430
(dp2431
g7
I00
sg10
(I00
I00
tp2432
sba(iModules.cell
Cell
p2433
(dp2434
g7
I00
sg10
(I00
I00
tp2435
sba(iModules.cell
Cell
p2436
(dp2437
g7
I00
sg10
(I00
I00
tp2438
sba(iModules.cell
Cell
p2439
(dp2440
g7
I00
sg10
(I00
I00
tp2441
sba(iModules.cell
Cell
p2442
(dp2443
g7
I00
sg10
(I00
I00
tp2444
sba(iModules.cell
Cell
p2445
(dp2446
g7
I00
sg10
(I00
I00
tp2447
sba(iModules.cell
Cell
p2448
(dp2449
g7
I00
sg10
(I00
I00
tp2450
sba(iModules.cell
Cell
p2451
(dp2452
g10
(I00
I00
tp2453
sbaa(lp2454
(iModules.cell
Cell
p2455
(dp2456
g7
I00
sg10
(I00
I00
tp2457
sba(iModules.cell
Cell
p2458
(dp2459
g7
I00
sg258
I01
sg10
(I00
I00
tp2460
sba(iModules.cell
Cell
p2461
(dp2462
g7
I00
sg258
I01
sg10
(I01
I01
tp2463
sba(iModules.cell
Cell
p2464
(dp2465
g7
I00
sg258
I01
sg10
(I01
I01
tp2466
sba(iModules.cell
Cell
p2467
(dp2468
g7
I00
sg258
I01
sg10
(I01
I01
tp2469
sba(iModules.cell
Cell
p2470
(dp2471
g7
I00
sg258
I01
sg10
(I01
I01
tp2472
sba(iModules.cell
Cell
p2473
(dp2474
g7
I00
sg258
I01
sg10
(I01
I01
tp2475
sba(iModules.cell
Cell
p2476
(dp2477
g7
I00
sg258
I01
sg10
(I01
I01
tp2478
sba(iModules.cell
Cell
p2479
(dp2480
g7
I00
sg258
I01
sg10
(I01
I01
tp2481
sba(iModules.cell
Cell
p2482
(dp2483
g7
I00
sg258
I01
sg10
(I01
I01
tp2484
sba(iModules.cell
Cell
p2485
(dp2486
g7
I00
sg258
I01
sg10
(I01
I01
tp2487
sba(iModules.cell
Cell
p2488
(dp2489
g7
I00
sg258
I01
sg10
(I01
I01
tp2490
sba(iModules.cell
Cell
p2491
(dp2492
g7
I00
sg258
I01
sg10
(I01
I01
tp2493
sba(iModules.cell
Cell
p2494
(dp2495
g7
I00
sg258
I01
sg10
(I01
I01
tp2496
sba(iModules.cell
Cell
p2497
(dp2498
g7
I00
sg258
I01
sg10
(I01
I01
tp2499
sba(iModules.cell
Cell
p2500
(dp2501
g7
I00
sg258
I01
sg10
(I01
I01
tp2502
sba(iModules.cell
Cell
p2503
(dp2504
g7
I00
sg258
I01
sg10
(I01
I01
tp2505
sba(iModules.cell
Cell
p2506
(dp2507
g7
I00
sg258
I01
sg10
(I01
I01
tp2508
sba(iModules.cell
Cell
p2509
(dp2510
g7
I00
sg258
I01
sg10
(I01
I01
tp2511
sba(iModules.cell
Cell
p2512
(dp2513
g7
I00
sg258
I01
sg10
(I01
I01
tp2514
sba(iModules.cell
Cell
p2515
(dp2516
g7
I00
sg258
I01
sg10
(I01
I01
tp2517
sba(iModules.cell
Cell
p2518
(dp2519
g7
I00
sg258
I01
sg10
(I01
I01
tp2520
sba(iModules.cell
Cell
p2521
(dp2522
g7
I00
sg258
I01
sg10
(I01
I01
tp2523
sba(iModules.cell
Cell
p2524
(dp2525
g7
I00
sg258
I01
sg10
(I01
I01
tp2526
sba(iModules.cell
Cell
p2527
(dp2528
g7
I00
sg258
I01
sg10
(I01
I01
tp2529
sba(iModules.cell
Cell
p2530
(dp2531
g7
I00
sg258
I01
sg10
(I01
I01
tp2532
sba(iModules.cell
Cell
p2533
(dp2534
g7
I00
sg258
I01
sg10
(I01
I01
tp2535
sba(iModules.cell
Cell
p2536
(dp2537
g7
I00
sg258
I01
sg10
(I01
I01
tp2538
sba(iModules.cell
Cell
p2539
(dp2540
g7
I00
sg10
(I01
I01
tp2541
sba(iModules.cell
Cell
p2542
(dp2543
g7
I00
sg10
(I01
I01
tp2544
sba(iModules.cell
Cell
p2545
(dp2546
g7
I00
sg10
(I01
I01
tp2547
sba(iModules.cell
Cell
p2548
(dp2549
g7
I00
sg10
(I01
I01
tp2550
sba(iModules.cell
Cell
p2551
(dp2552
g7
I00
sg10
(I01
I01
tp2553
sba(iModules.cell
Cell
p2554
(dp2555
g7
I00
sg10
(I01
I01
tp2556
sba(iModules.cell
Cell
p2557
(dp2558
g7
I00
sg10
(I01
I01
tp2559
sba(iModules.cell
Cell
p2560
(dp2561
g7
I00
sg10
(I01
I01
tp2562
sba(iModules.cell
Cell
p2563
(dp2564
g7
I00
sg10
(I01
I01
tp2565
sba(iModules.cell
Cell
p2566
(dp2567
g7
I00
sg10
(I01
I01
tp2568
sba(iModules.cell
Cell
p2569
(dp2570
g7
I00
sg10
(I01
I01
tp2571
sba(iModules.cell
Cell
p2572
(dp2573
g7
I00
sg10
(I01
I01
tp2574
sba(iModules.cell
Cell
p2575
(dp2576
g7
I00
sg10
(I01
I01
tp2577
sba(iModules.cell
Cell
p2578
(dp2579
g7
I00
sg10
(I01
I01
tp2580
sba(iModules.cell
Cell
p2581
(dp2582
g7
I00
sg10
(I01
I01
tp2583
sba(iModules.cell
Cell
p2584
(dp2585
g7
I00
sg10
(I01
I01
tp2586
sba(iModules.cell
Cell
p2587
(dp2588
g7
I00
sg10
(I01
I01
tp2589
sba(iModules.cell
Cell
p2590
(dp2591
g7
I00
sg10
(I01
I01
tp2592
sba(iModules.cell
Cell
p2593
(dp2594
g7
I00
sg10
(I01
I01
tp2595
sba(iModules.cell
Cell
p2596
(dp2597
g7
I00
sg10
(I01
I01
tp2598
sba(iModules.cell
Cell
p2599
(dp2600
g7
I00
sg10
(I01
I01
tp2601
sba(iModules.cell
Cell
p2602
(dp2603
g7
I00
sg10
(I01
I01
tp2604
sba(iModules.cell
Cell
p2605
(dp2606
g7
I00
sg10
(I01
I01
tp2607
sba(iModules.cell
Cell
p2608
(dp2609
g7
I00
sg10
(I01
I01
tp2610
sba(iModules.cell
Cell
p2611
(dp2612
g7
I00
sg10
(I01
I01
tp2613
sba(iModules.cell
Cell
p2614
(dp2615
g7
I00
sg10
(I01
I01
tp2616
sba(iModules.cell
Cell
p2617
(dp2618
g7
I00
sg10
(I01
I01
tp2619
sba(iModules.cell
Cell
p2620
(dp2621
g7
I00
sg10
(I01
I01
tp2622
sba(iModules.cell
Cell
p2623
(dp2624
g7
I00
sg10
(I01
I01
tp2625
sba(iModules.cell
Cell
p2626
(dp2627
g7
I00
sg10
(I01
I01
tp2628
sba(iModules.cell
Cell
p2629
(dp2630
g7
I00
sg10
(I01
I01
tp2631
sba(iModules.cell
Cell
p2632
(dp2633
g7
I00
sg10
(I01
I01
tp2634
sba(iModules.cell
Cell
p2635
(dp2636
g7
I00
sg10
(I01
I01
tp2637
sba(iModules.cell
Cell
p2638
(dp2639
g7
I00
sg10
(I00
I00
tp2640
sba(iModules.cell
Cell
p2641
(dp2642
g7
I00
sg10
(I00
I00
tp2643
sba(iModules.cell
Cell
p2644
(dp2645
g7
I00
sg10
(I00
I00
tp2646
sba(iModules.cell
Cell
p2647
(dp2648
g7
I00
sg10
(I00
I00
tp2649
sba(iModules.cell
Cell
p2650
(dp2651
g7
I00
sg10
(I00
I00
tp2652
sba(iModules.cell
Cell
p2653
(dp2654
g7
I00
sg10
(I00
I00
tp2655
sba(iModules.cell
Cell
p2656
(dp2657
g7
I00
sg10
(I00
I00
tp2658
sba(iModules.cell
Cell
p2659
(dp2660
g7
I00
sg10
(I00
I00
tp2661
sba(iModules.cell
Cell
p2662
(dp2663
g7
I00
sg10
(I00
I00
tp2664
sba(iModules.cell
Cell
p2665
(dp2666
g7
I00
sg10
(I00
I00
tp2667
sba(iModules.cell
Cell
p2668
(dp2669
g7
I00
sg10
(I00
I00
tp2670
sba(iModules.cell
Cell
p2671
(dp2672
g7
I00
sg10
(I00
I00
tp2673
sba(iModules.cell
Cell
p2674
(dp2675
g7
I00
sg10
(I00
I00
tp2676
sba(iModules.cell
Cell
p2677
(dp2678
g7
I00
sg10
(I00
I00
tp2679
sba(iModules.cell
Cell
p2680
(dp2681
g7
I00
sg10
(I00
I00
tp2682
sba(iModules.cell
Cell
p2683
(dp2684
g7
I00
sg10
(I00
I00
tp2685
sba(iModules.cell
Cell
p2686
(dp2687
g7
I00
sg10
(I00
I00
tp2688
sba(iModules.cell
Cell
p2689
(dp2690
g7
I00
sg10
(I00
I00
tp2691
sba(iModules.cell
Cell
p2692
(dp2693
g7
I00
sg10
(I00
I00
tp2694
sba(iModules.cell
Cell
p2695
(dp2696
g10
(I00
I00
tp2697
sbaa(lp2698
(iModules.cell
Cell
p2699
(dp2700
g7
I00
sg10
(I00
I00
tp2701
sba(iModules.cell
Cell
p2702
(dp2703
g7
I00
sg258
I01
sg10
(I00
I00
tp2704
sba(iModules.cell
Cell
p2705
(dp2706
g7
I00
sg258
I01
sg10
(I01
I01
tp2707
sba(iModules.cell
Cell
p2708
(dp2709
g7
I00
sg258
I01
sg10
(I01
I01
tp2710
sba(iModules.cell
Cell
p2711
(dp2712
g7
I00
sg258
I01
sg10
(I01
I01
tp2713
sba(iModules.cell
Cell
p2714
(dp2715
g7
I00
sg258
I01
sg10
(I01
I01
tp2716
sba(iModules.cell
Cell
p2717
(dp2718
g7
I00
sg258
I01
sg10
(I01
I01
tp2719
sba(iModules.cell
Cell
p2720
(dp2721
g7
I00
sg258
I01
sg10
(I01
I01
tp2722
sba(iModules.cell
Cell
p2723
(dp2724
g7
I00
sg258
I01
sg10
(I01
I01
tp2725
sba(iModules.cell
Cell
p2726
(dp2727
g7
I00
sg258
I01
sg10
(I01
I01
tp2728
sba(iModules.cell
Cell
p2729
(dp2730
g7
I00
sg258
I01
sg10
(I01
I01
tp2731
sba(iModules.cell
Cell
p2732
(dp2733
g7
I00
sg258
I01
sg10
(I01
I01
tp2734
sba(iModules.cell
Cell
p2735
(dp2736
g7
I00
sg258
I01
sg10
(I01
I01
tp2737
sba(iModules.cell
Cell
p2738
(dp2739
g7
I00
sg258
I01
sg10
(I01
I01
tp2740
sba(iModules.cell
Cell
p2741
(dp2742
g7
I00
sg258
I01
sg10
(I01
I01
tp2743
sba(iModules.cell
Cell
p2744
(dp2745
g7
I00
sg258
I01
sg10
(I01
I01
tp2746
sba(iModules.cell
Cell
p2747
(dp2748
g7
I00
sg258
I01
sg10
(I01
I01
tp2749
sba(iModules.cell
Cell
p2750
(dp2751
g7
I00
sg258
I01
sg10
(I01
I01
tp2752
sba(iModules.cell
Cell
p2753
(dp2754
g7
I00
sg258
I01
sg10
(I01
I01
tp2755
sba(iModules.cell
Cell
p2756
(dp2757
g7
I00
sg258
I01
sg10
(I01
I01
tp2758
sba(iModules.cell
Cell
p2759
(dp2760
g7
I00
sg258
I01
sg10
(I01
I01
tp2761
sba(iModules.cell
Cell
p2762
(dp2763
g7
I00
sg258
I01
sg10
(I01
I01
tp2764
sba(iModules.cell
Cell
p2765
(dp2766
g7
I00
sg258
I01
sg10
(I01
I01
tp2767
sba(iModules.cell
Cell
p2768
(dp2769
g7
I00
sg258
I01
sg10
(I01
I01
tp2770
sba(iModules.cell
Cell
p2771
(dp2772
g7
I00
sg258
I01
sg10
(I01
I01
tp2773
sba(iModules.cell
Cell
p2774
(dp2775
g7
I00
sg258
I01
sg10
(I01
I01
tp2776
sba(iModules.cell
Cell
p2777
(dp2778
g7
I00
sg258
I01
sg10
(I01
I01
tp2779
sba(iModules.cell
Cell
p2780
(dp2781
g7
I00
sg258
I01
sg10
(I01
I01
tp2782
sba(iModules.cell
Cell
p2783
(dp2784
g7
I00
sg10
(I01
I01
tp2785
sba(iModules.cell
Cell
p2786
(dp2787
g7
I00
sg10
(I01
I01
tp2788
sba(iModules.cell
Cell
p2789
(dp2790
g7
I00
sg10
(I01
I01
tp2791
sba(iModules.cell
Cell
p2792
(dp2793
g7
I00
sg10
(I01
I01
tp2794
sba(iModules.cell
Cell
p2795
(dp2796
g7
I00
sg10
(I01
I01
tp2797
sba(iModules.cell
Cell
p2798
(dp2799
g7
I00
sg10
(I01
I01
tp2800
sba(iModules.cell
Cell
p2801
(dp2802
g7
I00
sg10
(I01
I01
tp2803
sba(iModules.cell
Cell
p2804
(dp2805
g7
I00
sg10
(I01
I01
tp2806
sba(iModules.cell
Cell
p2807
(dp2808
g7
I00
sg10
(I01
I01
tp2809
sba(iModules.cell
Cell
p2810
(dp2811
g7
I00
sg10
(I01
I01
tp2812
sba(iModules.cell
Cell
p2813
(dp2814
g7
I00
sg10
(I01
I01
tp2815
sba(iModules.cell
Cell
p2816
(dp2817
g7
I00
sg10
(I01
I01
tp2818
sba(iModules.cell
Cell
p2819
(dp2820
g7
I00
sg10
(I01
I01
tp2821
sba(iModules.cell
Cell
p2822
(dp2823
g7
I00
sg10
(I01
I01
tp2824
sba(iModules.cell
Cell
p2825
(dp2826
g7
I00
sg10
(I01
I01
tp2827
sba(iModules.cell
Cell
p2828
(dp2829
g7
I00
sg10
(I01
I01
tp2830
sba(iModules.cell
Cell
p2831
(dp2832
g7
I00
sg10
(I01
I01
tp2833
sba(iModules.cell
Cell
p2834
(dp2835
g7
I00
sg10
(I01
I01
tp2836
sba(iModules.cell
Cell
p2837
(dp2838
g7
I00
sg10
(I01
I01
tp2839
sba(iModules.cell
Cell
p2840
(dp2841
g7
I00
sg10
(I01
I01
tp2842
sba(iModules.cell
Cell
p2843
(dp2844
g7
I00
sg10
(I01
I01
tp2845
sba(iModules.cell
Cell
p2846
(dp2847
g7
I00
sg10
(I01
I01
tp2848
sba(iModules.cell
Cell
p2849
(dp2850
g7
I00
sg10
(I01
I01
tp2851
sba(iModules.cell
Cell
p2852
(dp2853
g7
I00
sg10
(I01
I01
tp2854
sba(iModules.cell
Cell
p2855
(dp2856
g7
I00
sg10
(I01
I01
tp2857
sba(iModules.cell
Cell
p2858
(dp2859
g7
I00
sg10
(I01
I01
tp2860
sba(iModules.cell
Cell
p2861
(dp2862
g7
I00
sg10
(I01
I01
tp2863
sba(iModules.cell
Cell
p2864
(dp2865
g7
I00
sg10
(I01
I01
tp2866
sba(iModules.cell
Cell
p2867
(dp2868
g7
I00
sg10
(I01
I01
tp2869
sba(iModules.cell
Cell
p2870
(dp2871
g7
I00
sg10
(I01
I01
tp2872
sba(iModules.cell
Cell
p2873
(dp2874
g7
I00
sg10
(I01
I01
tp2875
sba(iModules.cell
Cell
p2876
(dp2877
g7
I00
sg10
(I01
I01
tp2878
sba(iModules.cell
Cell
p2879
(dp2880
g7
I00
sg10
(I01
I01
tp2881
sba(iModules.cell
Cell
p2882
(dp2883
g7
I00
sg10
(I00
I00
tp2884
sba(iModules.cell
Cell
p2885
(dp2886
g7
I00
sg10
(I00
I00
tp2887
sba(iModules.cell
Cell
p2888
(dp2889
g7
I00
sg10
(I00
I00
tp2890
sba(iModules.cell
Cell
p2891
(dp2892
g7
I00
sg10
(I00
I00
tp2893
sba(iModules.cell
Cell
p2894
(dp2895
g7
I00
sg10
(I00
I00
tp2896
sba(iModules.cell
Cell
p2897
(dp2898
g7
I00
sg10
(I00
I00
tp2899
sba(iModules.cell
Cell
p2900
(dp2901
g7
I00
sg10
(I00
I00
tp2902
sba(iModules.cell
Cell
p2903
(dp2904
g7
I00
sg10
(I00
I00
tp2905
sba(iModules.cell
Cell
p2906
(dp2907
g7
I00
sg10
(I00
I00
tp2908
sba(iModules.cell
Cell
p2909
(dp2910
g7
I00
sg10
(I00
I00
tp2911
sba(iModules.cell
Cell
p2912
(dp2913
g7
I00
sg10
(I00
I00
tp2914
sba(iModules.cell
Cell
p2915
(dp2916
g7
I00
sg10
(I00
I00
tp2917
sba(iModules.cell
Cell
p2918
(dp2919
g7
I00
sg10
(I00
I00
tp2920
sba(iModules.cell
Cell
p2921
(dp2922
g7
I00
sg10
(I00
I00
tp2923
sba(iModules.cell
Cell
p2924
(dp2925
g7
I00
sg10
(I00
I00
tp2926
sba(iModules.cell
Cell
p2927
(dp2928
g7
I00
sg10
(I00
I00
tp2929
sba(iModules.cell
Cell
p2930
(dp2931
g7
I00
sg10
(I00
I00
tp2932
sba(iModules.cell
Cell
p2933
(dp2934
g7
I00
sg10
(I00
I00
tp2935
sba(iModules.cell
Cell
p2936
(dp2937
g7
I00
sg10
(I00
I00
tp2938
sba(iModules.cell
Cell
p2939
(dp2940
g10
(I00
I00
tp2941
sbaa(lp2942
(iModules.cell
Cell
p2943
(dp2944
g7
I00
sg10
(I00
I00
tp2945
sba(iModules.cell
Cell
p2946
(dp2947
g7
I00
sg258
I01
sg10
(I00
I00
tp2948
sba(iModules.cell
Cell
p2949
(dp2950
g7
I00
sg258
I01
sg10
(I01
I01
tp2951
sba(iModules.cell
Cell
p2952
(dp2953
g7
I00
sg258
I01
sg10
(I01
I01
tp2954
sba(iModules.cell
Cell
p2955
(dp2956
g7
I00
sg258
I01
sg10
(I01
I01
tp2957
sba(iModules.cell
Cell
p2958
(dp2959
g7
I00
sg258
I01
sg10
(I01
I01
tp2960
sba(iModules.cell
Cell
p2961
(dp2962
g7
I00
sg258
I01
sg10
(I01
I01
tp2963
sba(iModules.cell
Cell
p2964
(dp2965
g7
I00
sg258
I01
sg10
(I01
I01
tp2966
sba(iModules.cell
Cell
p2967
(dp2968
g7
I00
sg258
I01
sg10
(I01
I01
tp2969
sba(iModules.cell
Cell
p2970
(dp2971
g7
I00
sg258
I01
sg10
(I01
I01
tp2972
sba(iModules.cell
Cell
p2973
(dp2974
g7
I00
sg258
I01
sg10
(I01
I01
tp2975
sba(iModules.cell
Cell
p2976
(dp2977
g7
I00
sg258
I01
sg10
(I01
I01
tp2978
sba(iModules.cell
Cell
p2979
(dp2980
g7
I00
sg258
I01
sg10
(I01
I01
tp2981
sba(iModules.cell
Cell
p2982
(dp2983
g7
I00
sg258
I01
sg10
(I01
I01
tp2984
sba(iModules.cell
Cell
p2985
(dp2986
g7
I00
sg258
I01
sg10
(I01
I01
tp2987
sba(iModules.cell
Cell
p2988
(dp2989
g7
I00
sg258
I01
sg10
(I01
I01
tp2990
sba(iModules.cell
Cell
p2991
(dp2992
g7
I00
sg258
I01
sg10
(I01
I01
tp2993
sba(iModules.cell
Cell
p2994
(dp2995
g7
I00
sg258
I01
sg10
(I01
I01
tp2996
sba(iModules.cell
Cell
p2997
(dp2998
g7
I00
sg258
I01
sg10
(I01
I01
tp2999
sba(iModules.cell
Cell
p3000
(dp3001
g7
I00
sg258
I01
sg10
(I01
I01
tp3002
sba(iModules.cell
Cell
p3003
(dp3004
g7
I00
sg258
I01
sg10
(I01
I01
tp3005
sba(iModules.cell
Cell
p3006
(dp3007
g7
I00
sg258
I01
sg10
(I01
I01
tp3008
sba(iModules.cell
Cell
p3009
(dp3010
g7
I00
sg258
I01
sg10
(I01
I01
tp3011
sba(iModules.cell
Cell
p3012
(dp3013
g7
I00
sg258
I01
sg10
(I01
I01
tp3014
sba(iModules.cell
Cell
p3015
(dp3016
g7
I00
sg258
I01
sg10
(I01
I01
tp3017
sba(iModules.cell
Cell
p3018
(dp3019
g7
I00
sg258
I01
sg10
(I01
I01
tp3020
sba(iModules.cell
Cell
p3021
(dp3022
g7
I00
sg258
I01
sg10
(I01
I01
tp3023
sba(iModules.cell
Cell
p3024
(dp3025
g7
I00
sg258
I01
sg10
(I01
I01
tp3026
sba(iModules.cell
Cell
p3027
(dp3028
g7
I00
sg10
(I01
I01
tp3029
sba(iModules.cell
Cell
p3030
(dp3031
g7
I00
sg10
(I01
I01
tp3032
sba(iModules.cell
Cell
p3033
(dp3034
g7
I00
sg10
(I01
I01
tp3035
sba(iModules.cell
Cell
p3036
(dp3037
g7
I00
sg10
(I01
I01
tp3038
sba(iModules.cell
Cell
p3039
(dp3040
g7
I00
sg10
(I01
I01
tp3041
sba(iModules.cell
Cell
p3042
(dp3043
g7
I00
sg10
(I01
I01
tp3044
sba(iModules.cell
Cell
p3045
(dp3046
g7
I00
sg10
(I01
I01
tp3047
sba(iModules.cell
Cell
p3048
(dp3049
g7
I00
sg10
(I01
I01
tp3050
sba(iModules.cell
Cell
p3051
(dp3052
g7
I00
sg10
(I01
I01
tp3053
sba(iModules.cell
Cell
p3054
(dp3055
g7
I00
sg10
(I01
I01
tp3056
sba(iModules.cell
Cell
p3057
(dp3058
g7
I00
sg10
(I01
I01
tp3059
sba(iModules.cell
Cell
p3060
(dp3061
g7
I00
sg10
(I01
I01
tp3062
sba(iModules.cell
Cell
p3063
(dp3064
g7
I00
sg10
(I01
I01
tp3065
sba(iModules.cell
Cell
p3066
(dp3067
g7
I00
sg10
(I01
I01
tp3068
sba(iModules.cell
Cell
p3069
(dp3070
g7
I00
sg10
(I01
I01
tp3071
sba(iModules.cell
Cell
p3072
(dp3073
g7
I00
sg10
(I01
I01
tp3074
sba(iModules.cell
Cell
p3075
(dp3076
g7
I00
sg10
(I01
I01
tp3077
sba(iModules.cell
Cell
p3078
(dp3079
g7
I00
sg10
(I01
I01
tp3080
sba(iModules.cell
Cell
p3081
(dp3082
g7
I00
sg10
(I01
I01
tp3083
sba(iModules.cell
Cell
p3084
(dp3085
g7
I00
sg10
(I01
I01
tp3086
sba(iModules.cell
Cell
p3087
(dp3088
g7
I00
sg10
(I01
I01
tp3089
sba(iModules.cell
Cell
p3090
(dp3091
g7
I00
sg10
(I01
I01
tp3092
sba(iModules.cell
Cell
p3093
(dp3094
g7
I00
sg10
(I01
I01
tp3095
sba(iModules.cell
Cell
p3096
(dp3097
g7
I00
sg10
(I01
I01
tp3098
sba(iModules.cell
Cell
p3099
(dp3100
g7
I00
sg10
(I01
I01
tp3101
sba(iModules.cell
Cell
p3102
(dp3103
g7
I00
sg10
(I01
I01
tp3104
sba(iModules.cell
Cell
p3105
(dp3106
g7
I00
sg10
(I01
I01
tp3107
sba(iModules.cell
Cell
p3108
(dp3109
g7
I00
sg10
(I01
I01
tp3110
sba(iModules.cell
Cell
p3111
(dp3112
g7
I00
sg10
(I01
I01
tp3113
sba(iModules.cell
Cell
p3114
(dp3115
g7
I00
sg10
(I01
I01
tp3116
sba(iModules.cell
Cell
p3117
(dp3118
g7
I00
sg10
(I01
I01
tp3119
sba(iModules.cell
Cell
p3120
(dp3121
g7
I00
sg10
(I01
I01
tp3122
sba(iModules.cell
Cell
p3123
(dp3124
g7
I00
sg10
(I01
I01
tp3125
sba(iModules.cell
Cell
p3126
(dp3127
g7
I00
sg10
(I00
I00
tp3128
sba(iModules.cell
Cell
p3129
(dp3130
g7
I00
sg10
(I00
I00
tp3131
sba(iModules.cell
Cell
p3132
(dp3133
g7
I00
sg10
(I00
I00
tp3134
sba(iModules.cell
Cell
p3135
(dp3136
g7
I00
sg10
(I00
I00
tp3137
sba(iModules.cell
Cell
p3138
(dp3139
g7
I00
sg10
(I00
I00
tp3140
sba(iModules.cell
Cell
p3141
(dp3142
g7
I00
sg10
(I00
I00
tp3143
sba(iModules.cell
Cell
p3144
(dp3145
g7
I00
sg10
(I00
I00
tp3146
sba(iModules.cell
Cell
p3147
(dp3148
g7
I00
sg10
(I00
I00
tp3149
sba(iModules.cell
Cell
p3150
(dp3151
g7
I00
sg10
(I00
I00
tp3152
sba(iModules.cell
Cell
p3153
(dp3154
g7
I00
sg10
(I00
I00
tp3155
sba(iModules.cell
Cell
p3156
(dp3157
g7
I00
sg10
(I00
I00
tp3158
sba(iModules.cell
Cell
p3159
(dp3160
g7
I00
sg10
(I00
I00
tp3161
sba(iModules.cell
Cell
p3162
(dp3163
g7
I00
sg10
(I00
I00
tp3164
sba(iModules.cell
Cell
p3165
(dp3166
g7
I00
sg10
(I00
I00
tp3167
sba(iModules.cell
Cell
p3168
(dp3169
g7
I00
sg10
(I00
I00
tp3170
sba(iModules.cell
Cell
p3171
(dp3172
g7
I00
sg10
(I00
I00
tp3173
sba(iModules.cell
Cell
p3174
(dp3175
g7
I00
sg10
(I00
I00
tp3176
sba(iModules.cell
Cell
p3177
(dp3178
g7
I00
sg10
(I00
I00
tp3179
sba(iModules.cell
Cell
p3180
(dp3181
g7
I00
sg10
(I00
I00
tp3182
sba(iModules.cell
Cell
p3183
(dp3184
g10
(I00
I00
tp3185
sbaa(lp3186
(iModules.cell
Cell
p3187
(dp3188
g7
I00
sg10
(I00
I00
tp3189
sba(iModules.cell
Cell
p3190
(dp3191
g7
I00
sg258
I01
sg10
(I00
I00
tp3192
sba(iModules.cell
Cell
p3193
(dp3194
g7
I00
sg258
I01
sg10
(I01
I01
tp3195
sba(iModules.cell
Cell
p3196
(dp3197
g7
I00
sg258
I01
sg10
(I01
I01
tp3198
sba(iModules.cell
Cell
p3199
(dp3200
g7
I00
sg258
I01
sg10
(I01
I01
tp3201
sba(iModules.cell
Cell
p3202
(dp3203
g7
I00
sg258
I01
sg10
(I01
I01
tp3204
sba(iModules.cell
Cell
p3205
(dp3206
g7
I00
sg258
I01
sg10
(I01
I01
tp3207
sba(iModules.cell
Cell
p3208
(dp3209
g7
I00
sg258
I01
sg10
(I01
I01
tp3210
sba(iModules.cell
Cell
p3211
(dp3212
g7
I00
sg258
I01
sg10
(I01
I01
tp3213
sba(iModules.cell
Cell
p3214
(dp3215
g7
I00
sg258
I01
sg10
(I01
I01
tp3216
sba(iModules.cell
Cell
p3217
(dp3218
g7
I00
sg258
I01
sg10
(I01
I01
tp3219
sba(iModules.cell
Cell
p3220
(dp3221
g7
I00
sg258
I01
sg10
(I01
I01
tp3222
sba(iModules.cell
Cell
p3223
(dp3224
g7
I00
sg258
I01
sg10
(I01
I01
tp3225
sba(iModules.cell
Cell
p3226
(dp3227
g7
I00
sg258
I01
sg10
(I01
I01
tp3228
sba(iModules.cell
Cell
p3229
(dp3230
g7
I00
sg258
I01
sg10
(I01
I01
tp3231
sba(iModules.cell
Cell
p3232
(dp3233
g7
I00
sg258
I01
sg10
(I01
I01
tp3234
sba(iModules.cell
Cell
p3235
(dp3236
g7
I00
sg258
I01
sg10
(I01
I01
tp3237
sba(iModules.cell
Cell
p3238
(dp3239
g7
I00
sg258
I01
sg10
(I01
I01
tp3240
sba(iModules.cell
Cell
p3241
(dp3242
g7
I00
sg258
I01
sg10
(I01
I01
tp3243
sba(iModules.cell
Cell
p3244
(dp3245
g7
I00
sg258
I01
sg10
(I01
I01
tp3246
sba(iModules.cell
Cell
p3247
(dp3248
g7
I00
sg258
I01
sg10
(I01
I01
tp3249
sba(iModules.cell
Cell
p3250
(dp3251
g7
I00
sg258
I01
sg10
(I01
I01
tp3252
sba(iModules.cell
Cell
p3253
(dp3254
g7
I00
sg258
I01
sg10
(I01
I01
tp3255
sba(iModules.cell
Cell
p3256
(dp3257
g7
I00
sg258
I01
sg10
(I01
I01
tp3258
sba(iModules.cell
Cell
p3259
(dp3260
g7
I00
sg258
I01
sg10
(I01
I01
tp3261
sba(iModules.cell
Cell
p3262
(dp3263
g7
I00
sg258
I01
sg10
(I01
I01
tp3264
sba(iModules.cell
Cell
p3265
(dp3266
g7
I00
sg258
I01
sg10
(I01
I01
tp3267
sba(iModules.cell
Cell
p3268
(dp3269
g7
I00
sg10
(I01
I01
tp3270
sba(iModules.cell
Cell
p3271
(dp3272
g7
I00
sg10
(I01
I01
tp3273
sba(iModules.cell
Cell
p3274
(dp3275
g7
I00
sg10
(I01
I01
tp3276
sba(iModules.cell
Cell
p3277
(dp3278
g7
I00
sg10
(I01
I01
tp3279
sba(iModules.cell
Cell
p3280
(dp3281
g7
I00
sg10
(I01
I01
tp3282
sba(iModules.cell
Cell
p3283
(dp3284
g7
I00
sg10
(I01
I01
tp3285
sba(iModules.cell
Cell
p3286
(dp3287
g7
I00
sg10
(I01
I01
tp3288
sba(iModules.cell
Cell
p3289
(dp3290
g7
I00
sg10
(I01
I01
tp3291
sba(iModules.cell
Cell
p3292
(dp3293
g7
I00
sg10
(I01
I01
tp3294
sba(iModules.cell
Cell
p3295
(dp3296
g7
I00
sg10
(I01
I01
tp3297
sba(iModules.cell
Cell
p3298
(dp3299
g7
I00
sg10
(I01
I01
tp3300
sba(iModules.cell
Cell
p3301
(dp3302
g7
I00
sg10
(I01
I01
tp3303
sba(iModules.cell
Cell
p3304
(dp3305
g7
I00
sg10
(I01
I01
tp3306
sba(iModules.cell
Cell
p3307
(dp3308
g7
I00
sg10
(I01
I01
tp3309
sba(iModules.cell
Cell
p3310
(dp3311
g7
I00
sg10
(I01
I01
tp3312
sba(iModules.cell
Cell
p3313
(dp3314
g7
I00
sg10
(I01
I01
tp3315
sba(iModules.cell
Cell
p3316
(dp3317
g7
I00
sg10
(I01
I01
tp3318
sba(iModules.cell
Cell
p3319
(dp3320
g7
I00
sg10
(I01
I01
tp3321
sba(iModules.cell
Cell
p3322
(dp3323
g7
I00
sg10
(I01
I01
tp3324
sba(iModules.cell
Cell
p3325
(dp3326
g7
I00
sg10
(I01
I01
tp3327
sba(iModules.cell
Cell
p3328
(dp3329
g7
I00
sg10
(I01
I01
tp3330
sba(iModules.cell
Cell
p3331
(dp3332
g7
I00
sg10
(I01
I01
tp3333
sba(iModules.cell
Cell
p3334
(dp3335
g7
I00
sg10
(I01
I01
tp3336
sba(iModules.cell
Cell
p3337
(dp3338
g7
I00
sg10
(I01
I01
tp3339
sba(iModules.cell
Cell
p3340
(dp3341
g7
I00
sg10
(I01
I01
tp3342
sba(iModules.cell
Cell
p3343
(dp3344
g7
I00
sg10
(I01
I01
tp3345
sba(iModules.cell
Cell
p3346
(dp3347
g7
I00
sg10
(I01
I01
tp3348
sba(iModules.cell
Cell
p3349
(dp3350
g7
I00
sg10
(I01
I01
tp3351
sba(iModules.cell
Cell
p3352
(dp3353
g7
I00
sg10
(I01
I01
tp3354
sba(iModules.cell
Cell
p3355
(dp3356
g7
I00
sg10
(I01
I01
tp3357
sba(iModules.cell
Cell
p3358
(dp3359
g7
I00
sg10
(I01
I01
tp3360
sba(iModules.cell
Cell
p3361
(dp3362
g7
I00
sg10
(I01
I01
tp3363
sba(iModules.cell
Cell
p3364
(dp3365
g7
I00
sg10
(I01
I01
tp3366
sba(iModules.cell
Cell
p3367
(dp3368
g7
I00
sg10
(I01
I01
tp3369
sba(iModules.cell
Cell
p3370
(dp3371
g7
I00
sg10
(I00
I00
tp3372
sba(iModules.cell
Cell
p3373
(dp3374
g7
I00
sg10
(I00
I00
tp3375
sba(iModules.cell
Cell
p3376
(dp3377
g7
I00
sg10
(I00
I00
tp3378
sba(iModules.cell
Cell
p3379
(dp3380
g7
I00
sg10
(I00
I00
tp3381
sba(iModules.cell
Cell
p3382
(dp3383
g7
I00
sg10
(I00
I00
tp3384
sba(iModules.cell
Cell
p3385
(dp3386
g7
I00
sg10
(I00
I00
tp3387
sba(iModules.cell
Cell
p3388
(dp3389
g7
I00
sg10
(I00
I00
tp3390
sba(iModules.cell
Cell
p3391
(dp3392
g7
I00
sg10
(I00
I00
tp3393
sba(iModules.cell
Cell
p3394
(dp3395
g7
I00
sg10
(I00
I00
tp3396
sba(iModules.cell
Cell
p3397
(dp3398
g7
I00
sg10
(I00
I00
tp3399
sba(iModules.cell
Cell
p3400
(dp3401
g7
I00
sg10
(I00
I00
tp3402
sba(iModules.cell
Cell
p3403
(dp3404
g7
I00
sg10
(I00
I00
tp3405
sba(iModules.cell
Cell
p3406
(dp3407
g7
I00
sg10
(I00
I00
tp3408
sba(iModules.cell
Cell
p3409
(dp3410
g7
I00
sg10
(I00
I00
tp3411
sba(iModules.cell
Cell
p3412
(dp3413
g7
I00
sg10
(I00
I00
tp3414
sba(iModules.cell
Cell
p3415
(dp3416
g7
I00
sg10
(I00
I00
tp3417
sba(iModules.cell
Cell
p3418
(dp3419
g7
I00
sg10
(I00
I00
tp3420
sba(iModules.cell
Cell
p3421
(dp3422
g7
I00
sg10
(I00
I00
tp3423
sba(iModules.cell
Cell
p3424
(dp3425
g7
I00
sg10
(I00
I00
tp3426
sba(iModules.cell
Cell
p3427
(dp3428
g10
(I00
I00
tp3429
sbaa(lp3430
(iModules.cell
Cell
p3431
(dp3432
g7
I00
sg10
(I00
I00
tp3433
sba(iModules.cell
Cell
p3434
(dp3435
g7
I00
sg258
I01
sg10
(I00
I00
tp3436
sba(iModules.cell
Cell
p3437
(dp3438
g7
I00
sg258
I01
sg10
(I01
I01
tp3439
sba(iModules.cell
Cell
p3440
(dp3441
g7
I00
sg258
I01
sg10
(I01
I01
tp3442
sba(iModules.cell
Cell
p3443
(dp3444
g7
I00
sg258
I01
sg10
(I01
I01
tp3445
sba(iModules.cell
Cell
p3446
(dp3447
g7
I00
sg258
I01
sg10
(I01
I01
tp3448
sba(iModules.cell
Cell
p3449
(dp3450
g7
I00
sg258
I01
sg10
(I01
I01
tp3451
sba(iModules.cell
Cell
p3452
(dp3453
g7
I00
sg258
I01
sg10
(I01
I01
tp3454
sba(iModules.cell
Cell
p3455
(dp3456
g7
I00
sg258
I01
sg10
(I01
I01
tp3457
sba(iModules.cell
Cell
p3458
(dp3459
g7
I00
sg258
I01
sg10
(I01
I01
tp3460
sba(iModules.cell
Cell
p3461
(dp3462
g7
I00
sg258
I01
sg10
(I01
I01
tp3463
sba(iModules.cell
Cell
p3464
(dp3465
g7
I00
sg258
I01
sg10
(I01
I01
tp3466
sba(iModules.cell
Cell
p3467
(dp3468
g7
I00
sg258
I01
sg10
(I01
I01
tp3469
sba(iModules.cell
Cell
p3470
(dp3471
g7
I00
sg258
I01
sg10
(I01
I01
tp3472
sba(iModules.cell
Cell
p3473
(dp3474
g7
I00
sg258
I01
sg10
(I01
I01
tp3475
sba(iModules.cell
Cell
p3476
(dp3477
g7
I00
sg258
I01
sg10
(I01
I01
tp3478
sba(iModules.cell
Cell
p3479
(dp3480
g7
I00
sg258
I01
sg10
(I01
I01
tp3481
sba(iModules.cell
Cell
p3482
(dp3483
g7
I00
sg258
I01
sg10
(I01
I01
tp3484
sba(iModules.cell
Cell
p3485
(dp3486
g7
I00
sg258
I01
sg10
(I01
I01
tp3487
sba(iModules.cell
Cell
p3488
(dp3489
g7
I00
sg258
I01
sg10
(I01
I01
tp3490
sba(iModules.cell
Cell
p3491
(dp3492
g7
I00
sg258
I01
sg10
(I01
I01
tp3493
sba(iModules.cell
Cell
p3494
(dp3495
g7
I00
sg258
I01
sg10
(I01
I01
tp3496
sba(iModules.cell
Cell
p3497
(dp3498
g7
I00
sg258
I01
sg10
(I01
I01
tp3499
sba(iModules.cell
Cell
p3500
(dp3501
g7
I00
sg258
I01
sg10
(I01
I01
tp3502
sba(iModules.cell
Cell
p3503
(dp3504
g7
I00
sg258
I01
sg10
(I01
I01
tp3505
sba(iModules.cell
Cell
p3506
(dp3507
g7
I00
sg258
I01
sg10
(I01
I01
tp3508
sba(iModules.cell
Cell
p3509
(dp3510
g7
I00
sg10
(I01
I01
tp3511
sba(iModules.cell
Cell
p3512
(dp3513
g7
I00
sg10
(I01
I01
tp3514
sba(iModules.cell
Cell
p3515
(dp3516
g7
I00
sg10
(I01
I01
tp3517
sba(iModules.cell
Cell
p3518
(dp3519
g7
I00
sg10
(I01
I01
tp3520
sba(iModules.cell
Cell
p3521
(dp3522
g7
I00
sg10
(I01
I01
tp3523
sba(iModules.cell
Cell
p3524
(dp3525
g7
I00
sg10
(I01
I01
tp3526
sba(iModules.cell
Cell
p3527
(dp3528
g7
I00
sg10
(I01
I01
tp3529
sba(iModules.cell
Cell
p3530
(dp3531
g7
I00
sg10
(I01
I01
tp3532
sba(iModules.cell
Cell
p3533
(dp3534
g7
I00
sg10
(I01
I01
tp3535
sba(iModules.cell
Cell
p3536
(dp3537
g7
I00
sg10
(I01
I01
tp3538
sba(iModules.cell
Cell
p3539
(dp3540
g7
I00
sg10
(I01
I01
tp3541
sba(iModules.cell
Cell
p3542
(dp3543
g7
I00
sg10
(I01
I01
tp3544
sba(iModules.cell
Cell
p3545
(dp3546
g7
I00
sg10
(I01
I01
tp3547
sba(iModules.cell
Cell
p3548
(dp3549
g7
I00
sg10
(I01
I01
tp3550
sba(iModules.cell
Cell
p3551
(dp3552
g7
I00
sg10
(I01
I01
tp3553
sba(iModules.cell
Cell
p3554
(dp3555
g7
I00
sg10
(I01
I01
tp3556
sba(iModules.cell
Cell
p3557
(dp3558
g7
I00
sg10
(I01
I01
tp3559
sba(iModules.cell
Cell
p3560
(dp3561
g7
I00
sg10
(I01
I01
tp3562
sba(iModules.cell
Cell
p3563
(dp3564
g7
I00
sg10
(I01
I01
tp3565
sba(iModules.cell
Cell
p3566
(dp3567
g7
I00
sg10
(I01
I01
tp3568
sba(iModules.cell
Cell
p3569
(dp3570
g7
I00
sg10
(I01
I01
tp3571
sba(iModules.cell
Cell
p3572
(dp3573
g7
I00
sg10
(I01
I01
tp3574
sba(iModules.cell
Cell
p3575
(dp3576
g7
I00
sg10
(I01
I01
tp3577
sba(iModules.cell
Cell
p3578
(dp3579
g7
I00
sg10
(I01
I01
tp3580
sba(iModules.cell
Cell
p3581
(dp3582
g7
I00
sg10
(I01
I01
tp3583
sba(iModules.cell
Cell
p3584
(dp3585
g7
I00
sg10
(I01
I01
tp3586
sba(iModules.cell
Cell
p3587
(dp3588
g7
I00
sg10
(I01
I01
tp3589
sba(iModules.cell
Cell
p3590
(dp3591
g7
I00
sg10
(I01
I01
tp3592
sba(iModules.cell
Cell
p3593
(dp3594
g7
I00
sg10
(I01
I01
tp3595
sba(iModules.cell
Cell
p3596
(dp3597
g7
I00
sg10
(I01
I01
tp3598
sba(iModules.cell
Cell
p3599
(dp3600
g7
I00
sg10
(I01
I01
tp3601
sba(iModules.cell
Cell
p3602
(dp3603
g7
I00
sg10
(I01
I01
tp3604
sba(iModules.cell
Cell
p3605
(dp3606
g7
I00
sg10
(I01
I01
tp3607
sba(iModules.cell
Cell
p3608
(dp3609
g7
I00
sg10
(I01
I01
tp3610
sba(iModules.cell
Cell
p3611
(dp3612
g7
I00
sg10
(I01
I01
tp3613
sba(iModules.cell
Cell
p3614
(dp3615
g7
I00
sg10
(I00
I00
tp3616
sba(iModules.cell
Cell
p3617
(dp3618
g7
I00
sg10
(I00
I00
tp3619
sba(iModules.cell
Cell
p3620
(dp3621
g7
I00
sg10
(I00
I00
tp3622
sba(iModules.cell
Cell
p3623
(dp3624
g7
I00
sg10
(I00
I00
tp3625
sba(iModules.cell
Cell
p3626
(dp3627
g7
I00
sg10
(I00
I00
tp3628
sba(iModules.cell
Cell
p3629
(dp3630
g7
I00
sg10
(I00
I00
tp3631
sba(iModules.cell
Cell
p3632
(dp3633
g7
I00
sg10
(I00
I00
tp3634
sba(iModules.cell
Cell
p3635
(dp3636
g7
I00
sg10
(I00
I00
tp3637
sba(iModules.cell
Cell
p3638
(dp3639
g7
I00
sg10
(I00
I00
tp3640
sba(iModules.cell
Cell
p3641
(dp3642
g7
I00
sg10
(I00
I00
tp3643
sba(iModules.cell
Cell
p3644
(dp3645
g7
I00
sg10
(I00
I00
tp3646
sba(iModules.cell
Cell
p3647
(dp3648
g7
I00
sg10
(I00
I00
tp3649
sba(iModules.cell
Cell
p3650
(dp3651
g7
I00
sg10
(I00
I00
tp3652
sba(iModules.cell
Cell
p3653
(dp3654
g7
I00
sg10
(I00
I00
tp3655
sba(iModules.cell
Cell
p3656
(dp3657
g7
I00
sg10
(I00
I00
tp3658
sba(iModules.cell
Cell
p3659
(dp3660
g7
I00
sg10
(I00
I00
tp3661
sba(iModules.cell
Cell
p3662
(dp3663
g7
I00
sg10
(I00
I00
tp3664
sba(iModules.cell
Cell
p3665
(dp3666
g7
I00
sg10
(I00
I00
tp3667
sba(iModules.cell
Cell
p3668
(dp3669
g7
I00
sg10
(I00
I00
tp3670
sba(iModules.cell
Cell
p3671
(dp3672
g10
(I00
I00
tp3673
sbaa(lp3674
(iModules.cell
Cell
p3675
(dp3676
g7
I00
sg10
(I00
I00
tp3677
sba(iModules.cell
Cell
p3678
(dp3679
g7
I00
sg258
I01
sg10
(I00
I00
tp3680
sba(iModules.cell
Cell
p3681
(dp3682
g7
I00
sg258
I01
sg10
(I01
I01
tp3683
sba(iModules.cell
Cell
p3684
(dp3685
g7
I00
sg258
I01
sg10
(I01
I01
tp3686
sba(iModules.cell
Cell
p3687
(dp3688
g7
I00
sg258
I01
sg10
(I01
I01
tp3689
sba(iModules.cell
Cell
p3690
(dp3691
g7
I00
sg258
I01
sg10
(I01
I01
tp3692
sba(iModules.cell
Cell
p3693
(dp3694
g7
I00
sg258
I01
sg10
(I01
I01
tp3695
sba(iModules.cell
Cell
p3696
(dp3697
g7
I00
sg258
I01
sg10
(I01
I01
tp3698
sba(iModules.cell
Cell
p3699
(dp3700
g7
I00
sg258
I01
sg10
(I01
I01
tp3701
sba(iModules.cell
Cell
p3702
(dp3703
g7
I00
sg258
I01
sg10
(I01
I01
tp3704
sba(iModules.cell
Cell
p3705
(dp3706
g7
I00
sg258
I01
sg10
(I01
I01
tp3707
sba(iModules.cell
Cell
p3708
(dp3709
g7
I00
sg258
I01
sg10
(I01
I01
tp3710
sba(iModules.cell
Cell
p3711
(dp3712
g7
I00
sg258
I01
sg10
(I01
I01
tp3713
sba(iModules.cell
Cell
p3714
(dp3715
g7
I00
sg258
I01
sg10
(I01
I01
tp3716
sba(iModules.cell
Cell
p3717
(dp3718
g7
I00
sg258
I01
sg10
(I01
I01
tp3719
sba(iModules.cell
Cell
p3720
(dp3721
g7
I00
sg258
I01
sg10
(I01
I01
tp3722
sba(iModules.cell
Cell
p3723
(dp3724
g7
I00
sg258
I01
sg10
(I01
I01
tp3725
sba(iModules.cell
Cell
p3726
(dp3727
g7
I00
sg258
I01
sg10
(I01
I01
tp3728
sba(iModules.cell
Cell
p3729
(dp3730
g7
I00
sg258
I01
sg10
(I01
I01
tp3731
sba(iModules.cell
Cell
p3732
(dp3733
g7
I00
sg258
I01
sg10
(I01
I01
tp3734
sba(iModules.cell
Cell
p3735
(dp3736
g7
I00
sg258
I01
sg10
(I01
I01
tp3737
sba(iModules.cell
Cell
p3738
(dp3739
g7
I00
sg258
I01
sg10
(I01
I01
tp3740
sba(iModules.cell
Cell
p3741
(dp3742
g7
I00
sg258
I01
sg10
(I01
I01
tp3743
sba(iModules.cell
Cell
p3744
(dp3745
g7
I00
sg258
I01
sg10
(I01
I01
tp3746
sba(iModules.cell
Cell
p3747
(dp3748
g7
I00
sg258
I01
sg10
(I01
I01
tp3749
sba(iModules.cell
Cell
p3750
(dp3751
g7
I00
sg10
(I01
I01
tp3752
sba(iModules.cell
Cell
p3753
(dp3754
g7
I00
sg10
(I01
I01
tp3755
sba(iModules.cell
Cell
p3756
(dp3757
g7
I00
sg10
(I01
I01
tp3758
sba(iModules.cell
Cell
p3759
(dp3760
g7
I00
sg10
(I01
I01
tp3761
sba(iModules.cell
Cell
p3762
(dp3763
g7
I00
sg10
(I01
I01
tp3764
sba(iModules.cell
Cell
p3765
(dp3766
g7
I00
sg10
(I01
I01
tp3767
sba(iModules.cell
Cell
p3768
(dp3769
g7
I00
sg10
(I01
I01
tp3770
sba(iModules.cell
Cell
p3771
(dp3772
g7
I00
sg10
(I01
I01
tp3773
sba(iModules.cell
Cell
p3774
(dp3775
g7
I00
sg10
(I01
I01
tp3776
sba(iModules.cell
Cell
p3777
(dp3778
g7
I00
sg10
(I01
I01
tp3779
sba(iModules.cell
Cell
p3780
(dp3781
g7
I00
sg10
(I01
I01
tp3782
sba(iModules.cell
Cell
p3783
(dp3784
g7
I00
sg10
(I01
I01
tp3785
sba(iModules.cell
Cell
p3786
(dp3787
g7
I00
sg10
(I01
I01
tp3788
sba(iModules.cell
Cell
p3789
(dp3790
g7
I00
sg10
(I01
I01
tp3791
sba(iModules.cell
Cell
p3792
(dp3793
g7
I00
sg10
(I01
I01
tp3794
sba(iModules.cell
Cell
p3795
(dp3796
g7
I00
sg10
(I01
I01
tp3797
sba(iModules.cell
Cell
p3798
(dp3799
g7
I00
sg10
(I01
I01
tp3800
sba(iModules.cell
Cell
p3801
(dp3802
g7
I00
sg10
(I01
I01
tp3803
sba(iModules.cell
Cell
p3804
(dp3805
g7
I00
sg10
(I01
I01
tp3806
sba(iModules.cell
Cell
p3807
(dp3808
g7
I00
sg10
(I01
I01
tp3809
sba(iModules.cell
Cell
p3810
(dp3811
g7
I00
sg10
(I01
I01
tp3812
sba(iModules.cell
Cell
p3813
(dp3814
g7
I00
sg10
(I01
I01
tp3815
sba(iModules.cell
Cell
p3816
(dp3817
g7
I00
sg10
(I01
I01
tp3818
sba(iModules.cell
Cell
p3819
(dp3820
g7
I00
sg10
(I01
I01
tp3821
sba(iModules.cell
Cell
p3822
(dp3823
g7
I00
sg10
(I01
I01
tp3824
sba(iModules.cell
Cell
p3825
(dp3826
g7
I00
sg10
(I01
I01
tp3827
sba(iModules.cell
Cell
p3828
(dp3829
g7
I00
sg10
(I01
I01
tp3830
sba(iModules.cell
Cell
p3831
(dp3832
g7
I00
sg10
(I01
I01
tp3833
sba(iModules.cell
Cell
p3834
(dp3835
g7
I00
sg10
(I01
I01
tp3836
sba(iModules.cell
Cell
p3837
(dp3838
g7
I00
sg10
(I01
I01
tp3839
sba(iModules.cell
Cell
p3840
(dp3841
g7
I00
sg10
(I01
I01
tp3842
sba(iModules.cell
Cell
p3843
(dp3844
g7
I00
sg10
(I01
I01
tp3845
sba(iModules.cell
Cell
p3846
(dp3847
g7
I00
sg10
(I01
I01
tp3848
sba(iModules.cell
Cell
p3849
(dp3850
g7
I00
sg10
(I01
I01
tp3851
sba(iModules.cell
Cell
p3852
(dp3853
g7
I00
sg10
(I01
I01
tp3854
sba(iModules.cell
Cell
p3855
(dp3856
g7
I00
sg10
(I01
I01
tp3857
sba(iModules.cell
Cell
p3858
(dp3859
g7
I00
sg10
(I00
I00
tp3860
sba(iModules.cell
Cell
p3861
(dp3862
g7
I00
sg10
(I00
I00
tp3863
sba(iModules.cell
Cell
p3864
(dp3865
g7
I00
sg10
(I00
I00
tp3866
sba(iModules.cell
Cell
p3867
(dp3868
g7
I00
sg10
(I00
I00
tp3869
sba(iModules.cell
Cell
p3870
(dp3871
g7
I00
sg10
(I00
I00
tp3872
sba(iModules.cell
Cell
p3873
(dp3874
g7
I00
sg10
(I00
I00
tp3875
sba(iModules.cell
Cell
p3876
(dp3877
g7
I00
sg10
(I00
I00
tp3878
sba(iModules.cell
Cell
p3879
(dp3880
g7
I00
sg10
(I00
I00
tp3881
sba(iModules.cell
Cell
p3882
(dp3883
g7
I00
sg10
(I00
I00
tp3884
sba(iModules.cell
Cell
p3885
(dp3886
g7
I00
sg10
(I00
I00
tp3887
sba(iModules.cell
Cell
p3888
(dp3889
g7
I00
sg10
(I00
I00
tp3890
sba(iModules.cell
Cell
p3891
(dp3892
g7
I00
sg10
(I00
I00
tp3893
sba(iModules.cell
Cell
p3894
(dp3895
g7
I00
sg10
(I00
I00
tp3896
sba(iModules.cell
Cell
p3897
(dp3898
g7
I00
sg10
(I00
I00
tp3899
sba(iModules.cell
Cell
p3900
(dp3901
g7
I00
sg10
(I00
I00
tp3902
sba(iModules.cell
Cell
p3903
(dp3904
g7
I00
sg10
(I00
I00
tp3905
sba(iModules.cell
Cell
p3906
(dp3907
g7
I00
sg10
(I00
I00
tp3908
sba(iModules.cell
Cell
p3909
(dp3910
g7
I00
sg10
(I00
I00
tp3911
sba(iModules.cell
Cell
p3912
(dp3913
g7
I00
sg10
(I00
I00
tp3914
sba(iModules.cell
Cell
p3915
(dp3916
g10
(I00
I00
tp3917
sbaa(lp3918
(iModules.cell
Cell
p3919
(dp3920
g7
I00
sg10
(I00
I00
tp3921
sba(iModules.cell
Cell
p3922
(dp3923
g7
I00
sg258
I01
sg10
(I00
I00
tp3924
sba(iModules.cell
Cell
p3925
(dp3926
g7
I00
sg258
I01
sg10
(I01
I01
tp3927
sba(iModules.cell
Cell
p3928
(dp3929
g7
I00
sg258
I01
sg10
(I01
I01
tp3930
sba(iModules.cell
Cell
p3931
(dp3932
g7
I00
sg258
I01
sg10
(I01
I01
tp3933
sba(iModules.cell
Cell
p3934
(dp3935
g7
I00
sg258
I01
sg10
(I01
I01
tp3936
sba(iModules.cell
Cell
p3937
(dp3938
g7
I00
sg258
I01
sg10
(I01
I01
tp3939
sba(iModules.cell
Cell
p3940
(dp3941
g7
I00
sg258
I01
sg10
(I01
I01
tp3942
sba(iModules.cell
Cell
p3943
(dp3944
g7
I00
sg258
I01
sg10
(I01
I01
tp3945
sba(iModules.cell
Cell
p3946
(dp3947
g7
I00
sg258
I01
sg10
(I01
I01
tp3948
sba(iModules.cell
Cell
p3949
(dp3950
g7
I00
sg258
I01
sg10
(I01
I01
tp3951
sba(iModules.cell
Cell
p3952
(dp3953
g7
I00
sg258
I01
sg10
(I01
I01
tp3954
sba(iModules.cell
Cell
p3955
(dp3956
g7
I00
sg258
I01
sg10
(I01
I01
tp3957
sba(iModules.cell
Cell
p3958
(dp3959
g7
I00
sg258
I01
sg10
(I01
I01
tp3960
sba(iModules.cell
Cell
p3961
(dp3962
g7
I00
sg258
I01
sg10
(I01
I01
tp3963
sba(iModules.cell
Cell
p3964
(dp3965
g7
I00
sg258
I01
sg10
(I01
I01
tp3966
sba(iModules.cell
Cell
p3967
(dp3968
g7
I00
sg258
I01
sg10
(I01
I01
tp3969
sba(iModules.cell
Cell
p3970
(dp3971
g7
I00
sg258
I01
sg10
(I01
I01
tp3972
sba(iModules.cell
Cell
p3973
(dp3974
g7
I00
sg258
I01
sg10
(I01
I01
tp3975
sba(iModules.cell
Cell
p3976
(dp3977
g7
I00
sg258
I01
sg10
(I01
I01
tp3978
sba(iModules.cell
Cell
p3979
(dp3980
g7
I00
sg258
I01
sg10
(I01
I01
tp3981
sba(iModules.cell
Cell
p3982
(dp3983
g7
I00
sg258
I01
sg10
(I01
I01
tp3984
sba(iModules.cell
Cell
p3985
(dp3986
g7
I00
sg258
I01
sg10
(I01
I01
tp3987
sba(iModules.cell
Cell
p3988
(dp3989
g7
I00
sg258
I01
sg10
(I01
I01
tp3990
sba(iModules.cell
Cell
p3991
(dp3992
g7
I00
sg10
(I01
I01
tp3993
sba(iModules.cell
Cell
p3994
(dp3995
g7
I00
sg10
(I01
I01
tp3996
sba(iModules.cell
Cell
p3997
(dp3998
g7
I00
sg10
(I01
I01
tp3999
sba(iModules.cell
Cell
p4000
(dp4001
g7
I00
sg10
(I01
I01
tp4002
sba(iModules.cell
Cell
p4003
(dp4004
g7
I00
sg10
(I01
I01
tp4005
sba(iModules.cell
Cell
p4006
(dp4007
g7
I00
sg10
(I01
I01
tp4008
sba(iModules.cell
Cell
p4009
(dp4010
g7
I00
sg10
(I01
I01
tp4011
sba(iModules.cell
Cell
p4012
(dp4013
g7
I00
sg10
(I01
I01
tp4014
sba(iModules.cell
Cell
p4015
(dp4016
g7
I00
sg10
(I01
I01
tp4017
sba(iModules.cell
Cell
p4018
(dp4019
g7
I00
sg10
(I01
I01
tp4020
sba(iModules.cell
Cell
p4021
(dp4022
g7
I00
sg10
(I01
I01
tp4023
sba(iModules.cell
Cell
p4024
(dp4025
g7
I00
sg10
(I01
I01
tp4026
sba(iModules.cell
Cell
p4027
(dp4028
g7
I00
sg10
(I01
I01
tp4029
sba(iModules.cell
Cell
p4030
(dp4031
g7
I00
sg10
(I01
I01
tp4032
sba(iModules.cell
Cell
p4033
(dp4034
g7
I00
sg10
(I01
I01
tp4035
sba(iModules.cell
Cell
p4036
(dp4037
g7
I00
sg10
(I01
I01
tp4038
sba(iModules.cell
Cell
p4039
(dp4040
g7
I00
sg10
(I01
I01
tp4041
sba(iModules.cell
Cell
p4042
(dp4043
g7
I00
sg10
(I01
I01
tp4044
sba(iModules.cell
Cell
p4045
(dp4046
g7
I00
sg10
(I01
I01
tp4047
sba(iModules.cell
Cell
p4048
(dp4049
g7
I00
sg10
(I01
I01
tp4050
sba(iModules.cell
Cell
p4051
(dp4052
g7
I00
sg10
(I01
I01
tp4053
sba(iModules.cell
Cell
p4054
(dp4055
g7
I00
sg10
(I01
I01
tp4056
sba(iModules.cell
Cell
p4057
(dp4058
g7
I00
sg10
(I01
I01
tp4059
sba(iModules.cell
Cell
p4060
(dp4061
g7
I00
sg10
(I01
I01
tp4062
sba(iModules.cell
Cell
p4063
(dp4064
g7
I00
sg10
(I01
I01
tp4065
sba(iModules.cell
Cell
p4066
(dp4067
g7
I00
sg10
(I01
I01
tp4068
sba(iModules.cell
Cell
p4069
(dp4070
g7
I00
sg10
(I01
I01
tp4071
sba(iModules.cell
Cell
p4072
(dp4073
g7
I00
sg10
(I01
I01
tp4074
sba(iModules.cell
Cell
p4075
(dp4076
g7
I00
sg10
(I01
I01
tp4077
sba(iModules.cell
Cell
p4078
(dp4079
g7
I00
sg10
(I01
I01
tp4080
sba(iModules.cell
Cell
p4081
(dp4082
g7
I00
sg10
(I01
I01
tp4083
sba(iModules.cell
Cell
p4084
(dp4085
g7
I00
sg10
(I01
I01
tp4086
sba(iModules.cell
Cell
p4087
(dp4088
g7
I00
sg10
(I01
I01
tp4089
sba(iModules.cell
Cell
p4090
(dp4091
g7
I00
sg10
(I01
I01
tp4092
sba(iModules.cell
Cell
p4093
(dp4094
g7
I00
sg10
(I01
I01
tp4095
sba(iModules.cell
Cell
p4096
(dp4097
g7
I00
sg10
(I01
I01
tp4098
sba(iModules.cell
Cell
p4099
(dp4100
g7
I00
sg10
(I01
I01
tp4101
sba(iModules.cell
Cell
p4102
(dp4103
g7
I00
sg10
(I00
I00
tp4104
sba(iModules.cell
Cell
p4105
(dp4106
g7
I00
sg10
(I00
I00
tp4107
sba(iModules.cell
Cell
p4108
(dp4109
g7
I00
sg10
(I00
I00
tp4110
sba(iModules.cell
Cell
p4111
(dp4112
g7
I00
sg10
(I00
I00
tp4113
sba(iModules.cell
Cell
p4114
(dp4115
g7
I00
sg10
(I00
I00
tp4116
sba(iModules.cell
Cell
p4117
(dp4118
g7
I00
sg10
(I00
I00
tp4119
sba(iModules.cell
Cell
p4120
(dp4121
g7
I00
sg10
(I00
I00
tp4122
sba(iModules.cell
Cell
p4123
(dp4124
g7
I00
sg10
(I00
I00
tp4125
sba(iModules.cell
Cell
p4126
(dp4127
g7
I00
sg10
(I00
I00
tp4128
sba(iModules.cell
Cell
p4129
(dp4130
g7
I00
sg10
(I00
I00
tp4131
sba(iModules.cell
Cell
p4132
(dp4133
g7
I00
sg10
(I00
I00
tp4134
sba(iModules.cell
Cell
p4135
(dp4136
g7
I00
sg10
(I00
I00
tp4137
sba(iModules.cell
Cell
p4138
(dp4139
g7
I00
sg10
(I00
I00
tp4140
sba(iModules.cell
Cell
p4141
(dp4142
g7
I00
sg10
(I00
I00
tp4143
sba(iModules.cell
Cell
p4144
(dp4145
g7
I00
sg10
(I00
I00
tp4146
sba(iModules.cell
Cell
p4147
(dp4148
g7
I00
sg10
(I00
I00
tp4149
sba(iModules.cell
Cell
p4150
(dp4151
g7
I00
sg10
(I00
I00
tp4152
sba(iModules.cell
Cell
p4153
(dp4154
g7
I00
sg10
(I00
I00
tp4155
sba(iModules.cell
Cell
p4156
(dp4157
g7
I00
sg10
(I00
I00
tp4158
sba(iModules.cell
Cell
p4159
(dp4160
g10
(I00
I00
tp4161
sbaa(lp4162
(iModules.cell
Cell
p4163
(dp4164
g7
I00
sg10
(I00
I00
tp4165
sba(iModules.cell
Cell
p4166
(dp4167
g7
I00
sg258
I01
sg10
(I00
I00
tp4168
sba(iModules.cell
Cell
p4169
(dp4170
g7
I00
sg258
I01
sg10
(I01
I01
tp4171
sba(iModules.cell
Cell
p4172
(dp4173
g7
I00
sg258
I01
sg10
(I01
I01
tp4174
sba(iModules.cell
Cell
p4175
(dp4176
g7
I00
sg258
I01
sg10
(I01
I01
tp4177
sba(iModules.cell
Cell
p4178
(dp4179
g7
I00
sg258
I01
sg10
(I01
I01
tp4180
sba(iModules.cell
Cell
p4181
(dp4182
g7
I00
sg258
I01
sg10
(I01
I01
tp4183
sba(iModules.cell
Cell
p4184
(dp4185
g7
I00
sg258
I01
sg10
(I01
I01
tp4186
sba(iModules.cell
Cell
p4187
(dp4188
g7
I00
sg258
I01
sg10
(I01
I01
tp4189
sba(iModules.cell
Cell
p4190
(dp4191
g7
I00
sg258
I01
sg10
(I01
I01
tp4192
sba(iModules.cell
Cell
p4193
(dp4194
g7
I00
sg258
I01
sg10
(I01
I01
tp4195
sba(iModules.cell
Cell
p4196
(dp4197
g7
I00
sg258
I01
sg10
(I01
I01
tp4198
sba(iModules.cell
Cell
p4199
(dp4200
g7
I00
sg258
I01
sg10
(I01
I01
tp4201
sba(iModules.cell
Cell
p4202
(dp4203
g7
I00
sg258
I01
sg10
(I01
I01
tp4204
sba(iModules.cell
Cell
p4205
(dp4206
g7
I00
sg258
I01
sg10
(I01
I01
tp4207
sba(iModules.cell
Cell
p4208
(dp4209
g7
I00
sg258
I01
sg10
(I01
I01
tp4210
sba(iModules.cell
Cell
p4211
(dp4212
g7
I00
sg258
I01
sg10
(I01
I01
tp4213
sba(iModules.cell
Cell
p4214
(dp4215
g7
I00
sg258
I01
sg10
(I01
I01
tp4216
sba(iModules.cell
Cell
p4217
(dp4218
g7
I00
sg258
I01
sg10
(I01
I01
tp4219
sba(iModules.cell
Cell
p4220
(dp4221
g7
I00
sg258
I01
sg10
(I01
I01
tp4222
sba(iModules.cell
Cell
p4223
(dp4224
g7
I00
sg258
I01
sg10
(I01
I01
tp4225
sba(iModules.cell
Cell
p4226
(dp4227
g7
I00
sg258
I01
sg10
(I01
I01
tp4228
sba(iModules.cell
Cell
p4229
(dp4230
g7
I00
sg258
I01
sg10
(I01
I01
tp4231
sba(iModules.cell
Cell
p4232
(dp4233
g7
I00
sg10
(I01
I01
tp4234
sba(iModules.cell
Cell
p4235
(dp4236
g7
I00
sg10
(I01
I01
tp4237
sba(iModules.cell
Cell
p4238
(dp4239
g7
I00
sg10
(I01
I01
tp4240
sba(iModules.cell
Cell
p4241
(dp4242
g7
I00
sg10
(I01
I01
tp4243
sba(iModules.cell
Cell
p4244
(dp4245
g7
I00
sg10
(I01
I01
tp4246
sba(iModules.cell
Cell
p4247
(dp4248
g7
I00
sg10
(I01
I01
tp4249
sba(iModules.cell
Cell
p4250
(dp4251
g7
I00
sg10
(I01
I01
tp4252
sba(iModules.cell
Cell
p4253
(dp4254
g7
I00
sg10
(I01
I01
tp4255
sba(iModules.cell
Cell
p4256
(dp4257
g7
I00
sg10
(I01
I01
tp4258
sba(iModules.cell
Cell
p4259
(dp4260
g7
I00
sg10
(I01
I01
tp4261
sba(iModules.cell
Cell
p4262
(dp4263
g7
I00
sg10
(I01
I01
tp4264
sba(iModules.cell
Cell
p4265
(dp4266
g7
I00
sg10
(I01
I01
tp4267
sba(iModules.cell
Cell
p4268
(dp4269
g7
I00
sg10
(I01
I01
tp4270
sba(iModules.cell
Cell
p4271
(dp4272
g7
I00
sg10
(I01
I01
tp4273
sba(iModules.cell
Cell
p4274
(dp4275
g7
I00
sg10
(I01
I01
tp4276
sba(iModules.cell
Cell
p4277
(dp4278
g7
I00
sg10
(I01
I01
tp4279
sba(iModules.cell
Cell
p4280
(dp4281
g7
I00
sg10
(I01
I01
tp4282
sba(iModules.cell
Cell
p4283
(dp4284
g7
I00
sg10
(I01
I01
tp4285
sba(iModules.cell
Cell
p4286
(dp4287
g7
I00
sg10
(I01
I01
tp4288
sba(iModules.cell
Cell
p4289
(dp4290
g7
I00
sg10
(I01
I01
tp4291
sba(iModules.cell
Cell
p4292
(dp4293
g7
I00
sg10
(I01
I01
tp4294
sba(iModules.cell
Cell
p4295
(dp4296
g7
I00
sg10
(I01
I01
tp4297
sba(iModules.cell
Cell
p4298
(dp4299
g7
I00
sg10
(I01
I01
tp4300
sba(iModules.cell
Cell
p4301
(dp4302
g7
I00
sg10
(I01
I01
tp4303
sba(iModules.cell
Cell
p4304
(dp4305
g7
I00
sg10
(I01
I01
tp4306
sba(iModules.cell
Cell
p4307
(dp4308
g7
I00
sg10
(I01
I01
tp4309
sba(iModules.cell
Cell
p4310
(dp4311
g7
I00
sg10
(I01
I01
tp4312
sba(iModules.cell
Cell
p4313
(dp4314
g7
I00
sg10
(I01
I01
tp4315
sba(iModules.cell
Cell
p4316
(dp4317
g7
I00
sg10
(I01
I01
tp4318
sba(iModules.cell
Cell
p4319
(dp4320
g7
I00
sg10
(I01
I01
tp4321
sba(iModules.cell
Cell
p4322
(dp4323
g7
I00
sg10
(I01
I01
tp4324
sba(iModules.cell
Cell
p4325
(dp4326
g7
I00
sg10
(I01
I01
tp4327
sba(iModules.cell
Cell
p4328
(dp4329
g7
I00
sg10
(I01
I01
tp4330
sba(iModules.cell
Cell
p4331
(dp4332
g7
I00
sg10
(I01
I01
tp4333
sba(iModules.cell
Cell
p4334
(dp4335
g7
I00
sg10
(I01
I01
tp4336
sba(iModules.cell
Cell
p4337
(dp4338
g7
I00
sg10
(I01
I01
tp4339
sba(iModules.cell
Cell
p4340
(dp4341
g7
I00
sg10
(I01
I01
tp4342
sba(iModules.cell
Cell
p4343
(dp4344
g7
I00
sg10
(I01
I01
tp4345
sba(iModules.cell
Cell
p4346
(dp4347
g7
I00
sg10
(I00
I00
tp4348
sba(iModules.cell
Cell
p4349
(dp4350
g7
I00
sg10
(I00
I00
tp4351
sba(iModules.cell
Cell
p4352
(dp4353
g7
I00
sg10
(I00
I00
tp4354
sba(iModules.cell
Cell
p4355
(dp4356
g7
I00
sg10
(I00
I00
tp4357
sba(iModules.cell
Cell
p4358
(dp4359
g7
I00
sg10
(I00
I00
tp4360
sba(iModules.cell
Cell
p4361
(dp4362
g7
I00
sg10
(I00
I00
tp4363
sba(iModules.cell
Cell
p4364
(dp4365
g7
I00
sg10
(I00
I00
tp4366
sba(iModules.cell
Cell
p4367
(dp4368
g7
I00
sg10
(I00
I00
tp4369
sba(iModules.cell
Cell
p4370
(dp4371
g7
I00
sg10
(I00
I00
tp4372
sba(iModules.cell
Cell
p4373
(dp4374
g7
I00
sg10
(I00
I00
tp4375
sba(iModules.cell
Cell
p4376
(dp4377
g7
I00
sg10
(I00
I00
tp4378
sba(iModules.cell
Cell
p4379
(dp4380
g7
I00
sg10
(I00
I00
tp4381
sba(iModules.cell
Cell
p4382
(dp4383
g7
I00
sg10
(I00
I00
tp4384
sba(iModules.cell
Cell
p4385
(dp4386
g7
I00
sg10
(I00
I00
tp4387
sba(iModules.cell
Cell
p4388
(dp4389
g7
I00
sg10
(I00
I00
tp4390
sba(iModules.cell
Cell
p4391
(dp4392
g7
I00
sg10
(I00
I00
tp4393
sba(iModules.cell
Cell
p4394
(dp4395
g7
I00
sg10
(I00
I00
tp4396
sba(iModules.cell
Cell
p4397
(dp4398
g7
I00
sg10
(I00
I00
tp4399
sba(iModules.cell
Cell
p4400
(dp4401
g7
I00
sg10
(I00
I00
tp4402
sba(iModules.cell
Cell
p4403
(dp4404
g10
(I00
I00
tp4405
sbaa(lp4406
(iModules.cell
Cell
p4407
(dp4408
g7
I00
sg10
(I00
I00
tp4409
sba(iModules.cell
Cell
p4410
(dp4411
g7
I00
sg258
I01
sg10
(I00
I00
tp4412
sba(iModules.cell
Cell
p4413
(dp4414
g7
I00
sg258
I01
sg10
(I01
I01
tp4415
sba(iModules.cell
Cell
p4416
(dp4417
g7
I00
sg258
I01
sg10
(I01
I01
tp4418
sba(iModules.cell
Cell
p4419
(dp4420
g7
I00
sg258
I01
sg10
(I01
I01
tp4421
sba(iModules.cell
Cell
p4422
(dp4423
g7
I00
sg258
I01
sg10
(I01
I01
tp4424
sba(iModules.cell
Cell
p4425
(dp4426
g7
I00
sg258
I01
sg10
(I01
I01
tp4427
sba(iModules.cell
Cell
p4428
(dp4429
g7
I00
sg258
I01
sg10
(I01
I01
tp4430
sba(iModules.cell
Cell
p4431
(dp4432
g7
I00
sg258
I01
sg10
(I01
I01
tp4433
sba(iModules.cell
Cell
p4434
(dp4435
g7
I00
sg258
I01
sg10
(I01
I01
tp4436
sba(iModules.cell
Cell
p4437
(dp4438
g7
I00
sg258
I01
sg10
(I01
I01
tp4439
sba(iModules.cell
Cell
p4440
(dp4441
g7
I00
sg258
I01
sg10
(I01
I01
tp4442
sba(iModules.cell
Cell
p4443
(dp4444
g7
I00
sg258
I01
sg10
(I01
I01
tp4445
sba(iModules.cell
Cell
p4446
(dp4447
g7
I00
sg258
I01
sg10
(I01
I01
tp4448
sba(iModules.cell
Cell
p4449
(dp4450
g7
I00
sg258
I01
sg10
(I01
I01
tp4451
sba(iModules.cell
Cell
p4452
(dp4453
g7
I00
sg258
I01
sg10
(I01
I01
tp4454
sba(iModules.cell
Cell
p4455
(dp4456
g7
I00
sg258
I01
sg10
(I01
I01
tp4457
sba(iModules.cell
Cell
p4458
(dp4459
g7
I00
sg258
I01
sg10
(I01
I01
tp4460
sba(iModules.cell
Cell
p4461
(dp4462
g7
I00
sg258
I01
sg10
(I01
I01
tp4463
sba(iModules.cell
Cell
p4464
(dp4465
g7
I00
sg258
I01
sg10
(I01
I01
tp4466
sba(iModules.cell
Cell
p4467
(dp4468
g7
I00
sg258
I01
sg10
(I01
I01
tp4469
sba(iModules.cell
Cell
p4470
(dp4471
g7
I00
sg258
I01
sg10
(I01
I01
tp4472
sba(iModules.cell
Cell
p4473
(dp4474
g7
I00
sg10
(I01
I01
tp4475
sba(iModules.cell
Cell
p4476
(dp4477
g7
I00
sg10
(I01
I01
tp4478
sba(iModules.cell
Cell
p4479
(dp4480
g7
I00
sg10
(I01
I01
tp4481
sba(iModules.cell
Cell
p4482
(dp4483
g7
I00
sg10
(I01
I01
tp4484
sba(iModules.cell
Cell
p4485
(dp4486
g7
I00
sg10
(I01
I01
tp4487
sba(iModules.cell
Cell
p4488
(dp4489
g7
I00
sg10
(I01
I01
tp4490
sba(iModules.cell
Cell
p4491
(dp4492
g7
I00
sg10
(I01
I01
tp4493
sba(iModules.cell
Cell
p4494
(dp4495
g7
I00
sg10
(I01
I01
tp4496
sba(iModules.cell
Cell
p4497
(dp4498
g7
I00
sg10
(I01
I01
tp4499
sba(iModules.cell
Cell
p4500
(dp4501
g7
I00
sg10
(I01
I01
tp4502
sba(iModules.cell
Cell
p4503
(dp4504
g7
I00
sg10
(I01
I01
tp4505
sba(iModules.cell
Cell
p4506
(dp4507
g7
I00
sg10
(I01
I01
tp4508
sba(iModules.cell
Cell
p4509
(dp4510
g7
I00
sg10
(I01
I01
tp4511
sba(iModules.cell
Cell
p4512
(dp4513
g7
I00
sg10
(I01
I01
tp4514
sba(iModules.cell
Cell
p4515
(dp4516
g7
I00
sg10
(I01
I01
tp4517
sba(iModules.cell
Cell
p4518
(dp4519
g7
I00
sg10
(I01
I01
tp4520
sba(iModules.cell
Cell
p4521
(dp4522
g7
I00
sg10
(I01
I01
tp4523
sba(iModules.cell
Cell
p4524
(dp4525
g7
I00
sg10
(I01
I01
tp4526
sba(iModules.cell
Cell
p4527
(dp4528
g7
I00
sg10
(I01
I01
tp4529
sba(iModules.cell
Cell
p4530
(dp4531
g7
I00
sg10
(I01
I01
tp4532
sba(iModules.cell
Cell
p4533
(dp4534
g7
I00
sg10
(I01
I01
tp4535
sba(iModules.cell
Cell
p4536
(dp4537
g7
I00
sg10
(I01
I01
tp4538
sba(iModules.cell
Cell
p4539
(dp4540
g7
I00
sg10
(I01
I01
tp4541
sba(iModules.cell
Cell
p4542
(dp4543
g7
I00
sg10
(I01
I01
tp4544
sba(iModules.cell
Cell
p4545
(dp4546
g7
I00
sg10
(I01
I01
tp4547
sba(iModules.cell
Cell
p4548
(dp4549
g7
I00
sg10
(I01
I01
tp4550
sba(iModules.cell
Cell
p4551
(dp4552
g7
I00
sg10
(I01
I01
tp4553
sba(iModules.cell
Cell
p4554
(dp4555
g7
I00
sg10
(I01
I01
tp4556
sba(iModules.cell
Cell
p4557
(dp4558
g7
I00
sg10
(I01
I01
tp4559
sba(iModules.cell
Cell
p4560
(dp4561
g7
I00
sg10
(I01
I01
tp4562
sba(iModules.cell
Cell
p4563
(dp4564
g7
I00
sg10
(I01
I01
tp4565
sba(iModules.cell
Cell
p4566
(dp4567
g7
I00
sg10
(I01
I01
tp4568
sba(iModules.cell
Cell
p4569
(dp4570
g7
I00
sg10
(I01
I01
tp4571
sba(iModules.cell
Cell
p4572
(dp4573
g7
I00
sg10
(I01
I01
tp4574
sba(iModules.cell
Cell
p4575
(dp4576
g7
I00
sg10
(I01
I01
tp4577
sba(iModules.cell
Cell
p4578
(dp4579
g7
I00
sg10
(I01
I01
tp4580
sba(iModules.cell
Cell
p4581
(dp4582
g7
I00
sg10
(I01
I01
tp4583
sba(iModules.cell
Cell
p4584
(dp4585
g7
I00
sg10
(I01
I01
tp4586
sba(iModules.cell
Cell
p4587
(dp4588
g7
I00
sg10
(I01
I01
tp4589
sba(iModules.cell
Cell
p4590
(dp4591
g7
I00
sg10
(I00
I00
tp4592
sba(iModules.cell
Cell
p4593
(dp4594
g7
I00
sg10
(I00
I00
tp4595
sba(iModules.cell
Cell
p4596
(dp4597
g7
I00
sg10
(I00
I00
tp4598
sba(iModules.cell
Cell
p4599
(dp4600
g7
I00
sg10
(I00
I00
tp4601
sba(iModules.cell
Cell
p4602
(dp4603
g7
I00
sg10
(I00
I00
tp4604
sba(iModules.cell
Cell
p4605
(dp4606
g7
I00
sg10
(I00
I00
tp4607
sba(iModules.cell
Cell
p4608
(dp4609
g7
I00
sg10
(I00
I00
tp4610
sba(iModules.cell
Cell
p4611
(dp4612
g7
I00
sg10
(I00
I00
tp4613
sba(iModules.cell
Cell
p4614
(dp4615
g7
I00
sg10
(I00
I00
tp4616
sba(iModules.cell
Cell
p4617
(dp4618
g7
I00
sg10
(I00
I00
tp4619
sba(iModules.cell
Cell
p4620
(dp4621
g7
I00
sg10
(I00
I00
tp4622
sba(iModules.cell
Cell
p4623
(dp4624
g7
I00
sg10
(I00
I00
tp4625
sba(iModules.cell
Cell
p4626
(dp4627
g7
I00
sg10
(I00
I00
tp4628
sba(iModules.cell
Cell
p4629
(dp4630
g7
I00
sg10
(I00
I00
tp4631
sba(iModules.cell
Cell
p4632
(dp4633
g7
I00
sg10
(I00
I00
tp4634
sba(iModules.cell
Cell
p4635
(dp4636
g7
I00
sg10
(I00
I00
tp4637
sba(iModules.cell
Cell
p4638
(dp4639
g7
I00
sg10
(I00
I00
tp4640
sba(iModules.cell
Cell
p4641
(dp4642
g7
I00
sg10
(I00
I00
tp4643
sba(iModules.cell
Cell
p4644
(dp4645
g7
I00
sg10
(I00
I00
tp4646
sba(iModules.cell
Cell
p4647
(dp4648
g10
(I00
I00
tp4649
sbaa(lp4650
(iModules.cell
Cell
p4651
(dp4652
g7
I00
sg10
(I00
I00
tp4653
sba(iModules.cell
Cell
p4654
(dp4655
g7
I00
sg258
I01
sg10
(I00
I00
tp4656
sba(iModules.cell
Cell
p4657
(dp4658
g7
I00
sg258
I01
sg10
(I01
I01
tp4659
sba(iModules.cell
Cell
p4660
(dp4661
g7
I00
sg258
I01
sg10
(I01
I01
tp4662
sba(iModules.cell
Cell
p4663
(dp4664
g7
I00
sg258
I01
sg10
(I01
I01
tp4665
sba(iModules.cell
Cell
p4666
(dp4667
g7
I00
sg258
I01
sg10
(I01
I01
tp4668
sba(iModules.cell
Cell
p4669
(dp4670
g7
I00
sg258
I01
sg10
(I01
I01
tp4671
sba(iModules.cell
Cell
p4672
(dp4673
g7
I00
sg258
I01
sg10
(I01
I01
tp4674
sba(iModules.cell
Cell
p4675
(dp4676
g7
I00
sg258
I01
sg10
(I01
I01
tp4677
sba(iModules.cell
Cell
p4678
(dp4679
g7
I00
sg258
I01
sg10
(I01
I01
tp4680
sba(iModules.cell
Cell
p4681
(dp4682
g7
I00
sg258
I01
sg10
(I01
I01
tp4683
sba(iModules.cell
Cell
p4684
(dp4685
g7
I00
sg258
I01
sg10
(I01
I01
tp4686
sba(iModules.cell
Cell
p4687
(dp4688
g7
I00
sg258
I01
sg10
(I01
I01
tp4689
sba(iModules.cell
Cell
p4690
(dp4691
g7
I00
sg258
I01
sg10
(I01
I01
tp4692
sba(iModules.cell
Cell
p4693
(dp4694
g7
I00
sg258
I01
sg10
(I01
I01
tp4695
sba(iModules.cell
Cell
p4696
(dp4697
g7
I00
sg258
I01
sg10
(I01
I01
tp4698
sba(iModules.cell
Cell
p4699
(dp4700
g7
I00
sg258
I01
sg10
(I01
I01
tp4701
sba(iModules.cell
Cell
p4702
(dp4703
g7
I00
sg258
I01
sg10
(I01
I01
tp4704
sba(iModules.cell
Cell
p4705
(dp4706
g7
I00
sg258
I01
sg10
(I01
I01
tp4707
sba(iModules.cell
Cell
p4708
(dp4709
g7
I00
sg258
I01
sg10
(I01
I01
tp4710
sba(iModules.cell
Cell
p4711
(dp4712
g7
I00
sg258
I01
sg10
(I01
I01
tp4713
sba(iModules.cell
Cell
p4714
(dp4715
g7
I00
sg10
(I01
I01
tp4716
sba(iModules.cell
Cell
p4717
(dp4718
g7
I00
sg10
(I01
I01
tp4719
sba(iModules.cell
Cell
p4720
(dp4721
g7
I00
sg10
(I01
I01
tp4722
sba(iModules.cell
Cell
p4723
(dp4724
g7
I00
sg10
(I01
I01
tp4725
sba(iModules.cell
Cell
p4726
(dp4727
g7
I00
sg10
(I01
I01
tp4728
sba(iModules.cell
Cell
p4729
(dp4730
g7
I00
sg10
(I01
I01
tp4731
sba(iModules.cell
Cell
p4732
(dp4733
g7
I00
sg10
(I01
I01
tp4734
sba(iModules.cell
Cell
p4735
(dp4736
g7
I00
sg10
(I01
I01
tp4737
sba(iModules.cell
Cell
p4738
(dp4739
g7
I00
sg10
(I01
I01
tp4740
sba(iModules.cell
Cell
p4741
(dp4742
g7
I00
sg10
(I01
I01
tp4743
sba(iModules.cell
Cell
p4744
(dp4745
g7
I00
sg10
(I01
I01
tp4746
sba(iModules.cell
Cell
p4747
(dp4748
g7
I00
sg10
(I01
I01
tp4749
sba(iModules.cell
Cell
p4750
(dp4751
g7
I00
sg10
(I01
I01
tp4752
sba(iModules.cell
Cell
p4753
(dp4754
g7
I00
sg10
(I01
I01
tp4755
sba(iModules.cell
Cell
p4756
(dp4757
g7
I00
sg10
(I01
I01
tp4758
sba(iModules.cell
Cell
p4759
(dp4760
g7
I00
sg10
(I01
I01
tp4761
sba(iModules.cell
Cell
p4762
(dp4763
g7
I00
sg10
(I01
I01
tp4764
sba(iModules.cell
Cell
p4765
(dp4766
g7
I00
sg10
(I01
I01
tp4767
sba(iModules.cell
Cell
p4768
(dp4769
g7
I00
sg10
(I01
I01
tp4770
sba(iModules.cell
Cell
p4771
(dp4772
g7
I00
sg10
(I01
I01
tp4773
sba(iModules.cell
Cell
p4774
(dp4775
g7
I00
sg10
(I01
I01
tp4776
sba(iModules.cell
Cell
p4777
(dp4778
g7
I00
sg10
(I01
I01
tp4779
sba(iModules.cell
Cell
p4780
(dp4781
g7
I00
sg10
(I01
I01
tp4782
sba(iModules.cell
Cell
p4783
(dp4784
g7
I00
sg10
(I01
I01
tp4785
sba(iModules.cell
Cell
p4786
(dp4787
g7
I00
sg10
(I01
I01
tp4788
sba(iModules.cell
Cell
p4789
(dp4790
g7
I00
sg10
(I01
I01
tp4791
sba(iModules.cell
Cell
p4792
(dp4793
g7
I00
sg10
(I01
I01
tp4794
sba(iModules.cell
Cell
p4795
(dp4796
g7
I00
sg10
(I01
I01
tp4797
sba(iModules.cell
Cell
p4798
(dp4799
g7
I00
sg10
(I01
I01
tp4800
sba(iModules.cell
Cell
p4801
(dp4802
g7
I00
sg10
(I01
I01
tp4803
sba(iModules.cell
Cell
p4804
(dp4805
g7
I00
sg10
(I01
I01
tp4806
sba(iModules.cell
Cell
p4807
(dp4808
g7
I00
sg10
(I01
I01
tp4809
sba(iModules.cell
Cell
p4810
(dp4811
g7
I00
sg10
(I01
I01
tp4812
sba(iModules.cell
Cell
p4813
(dp4814
g7
I00
sg10
(I01
I01
tp4815
sba(iModules.cell
Cell
p4816
(dp4817
g7
I00
sg10
(I01
I01
tp4818
sba(iModules.cell
Cell
p4819
(dp4820
g7
I00
sg10
(I01
I01
tp4821
sba(iModules.cell
Cell
p4822
(dp4823
g7
I00
sg10
(I01
I01
tp4824
sba(iModules.cell
Cell
p4825
(dp4826
g7
I00
sg10
(I01
I01
tp4827
sba(iModules.cell
Cell
p4828
(dp4829
g7
I00
sg10
(I01
I01
tp4830
sba(iModules.cell
Cell
p4831
(dp4832
g7
I00
sg10
(I01
I01
tp4833
sba(iModules.cell
Cell
p4834
(dp4835
g7
I00
sg10
(I00
I00
tp4836
sba(iModules.cell
Cell
p4837
(dp4838
g7
I00
sg10
(I00
I00
tp4839
sba(iModules.cell
Cell
p4840
(dp4841
g7
I00
sg10
(I00
I00
tp4842
sba(iModules.cell
Cell
p4843
(dp4844
g7
I00
sg10
(I00
I00
tp4845
sba(iModules.cell
Cell
p4846
(dp4847
g7
I00
sg10
(I00
I00
tp4848
sba(iModules.cell
Cell
p4849
(dp4850
g7
I00
sg10
(I00
I00
tp4851
sba(iModules.cell
Cell
p4852
(dp4853
g7
I00
sg10
(I00
I00
tp4854
sba(iModules.cell
Cell
p4855
(dp4856
g7
I00
sg10
(I00
I00
tp4857
sba(iModules.cell
Cell
p4858
(dp4859
g7
I00
sg10
(I00
I00
tp4860
sba(iModules.cell
Cell
p4861
(dp4862
g7
I00
sg10
(I00
I00
tp4863
sba(iModules.cell
Cell
p4864
(dp4865
g7
I00
sg10
(I00
I00
tp4866
sba(iModules.cell
Cell
p4867
(dp4868
g7
I00
sg10
(I00
I00
tp4869
sba(iModules.cell
Cell
p4870
(dp4871
g7
I00
sg10
(I00
I00
tp4872
sba(iModules.cell
Cell
p4873
(dp4874
g7
I00
sg10
(I00
I00
tp4875
sba(iModules.cell
Cell
p4876
(dp4877
g7
I00
sg10
(I00
I00
tp4878
sba(iModules.cell
Cell
p4879
(dp4880
g7
I00
sg10
(I00
I00
tp4881
sba(iModules.cell
Cell
p4882
(dp4883
g7
I00
sg10
(I00
I00
tp4884
sba(iModules.cell
Cell
p4885
(dp4886
g7
I00
sg10
(I00
I00
tp4887
sba(iModules.cell
Cell
p4888
(dp4889
g7
I00
sg10
(I00
I00
tp4890
sba(iModules.cell
Cell
p4891
(dp4892
g10
(I00
I00
tp4893
sbaa(lp4894
(iModules.cell
Cell
p4895
(dp4896
g7
I00
sg10
(I00
I00
tp4897
sba(iModules.cell
Cell
p4898
(dp4899
g7
I00
sg258
I01
sg10
(I00
I00
tp4900
sba(iModules.cell
Cell
p4901
(dp4902
g7
I00
sg258
I01
sg10
(I01
I01
tp4903
sba(iModules.cell
Cell
p4904
(dp4905
g7
I00
sg258
I01
sg10
(I01
I01
tp4906
sba(iModules.cell
Cell
p4907
(dp4908
g7
I00
sg258
I01
sg10
(I01
I01
tp4909
sba(iModules.cell
Cell
p4910
(dp4911
g7
I00
sg258
I01
sg10
(I01
I01
tp4912
sba(iModules.cell
Cell
p4913
(dp4914
g7
I00
sg258
I01
sg10
(I01
I01
tp4915
sba(iModules.cell
Cell
p4916
(dp4917
g7
I00
sg258
I01
sg10
(I01
I01
tp4918
sba(iModules.cell
Cell
p4919
(dp4920
g7
I00
sg258
I01
sg10
(I01
I01
tp4921
sba(iModules.cell
Cell
p4922
(dp4923
g7
I00
sg258
I01
sg10
(I01
I01
tp4924
sba(iModules.cell
Cell
p4925
(dp4926
g7
I00
sg258
I01
sg10
(I01
I01
tp4927
sba(iModules.cell
Cell
p4928
(dp4929
g7
I00
sg258
I01
sg10
(I01
I01
tp4930
sba(iModules.cell
Cell
p4931
(dp4932
g7
I00
sg258
I01
sg10
(I01
I01
tp4933
sba(iModules.cell
Cell
p4934
(dp4935
g7
I00
sg258
I01
sg10
(I01
I01
tp4936
sba(iModules.cell
Cell
p4937
(dp4938
g7
I00
sg258
I01
sg10
(I01
I01
tp4939
sba(iModules.cell
Cell
p4940
(dp4941
g7
I00
sg258
I01
sg10
(I01
I01
tp4942
sba(iModules.cell
Cell
p4943
(dp4944
g7
I00
sg258
I01
sg10
(I01
I01
tp4945
sba(iModules.cell
Cell
p4946
(dp4947
g7
I00
sg258
I01
sg10
(I01
I01
tp4948
sba(iModules.cell
Cell
p4949
(dp4950
g7
I00
sg258
I01
sg10
(I01
I01
tp4951
sba(iModules.cell
Cell
p4952
(dp4953
g7
I00
sg258
I01
sg10
(I01
I01
tp4954
sba(iModules.cell
Cell
p4955
(dp4956
g7
I00
sg10
(I01
I01
tp4957
sba(iModules.cell
Cell
p4958
(dp4959
g7
I00
sg10
(I01
I01
tp4960
sba(iModules.cell
Cell
p4961
(dp4962
g7
I00
sg10
(I01
I01
tp4963
sba(iModules.cell
Cell
p4964
(dp4965
g7
I00
sg10
(I01
I01
tp4966
sba(iModules.cell
Cell
p4967
(dp4968
g7
I00
sg10
(I01
I01
tp4969
sba(iModules.cell
Cell
p4970
(dp4971
g7
I00
sg10
(I01
I01
tp4972
sba(iModules.cell
Cell
p4973
(dp4974
g7
I00
sg10
(I01
I01
tp4975
sba(iModules.cell
Cell
p4976
(dp4977
g7
I00
sg10
(I01
I01
tp4978
sba(iModules.cell
Cell
p4979
(dp4980
g7
I00
sg10
(I01
I01
tp4981
sba(iModules.cell
Cell
p4982
(dp4983
g7
I00
sg10
(I01
I01
tp4984
sba(iModules.cell
Cell
p4985
(dp4986
g7
I00
sg10
(I01
I01
tp4987
sba(iModules.cell
Cell
p4988
(dp4989
g7
I00
sg10
(I01
I01
tp4990
sba(iModules.cell
Cell
p4991
(dp4992
g7
I00
sg10
(I01
I01
tp4993
sba(iModules.cell
Cell
p4994
(dp4995
g7
I00
sg10
(I01
I01
tp4996
sba(iModules.cell
Cell
p4997
(dp4998
g7
I00
sg10
(I01
I01
tp4999
sba(iModules.cell
Cell
p5000
(dp5001
g7
I00
sg10
(I01
I01
tp5002
sba(iModules.cell
Cell
p5003
(dp5004
g7
I00
sg10
(I01
I01
tp5005
sba(iModules.cell
Cell
p5006
(dp5007
g7
I00
sg10
(I01
I01
tp5008
sba(iModules.cell
Cell
p5009
(dp5010
g7
I00
sg10
(I01
I01
tp5011
sba(iModules.cell
Cell
p5012
(dp5013
g7
I00
sg10
(I01
I01
tp5014
sba(iModules.cell
Cell
p5015
(dp5016
g7
I00
sg10
(I01
I01
tp5017
sba(iModules.cell
Cell
p5018
(dp5019
g7
I00
sg10
(I01
I01
tp5020
sba(iModules.cell
Cell
p5021
(dp5022
g7
I00
sg10
(I01
I01
tp5023
sba(iModules.cell
Cell
p5024
(dp5025
g7
I00
sg10
(I01
I01
tp5026
sba(iModules.cell
Cell
p5027
(dp5028
g7
I00
sg10
(I01
I01
tp5029
sba(iModules.cell
Cell
p5030
(dp5031
g7
I00
sg10
(I01
I01
tp5032
sba(iModules.cell
Cell
p5033
(dp5034
g7
I00
sg10
(I01
I01
tp5035
sba(iModules.cell
Cell
p5036
(dp5037
g7
I00
sg10
(I01
I01
tp5038
sba(iModules.cell
Cell
p5039
(dp5040
g7
I00
sg10
(I01
I01
tp5041
sba(iModules.cell
Cell
p5042
(dp5043
g7
I00
sg10
(I01
I01
tp5044
sba(iModules.cell
Cell
p5045
(dp5046
g7
I00
sg10
(I01
I01
tp5047
sba(iModules.cell
Cell
p5048
(dp5049
g7
I00
sg10
(I01
I01
tp5050
sba(iModules.cell
Cell
p5051
(dp5052
g7
I00
sg10
(I01
I01
tp5053
sba(iModules.cell
Cell
p5054
(dp5055
g7
I00
sg10
(I01
I01
tp5056
sba(iModules.cell
Cell
p5057
(dp5058
g7
I00
sg10
(I01
I01
tp5059
sba(iModules.cell
Cell
p5060
(dp5061
g7
I00
sg10
(I01
I01
tp5062
sba(iModules.cell
Cell
p5063
(dp5064
g7
I00
sg10
(I01
I01
tp5065
sba(iModules.cell
Cell
p5066
(dp5067
g7
I00
sg10
(I01
I01
tp5068
sba(iModules.cell
Cell
p5069
(dp5070
g7
I00
sg10
(I01
I01
tp5071
sba(iModules.cell
Cell
p5072
(dp5073
g7
I00
sg10
(I01
I01
tp5074
sba(iModules.cell
Cell
p5075
(dp5076
g7
I00
sg10
(I01
I01
tp5077
sba(iModules.cell
Cell
p5078
(dp5079
g7
I00
sg10
(I00
I00
tp5080
sba(iModules.cell
Cell
p5081
(dp5082
g7
I00
sg10
(I00
I00
tp5083
sba(iModules.cell
Cell
p5084
(dp5085
g7
I00
sg10
(I00
I00
tp5086
sba(iModules.cell
Cell
p5087
(dp5088
g7
I00
sg10
(I00
I00
tp5089
sba(iModules.cell
Cell
p5090
(dp5091
g7
I00
sg10
(I00
I00
tp5092
sba(iModules.cell
Cell
p5093
(dp5094
g7
I00
sg10
(I00
I00
tp5095
sba(iModules.cell
Cell
p5096
(dp5097
g7
I00
sg10
(I00
I00
tp5098
sba(iModules.cell
Cell
p5099
(dp5100
g7
I00
sg10
(I00
I00
tp5101
sba(iModules.cell
Cell
p5102
(dp5103
g7
I00
sg10
(I00
I00
tp5104
sba(iModules.cell
Cell
p5105
(dp5106
g7
I00
sg10
(I00
I00
tp5107
sba(iModules.cell
Cell
p5108
(dp5109
g7
I00
sg10
(I00
I00
tp5110
sba(iModules.cell
Cell
p5111
(dp5112
g7
I00
sg10
(I00
I00
tp5113
sba(iModules.cell
Cell
p5114
(dp5115
g7
I00
sg10
(I00
I00
tp5116
sba(iModules.cell
Cell
p5117
(dp5118
g7
I00
sg10
(I00
I00
tp5119
sba(iModules.cell
Cell
p5120
(dp5121
g7
I00
sg10
(I00
I00
tp5122
sba(iModules.cell
Cell
p5123
(dp5124
g7
I00
sg10
(I00
I00
tp5125
sba(iModules.cell
Cell
p5126
(dp5127
g7
I00
sg10
(I00
I00
tp5128
sba(iModules.cell
Cell
p5129
(dp5130
g7
I00
sg10
(I00
I00
tp5131
sba(iModules.cell
Cell
p5132
(dp5133
g7
I00
sg10
(I00
I00
tp5134
sba(iModules.cell
Cell
p5135
(dp5136
g10
(I00
I00
tp5137
sbaa(lp5138
(iModules.cell
Cell
p5139
(dp5140
g7
I00
sg10
(I00
I00
tp5141
sba(iModules.cell
Cell
p5142
(dp5143
g7
I00
sg258
I01
sg10
(I00
I00
tp5144
sba(iModules.cell
Cell
p5145
(dp5146
g7
I00
sg258
I01
sg10
(I01
I01
tp5147
sba(iModules.cell
Cell
p5148
(dp5149
g7
I00
sg258
I01
sg10
(I01
I01
tp5150
sba(iModules.cell
Cell
p5151
(dp5152
g7
I00
sg258
I01
sg10
(I01
I01
tp5153
sba(iModules.cell
Cell
p5154
(dp5155
g7
I00
sg258
I01
sg10
(I01
I01
tp5156
sba(iModules.cell
Cell
p5157
(dp5158
g7
I00
sg258
I01
sg10
(I01
I01
tp5159
sba(iModules.cell
Cell
p5160
(dp5161
g7
I00
sg258
I01
sg10
(I01
I01
tp5162
sba(iModules.cell
Cell
p5163
(dp5164
g7
I00
sg258
I01
sg10
(I01
I01
tp5165
sba(iModules.cell
Cell
p5166
(dp5167
g7
I00
sg258
I01
sg10
(I01
I01
tp5168
sba(iModules.cell
Cell
p5169
(dp5170
g7
I00
sg258
I01
sg10
(I01
I01
tp5171
sba(iModules.cell
Cell
p5172
(dp5173
g7
I00
sg258
I01
sg10
(I01
I01
tp5174
sba(iModules.cell
Cell
p5175
(dp5176
g7
I00
sg258
I01
sg10
(I01
I01
tp5177
sba(iModules.cell
Cell
p5178
(dp5179
g7
I00
sg258
I01
sg10
(I01
I01
tp5180
sba(iModules.cell
Cell
p5181
(dp5182
g7
I00
sg258
I01
sg10
(I01
I01
tp5183
sba(iModules.cell
Cell
p5184
(dp5185
g7
I00
sg258
I01
sg10
(I01
I01
tp5186
sba(iModules.cell
Cell
p5187
(dp5188
g7
I00
sg258
I01
sg10
(I01
I01
tp5189
sba(iModules.cell
Cell
p5190
(dp5191
g7
I00
sg258
I01
sg10
(I01
I01
tp5192
sba(iModules.cell
Cell
p5193
(dp5194
g7
I00
sg258
I01
sg10
(I01
I01
tp5195
sba(iModules.cell
Cell
p5196
(dp5197
g7
I00
sg10
(I01
I01
tp5198
sba(iModules.cell
Cell
p5199
(dp5200
g7
I00
sg10
(I01
I01
tp5201
sba(iModules.cell
Cell
p5202
(dp5203
g7
I00
sg10
(I01
I01
tp5204
sba(iModules.cell
Cell
p5205
(dp5206
g7
I00
sg10
(I01
I01
tp5207
sba(iModules.cell
Cell
p5208
(dp5209
g7
I00
sg10
(I01
I01
tp5210
sba(iModules.cell
Cell
p5211
(dp5212
g7
I00
sg10
(I01
I01
tp5213
sba(iModules.cell
Cell
p5214
(dp5215
g7
I00
sg10
(I01
I01
tp5216
sba(iModules.cell
Cell
p5217
(dp5218
g7
I00
sg10
(I01
I01
tp5219
sba(iModules.cell
Cell
p5220
(dp5221
g7
I00
sg10
(I01
I01
tp5222
sba(iModules.cell
Cell
p5223
(dp5224
g7
I00
sg10
(I01
I01
tp5225
sba(iModules.cell
Cell
p5226
(dp5227
g7
I00
sg10
(I01
I01
tp5228
sba(iModules.cell
Cell
p5229
(dp5230
g7
I00
sg10
(I01
I01
tp5231
sba(iModules.cell
Cell
p5232
(dp5233
g7
I00
sg10
(I01
I01
tp5234
sba(iModules.cell
Cell
p5235
(dp5236
g7
I00
sg10
(I01
I01
tp5237
sba(iModules.cell
Cell
p5238
(dp5239
g7
I00
sg10
(I01
I01
tp5240
sba(iModules.cell
Cell
p5241
(dp5242
g7
I00
sg10
(I01
I01
tp5243
sba(iModules.cell
Cell
p5244
(dp5245
g7
I00
sg10
(I01
I01
tp5246
sba(iModules.cell
Cell
p5247
(dp5248
g7
I00
sg10
(I01
I01
tp5249
sba(iModules.cell
Cell
p5250
(dp5251
g7
I00
sg10
(I01
I01
tp5252
sba(iModules.cell
Cell
p5253
(dp5254
g7
I00
sg10
(I01
I01
tp5255
sba(iModules.cell
Cell
p5256
(dp5257
g7
I00
sg10
(I01
I01
tp5258
sba(iModules.cell
Cell
p5259
(dp5260
g7
I00
sg10
(I01
I01
tp5261
sba(iModules.cell
Cell
p5262
(dp5263
g7
I00
sg10
(I01
I01
tp5264
sba(iModules.cell
Cell
p5265
(dp5266
g7
I00
sg10
(I01
I01
tp5267
sba(iModules.cell
Cell
p5268
(dp5269
g7
I00
sg10
(I01
I01
tp5270
sba(iModules.cell
Cell
p5271
(dp5272
g7
I00
sg10
(I01
I01
tp5273
sba(iModules.cell
Cell
p5274
(dp5275
g7
I00
sg10
(I01
I01
tp5276
sba(iModules.cell
Cell
p5277
(dp5278
g7
I00
sg10
(I01
I01
tp5279
sba(iModules.cell
Cell
p5280
(dp5281
g7
I00
sg10
(I01
I01
tp5282
sba(iModules.cell
Cell
p5283
(dp5284
g7
I00
sg10
(I01
I01
tp5285
sba(iModules.cell
Cell
p5286
(dp5287
g7
I00
sg10
(I01
I01
tp5288
sba(iModules.cell
Cell
p5289
(dp5290
g7
I00
sg10
(I01
I01
tp5291
sba(iModules.cell
Cell
p5292
(dp5293
g7
I00
sg10
(I01
I01
tp5294
sba(iModules.cell
Cell
p5295
(dp5296
g7
I00
sg10
(I01
I01
tp5297
sba(iModules.cell
Cell
p5298
(dp5299
g7
I00
sg10
(I01
I01
tp5300
sba(iModules.cell
Cell
p5301
(dp5302
g7
I00
sg10
(I01
I01
tp5303
sba(iModules.cell
Cell
p5304
(dp5305
g7
I00
sg10
(I01
I01
tp5306
sba(iModules.cell
Cell
p5307
(dp5308
g7
I00
sg10
(I01
I01
tp5309
sba(iModules.cell
Cell
p5310
(dp5311
g7
I00
sg10
(I01
I01
tp5312
sba(iModules.cell
Cell
p5313
(dp5314
g7
I00
sg10
(I01
I01
tp5315
sba(iModules.cell
Cell
p5316
(dp5317
g7
I00
sg10
(I01
I01
tp5318
sba(iModules.cell
Cell
p5319
(dp5320
g7
I00
sg10
(I01
I01
tp5321
sba(iModules.cell
Cell
p5322
(dp5323
g7
I00
sg10
(I00
I00
tp5324
sba(iModules.cell
Cell
p5325
(dp5326
g7
I00
sg10
(I00
I00
tp5327
sba(iModules.cell
Cell
p5328
(dp5329
g7
I00
sg10
(I00
I00
tp5330
sba(iModules.cell
Cell
p5331
(dp5332
g7
I00
sg10
(I00
I00
tp5333
sba(iModules.cell
Cell
p5334
(dp5335
g7
I00
sg10
(I00
I00
tp5336
sba(iModules.cell
Cell
p5337
(dp5338
g7
I00
sg10
(I00
I00
tp5339
sba(iModules.cell
Cell
p5340
(dp5341
g7
I00
sg10
(I00
I00
tp5342
sba(iModules.cell
Cell
p5343
(dp5344
g7
I00
sg10
(I00
I00
tp5345
sba(iModules.cell
Cell
p5346
(dp5347
g7
I00
sg10
(I00
I00
tp5348
sba(iModules.cell
Cell
p5349
(dp5350
g7
I00
sg10
(I00
I00
tp5351
sba(iModules.cell
Cell
p5352
(dp5353
g7
I00
sg10
(I00
I00
tp5354
sba(iModules.cell
Cell
p5355
(dp5356
g7
I00
sg10
(I00
I00
tp5357
sba(iModules.cell
Cell
p5358
(dp5359
g7
I00
sg10
(I00
I00
tp5360
sba(iModules.cell
Cell
p5361
(dp5362
g7
I00
sg10
(I00
I00
tp5363
sba(iModules.cell
Cell
p5364
(dp5365
g7
I00
sg10
(I00
I00
tp5366
sba(iModules.cell
Cell
p5367
(dp5368
g7
I00
sg10
(I00
I00
tp5369
sba(iModules.cell
Cell
p5370
(dp5371
g7
I00
sg10
(I00
I00
tp5372
sba(iModules.cell
Cell
p5373
(dp5374
g7
I00
sg10
(I00
I00
tp5375
sba(iModules.cell
Cell
p5376
(dp5377
g7
I00
sg10
(I00
I00
tp5378
sba(iModules.cell
Cell
p5379
(dp5380
g10
(I00
I00
tp5381
sbaa(lp5382
(iModules.cell
Cell
p5383
(dp5384
g7
I00
sg10
(I00
I00
tp5385
sba(iModules.cell
Cell
p5386
(dp5387
g7
I00
sg258
I01
sg10
(I00
I00
tp5388
sba(iModules.cell
Cell
p5389
(dp5390
g7
I00
sg258
I01
sg10
(I00
I00
tp5391
sba(iModules.cell
Cell
p5392
(dp5393
g7
I00
sg258
I01
sg10
(I00
I00
tp5394
sba(iModules.cell
Cell
p5395
(dp5396
g7
I00
sg258
I01
sg10
(I00
I00
tp5397
sba(iModules.cell
Cell
p5398
(dp5399
g7
I00
sg258
I01
sg10
(I00
I00
tp5400
sba(iModules.cell
Cell
p5401
(dp5402
g7
I00
sg258
I01
sg10
(I00
I00
tp5403
sba(iModules.cell
Cell
p5404
(dp5405
g7
I00
sg258
I01
sg10
(I00
I00
tp5406
sba(iModules.cell
Cell
p5407
(dp5408
g7
I00
sg258
I01
sg10
(I00
I00
tp5409
sba(iModules.cell
Cell
p5410
(dp5411
g7
I00
sg258
I01
sg10
(I00
I00
tp5412
sba(iModules.cell
Cell
p5413
(dp5414
g7
I00
sg258
I01
sg10
(I00
I00
tp5415
sba(iModules.cell
Cell
p5416
(dp5417
g7
I00
sg258
I01
sg10
(I00
I00
tp5418
sba(iModules.cell
Cell
p5419
(dp5420
g7
I00
sg258
I01
sg10
(I00
I00
tp5421
sba(iModules.cell
Cell
p5422
(dp5423
g7
I00
sg258
I01
sg10
(I00
I00
tp5424
sba(iModules.cell
Cell
p5425
(dp5426
g7
I00
sg258
I01
sg10
(I00
I00
tp5427
sba(iModules.cell
Cell
p5428
(dp5429
g7
I00
sg258
I01
sg10
(I00
I00
tp5430
sba(iModules.cell
Cell
p5431
(dp5432
g7
I00
sg258
I01
sg10
(I00
I00
tp5433
sba(iModules.cell
Cell
p5434
(dp5435
g7
I00
sg258
I01
sg10
(I00
I00
tp5436
sba(iModules.cell
Cell
p5437
(dp5438
g7
I00
sg10
(I00
I00
tp5439
sba(iModules.cell
Cell
p5440
(dp5441
g7
I00
sg10
(I00
I00
tp5442
sba(iModules.cell
Cell
p5443
(dp5444
g7
I00
sg10
(I00
I00
tp5445
sba(iModules.cell
Cell
p5446
(dp5447
g7
I00
sg10
(I00
I00
tp5448
sba(iModules.cell
Cell
p5449
(dp5450
g7
I00
sg10
(I00
I00
tp5451
sba(iModules.cell
Cell
p5452
(dp5453
g7
I00
sg10
(I00
I00
tp5454
sba(iModules.cell
Cell
p5455
(dp5456
g7
I00
sg10
(I00
I00
tp5457
sba(iModules.cell
Cell
p5458
(dp5459
g7
I00
sg10
(I00
I00
tp5460
sba(iModules.cell
Cell
p5461
(dp5462
g7
I00
sg10
(I00
I00
tp5463
sba(iModules.cell
Cell
p5464
(dp5465
g7
I00
sg10
(I00
I00
tp5466
sba(iModules.cell
Cell
p5467
(dp5468
g7
I00
sg10
(I00
I00
tp5469
sba(iModules.cell
Cell
p5470
(dp5471
g7
I00
sg10
(I00
I00
tp5472
sba(iModules.cell
Cell
p5473
(dp5474
g7
I00
sg10
(I00
I00
tp5475
sba(iModules.cell
Cell
p5476
(dp5477
g7
I00
sg10
(I00
I00
tp5478
sba(iModules.cell
Cell
p5479
(dp5480
g7
I00
sg10
(I00
I00
tp5481
sba(iModules.cell
Cell
p5482
(dp5483
g7
I00
sg10
(I00
I00
tp5484
sba(iModules.cell
Cell
p5485
(dp5486
g7
I00
sg10
(I00
I00
tp5487
sba(iModules.cell
Cell
p5488
(dp5489
g7
I00
sg10
(I00
I00
tp5490
sba(iModules.cell
Cell
p5491
(dp5492
g7
I00
sg10
(I00
I00
tp5493
sba(iModules.cell
Cell
p5494
(dp5495
g7
I00
sg10
(I00
I00
tp5496
sba(iModules.cell
Cell
p5497
(dp5498
g7
I00
sg10
(I00
I00
tp5499
sba(iModules.cell
Cell
p5500
(dp5501
g7
I00
sg10
(I00
I00
tp5502
sba(iModules.cell
Cell
p5503
(dp5504
g7
I00
sg10
(I00
I00
tp5505
sba(iModules.cell
Cell
p5506
(dp5507
g7
I00
sg10
(I00
I00
tp5508
sba(iModules.cell
Cell
p5509
(dp5510
g7
I00
sg10
(I00
I00
tp5511
sba(iModules.cell
Cell
p5512
(dp5513
g7
I00
sg10
(I00
I00
tp5514
sba(iModules.cell
Cell
p5515
(dp5516
g7
I00
sg10
(I00
I00
tp5517
sba(iModules.cell
Cell
p5518
(dp5519
g7
I00
sg10
(I00
I00
tp5520
sba(iModules.cell
Cell
p5521
(dp5522
g7
I00
sg10
(I00
I00
tp5523
sba(iModules.cell
Cell
p5524
(dp5525
g7
I00
sg10
(I00
I00
tp5526
sba(iModules.cell
Cell
p5527
(dp5528
g7
I00
sg10
(I00
I00
tp5529
sba(iModules.cell
Cell
p5530
(dp5531
g7
I00
sg10
(I00
I00
tp5532
sba(iModules.cell
Cell
p5533
(dp5534
g7
I00
sg10
(I00
I00
tp5535
sba(iModules.cell
Cell
p5536
(dp5537
g7
I00
sg10
(I00
I00
tp5538
sba(iModules.cell
Cell
p5539
(dp5540
g7
I00
sg10
(I00
I00
tp5541
sba(iModules.cell
Cell
p5542
(dp5543
g7
I00
sg10
(I00
I00
tp5544
sba(iModules.cell
Cell
p5545
(dp5546
g7
I00
sg10
(I00
I00
tp5547
sba(iModules.cell
Cell
p5548
(dp5549
g7
I00
sg10
(I00
I00
tp5550
sba(iModules.cell
Cell
p5551
(dp5552
g7
I00
sg10
(I00
I00
tp5553
sba(iModules.cell
Cell
p5554
(dp5555
g7
I00
sg10
(I00
I00
tp5556
sba(iModules.cell
Cell
p5557
(dp5558
g7
I00
sg10
(I00
I00
tp5559
sba(iModules.cell
Cell
p5560
(dp5561
g7
I00
sg10
(I00
I00
tp5562
sba(iModules.cell
Cell
p5563
(dp5564
g7
I00
sg10
(I00
I00
tp5565
sba(iModules.cell
Cell
p5566
(dp5567
g7
I00
sg10
(I00
I00
tp5568
sba(iModules.cell
Cell
p5569
(dp5570
g7
I00
sg10
(I00
I00
tp5571
sba(iModules.cell
Cell
p5572
(dp5573
g7
I00
sg10
(I00
I00
tp5574
sba(iModules.cell
Cell
p5575
(dp5576
g7
I00
sg10
(I00
I00
tp5577
sba(iModules.cell
Cell
p5578
(dp5579
g7
I00
sg10
(I00
I00
tp5580
sba(iModules.cell
Cell
p5581
(dp5582
g7
I00
sg10
(I00
I00
tp5583
sba(iModules.cell
Cell
p5584
(dp5585
g7
I00
sg10
(I00
I00
tp5586
sba(iModules.cell
Cell
p5587
(dp5588
g7
I00
sg10
(I00
I00
tp5589
sba(iModules.cell
Cell
p5590
(dp5591
g7
I00
sg10
(I00
I00
tp5592
sba(iModules.cell
Cell
p5593
(dp5594
g7
I00
sg10
(I00
I00
tp5595
sba(iModules.cell
Cell
p5596
(dp5597
g7
I00
sg10
(I00
I00
tp5598
sba(iModules.cell
Cell
p5599
(dp5600
g7
I00
sg10
(I00
I00
tp5601
sba(iModules.cell
Cell
p5602
(dp5603
g7
I00
sg10
(I00
I00
tp5604
sba(iModules.cell
Cell
p5605
(dp5606
g7
I00
sg10
(I00
I00
tp5607
sba(iModules.cell
Cell
p5608
(dp5609
g7
I00
sg10
(I00
I00
tp5610
sba(iModules.cell
Cell
p5611
(dp5612
g7
I00
sg10
(I00
I00
tp5613
sba(iModules.cell
Cell
p5614
(dp5615
g7
I00
sg10
(I00
I00
tp5616
sba(iModules.cell
Cell
p5617
(dp5618
g7
I00
sg10
(I00
I00
tp5619
sba(iModules.cell
Cell
p5620
(dp5621
g7
I00
sg10
(I00
I00
tp5622
sba(iModules.cell
Cell
p5623
(dp5624
g10
(I00
I00
tp5625
sbaa(lp5626
(iModules.cell
Cell
p5627
(dp5628
g10
(I00
I00
tp5629
sba(iModules.cell
Cell
p5630
(dp5631
g10
(I00
I00
tp5632
sba(iModules.cell
Cell
p5633
(dp5634
g10
(I00
I00
tp5635
sba(iModules.cell
Cell
p5636
(dp5637
g10
(I00
I00
tp5638
sba(iModules.cell
Cell
p5639
(dp5640
g10
(I00
I00
tp5641
sba(iModules.cell
Cell
p5642
(dp5643
g10
(I00
I00
tp5644
sba(iModules.cell
Cell
p5645
(dp5646
g10
(I00
I00
tp5647
sba(iModules.cell
Cell
p5648
(dp5649
g10
(I00
I00
tp5650
sba(iModules.cell
Cell
p5651
(dp5652
g10
(I00
I00
tp5653
sba(iModules.cell
Cell
p5654
(dp5655
g10
(I00
I00
tp5656
sba(iModules.cell
Cell
p5657
(dp5658
g10
(I00
I00
tp5659
sba(iModules.cell
Cell
p5660
(dp5661
g10
(I00
I00
tp5662
sba(iModules.cell
Cell
p5663
(dp5664
g10
(I00
I00
tp5665
sba(iModules.cell
Cell
p5666
(dp5667
g10
(I00
I00
tp5668
sba(iModules.cell
Cell
p5669
(dp5670
g10
(I00
I00
tp5671
sba(iModules.cell
Cell
p5672
(dp5673
g10
(I00
I00
tp5674
sba(iModules.cell
Cell
p5675
(dp5676
g10
(I00
I00
tp5677
sba(iModules.cell
Cell
p5678
(dp5679
g10
(I00
I00
tp5680
sba(iModules.cell
Cell
p5681
(dp5682
g10
(I00
I00
tp5683
sba(iModules.cell
Cell
p5684
(dp5685
g10
(I00
I00
tp5686
sba(iModules.cell
Cell
p5687
(dp5688
g10
(I00
I00
tp5689
sba(iModules.cell
Cell
p5690
(dp5691
g10
(I00
I00
tp5692
sba(iModules.cell
Cell
p5693
(dp5694
g10
(I00
I00
tp5695
sba(iModules.cell
Cell
p5696
(dp5697
g10
(I00
I00
tp5698
sba(iModules.cell
Cell
p5699
(dp5700
g10
(I00
I00
tp5701
sba(iModules.cell
Cell
p5702
(dp5703
g10
(I00
I00
tp5704
sba(iModules.cell
Cell
p5705
(dp5706
g10
(I00
I00
tp5707
sba(iModules.cell
Cell
p5708
(dp5709
g10
(I00
I00
tp5710
sba(iModules.cell
Cell
p5711
(dp5712
g10
(I00
I00
tp5713
sba(iModules.cell
Cell
p5714
(dp5715
g10
(I00
I00
tp5716
sba(iModules.cell
Cell
p5717
(dp5718
g10
(I00
I00
tp5719
sba(iModules.cell
Cell
p5720
(dp5721
g10
(I00
I00
tp5722
sba(iModules.cell
Cell
p5723
(dp5724
g10
(I00
I00
tp5725
sba(iModules.cell
Cell
p5726
(dp5727
g10
(I00
I00
tp5728
sba(iModules.cell
Cell
p5729
(dp5730
g10
(I00
I00
tp5731
sba(iModules.cell
Cell
p5732
(dp5733
g10
(I00
I00
tp5734
sba(iModules.cell
Cell
p5735
(dp5736
g10
(I00
I00
tp5737
sba(iModules.cell
Cell
p5738
(dp5739
g10
(I00
I00
tp5740
sba(iModules.cell
Cell
p5741
(dp5742
g10
(I00
I00
tp5743
sba(iModules.cell
Cell
p5744
(dp5745
g10
(I00
I00
tp5746
sba(iModules.cell
Cell
p5747
(dp5748
g10
(I00
I00
tp5749
sba(iModules.cell
Cell
p5750
(dp5751
g10
(I00
I00
tp5752
sba(iModules.cell
Cell
p5753
(dp5754
g10
(I00
I00
tp5755
sba(iModules.cell
Cell
p5756
(dp5757
g10
(I00
I00
tp5758
sba(iModules.cell
Cell
p5759
(dp5760
g10
(I00
I00
tp5761
sba(iModules.cell
Cell
p5762
(dp5763
g10
(I00
I00
tp5764
sba(iModules.cell
Cell
p5765
(dp5766
g10
(I00
I00
tp5767
sba(iModules.cell
Cell
p5768
(dp5769
g10
(I00
I00
tp5770
sba(iModules.cell
Cell
p5771
(dp5772
g10
(I00
I00
tp5773
sba(iModules.cell
Cell
p5774
(dp5775
g10
(I00
I00
tp5776
sba(iModules.cell
Cell
p5777
(dp5778
g10
(I00
I00
tp5779
sba(iModules.cell
Cell
p5780
(dp5781
g10
(I00
I00
tp5782
sba(iModules.cell
Cell
p5783
(dp5784
g10
(I00
I00
tp5785
sba(iModules.cell
Cell
p5786
(dp5787
g10
(I00
I00
tp5788
sba(iModules.cell
Cell
p5789
(dp5790
g10
(I00
I00
tp5791
sba(iModules.cell
Cell
p5792
(dp5793
g10
(I00
I00
tp5794
sba(iModules.cell
Cell
p5795
(dp5796
g10
(I00
I00
tp5797
sba(iModules.cell
Cell
p5798
(dp5799
g10
(I00
I00
tp5800
sba(iModules.cell
Cell
p5801
(dp5802
g10
(I00
I00
tp5803
sba(iModules.cell
Cell
p5804
(dp5805
g10
(I00
I00
tp5806
sba(iModules.cell
Cell
p5807
(dp5808
g10
(I00
I00
tp5809
sba(iModules.cell
Cell
p5810
(dp5811
g10
(I00
I00
tp5812
sba(iModules.cell
Cell
p5813
(dp5814
g10
(I00
I00
tp5815
sba(iModules.cell
Cell
p5816
(dp5817
g10
(I00
I00
tp5818
sba(iModules.cell
Cell
p5819
(dp5820
g10
(I00
I00
tp5821
sba(iModules.cell
Cell
p5822
(dp5823
g10
(I00
I00
tp5824
sba(iModules.cell
Cell
p5825
(dp5826
g10
(I00
I00
tp5827
sba(iModules.cell
Cell
p5828
(dp5829
g10
(I00
I00
tp5830
sba(iModules.cell
Cell
p5831
(dp5832
g10
(I00
I00
tp5833
sba(iModules.cell
Cell
p5834
(dp5835
g10
(I00
I00
tp5836
sba(iModules.cell
Cell
p5837
(dp5838
g10
(I00
I00
tp5839
sba(iModules.cell
Cell
p5840
(dp5841
g10
(I00
I00
tp5842
sba(iModules.cell
Cell
p5843
(dp5844
g10
(I00
I00
tp5845
sba(iModules.cell
Cell
p5846
(dp5847
g10
(I00
I00
tp5848
sba(iModules.cell
Cell
p5849
(dp5850
g10
(I00
I00
tp5851
sba(iModules.cell
Cell
p5852
(dp5853
g10
(I00
I00
tp5854
sba(iModules.cell
Cell
p5855
(dp5856
g10
(I00
I00
tp5857
sba(iModules.cell
Cell
p5858
(dp5859
g10
(I00
I00
tp5860
sba(iModules.cell
Cell
p5861
(dp5862
g10
(I00
I00
tp5863
sba(iModules.cell
Cell
p5864
(dp5865
g10
(I00
I00
tp5866
sba(iModules.cell
Cell
p5867
(dp5868
g10
(I00
I00
tp5869
sbaa(lp5870
(iModules.cell
Cell
p5871
(dp5872
g10
(I00
I00
tp5873
sba(iModules.cell
Cell
p5874
(dp5875
g10
(I00
I00
tp5876
sba(iModules.cell
Cell
p5877
(dp5878
g10
(I00
I00
tp5879
sba(iModules.cell
Cell
p5880
(dp5881
g10
(I00
I00
tp5882
sba(iModules.cell
Cell
p5883
(dp5884
g10
(I00
I00
tp5885
sba(iModules.cell
Cell
p5886
(dp5887
g10
(I00
I00
tp5888
sba(iModules.cell
Cell
p5889
(dp5890
g10
(I00
I00
tp5891
sba(iModules.cell
Cell
p5892
(dp5893
g10
(I00
I00
tp5894
sba(iModules.cell
Cell
p5895
(dp5896
g10
(I00
I00
tp5897
sba(iModules.cell
Cell
p5898
(dp5899
g10
(I00
I00
tp5900
sba(iModules.cell
Cell
p5901
(dp5902
g10
(I00
I00
tp5903
sba(iModules.cell
Cell
p5904
(dp5905
g10
(I00
I00
tp5906
sba(iModules.cell
Cell
p5907
(dp5908
g10
(I00
I00
tp5909
sba(iModules.cell
Cell
p5910
(dp5911
g10
(I00
I00
tp5912
sba(iModules.cell
Cell
p5913
(dp5914
g10
(I00
I00
tp5915
sba(iModules.cell
Cell
p5916
(dp5917
g10
(I00
I00
tp5918
sba(iModules.cell
Cell
p5919
(dp5920
g10
(I00
I00
tp5921
sba(iModules.cell
Cell
p5922
(dp5923
g10
(I00
I00
tp5924
sba(iModules.cell
Cell
p5925
(dp5926
g10
(I00
I00
tp5927
sba(iModules.cell
Cell
p5928
(dp5929
g10
(I00
I00
tp5930
sba(iModules.cell
Cell
p5931
(dp5932
g10
(I00
I00
tp5933
sba(iModules.cell
Cell
p5934
(dp5935
g10
(I00
I00
tp5936
sba(iModules.cell
Cell
p5937
(dp5938
g10
(I00
I00
tp5939
sba(iModules.cell
Cell
p5940
(dp5941
g10
(I00
I00
tp5942
sba(iModules.cell
Cell
p5943
(dp5944
g10
(I00
I00
tp5945
sba(iModules.cell
Cell
p5946
(dp5947
g10
(I00
I00
tp5948
sba(iModules.cell
Cell
p5949
(dp5950
g10
(I00
I00
tp5951
sba(iModules.cell
Cell
p5952
(dp5953
g10
(I00
I00
tp5954
sba(iModules.cell
Cell
p5955
(dp5956
g10
(I00
I00
tp5957
sba(iModules.cell
Cell
p5958
(dp5959
g10
(I00
I00
tp5960
sba(iModules.cell
Cell
p5961
(dp5962
g10
(I00
I00
tp5963
sba(iModules.cell
Cell
p5964
(dp5965
g10
(I00
I00
tp5966
sba(iModules.cell
Cell
p5967
(dp5968
g10
(I00
I00
tp5969
sba(iModules.cell
Cell
p5970
(dp5971
g10
(I00
I00
tp5972
sba(iModules.cell
Cell
p5973
(dp5974
g10
(I00
I00
tp5975
sba(iModules.cell
Cell
p5976
(dp5977
g10
(I00
I00
tp5978
sba(iModules.cell
Cell
p5979
(dp5980
g10
(I00
I00
tp5981
sba(iModules.cell
Cell
p5982
(dp5983
g10
(I00
I00
tp5984
sba(iModules.cell
Cell
p5985
(dp5986
g10
(I00
I00
tp5987
sba(iModules.cell
Cell
p5988
(dp5989
g10
(I00
I00
tp5990
sba(iModules.cell
Cell
p5991
(dp5992
g10
(I00
I00
tp5993
sba(iModules.cell
Cell
p5994
(dp5995
g10
(I00
I00
tp5996
sba(iModules.cell
Cell
p5997
(dp5998
g10
(I00
I00
tp5999
sba(iModules.cell
Cell
p6000
(dp6001
g10
(I00
I00
tp6002
sba(iModules.cell
Cell
p6003
(dp6004
g10
(I00
I00
tp6005
sba(iModules.cell
Cell
p6006
(dp6007
g10
(I00
I00
tp6008
sba(iModules.cell
Cell
p6009
(dp6010
g10
(I00
I00
tp6011
sba(iModules.cell
Cell
p6012
(dp6013
g10
(I00
I00
tp6014
sba(iModules.cell
Cell
p6015
(dp6016
g10
(I00
I00
tp6017
sba(iModules.cell
Cell
p6018
(dp6019
g10
(I00
I00
tp6020
sba(iModules.cell
Cell
p6021
(dp6022
g10
(I00
I00
tp6023
sba(iModules.cell
Cell
p6024
(dp6025
g10
(I00
I00
tp6026
sba(iModules.cell
Cell
p6027
(dp6028
g10
(I00
I00
tp6029
sba(iModules.cell
Cell
p6030
(dp6031
g10
(I00
I00
tp6032
sba(iModules.cell
Cell
p6033
(dp6034
g10
(I00
I00
tp6035
sba(iModules.cell
Cell
p6036
(dp6037
g10
(I00
I00
tp6038
sba(iModules.cell
Cell
p6039
(dp6040
g10
(I00
I00
tp6041
sba(iModules.cell
Cell
p6042
(dp6043
g10
(I00
I00
tp6044
sba(iModules.cell
Cell
p6045
(dp6046
g10
(I00
I00
tp6047
sba(iModules.cell
Cell
p6048
(dp6049
g10
(I00
I00
tp6050
sba(iModules.cell
Cell
p6051
(dp6052
g10
(I00
I00
tp6053
sba(iModules.cell
Cell
p6054
(dp6055
g10
(I00
I00
tp6056
sba(iModules.cell
Cell
p6057
(dp6058
g10
(I00
I00
tp6059
sba(iModules.cell
Cell
p6060
(dp6061
g10
(I00
I00
tp6062
sba(iModules.cell
Cell
p6063
(dp6064
g10
(I00
I00
tp6065
sba(iModules.cell
Cell
p6066
(dp6067
g10
(I00
I00
tp6068
sba(iModules.cell
Cell
p6069
(dp6070
g10
(I00
I00
tp6071
sba(iModules.cell
Cell
p6072
(dp6073
g10
(I00
I00
tp6074
sba(iModules.cell
Cell
p6075
(dp6076
g10
(I00
I00
tp6077
sba(iModules.cell
Cell
p6078
(dp6079
g10
(I00
I00
tp6080
sba(iModules.cell
Cell
p6081
(dp6082
g10
(I00
I00
tp6083
sba(iModules.cell
Cell
p6084
(dp6085
g10
(I00
I00
tp6086
sba(iModules.cell
Cell
p6087
(dp6088
g10
(I00
I00
tp6089
sba(iModules.cell
Cell
p6090
(dp6091
g10
(I00
I00
tp6092
sba(iModules.cell
Cell
p6093
(dp6094
g10
(I00
I00
tp6095
sba(iModules.cell
Cell
p6096
(dp6097
g10
(I00
I00
tp6098
sba(iModules.cell
Cell
p6099
(dp6100
g10
(I00
I00
tp6101
sba(iModules.cell
Cell
p6102
(dp6103
g10
(I00
I00
tp6104
sba(iModules.cell
Cell
p6105
(dp6106
g10
(I00
I00
tp6107
sba(iModules.cell
Cell
p6108
(dp6109
g10
(I00
I00
tp6110
sba(iModules.cell
Cell
p6111
(dp6112
g10
(I00
I00
tp6113
sbaa.