(lp0
(lp1
(iModules.cell
Cell
p2
(dp3
S'visible'
p4
I00
sS'type'
p5
(I00
I00
tp6
sS'pc'
p7
(lp8
I6
aI5
asba(iModules.cell
Cell
p9
(dp10
g4
I00
sg5
(I00
I00
tp11
sba(iModules.cell
Cell
p12
(dp13
g4
I00
sg5
(I00
I00
tp14
sba(iModules.cell
Cell
p15
(dp16
g4
I00
sg5
(I00
I00
tp17
sba(iModules.cell
Cell
p18
(dp19
g4
I00
sg5
(I00
I00
tp20
sba(iModules.cell
Cell
p21
(dp22
g4
I00
sg5
(I00
I00
tp23
sba(iModules.cell
Cell
p24
(dp25
g4
I00
sg5
(I00
I00
tp26
sba(iModules.cell
Cell
p27
(dp28
g4
I00
sg5
(I00
I00
tp29
sba(iModules.cell
Cell
p30
(dp31
g4
I00
sg5
(I00
I00
tp32
sba(iModules.cell
Cell
p33
(dp34
g4
I00
sg5
(I00
I00
tp35
sba(iModules.cell
Cell
p36
(dp37
g4
I00
sg5
(I00
I00
tp38
sba(iModules.cell
Cell
p39
(dp40
g4
I00
sg5
(I00
I00
tp41
sba(iModules.cell
Cell
p42
(dp43
g4
I00
sg5
(I00
I00
tp44
sba(iModules.cell
Cell
p45
(dp46
g4
I00
sg5
(I00
I00
tp47
sba(iModules.cell
Cell
p48
(dp49
g4
I00
sg5
(I00
I00
tp50
sba(iModules.cell
Cell
p51
(dp52
g4
I00
sg5
(I00
I00
tp53
sba(iModules.cell
Cell
p54
(dp55
g4
I00
sg5
(I00
I00
tp56
sba(iModules.cell
Cell
p57
(dp58
g4
I00
sg5
(I00
I00
tp59
sba(iModules.cell
Cell
p60
(dp61
g4
I00
sg5
(I00
I00
tp62
sba(iModules.cell
Cell
p63
(dp64
g4
I00
sg5
(I00
I00
tp65
sba(iModules.cell
Cell
p66
(dp67
g4
I00
sg5
(I00
I00
tp68
sba(iModules.cell
Cell
p69
(dp70
g4
I00
sg5
(I00
I00
tp71
sba(iModules.cell
Cell
p72
(dp73
g4
I00
sg5
(I00
I00
tp74
sba(iModules.cell
Cell
p75
(dp76
g4
I00
sg5
(I00
I00
tp77
sba(iModules.cell
Cell
p78
(dp79
g4
I00
sg5
(I00
I00
tp80
sba(iModules.cell
Cell
p81
(dp82
g4
I00
sg5
(I00
I00
tp83
sba(iModules.cell
Cell
p84
(dp85
g4
I00
sg5
(I00
I00
tp86
sba(iModules.cell
Cell
p87
(dp88
g4
I00
sg5
(I00
I00
tp89
sba(iModules.cell
Cell
p90
(dp91
g4
I00
sg5
(I00
I00
tp92
sba(iModules.cell
Cell
p93
(dp94
g4
I00
sg5
(I00
I00
tp95
sba(iModules.cell
Cell
p96
(dp97
g4
I00
sg5
(I00
I00
tp98
sba(iModules.cell
Cell
p99
(dp100
g4
I00
sg5
(I00
I00
tp101
sba(iModules.cell
Cell
p102
(dp103
g4
I00
sg5
(I00
I00
tp104
sba(iModules.cell
Cell
p105
(dp106
g4
I00
sg5
(I00
I00
tp107
sba(iModules.cell
Cell
p108
(dp109
g4
I00
sg5
(I00
I00
tp110
sba(iModules.cell
Cell
p111
(dp112
g4
I00
sg5
(I00
I00
tp113
sba(iModules.cell
Cell
p114
(dp115
g4
I00
sg5
(I00
I00
tp116
sba(iModules.cell
Cell
p117
(dp118
g4
I00
sg5
(I00
I00
tp119
sba(iModules.cell
Cell
p120
(dp121
g4
I00
sg5
(I00
I00
tp122
sba(iModules.cell
Cell
p123
(dp124
g4
I00
sg5
(I00
I00
tp125
sba(iModules.cell
Cell
p126
(dp127
g4
I00
sg5
(I00
I00
tp128
sba(iModules.cell
Cell
p129
(dp130
g4
I00
sg5
(I00
I00
tp131
sba(iModules.cell
Cell
p132
(dp133
g4
I00
sg5
(I00
I00
tp134
sba(iModules.cell
Cell
p135
(dp136
g4
I00
sg5
(I00
I00
tp137
sba(iModules.cell
Cell
p138
(dp139
g4
I00
sg5
(I00
I00
tp140
sba(iModules.cell
Cell
p141
(dp142
g4
I00
sg5
(I00
I00
tp143
sba(iModules.cell
Cell
p144
(dp145
g4
I00
sg5
(I00
I00
tp146
sba(iModules.cell
Cell
p147
(dp148
g4
I00
sg5
(I00
I00
tp149
sba(iModules.cell
Cell
p150
(dp151
g4
I00
sg5
(I00
I00
tp152
sba(iModules.cell
Cell
p153
(dp154
g4
I00
sg5
(I00
I00
tp155
sba(iModules.cell
Cell
p156
(dp157
g4
I00
sg5
(I00
I00
tp158
sba(iModules.cell
Cell
p159
(dp160
g4
I00
sg5
(I00
I00
tp161
sba(iModules.cell
Cell
p162
(dp163
g4
I00
sg5
(I00
I00
tp164
sba(iModules.cell
Cell
p165
(dp166
g4
I00
sg5
(I00
I00
tp167
sba(iModules.cell
Cell
p168
(dp169
g4
I00
sg5
(I00
I00
tp170
sba(iModules.cell
Cell
p171
(dp172
g4
I00
sg5
(I00
I00
tp173
sba(iModules.cell
Cell
p174
(dp175
g4
I00
sg5
(I00
I00
tp176
sba(iModules.cell
Cell
p177
(dp178
g4
I00
sg5
(I00
I00
tp179
sba(iModules.cell
Cell
p180
(dp181
g4
I00
sg5
(I00
I00
tp182
sba(iModules.cell
Cell
p183
(dp184
g4
I00
sg5
(I00
I00
tp185
sba(iModules.cell
Cell
p186
(dp187
g4
I00
sg5
(I00
I00
tp188
sba(iModules.cell
Cell
p189
(dp190
g4
I00
sg5
(I00
I00
tp191
sba(iModules.cell
Cell
p192
(dp193
g4
I00
sg5
(I00
I00
tp194
sba(iModules.cell
Cell
p195
(dp196
g4
I00
sg5
(I00
I00
tp197
sba(iModules.cell
Cell
p198
(dp199
g4
I00
sg5
(I00
I00
tp200
sba(iModules.cell
Cell
p201
(dp202
g4
I00
sg5
(I00
I00
tp203
sba(iModules.cell
Cell
p204
(dp205
g4
I00
sg5
(I00
I00
tp206
sba(iModules.cell
Cell
p207
(dp208
g4
I00
sg5
(I00
I00
tp209
sba(iModules.cell
Cell
p210
(dp211
g4
I00
sg5
(I00
I00
tp212
sba(iModules.cell
Cell
p213
(dp214
g4
I00
sg5
(I00
I00
tp215
sba(iModules.cell
Cell
p216
(dp217
g4
I00
sg5
(I00
I00
tp218
sba(iModules.cell
Cell
p219
(dp220
g4
I00
sg5
(I00
I00
tp221
sba(iModules.cell
Cell
p222
(dp223
g4
I00
sg5
(I00
I00
tp224
sba(iModules.cell
Cell
p225
(dp226
g4
I00
sg5
(I00
I00
tp227
sba(iModules.cell
Cell
p228
(dp229
g4
I00
sg5
(I00
I00
tp230
sba(iModules.cell
Cell
p231
(dp232
g4
I00
sg5
(I00
I00
tp233
sba(iModules.cell
Cell
p234
(dp235
g4
I00
sg5
(I00
I00
tp236
sba(iModules.cell
Cell
p237
(dp238
g4
I00
sg5
(I00
I00
tp239
sba(iModules.cell
Cell
p240
(dp241
g4
I00
sg5
(I00
I00
tp242
sba(iModules.cell
Cell
p243
(dp244
g4
I00
sg5
(I00
I00
tp245
sba(iModules.cell
Cell
p246
(dp247
g5
(I00
I00
tp248
sbaa(lp249
(iModules.cell
Cell
p250
(dp251
g4
I00
sg5
(I00
I00
tp252
sba(iModules.cell
Cell
p253
(dp254
g4
I01
sS'explored'
p255
I01
sg5
(I00
I00
tp256
sba(iModules.cell
Cell
p257
(dp258
g4
I01
sg255
I01
sg5
(I00
I00
tp259
sba(iModules.cell
Cell
p260
(dp261
g4
I01
sg255
I01
sg5
(I00
I00
tp262
sba(iModules.cell
Cell
p263
(dp264
g4
I01
sg255
I01
sg5
(I00
I00
tp265
sba(iModules.cell
Cell
p266
(dp267
g4
I01
sg255
I01
sg5
(I00
I00
tp268
sba(iModules.cell
Cell
p269
(dp270
g4
I01
sg255
I01
sg5
(I00
I00
tp271
sba(iModules.cell
Cell
p272
(dp273
g4
I01
sg255
I01
sg5
(I00
I00
tp274
sba(iModules.cell
Cell
p275
(dp276
g4
I01
sg255
I01
sg5
(I00
I00
tp277
sba(iModules.cell
Cell
p278
(dp279
g4
I01
sg255
I01
sg5
(I00
I00
tp280
sba(iModules.cell
Cell
p281
(dp282
g4
I01
sg255
I01
sg5
(I00
I00
tp283
sba(iModules.cell
Cell
p284
(dp285
g4
I01
sg255
I01
sg5
(I00
I00
tp286
sba(iModules.cell
Cell
p287
(dp288
g4
I01
sg255
I01
sg5
(I00
I00
tp289
sba(iModules.cell
Cell
p290
(dp291
g4
I01
sg255
I01
sg5
(I00
I00
tp292
sba(iModules.cell
Cell
p293
(dp294
g4
I01
sg255
I01
sg5
(I00
I00
tp295
sba(iModules.cell
Cell
p296
(dp297
g4
I00
sg5
(I00
I00
tp298
sba(iModules.cell
Cell
p299
(dp300
g4
I00
sg5
(I00
I00
tp301
sba(iModules.cell
Cell
p302
(dp303
g4
I00
sg5
(I00
I00
tp304
sba(iModules.cell
Cell
p305
(dp306
g4
I00
sg5
(I00
I00
tp307
sba(iModules.cell
Cell
p308
(dp309
g4
I00
sg5
(I00
I00
tp310
sba(iModules.cell
Cell
p311
(dp312
g4
I00
sg5
(I00
I00
tp313
sba(iModules.cell
Cell
p314
(dp315
g4
I00
sg5
(I00
I00
tp316
sba(iModules.cell
Cell
p317
(dp318
g4
I00
sg5
(I00
I00
tp319
sba(iModules.cell
Cell
p320
(dp321
g4
I00
sg5
(I00
I00
tp322
sba(iModules.cell
Cell
p323
(dp324
g4
I00
sg5
(I00
I00
tp325
sba(iModules.cell
Cell
p326
(dp327
g4
I00
sg5
(I00
I00
tp328
sba(iModules.cell
Cell
p329
(dp330
g4
I00
sg5
(I00
I00
tp331
sba(iModules.cell
Cell
p332
(dp333
g4
I00
sg5
(I00
I00
tp334
sba(iModules.cell
Cell
p335
(dp336
g4
I00
sg5
(I00
I00
tp337
sba(iModules.cell
Cell
p338
(dp339
g4
I00
sg5
(I00
I00
tp340
sba(iModules.cell
Cell
p341
(dp342
g4
I00
sg5
(I00
I00
tp343
sba(iModules.cell
Cell
p344
(dp345
g4
I00
sg5
(I00
I00
tp346
sba(iModules.cell
Cell
p347
(dp348
g4
I00
sg5
(I00
I00
tp349
sba(iModules.cell
Cell
p350
(dp351
g4
I00
sg5
(I00
I00
tp352
sba(iModules.cell
Cell
p353
(dp354
g4
I00
sg5
(I00
I00
tp355
sba(iModules.cell
Cell
p356
(dp357
g4
I00
sg5
(I00
I00
tp358
sba(iModules.cell
Cell
p359
(dp360
g4
I00
sg5
(I00
I00
tp361
sba(iModules.cell
Cell
p362
(dp363
g4
I00
sg5
(I00
I00
tp364
sba(iModules.cell
Cell
p365
(dp366
g4
I00
sg5
(I00
I00
tp367
sba(iModules.cell
Cell
p368
(dp369
g4
I00
sg5
(I00
I00
tp370
sba(iModules.cell
Cell
p371
(dp372
g4
I00
sg5
(I00
I00
tp373
sba(iModules.cell
Cell
p374
(dp375
g4
I00
sg5
(I00
I00
tp376
sba(iModules.cell
Cell
p377
(dp378
g4
I00
sg5
(I00
I00
tp379
sba(iModules.cell
Cell
p380
(dp381
g4
I00
sg5
(I00
I00
tp382
sba(iModules.cell
Cell
p383
(dp384
g4
I00
sg5
(I00
I00
tp385
sba(iModules.cell
Cell
p386
(dp387
g4
I00
sg5
(I00
I00
tp388
sba(iModules.cell
Cell
p389
(dp390
g4
I00
sg5
(I00
I00
tp391
sba(iModules.cell
Cell
p392
(dp393
g4
I00
sg5
(I00
I00
tp394
sba(iModules.cell
Cell
p395
(dp396
g4
I00
sg5
(I00
I00
tp397
sba(iModules.cell
Cell
p398
(dp399
g4
I00
sg5
(I00
I00
tp400
sba(iModules.cell
Cell
p401
(dp402
g4
I00
sg5
(I00
I00
tp403
sba(iModules.cell
Cell
p404
(dp405
g4
I00
sg5
(I00
I00
tp406
sba(iModules.cell
Cell
p407
(dp408
g4
I00
sg5
(I00
I00
tp409
sba(iModules.cell
Cell
p410
(dp411
g4
I00
sg5
(I00
I00
tp412
sba(iModules.cell
Cell
p413
(dp414
g4
I00
sg5
(I00
I00
tp415
sba(iModules.cell
Cell
p416
(dp417
g4
I00
sg5
(I00
I00
tp418
sba(iModules.cell
Cell
p419
(dp420
g4
I00
sg5
(I00
I00
tp421
sba(iModules.cell
Cell
p422
(dp423
g4
I00
sg5
(I00
I00
tp424
sba(iModules.cell
Cell
p425
(dp426
g4
I00
sg5
(I00
I00
tp427
sba(iModules.cell
Cell
p428
(dp429
g4
I00
sg5
(I00
I00
tp430
sba(iModules.cell
Cell
p431
(dp432
g4
I00
sg5
(I00
I00
tp433
sba(iModules.cell
Cell
p434
(dp435
g4
I00
sg5
(I00
I00
tp436
sba(iModules.cell
Cell
p437
(dp438
g4
I00
sg5
(I00
I00
tp439
sba(iModules.cell
Cell
p440
(dp441
g4
I00
sg5
(I00
I00
tp442
sba(iModules.cell
Cell
p443
(dp444
g4
I00
sg5
(I00
I00
tp445
sba(iModules.cell
Cell
p446
(dp447
g4
I00
sg5
(I00
I00
tp448
sba(iModules.cell
Cell
p449
(dp450
g4
I00
sg5
(I00
I00
tp451
sba(iModules.cell
Cell
p452
(dp453
g4
I00
sg5
(I00
I00
tp454
sba(iModules.cell
Cell
p455
(dp456
g4
I00
sg5
(I00
I00
tp457
sba(iModules.cell
Cell
p458
(dp459
g4
I00
sg5
(I00
I00
tp460
sba(iModules.cell
Cell
p461
(dp462
g4
I00
sg5
(I00
I00
tp463
sba(iModules.cell
Cell
p464
(dp465
g4
I00
sg5
(I00
I00
tp466
sba(iModules.cell
Cell
p467
(dp468
g4
I00
sg5
(I00
I00
tp469
sba(iModules.cell
Cell
p470
(dp471
g4
I00
sg5
(I00
I00
tp472
sba(iModules.cell
Cell
p473
(dp474
g4
I00
sg5
(I00
I00
tp475
sba(iModules.cell
Cell
p476
(dp477
g4
I00
sg5
(I00
I00
tp478
sba(iModules.cell
Cell
p479
(dp480
g4
I00
sg5
(I00
I00
tp481
sba(iModules.cell
Cell
p482
(dp483
g4
I00
sg5
(I00
I00
tp484
sba(iModules.cell
Cell
p485
(dp486
g4
I00
sg5
(I00
I00
tp487
sba(iModules.cell
Cell
p488
(dp489
g4
I00
sg5
(I00
I00
tp490
sba(iModules.cell
Cell
p491
(dp492
g5
(I00
I00
tp493
sbaa(lp494
(iModules.cell
Cell
p495
(dp496
g4
I00
sg5
(I00
I00
tp497
sba(iModules.cell
Cell
p498
(dp499
g4
I01
sg255
I01
sg5
(I00
I00
tp500
sba(iModules.cell
Cell
p501
(dp502
g4
I01
sg255
I01
sg5
(I01
I01
tp503
sba(iModules.cell
Cell
p504
(dp505
g4
I01
sg255
I01
sg5
(I01
I01
tp506
sba(iModules.cell
Cell
p507
(dp508
g4
I01
sg255
I01
sg5
(I01
I01
tp509
sba(iModules.cell
Cell
p510
(dp511
g4
I01
sg255
I01
sg5
(I01
I01
tp512
sba(iModules.cell
Cell
p513
(dp514
g4
I01
sg255
I01
sg5
(I01
I01
tp515
sba(iModules.cell
Cell
p516
(dp517
g4
I01
sg255
I01
sg5
(I01
I01
tp518
sba(iModules.cell
Cell
p519
(dp520
g4
I01
sg255
I01
sg5
(I01
I01
tp521
sba(iModules.cell
Cell
p522
(dp523
g4
I01
sg255
I01
sg5
(I01
I01
tp524
sba(iModules.cell
Cell
p525
(dp526
g4
I01
sg255
I01
sg5
(I01
I01
tp527
sba(iModules.cell
Cell
p528
(dp529
g4
I01
sg255
I01
sg5
(I01
I01
tp530
sba(iModules.cell
Cell
p531
(dp532
g4
I01
sg255
I01
sg5
(I01
I01
tp533
sba(iModules.cell
Cell
p534
(dp535
g4
I01
sg255
I01
sg5
(I01
I01
tp536
sba(iModules.cell
Cell
p537
(dp538
g4
I01
sg255
I01
sg5
(I01
I01
tp539
sba(iModules.cell
Cell
p540
(dp541
g4
I00
sg5
(I01
I01
tp542
sba(iModules.cell
Cell
p543
(dp544
g4
I00
sg5
(I01
I01
tp545
sba(iModules.cell
Cell
p546
(dp547
g4
I00
sg5
(I01
I01
tp548
sba(iModules.cell
Cell
p549
(dp550
g4
I00
sg5
(I01
I01
tp551
sba(iModules.cell
Cell
p552
(dp553
g4
I00
sg5
(I01
I01
tp554
sba(iModules.cell
Cell
p555
(dp556
g4
I00
sg5
(I01
I01
tp557
sba(iModules.cell
Cell
p558
(dp559
g4
I00
sg5
(I01
I01
tp560
sba(iModules.cell
Cell
p561
(dp562
g4
I00
sg5
(I01
I01
tp563
sba(iModules.cell
Cell
p564
(dp565
g4
I00
sg5
(I01
I01
tp566
sba(iModules.cell
Cell
p567
(dp568
g4
I00
sg5
(I01
I01
tp569
sba(iModules.cell
Cell
p570
(dp571
g4
I00
sg5
(I01
I01
tp572
sba(iModules.cell
Cell
p573
(dp574
g4
I00
sg5
(I01
I01
tp575
sba(iModules.cell
Cell
p576
(dp577
g4
I00
sg5
(I01
I01
tp578
sba(iModules.cell
Cell
p579
(dp580
g4
I00
sg5
(I01
I01
tp581
sba(iModules.cell
Cell
p582
(dp583
g4
I00
sg5
(I01
I01
tp584
sba(iModules.cell
Cell
p585
(dp586
g4
I00
sg5
(I01
I01
tp587
sba(iModules.cell
Cell
p588
(dp589
g4
I00
sg5
(I01
I01
tp590
sba(iModules.cell
Cell
p591
(dp592
g4
I00
sg5
(I01
I01
tp593
sba(iModules.cell
Cell
p594
(dp595
g4
I00
sg5
(I01
I01
tp596
sba(iModules.cell
Cell
p597
(dp598
g4
I00
sg5
(I01
I01
tp599
sba(iModules.cell
Cell
p600
(dp601
g4
I00
sg5
(I01
I01
tp602
sba(iModules.cell
Cell
p603
(dp604
g4
I00
sg5
(I01
I01
tp605
sba(iModules.cell
Cell
p606
(dp607
g4
I00
sg5
(I01
I01
tp608
sba(iModules.cell
Cell
p609
(dp610
g4
I00
sg5
(I01
I01
tp611
sba(iModules.cell
Cell
p612
(dp613
g4
I00
sg5
(I01
I01
tp614
sba(iModules.cell
Cell
p615
(dp616
g4
I00
sg5
(I01
I01
tp617
sba(iModules.cell
Cell
p618
(dp619
g4
I00
sg5
(I01
I01
tp620
sba(iModules.cell
Cell
p621
(dp622
g4
I00
sg5
(I01
I01
tp623
sba(iModules.cell
Cell
p624
(dp625
g4
I00
sg5
(I01
I01
tp626
sba(iModules.cell
Cell
p627
(dp628
g4
I00
sg5
(I01
I01
tp629
sba(iModules.cell
Cell
p630
(dp631
g4
I00
sg5
(I01
I01
tp632
sba(iModules.cell
Cell
p633
(dp634
g4
I00
sg5
(I01
I01
tp635
sba(iModules.cell
Cell
p636
(dp637
g4
I00
sg5
(I01
I01
tp638
sba(iModules.cell
Cell
p639
(dp640
g4
I00
sg5
(I01
I01
tp641
sba(iModules.cell
Cell
p642
(dp643
g4
I00
sg5
(I01
I01
tp644
sba(iModules.cell
Cell
p645
(dp646
g4
I00
sg5
(I01
I01
tp647
sba(iModules.cell
Cell
p648
(dp649
g4
I00
sg5
(I01
I01
tp650
sba(iModules.cell
Cell
p651
(dp652
g4
I00
sg5
(I01
I01
tp653
sba(iModules.cell
Cell
p654
(dp655
g4
I00
sg5
(I01
I01
tp656
sba(iModules.cell
Cell
p657
(dp658
g4
I00
sg5
(I01
I01
tp659
sba(iModules.cell
Cell
p660
(dp661
g4
I00
sg5
(I01
I01
tp662
sba(iModules.cell
Cell
p663
(dp664
g4
I00
sg5
(I01
I01
tp665
sba(iModules.cell
Cell
p666
(dp667
g4
I00
sg5
(I01
I01
tp668
sba(iModules.cell
Cell
p669
(dp670
g4
I00
sg5
(I01
I01
tp671
sba(iModules.cell
Cell
p672
(dp673
g4
I00
sg5
(I01
I01
tp674
sba(iModules.cell
Cell
p675
(dp676
g4
I00
sg5
(I01
I01
tp677
sba(iModules.cell
Cell
p678
(dp679
g4
I00
sg5
(I00
I00
tp680
sba(iModules.cell
Cell
p681
(dp682
g4
I00
sg5
(I00
I00
tp683
sba(iModules.cell
Cell
p684
(dp685
g4
I00
sg5
(I00
I00
tp686
sba(iModules.cell
Cell
p687
(dp688
g4
I00
sg5
(I00
I00
tp689
sba(iModules.cell
Cell
p690
(dp691
g4
I00
sg5
(I00
I00
tp692
sba(iModules.cell
Cell
p693
(dp694
g4
I00
sg5
(I00
I00
tp695
sba(iModules.cell
Cell
p696
(dp697
g4
I00
sg5
(I00
I00
tp698
sba(iModules.cell
Cell
p699
(dp700
g4
I00
sg5
(I00
I00
tp701
sba(iModules.cell
Cell
p702
(dp703
g4
I00
sg5
(I00
I00
tp704
sba(iModules.cell
Cell
p705
(dp706
g4
I00
sg5
(I00
I00
tp707
sba(iModules.cell
Cell
p708
(dp709
g4
I00
sg5
(I00
I00
tp710
sba(iModules.cell
Cell
p711
(dp712
g4
I00
sg5
(I00
I00
tp713
sba(iModules.cell
Cell
p714
(dp715
g4
I00
sg5
(I00
I00
tp716
sba(iModules.cell
Cell
p717
(dp718
g4
I00
sg5
(I00
I00
tp719
sba(iModules.cell
Cell
p720
(dp721
g4
I00
sg5
(I00
I00
tp722
sba(iModules.cell
Cell
p723
(dp724
g4
I00
sg5
(I00
I00
tp725
sba(iModules.cell
Cell
p726
(dp727
g4
I00
sg5
(I00
I00
tp728
sba(iModules.cell
Cell
p729
(dp730
g4
I00
sg5
(I00
I00
tp731
sba(iModules.cell
Cell
p732
(dp733
g4
I00
sg5
(I00
I00
tp734
sba(iModules.cell
Cell
p735
(dp736
g5
(I00
I00
tp737
sbaa(lp738
(iModules.cell
Cell
p739
(dp740
g4
I00
sg5
(I00
I00
tp741
sba(iModules.cell
Cell
p742
(dp743
g4
I01
sg255
I01
sg5
(I00
I00
tp744
sba(iModules.cell
Cell
p745
(dp746
g4
I01
sg255
I01
sg5
(I01
I01
tp747
sba(iModules.cell
Cell
p748
(dp749
g4
I01
sg255
I01
sg5
(I01
I01
tp750
sba(iModules.cell
Cell
p751
(dp752
g4
I01
sg255
I01
sg5
(I01
I01
tp753
sba(iModules.cell
Cell
p754
(dp755
g4
I01
sg255
I01
sg5
(I01
I01
tp756
sba(iModules.cell
Cell
p757
(dp758
g4
I01
sg255
I01
sg5
(I01
I01
tp759
sba(iModules.cell
Cell
p760
(dp761
g4
I01
sg255
I01
sg5
(I01
I01
tp762
sba(iModules.cell
Cell
p763
(dp764
g4
I01
sg255
I01
sg5
(I01
I01
tp765
sba(iModules.cell
Cell
p766
(dp767
g4
I01
sg255
I01
sg5
(I01
I01
tp768
sba(iModules.cell
Cell
p769
(dp770
g4
I01
sg255
I01
sg5
(I01
I01
tp771
sba(iModules.cell
Cell
p772
(dp773
g4
I01
sg255
I01
sg5
(I01
I01
tp774
sba(iModules.cell
Cell
p775
(dp776
g4
I01
sg255
I01
sg5
(I01
I01
tp777
sba(iModules.cell
Cell
p778
(dp779
g4
I01
sg255
I01
sg5
(I01
I01
tp780
sba(iModules.cell
Cell
p781
(dp782
g4
I01
sg255
I01
sg5
(I01
I01
tp783
sba(iModules.cell
Cell
p784
(dp785
g4
I00
sg5
(I01
I01
tp786
sba(iModules.cell
Cell
p787
(dp788
g4
I00
sg5
(I01
I01
tp789
sba(iModules.cell
Cell
p790
(dp791
g4
I00
sg5
(I01
I01
tp792
sba(iModules.cell
Cell
p793
(dp794
g4
I00
sg5
(I01
I01
tp795
sba(iModules.cell
Cell
p796
(dp797
g4
I00
sg5
(I01
I01
tp798
sba(iModules.cell
Cell
p799
(dp800
g4
I00
sg5
(I01
I01
tp801
sba(iModules.cell
Cell
p802
(dp803
g4
I00
sg5
(I01
I01
tp804
sba(iModules.cell
Cell
p805
(dp806
g4
I00
sg5
(I01
I01
tp807
sba(iModules.cell
Cell
p808
(dp809
g4
I00
sg5
(I01
I01
tp810
sba(iModules.cell
Cell
p811
(dp812
g4
I00
sg5
(I01
I01
tp813
sba(iModules.cell
Cell
p814
(dp815
g4
I00
sg5
(I01
I01
tp816
sba(iModules.cell
Cell
p817
(dp818
g4
I00
sg5
(I01
I01
tp819
sba(iModules.cell
Cell
p820
(dp821
g4
I00
sg5
(I01
I01
tp822
sba(iModules.cell
Cell
p823
(dp824
g4
I00
sg5
(I01
I01
tp825
sba(iModules.cell
Cell
p826
(dp827
g4
I00
sg5
(I01
I01
tp828
sba(iModules.cell
Cell
p829
(dp830
g4
I00
sg5
(I01
I01
tp831
sba(iModules.cell
Cell
p832
(dp833
g4
I00
sg5
(I01
I01
tp834
sba(iModules.cell
Cell
p835
(dp836
g4
I00
sg5
(I01
I01
tp837
sba(iModules.cell
Cell
p838
(dp839
g4
I00
sg5
(I01
I01
tp840
sba(iModules.cell
Cell
p841
(dp842
g4
I00
sg5
(I01
I01
tp843
sba(iModules.cell
Cell
p844
(dp845
g4
I00
sg5
(I01
I01
tp846
sba(iModules.cell
Cell
p847
(dp848
g4
I00
sg5
(I01
I01
tp849
sba(iModules.cell
Cell
p850
(dp851
g4
I00
sg5
(I01
I01
tp852
sba(iModules.cell
Cell
p853
(dp854
g4
I00
sg5
(I01
I01
tp855
sba(iModules.cell
Cell
p856
(dp857
g4
I00
sg5
(I01
I01
tp858
sba(iModules.cell
Cell
p859
(dp860
g4
I00
sg5
(I01
I01
tp861
sba(iModules.cell
Cell
p862
(dp863
g4
I00
sg5
(I01
I01
tp864
sba(iModules.cell
Cell
p865
(dp866
g4
I00
sg5
(I01
I01
tp867
sba(iModules.cell
Cell
p868
(dp869
g4
I00
sg5
(I01
I01
tp870
sba(iModules.cell
Cell
p871
(dp872
g4
I00
sg5
(I01
I01
tp873
sba(iModules.cell
Cell
p874
(dp875
g4
I00
sg5
(I01
I01
tp876
sba(iModules.cell
Cell
p877
(dp878
g4
I00
sg5
(I01
I01
tp879
sba(iModules.cell
Cell
p880
(dp881
g4
I00
sg5
(I01
I01
tp882
sba(iModules.cell
Cell
p883
(dp884
g4
I00
sg5
(I01
I01
tp885
sba(iModules.cell
Cell
p886
(dp887
g4
I00
sg5
(I01
I01
tp888
sba(iModules.cell
Cell
p889
(dp890
g4
I00
sg5
(I01
I01
tp891
sba(iModules.cell
Cell
p892
(dp893
g4
I00
sg5
(I01
I01
tp894
sba(iModules.cell
Cell
p895
(dp896
g4
I00
sg5
(I01
I01
tp897
sba(iModules.cell
Cell
p898
(dp899
g4
I00
sg5
(I01
I01
tp900
sba(iModules.cell
Cell
p901
(dp902
g4
I00
sg5
(I01
I01
tp903
sba(iModules.cell
Cell
p904
(dp905
g4
I00
sg5
(I01
I01
tp906
sba(iModules.cell
Cell
p907
(dp908
g4
I00
sg5
(I01
I01
tp909
sba(iModules.cell
Cell
p910
(dp911
g4
I00
sg5
(I01
I01
tp912
sba(iModules.cell
Cell
p913
(dp914
g4
I00
sg5
(I01
I01
tp915
sba(iModules.cell
Cell
p916
(dp917
g4
I00
sg5
(I01
I01
tp918
sba(iModules.cell
Cell
p919
(dp920
g4
I00
sg5
(I01
I01
tp921
sba(iModules.cell
Cell
p922
(dp923
g4
I00
sg5
(I00
I00
tp924
sba(iModules.cell
Cell
p925
(dp926
g4
I00
sg5
(I00
I00
tp927
sba(iModules.cell
Cell
p928
(dp929
g4
I00
sg5
(I00
I00
tp930
sba(iModules.cell
Cell
p931
(dp932
g4
I00
sg5
(I00
I00
tp933
sba(iModules.cell
Cell
p934
(dp935
g4
I00
sg5
(I00
I00
tp936
sba(iModules.cell
Cell
p937
(dp938
g4
I00
sg5
(I00
I00
tp939
sba(iModules.cell
Cell
p940
(dp941
g4
I00
sg5
(I00
I00
tp942
sba(iModules.cell
Cell
p943
(dp944
g4
I00
sg5
(I00
I00
tp945
sba(iModules.cell
Cell
p946
(dp947
g4
I00
sg5
(I00
I00
tp948
sba(iModules.cell
Cell
p949
(dp950
g4
I00
sg5
(I00
I00
tp951
sba(iModules.cell
Cell
p952
(dp953
g4
I00
sg5
(I00
I00
tp954
sba(iModules.cell
Cell
p955
(dp956
g4
I00
sg5
(I00
I00
tp957
sba(iModules.cell
Cell
p958
(dp959
g4
I00
sg5
(I00
I00
tp960
sba(iModules.cell
Cell
p961
(dp962
g4
I00
sg5
(I00
I00
tp963
sba(iModules.cell
Cell
p964
(dp965
g4
I00
sg5
(I00
I00
tp966
sba(iModules.cell
Cell
p967
(dp968
g4
I00
sg5
(I00
I00
tp969
sba(iModules.cell
Cell
p970
(dp971
g4
I00
sg5
(I00
I00
tp972
sba(iModules.cell
Cell
p973
(dp974
g4
I00
sg5
(I00
I00
tp975
sba(iModules.cell
Cell
p976
(dp977
g4
I00
sg5
(I00
I00
tp978
sba(iModules.cell
Cell
p979
(dp980
g5
(I00
I00
tp981
sbaa(lp982
(iModules.cell
Cell
p983
(dp984
g4
I00
sg5
(I00
I00
tp985
sba(iModules.cell
Cell
p986
(dp987
g4
I01
sg255
I01
sg5
(I00
I00
tp988
sba(iModules.cell
Cell
p989
(dp990
g4
I01
sg255
I01
sg5
(I01
I01
tp991
sba(iModules.cell
Cell
p992
(dp993
g4
I01
sg255
I01
sg5
(I01
I01
tp994
sba(iModules.cell
Cell
p995
(dp996
g4
I01
sg255
I01
sg5
(I01
I01
tp997
sba(iModules.cell
Cell
p998
(dp999
g4
I01
sg255
I01
sg5
(I01
I01
tp1000
sba(iModules.cell
Cell
p1001
(dp1002
g4
I01
sg255
I01
sg5
(I01
I01
tp1003
sba(iModules.cell
Cell
p1004
(dp1005
g4
I01
sg255
I01
sg5
(I01
I01
tp1006
sba(iModules.cell
Cell
p1007
(dp1008
g4
I01
sg255
I01
sg5
(I01
I01
tp1009
sba(iModules.cell
Cell
p1010
(dp1011
g4
I01
sg255
I01
sg5
(I01
I01
tp1012
sba(iModules.cell
Cell
p1013
(dp1014
g4
I01
sg255
I01
sg5
(I01
I01
tp1015
sba(iModules.cell
Cell
p1016
(dp1017
g4
I01
sg255
I01
sg5
(I01
I01
tp1018
sba(iModules.cell
Cell
p1019
(dp1020
g4
I01
sg255
I01
sg5
(I01
I01
tp1021
sba(iModules.cell
Cell
p1022
(dp1023
g4
I01
sg255
I01
sg5
(I01
I01
tp1024
sba(iModules.cell
Cell
p1025
(dp1026
g4
I01
sg255
I01
sg5
(I01
I01
tp1027
sba(iModules.cell
Cell
p1028
(dp1029
g4
I00
sg5
(I01
I01
tp1030
sba(iModules.cell
Cell
p1031
(dp1032
g4
I00
sg5
(I01
I01
tp1033
sba(iModules.cell
Cell
p1034
(dp1035
g4
I00
sg5
(I01
I01
tp1036
sba(iModules.cell
Cell
p1037
(dp1038
g4
I00
sg5
(I01
I01
tp1039
sba(iModules.cell
Cell
p1040
(dp1041
g4
I00
sg5
(I01
I01
tp1042
sba(iModules.cell
Cell
p1043
(dp1044
g4
I00
sg5
(I01
I01
tp1045
sba(iModules.cell
Cell
p1046
(dp1047
g4
I00
sg5
(I01
I01
tp1048
sba(iModules.cell
Cell
p1049
(dp1050
g4
I00
sg5
(I01
I01
tp1051
sba(iModules.cell
Cell
p1052
(dp1053
g4
I00
sg5
(I01
I01
tp1054
sba(iModules.cell
Cell
p1055
(dp1056
g4
I00
sg5
(I01
I01
tp1057
sba(iModules.cell
Cell
p1058
(dp1059
g4
I00
sg5
(I01
I01
tp1060
sba(iModules.cell
Cell
p1061
(dp1062
g4
I00
sg5
(I01
I01
tp1063
sba(iModules.cell
Cell
p1064
(dp1065
g4
I00
sg5
(I01
I01
tp1066
sba(iModules.cell
Cell
p1067
(dp1068
g4
I00
sg5
(I01
I01
tp1069
sba(iModules.cell
Cell
p1070
(dp1071
g4
I00
sg5
(I01
I01
tp1072
sba(iModules.cell
Cell
p1073
(dp1074
g4
I00
sg5
(I01
I01
tp1075
sba(iModules.cell
Cell
p1076
(dp1077
g4
I00
sg5
(I01
I01
tp1078
sba(iModules.cell
Cell
p1079
(dp1080
g4
I00
sg5
(I01
I01
tp1081
sba(iModules.cell
Cell
p1082
(dp1083
g4
I00
sg5
(I01
I01
tp1084
sba(iModules.cell
Cell
p1085
(dp1086
g4
I00
sg5
(I01
I01
tp1087
sba(iModules.cell
Cell
p1088
(dp1089
g4
I00
sg5
(I01
I01
tp1090
sba(iModules.cell
Cell
p1091
(dp1092
g4
I00
sg5
(I01
I01
tp1093
sba(iModules.cell
Cell
p1094
(dp1095
g4
I00
sg5
(I01
I01
tp1096
sba(iModules.cell
Cell
p1097
(dp1098
g4
I00
sg5
(I01
I01
tp1099
sba(iModules.cell
Cell
p1100
(dp1101
g4
I00
sg5
(I01
I01
tp1102
sba(iModules.cell
Cell
p1103
(dp1104
g4
I00
sg5
(I01
I01
tp1105
sba(iModules.cell
Cell
p1106
(dp1107
g4
I00
sg5
(I01
I01
tp1108
sba(iModules.cell
Cell
p1109
(dp1110
g4
I00
sg5
(I01
I01
tp1111
sba(iModules.cell
Cell
p1112
(dp1113
g4
I00
sg5
(I01
I01
tp1114
sba(iModules.cell
Cell
p1115
(dp1116
g4
I00
sg5
(I01
I01
tp1117
sba(iModules.cell
Cell
p1118
(dp1119
g4
I00
sg5
(I01
I01
tp1120
sba(iModules.cell
Cell
p1121
(dp1122
g4
I00
sg5
(I01
I01
tp1123
sba(iModules.cell
Cell
p1124
(dp1125
g4
I00
sg5
(I01
I01
tp1126
sba(iModules.cell
Cell
p1127
(dp1128
g4
I00
sg5
(I01
I01
tp1129
sba(iModules.cell
Cell
p1130
(dp1131
g4
I00
sg5
(I01
I01
tp1132
sba(iModules.cell
Cell
p1133
(dp1134
g4
I00
sg5
(I01
I01
tp1135
sba(iModules.cell
Cell
p1136
(dp1137
g4
I00
sg5
(I01
I01
tp1138
sba(iModules.cell
Cell
p1139
(dp1140
g4
I00
sg5
(I01
I01
tp1141
sba(iModules.cell
Cell
p1142
(dp1143
g4
I00
sg5
(I01
I01
tp1144
sba(iModules.cell
Cell
p1145
(dp1146
g4
I00
sg5
(I01
I01
tp1147
sba(iModules.cell
Cell
p1148
(dp1149
g4
I00
sg5
(I01
I01
tp1150
sba(iModules.cell
Cell
p1151
(dp1152
g4
I00
sg5
(I01
I01
tp1153
sba(iModules.cell
Cell
p1154
(dp1155
g4
I00
sg5
(I01
I01
tp1156
sba(iModules.cell
Cell
p1157
(dp1158
g4
I00
sg5
(I01
I01
tp1159
sba(iModules.cell
Cell
p1160
(dp1161
g4
I00
sg5
(I01
I01
tp1162
sba(iModules.cell
Cell
p1163
(dp1164
g4
I00
sg5
(I01
I01
tp1165
sba(iModules.cell
Cell
p1166
(dp1167
g4
I00
sg5
(I00
I00
tp1168
sba(iModules.cell
Cell
p1169
(dp1170
g4
I00
sg5
(I00
I00
tp1171
sba(iModules.cell
Cell
p1172
(dp1173
g4
I00
sg5
(I00
I00
tp1174
sba(iModules.cell
Cell
p1175
(dp1176
g4
I00
sg5
(I00
I00
tp1177
sba(iModules.cell
Cell
p1178
(dp1179
g4
I00
sg5
(I00
I00
tp1180
sba(iModules.cell
Cell
p1181
(dp1182
g4
I00
sg5
(I00
I00
tp1183
sba(iModules.cell
Cell
p1184
(dp1185
g4
I00
sg5
(I00
I00
tp1186
sba(iModules.cell
Cell
p1187
(dp1188
g4
I00
sg5
(I00
I00
tp1189
sba(iModules.cell
Cell
p1190
(dp1191
g4
I00
sg5
(I00
I00
tp1192
sba(iModules.cell
Cell
p1193
(dp1194
g4
I00
sg5
(I00
I00
tp1195
sba(iModules.cell
Cell
p1196
(dp1197
g4
I00
sg5
(I00
I00
tp1198
sba(iModules.cell
Cell
p1199
(dp1200
g4
I00
sg5
(I00
I00
tp1201
sba(iModules.cell
Cell
p1202
(dp1203
g4
I00
sg5
(I00
I00
tp1204
sba(iModules.cell
Cell
p1205
(dp1206
g4
I00
sg5
(I00
I00
tp1207
sba(iModules.cell
Cell
p1208
(dp1209
g4
I00
sg5
(I00
I00
tp1210
sba(iModules.cell
Cell
p1211
(dp1212
g4
I00
sg5
(I00
I00
tp1213
sba(iModules.cell
Cell
p1214
(dp1215
g4
I00
sg5
(I00
I00
tp1216
sba(iModules.cell
Cell
p1217
(dp1218
g4
I00
sg5
(I00
I00
tp1219
sba(iModules.cell
Cell
p1220
(dp1221
g4
I00
sg5
(I00
I00
tp1222
sba(iModules.cell
Cell
p1223
(dp1224
g5
(I00
I00
tp1225
sbaa(lp1226
(iModules.cell
Cell
p1227
(dp1228
g4
I00
sg5
(I00
I00
tp1229
sba(iModules.cell
Cell
p1230
(dp1231
g4
I01
sg255
I01
sg5
(I00
I00
tp1232
sba(iModules.cell
Cell
p1233
(dp1234
g4
I01
sg255
I01
sg5
(I01
I01
tp1235
sba(iModules.cell
Cell
p1236
(dp1237
g4
I01
sg255
I01
sg5
(I01
I01
tp1238
sba(iModules.cell
Cell
p1239
(dp1240
g4
I01
sg255
I01
sg5
(I01
I01
tp1241
sba(iModules.cell
Cell
p1242
(dp1243
g4
I01
sg255
I01
sg5
(I01
I01
tp1244
sba(iModules.cell
Cell
p1245
(dp1246
g4
I01
sg255
I01
sg5
(I01
I01
tp1247
sba(iModules.cell
Cell
p1248
(dp1249
g4
I01
sg255
I01
sg5
(I01
I01
tp1250
sba(iModules.cell
Cell
p1251
(dp1252
g4
I01
sg255
I01
sg5
(I01
I01
tp1253
sba(iModules.cell
Cell
p1254
(dp1255
g4
I01
sg255
I01
sg5
(I01
I01
tp1256
sba(iModules.cell
Cell
p1257
(dp1258
g4
I01
sg255
I01
sg5
(I01
I01
tp1259
sba(iModules.cell
Cell
p1260
(dp1261
g4
I01
sg255
I01
sg5
(I01
I01
tp1262
sba(iModules.cell
Cell
p1263
(dp1264
g4
I01
sg255
I01
sg5
(I01
I01
tp1265
sba(iModules.cell
Cell
p1266
(dp1267
g4
I01
sg255
I01
sg5
(I01
I01
tp1268
sba(iModules.cell
Cell
p1269
(dp1270
g4
I01
sg255
I01
sg5
(I01
I01
tp1271
sba(iModules.cell
Cell
p1272
(dp1273
g4
I00
sg5
(I01
I01
tp1274
sba(iModules.cell
Cell
p1275
(dp1276
g4
I00
sg5
(I01
I01
tp1277
sba(iModules.cell
Cell
p1278
(dp1279
g4
I00
sg5
(I01
I01
tp1280
sba(iModules.cell
Cell
p1281
(dp1282
g4
I00
sg5
(I01
I01
tp1283
sba(iModules.cell
Cell
p1284
(dp1285
g4
I00
sg5
(I01
I01
tp1286
sba(iModules.cell
Cell
p1287
(dp1288
g4
I00
sg5
(I01
I01
tp1289
sba(iModules.cell
Cell
p1290
(dp1291
g4
I00
sg5
(I01
I01
tp1292
sba(iModules.cell
Cell
p1293
(dp1294
g4
I00
sg5
(I01
I01
tp1295
sba(iModules.cell
Cell
p1296
(dp1297
g4
I00
sg5
(I01
I01
tp1298
sba(iModules.cell
Cell
p1299
(dp1300
g4
I00
sg5
(I01
I01
tp1301
sba(iModules.cell
Cell
p1302
(dp1303
g4
I00
sg5
(I01
I01
tp1304
sba(iModules.cell
Cell
p1305
(dp1306
g4
I00
sg5
(I01
I01
tp1307
sba(iModules.cell
Cell
p1308
(dp1309
g4
I00
sg5
(I01
I01
tp1310
sba(iModules.cell
Cell
p1311
(dp1312
g4
I00
sg5
(I01
I01
tp1313
sba(iModules.cell
Cell
p1314
(dp1315
g4
I00
sg5
(I01
I01
tp1316
sba(iModules.cell
Cell
p1317
(dp1318
g4
I00
sg5
(I01
I01
tp1319
sba(iModules.cell
Cell
p1320
(dp1321
g4
I00
sg5
(I01
I01
tp1322
sba(iModules.cell
Cell
p1323
(dp1324
g4
I00
sg5
(I01
I01
tp1325
sba(iModules.cell
Cell
p1326
(dp1327
g4
I00
sg5
(I01
I01
tp1328
sba(iModules.cell
Cell
p1329
(dp1330
g4
I00
sg5
(I01
I01
tp1331
sba(iModules.cell
Cell
p1332
(dp1333
g4
I00
sg5
(I01
I01
tp1334
sba(iModules.cell
Cell
p1335
(dp1336
g4
I00
sg5
(I01
I01
tp1337
sba(iModules.cell
Cell
p1338
(dp1339
g4
I00
sg5
(I01
I01
tp1340
sba(iModules.cell
Cell
p1341
(dp1342
g4
I00
sg5
(I01
I01
tp1343
sba(iModules.cell
Cell
p1344
(dp1345
g4
I00
sg5
(I01
I01
tp1346
sba(iModules.cell
Cell
p1347
(dp1348
g4
I00
sg5
(I01
I01
tp1349
sba(iModules.cell
Cell
p1350
(dp1351
g4
I00
sg5
(I01
I01
tp1352
sba(iModules.cell
Cell
p1353
(dp1354
g4
I00
sg5
(I01
I01
tp1355
sba(iModules.cell
Cell
p1356
(dp1357
g4
I00
sg5
(I01
I01
tp1358
sba(iModules.cell
Cell
p1359
(dp1360
g4
I00
sg5
(I01
I01
tp1361
sba(iModules.cell
Cell
p1362
(dp1363
g4
I00
sg5
(I01
I01
tp1364
sba(iModules.cell
Cell
p1365
(dp1366
g4
I00
sg5
(I01
I01
tp1367
sba(iModules.cell
Cell
p1368
(dp1369
g4
I00
sg5
(I01
I01
tp1370
sba(iModules.cell
Cell
p1371
(dp1372
g4
I00
sg5
(I01
I01
tp1373
sba(iModules.cell
Cell
p1374
(dp1375
g4
I00
sg5
(I01
I01
tp1376
sba(iModules.cell
Cell
p1377
(dp1378
g4
I00
sg5
(I01
I01
tp1379
sba(iModules.cell
Cell
p1380
(dp1381
g4
I00
sg5
(I01
I01
tp1382
sba(iModules.cell
Cell
p1383
(dp1384
g4
I00
sg5
(I01
I01
tp1385
sba(iModules.cell
Cell
p1386
(dp1387
g4
I00
sg5
(I01
I01
tp1388
sba(iModules.cell
Cell
p1389
(dp1390
g4
I00
sg5
(I01
I01
tp1391
sba(iModules.cell
Cell
p1392
(dp1393
g4
I00
sg5
(I01
I01
tp1394
sba(iModules.cell
Cell
p1395
(dp1396
g4
I00
sg5
(I01
I01
tp1397
sba(iModules.cell
Cell
p1398
(dp1399
g4
I00
sg5
(I01
I01
tp1400
sba(iModules.cell
Cell
p1401
(dp1402
g4
I00
sg5
(I01
I01
tp1403
sba(iModules.cell
Cell
p1404
(dp1405
g4
I00
sg5
(I01
I01
tp1406
sba(iModules.cell
Cell
p1407
(dp1408
g4
I00
sg5
(I01
I01
tp1409
sba(iModules.cell
Cell
p1410
(dp1411
g4
I00
sg5
(I00
I00
tp1412
sba(iModules.cell
Cell
p1413
(dp1414
g4
I00
sg5
(I00
I00
tp1415
sba(iModules.cell
Cell
p1416
(dp1417
g4
I00
sg5
(I00
I00
tp1418
sba(iModules.cell
Cell
p1419
(dp1420
g4
I00
sg5
(I00
I00
tp1421
sba(iModules.cell
Cell
p1422
(dp1423
g4
I00
sg5
(I00
I00
tp1424
sba(iModules.cell
Cell
p1425
(dp1426
g4
I00
sg5
(I00
I00
tp1427
sba(iModules.cell
Cell
p1428
(dp1429
g4
I00
sg5
(I00
I00
tp1430
sba(iModules.cell
Cell
p1431
(dp1432
g4
I00
sg5
(I00
I00
tp1433
sba(iModules.cell
Cell
p1434
(dp1435
g4
I00
sg5
(I00
I00
tp1436
sba(iModules.cell
Cell
p1437
(dp1438
g4
I00
sg5
(I00
I00
tp1439
sba(iModules.cell
Cell
p1440
(dp1441
g4
I00
sg5
(I00
I00
tp1442
sba(iModules.cell
Cell
p1443
(dp1444
g4
I00
sg5
(I00
I00
tp1445
sba(iModules.cell
Cell
p1446
(dp1447
g4
I00
sg5
(I00
I00
tp1448
sba(iModules.cell
Cell
p1449
(dp1450
g4
I00
sg5
(I00
I00
tp1451
sba(iModules.cell
Cell
p1452
(dp1453
g4
I00
sg5
(I00
I00
tp1454
sba(iModules.cell
Cell
p1455
(dp1456
g4
I00
sg5
(I00
I00
tp1457
sba(iModules.cell
Cell
p1458
(dp1459
g4
I00
sg5
(I00
I00
tp1460
sba(iModules.cell
Cell
p1461
(dp1462
g4
I00
sg5
(I00
I00
tp1463
sba(iModules.cell
Cell
p1464
(dp1465
g4
I00
sg5
(I00
I00
tp1466
sba(iModules.cell
Cell
p1467
(dp1468
g5
(I00
I00
tp1469
sbaa(lp1470
(iModules.cell
Cell
p1471
(dp1472
g4
I00
sg5
(I00
I00
tp1473
sba(iModules.cell
Cell
p1474
(dp1475
g4
I01
sg255
I01
sg5
(I00
I00
tp1476
sba(iModules.cell
Cell
p1477
(dp1478
g4
I01
sg255
I01
sg5
(I01
I01
tp1479
sba(iModules.cell
Cell
p1480
(dp1481
g4
I01
sg255
I01
sg5
(I01
I01
tp1482
sba(iModules.cell
Cell
p1483
(dp1484
g4
I01
sg255
I01
sg5
(I01
I01
tp1485
sba(iModules.cell
Cell
p1486
(dp1487
g4
I01
sg255
I01
sg5
(I01
I01
tp1488
sba(iModules.cell
Cell
p1489
(dp1490
g4
I01
sg255
I01
sg5
(I01
I01
tp1491
sba(iModules.cell
Cell
p1492
(dp1493
g4
I01
sg255
I01
sg5
(I01
I01
tp1494
sba(iModules.cell
Cell
p1495
(dp1496
g4
I01
sg255
I01
sg5
(I01
I01
tp1497
sba(iModules.cell
Cell
p1498
(dp1499
g4
I01
sg255
I01
sg5
(I01
I01
tp1500
sba(iModules.cell
Cell
p1501
(dp1502
g4
I01
sg255
I01
sg5
(I01
I01
tp1503
sba(iModules.cell
Cell
p1504
(dp1505
g4
I01
sg255
I01
sg5
(I01
I01
tp1506
sba(iModules.cell
Cell
p1507
(dp1508
g4
I01
sg255
I01
sg5
(I01
I01
tp1509
sba(iModules.cell
Cell
p1510
(dp1511
g4
I01
sg255
I01
sg5
(I01
I01
tp1512
sba(iModules.cell
Cell
p1513
(dp1514
g4
I01
sg255
I01
sg5
(I01
I01
tp1515
sba(iModules.cell
Cell
p1516
(dp1517
g4
I00
sg5
(I01
I01
tp1518
sba(iModules.cell
Cell
p1519
(dp1520
g4
I00
sg5
(I01
I01
tp1521
sba(iModules.cell
Cell
p1522
(dp1523
g4
I00
sg5
(I01
I01
tp1524
sba(iModules.cell
Cell
p1525
(dp1526
g4
I00
sg5
(I01
I01
tp1527
sba(iModules.cell
Cell
p1528
(dp1529
g4
I00
sg5
(I01
I01
tp1530
sba(iModules.cell
Cell
p1531
(dp1532
g4
I00
sg5
(I01
I01
tp1533
sba(iModules.cell
Cell
p1534
(dp1535
g4
I00
sg5
(I01
I01
tp1536
sba(iModules.cell
Cell
p1537
(dp1538
g4
I00
sg5
(I01
I01
tp1539
sba(iModules.cell
Cell
p1540
(dp1541
g4
I00
sg5
(I01
I01
tp1542
sba(iModules.cell
Cell
p1543
(dp1544
g4
I00
sg5
(I01
I01
tp1545
sba(iModules.cell
Cell
p1546
(dp1547
g4
I00
sg5
(I01
I01
tp1548
sba(iModules.cell
Cell
p1549
(dp1550
g4
I00
sg5
(I01
I01
tp1551
sba(iModules.cell
Cell
p1552
(dp1553
g4
I00
sg5
(I01
I01
tp1554
sba(iModules.cell
Cell
p1555
(dp1556
g4
I00
sg5
(I01
I01
tp1557
sba(iModules.cell
Cell
p1558
(dp1559
g4
I00
sg5
(I01
I01
tp1560
sba(iModules.cell
Cell
p1561
(dp1562
g4
I00
sg5
(I01
I01
tp1563
sba(iModules.cell
Cell
p1564
(dp1565
g4
I00
sg5
(I01
I01
tp1566
sba(iModules.cell
Cell
p1567
(dp1568
g4
I00
sg5
(I01
I01
tp1569
sba(iModules.cell
Cell
p1570
(dp1571
g4
I00
sg5
(I01
I01
tp1572
sba(iModules.cell
Cell
p1573
(dp1574
g4
I00
sg5
(I01
I01
tp1575
sba(iModules.cell
Cell
p1576
(dp1577
g4
I00
sg5
(I01
I01
tp1578
sba(iModules.cell
Cell
p1579
(dp1580
g4
I00
sg5
(I01
I01
tp1581
sba(iModules.cell
Cell
p1582
(dp1583
g4
I00
sg5
(I01
I01
tp1584
sba(iModules.cell
Cell
p1585
(dp1586
g4
I00
sg5
(I01
I01
tp1587
sba(iModules.cell
Cell
p1588
(dp1589
g4
I00
sg5
(I01
I01
tp1590
sba(iModules.cell
Cell
p1591
(dp1592
g4
I00
sg5
(I01
I01
tp1593
sba(iModules.cell
Cell
p1594
(dp1595
g4
I00
sg5
(I01
I01
tp1596
sba(iModules.cell
Cell
p1597
(dp1598
g4
I00
sg5
(I01
I01
tp1599
sba(iModules.cell
Cell
p1600
(dp1601
g4
I00
sg5
(I01
I01
tp1602
sba(iModules.cell
Cell
p1603
(dp1604
g4
I00
sg5
(I01
I01
tp1605
sba(iModules.cell
Cell
p1606
(dp1607
g4
I00
sg5
(I01
I01
tp1608
sba(iModules.cell
Cell
p1609
(dp1610
g4
I00
sg5
(I01
I01
tp1611
sba(iModules.cell
Cell
p1612
(dp1613
g4
I00
sg5
(I01
I01
tp1614
sba(iModules.cell
Cell
p1615
(dp1616
g4
I00
sg5
(I01
I01
tp1617
sba(iModules.cell
Cell
p1618
(dp1619
g4
I00
sg5
(I01
I01
tp1620
sba(iModules.cell
Cell
p1621
(dp1622
g4
I00
sg5
(I01
I01
tp1623
sba(iModules.cell
Cell
p1624
(dp1625
g4
I00
sg5
(I01
I01
tp1626
sba(iModules.cell
Cell
p1627
(dp1628
g4
I00
sg5
(I01
I01
tp1629
sba(iModules.cell
Cell
p1630
(dp1631
g4
I00
sg5
(I01
I01
tp1632
sba(iModules.cell
Cell
p1633
(dp1634
g4
I00
sg5
(I01
I01
tp1635
sba(iModules.cell
Cell
p1636
(dp1637
g4
I00
sg5
(I01
I01
tp1638
sba(iModules.cell
Cell
p1639
(dp1640
g4
I00
sg5
(I01
I01
tp1641
sba(iModules.cell
Cell
p1642
(dp1643
g4
I00
sg5
(I01
I01
tp1644
sba(iModules.cell
Cell
p1645
(dp1646
g4
I00
sg5
(I01
I01
tp1647
sba(iModules.cell
Cell
p1648
(dp1649
g4
I00
sg5
(I01
I01
tp1650
sba(iModules.cell
Cell
p1651
(dp1652
g4
I00
sg5
(I01
I01
tp1653
sba(iModules.cell
Cell
p1654
(dp1655
g4
I00
sg5
(I00
I00
tp1656
sba(iModules.cell
Cell
p1657
(dp1658
g4
I00
sg5
(I00
I00
tp1659
sba(iModules.cell
Cell
p1660
(dp1661
g4
I00
sg5
(I00
I00
tp1662
sba(iModules.cell
Cell
p1663
(dp1664
g4
I00
sg5
(I00
I00
tp1665
sba(iModules.cell
Cell
p1666
(dp1667
g4
I00
sg5
(I00
I00
tp1668
sba(iModules.cell
Cell
p1669
(dp1670
g4
I00
sg5
(I00
I00
tp1671
sba(iModules.cell
Cell
p1672
(dp1673
g4
I00
sg5
(I00
I00
tp1674
sba(iModules.cell
Cell
p1675
(dp1676
g4
I00
sg5
(I00
I00
tp1677
sba(iModules.cell
Cell
p1678
(dp1679
g4
I00
sg5
(I00
I00
tp1680
sba(iModules.cell
Cell
p1681
(dp1682
g4
I00
sg5
(I00
I00
tp1683
sba(iModules.cell
Cell
p1684
(dp1685
g4
I00
sg5
(I00
I00
tp1686
sba(iModules.cell
Cell
p1687
(dp1688
g4
I00
sg5
(I00
I00
tp1689
sba(iModules.cell
Cell
p1690
(dp1691
g4
I00
sg5
(I00
I00
tp1692
sba(iModules.cell
Cell
p1693
(dp1694
g4
I00
sg5
(I00
I00
tp1695
sba(iModules.cell
Cell
p1696
(dp1697
g4
I00
sg5
(I00
I00
tp1698
sba(iModules.cell
Cell
p1699
(dp1700
g4
I00
sg5
(I00
I00
tp1701
sba(iModules.cell
Cell
p1702
(dp1703
g4
I00
sg5
(I00
I00
tp1704
sba(iModules.cell
Cell
p1705
(dp1706
g4
I00
sg5
(I00
I00
tp1707
sba(iModules.cell
Cell
p1708
(dp1709
g4
I00
sg5
(I00
I00
tp1710
sba(iModules.cell
Cell
p1711
(dp1712
g5
(I00
I00
tp1713
sbaa(lp1714
(iModules.cell
Cell
p1715
(dp1716
g4
I00
sg5
(I00
I00
tp1717
sba(iModules.cell
Cell
p1718
(dp1719
g4
I01
sg255
I01
sg5
(I00
I00
tp1720
sba(iModules.cell
Cell
p1721
(dp1722
g4
I01
sg255
I01
sg5
(I01
I01
tp1723
sba(iModules.cell
Cell
p1724
(dp1725
g4
I01
sg255
I01
sg5
(I01
I01
tp1726
sba(iModules.cell
Cell
p1727
(dp1728
g4
I01
sg255
I01
sg5
(I01
I01
tp1729
sba(iModules.cell
Cell
p1730
(dp1731
g4
I01
sg255
I01
sg5
(I01
I01
tp1732
sba(iModules.cell
Cell
p1733
(dp1734
g4
I01
sg255
I01
sg5
(I01
I01
tp1735
sba(iModules.cell
Cell
p1736
(dp1737
g4
I01
sg255
I01
sg5
(I01
I01
tp1738
sba(iModules.cell
Cell
p1739
(dp1740
g4
I01
sg255
I01
sg5
(I01
I01
tp1741
sba(iModules.cell
Cell
p1742
(dp1743
g4
I01
sg255
I01
sg5
(I01
I01
tp1744
sba(iModules.cell
Cell
p1745
(dp1746
g4
I01
sg255
I01
sg5
(I01
I01
tp1747
sba(iModules.cell
Cell
p1748
(dp1749
g4
I01
sg255
I01
sg5
(I01
I01
tp1750
sba(iModules.cell
Cell
p1751
(dp1752
g4
I01
sg255
I01
sg5
(I01
I01
tp1753
sba(iModules.cell
Cell
p1754
(dp1755
g4
I01
sg255
I01
sg5
(I01
I01
tp1756
sba(iModules.cell
Cell
p1757
(dp1758
g4
I01
sg255
I01
sg5
(I01
I01
tp1759
sba(iModules.cell
Cell
p1760
(dp1761
g4
I00
sg5
(I01
I01
tp1762
sba(iModules.cell
Cell
p1763
(dp1764
g4
I00
sg5
(I01
I01
tp1765
sba(iModules.cell
Cell
p1766
(dp1767
g4
I00
sg5
(I01
I01
tp1768
sba(iModules.cell
Cell
p1769
(dp1770
g4
I00
sg5
(I01
I01
tp1771
sba(iModules.cell
Cell
p1772
(dp1773
g4
I00
sg5
(I01
I01
tp1774
sba(iModules.cell
Cell
p1775
(dp1776
g4
I00
sg5
(I01
I01
tp1777
sba(iModules.cell
Cell
p1778
(dp1779
g4
I00
sg5
(I01
I01
tp1780
sba(iModules.cell
Cell
p1781
(dp1782
g4
I00
sg5
(I01
I01
tp1783
sba(iModules.cell
Cell
p1784
(dp1785
g4
I00
sg5
(I01
I01
tp1786
sba(iModules.cell
Cell
p1787
(dp1788
g4
I00
sg5
(I01
I01
tp1789
sba(iModules.cell
Cell
p1790
(dp1791
g4
I00
sg5
(I01
I01
tp1792
sba(iModules.cell
Cell
p1793
(dp1794
g4
I00
sg5
(I01
I01
tp1795
sba(iModules.cell
Cell
p1796
(dp1797
g4
I00
sg5
(I01
I01
tp1798
sba(iModules.cell
Cell
p1799
(dp1800
g4
I00
sg5
(I01
I01
tp1801
sba(iModules.cell
Cell
p1802
(dp1803
g4
I00
sg5
(I01
I01
tp1804
sba(iModules.cell
Cell
p1805
(dp1806
g4
I00
sg5
(I01
I01
tp1807
sba(iModules.cell
Cell
p1808
(dp1809
g4
I00
sg5
(I01
I01
tp1810
sba(iModules.cell
Cell
p1811
(dp1812
g4
I00
sg5
(I01
I01
tp1813
sba(iModules.cell
Cell
p1814
(dp1815
g4
I00
sg5
(I01
I01
tp1816
sba(iModules.cell
Cell
p1817
(dp1818
g4
I00
sg5
(I01
I01
tp1819
sba(iModules.cell
Cell
p1820
(dp1821
g4
I00
sg5
(I01
I01
tp1822
sba(iModules.cell
Cell
p1823
(dp1824
g4
I00
sg5
(I01
I01
tp1825
sba(iModules.cell
Cell
p1826
(dp1827
g4
I00
sg5
(I01
I01
tp1828
sba(iModules.cell
Cell
p1829
(dp1830
g4
I00
sg5
(I01
I01
tp1831
sba(iModules.cell
Cell
p1832
(dp1833
g4
I00
sg5
(I01
I01
tp1834
sba(iModules.cell
Cell
p1835
(dp1836
g4
I00
sg5
(I01
I01
tp1837
sba(iModules.cell
Cell
p1838
(dp1839
g4
I00
sg5
(I01
I01
tp1840
sba(iModules.cell
Cell
p1841
(dp1842
g4
I00
sg5
(I01
I01
tp1843
sba(iModules.cell
Cell
p1844
(dp1845
g4
I00
sg5
(I01
I01
tp1846
sba(iModules.cell
Cell
p1847
(dp1848
g4
I00
sg5
(I01
I01
tp1849
sba(iModules.cell
Cell
p1850
(dp1851
g4
I00
sg5
(I01
I01
tp1852
sba(iModules.cell
Cell
p1853
(dp1854
g4
I00
sg5
(I01
I01
tp1855
sba(iModules.cell
Cell
p1856
(dp1857
g4
I00
sg5
(I01
I01
tp1858
sba(iModules.cell
Cell
p1859
(dp1860
g4
I00
sg5
(I01
I01
tp1861
sba(iModules.cell
Cell
p1862
(dp1863
g4
I00
sg5
(I01
I01
tp1864
sba(iModules.cell
Cell
p1865
(dp1866
g4
I00
sg5
(I01
I01
tp1867
sba(iModules.cell
Cell
p1868
(dp1869
g4
I00
sg5
(I01
I01
tp1870
sba(iModules.cell
Cell
p1871
(dp1872
g4
I00
sg5
(I01
I01
tp1873
sba(iModules.cell
Cell
p1874
(dp1875
g4
I00
sg5
(I01
I01
tp1876
sba(iModules.cell
Cell
p1877
(dp1878
g4
I00
sg5
(I01
I01
tp1879
sba(iModules.cell
Cell
p1880
(dp1881
g4
I00
sg5
(I01
I01
tp1882
sba(iModules.cell
Cell
p1883
(dp1884
g4
I00
sg5
(I01
I01
tp1885
sba(iModules.cell
Cell
p1886
(dp1887
g4
I00
sg5
(I01
I01
tp1888
sba(iModules.cell
Cell
p1889
(dp1890
g4
I00
sg5
(I01
I01
tp1891
sba(iModules.cell
Cell
p1892
(dp1893
g4
I00
sg5
(I01
I01
tp1894
sba(iModules.cell
Cell
p1895
(dp1896
g4
I00
sg5
(I01
I01
tp1897
sba(iModules.cell
Cell
p1898
(dp1899
g4
I00
sg5
(I00
I00
tp1900
sba(iModules.cell
Cell
p1901
(dp1902
g4
I00
sg5
(I00
I00
tp1903
sba(iModules.cell
Cell
p1904
(dp1905
g4
I00
sg5
(I00
I00
tp1906
sba(iModules.cell
Cell
p1907
(dp1908
g4
I00
sg5
(I00
I00
tp1909
sba(iModules.cell
Cell
p1910
(dp1911
g4
I00
sg5
(I00
I00
tp1912
sba(iModules.cell
Cell
p1913
(dp1914
g4
I00
sg5
(I00
I00
tp1915
sba(iModules.cell
Cell
p1916
(dp1917
g4
I00
sg5
(I00
I00
tp1918
sba(iModules.cell
Cell
p1919
(dp1920
g4
I00
sg5
(I00
I00
tp1921
sba(iModules.cell
Cell
p1922
(dp1923
g4
I00
sg5
(I00
I00
tp1924
sba(iModules.cell
Cell
p1925
(dp1926
g4
I00
sg5
(I00
I00
tp1927
sba(iModules.cell
Cell
p1928
(dp1929
g4
I00
sg5
(I00
I00
tp1930
sba(iModules.cell
Cell
p1931
(dp1932
g4
I00
sg5
(I00
I00
tp1933
sba(iModules.cell
Cell
p1934
(dp1935
g4
I00
sg5
(I00
I00
tp1936
sba(iModules.cell
Cell
p1937
(dp1938
g4
I00
sg5
(I00
I00
tp1939
sba(iModules.cell
Cell
p1940
(dp1941
g4
I00
sg5
(I00
I00
tp1942
sba(iModules.cell
Cell
p1943
(dp1944
g4
I00
sg5
(I00
I00
tp1945
sba(iModules.cell
Cell
p1946
(dp1947
g4
I00
sg5
(I00
I00
tp1948
sba(iModules.cell
Cell
p1949
(dp1950
g4
I00
sg5
(I00
I00
tp1951
sba(iModules.cell
Cell
p1952
(dp1953
g4
I00
sg5
(I00
I00
tp1954
sba(iModules.cell
Cell
p1955
(dp1956
g5
(I00
I00
tp1957
sbaa(lp1958
(iModules.cell
Cell
p1959
(dp1960
g4
I00
sg5
(I00
I00
tp1961
sba(iModules.cell
Cell
p1962
(dp1963
g4
I01
sg255
I01
sg5
(I00
I00
tp1964
sba(iModules.cell
Cell
p1965
(dp1966
g4
I01
sg255
I01
sg5
(I01
I01
tp1967
sba(iModules.cell
Cell
p1968
(dp1969
g4
I01
sg255
I01
sg5
(I01
I01
tp1970
sba(iModules.cell
Cell
p1971
(dp1972
g4
I01
sg255
I01
sg5
(I01
I01
tp1973
sba(iModules.cell
Cell
p1974
(dp1975
g4
I01
sg255
I01
sg5
(I01
I01
tp1976
sba(iModules.cell
Cell
p1977
(dp1978
g4
I01
sg255
I01
sg5
(I01
I01
tp1979
sba(iModules.cell
Cell
p1980
(dp1981
g4
I01
sg255
I01
sg5
(I01
I01
tp1982
sba(iModules.cell
Cell
p1983
(dp1984
g4
I01
sg255
I01
sg5
(I01
I01
tp1985
sba(iModules.cell
Cell
p1986
(dp1987
g4
I01
sg255
I01
sg5
(I01
I01
tp1988
sba(iModules.cell
Cell
p1989
(dp1990
g4
I01
sg255
I01
sg5
(I01
I01
tp1991
sba(iModules.cell
Cell
p1992
(dp1993
g4
I01
sg255
I01
sg5
(I01
I01
tp1994
sba(iModules.cell
Cell
p1995
(dp1996
g4
I01
sg255
I01
sg5
(I01
I01
tp1997
sba(iModules.cell
Cell
p1998
(dp1999
g4
I01
sg255
I01
sg5
(I01
I01
tp2000
sba(iModules.cell
Cell
p2001
(dp2002
g4
I01
sg255
I01
sg5
(I01
I01
tp2003
sba(iModules.cell
Cell
p2004
(dp2005
g4
I00
sg5
(I01
I01
tp2006
sba(iModules.cell
Cell
p2007
(dp2008
g4
I00
sg5
(I01
I01
tp2009
sba(iModules.cell
Cell
p2010
(dp2011
g4
I00
sg5
(I01
I01
tp2012
sba(iModules.cell
Cell
p2013
(dp2014
g4
I00
sg5
(I01
I01
tp2015
sba(iModules.cell
Cell
p2016
(dp2017
g4
I00
sg5
(I01
I01
tp2018
sba(iModules.cell
Cell
p2019
(dp2020
g4
I00
sg5
(I01
I01
tp2021
sba(iModules.cell
Cell
p2022
(dp2023
g4
I00
sg5
(I01
I01
tp2024
sba(iModules.cell
Cell
p2025
(dp2026
g4
I00
sg5
(I01
I01
tp2027
sba(iModules.cell
Cell
p2028
(dp2029
g4
I00
sg5
(I01
I01
tp2030
sba(iModules.cell
Cell
p2031
(dp2032
g4
I00
sg5
(I01
I01
tp2033
sba(iModules.cell
Cell
p2034
(dp2035
g4
I00
sg5
(I01
I01
tp2036
sba(iModules.cell
Cell
p2037
(dp2038
g4
I00
sg5
(I01
I01
tp2039
sba(iModules.cell
Cell
p2040
(dp2041
g4
I00
sg5
(I01
I01
tp2042
sba(iModules.cell
Cell
p2043
(dp2044
g4
I00
sg5
(I01
I01
tp2045
sba(iModules.cell
Cell
p2046
(dp2047
g4
I00
sg5
(I01
I01
tp2048
sba(iModules.cell
Cell
p2049
(dp2050
g4
I00
sg5
(I01
I01
tp2051
sba(iModules.cell
Cell
p2052
(dp2053
g4
I00
sg5
(I01
I01
tp2054
sba(iModules.cell
Cell
p2055
(dp2056
g4
I00
sg5
(I01
I01
tp2057
sba(iModules.cell
Cell
p2058
(dp2059
g4
I00
sg5
(I01
I01
tp2060
sba(iModules.cell
Cell
p2061
(dp2062
g4
I00
sg5
(I01
I01
tp2063
sba(iModules.cell
Cell
p2064
(dp2065
g4
I00
sg5
(I01
I01
tp2066
sba(iModules.cell
Cell
p2067
(dp2068
g4
I00
sg5
(I01
I01
tp2069
sba(iModules.cell
Cell
p2070
(dp2071
g4
I00
sg5
(I01
I01
tp2072
sba(iModules.cell
Cell
p2073
(dp2074
g4
I00
sg5
(I01
I01
tp2075
sba(iModules.cell
Cell
p2076
(dp2077
g4
I00
sg5
(I01
I01
tp2078
sba(iModules.cell
Cell
p2079
(dp2080
g4
I00
sg5
(I01
I01
tp2081
sba(iModules.cell
Cell
p2082
(dp2083
g4
I00
sg5
(I01
I01
tp2084
sba(iModules.cell
Cell
p2085
(dp2086
g4
I00
sg5
(I01
I01
tp2087
sba(iModules.cell
Cell
p2088
(dp2089
g4
I00
sg5
(I01
I01
tp2090
sba(iModules.cell
Cell
p2091
(dp2092
g4
I00
sg5
(I01
I01
tp2093
sba(iModules.cell
Cell
p2094
(dp2095
g4
I00
sg5
(I01
I01
tp2096
sba(iModules.cell
Cell
p2097
(dp2098
g4
I00
sg5
(I01
I01
tp2099
sba(iModules.cell
Cell
p2100
(dp2101
g4
I00
sg5
(I01
I01
tp2102
sba(iModules.cell
Cell
p2103
(dp2104
g4
I00
sg5
(I01
I01
tp2105
sba(iModules.cell
Cell
p2106
(dp2107
g4
I00
sg5
(I01
I01
tp2108
sba(iModules.cell
Cell
p2109
(dp2110
g4
I00
sg5
(I01
I01
tp2111
sba(iModules.cell
Cell
p2112
(dp2113
g4
I00
sg5
(I01
I01
tp2114
sba(iModules.cell
Cell
p2115
(dp2116
g4
I00
sg5
(I01
I01
tp2117
sba(iModules.cell
Cell
p2118
(dp2119
g4
I00
sg5
(I01
I01
tp2120
sba(iModules.cell
Cell
p2121
(dp2122
g4
I00
sg5
(I01
I01
tp2123
sba(iModules.cell
Cell
p2124
(dp2125
g4
I00
sg5
(I01
I01
tp2126
sba(iModules.cell
Cell
p2127
(dp2128
g4
I00
sg5
(I01
I01
tp2129
sba(iModules.cell
Cell
p2130
(dp2131
g4
I00
sg5
(I01
I01
tp2132
sba(iModules.cell
Cell
p2133
(dp2134
g4
I00
sg5
(I01
I01
tp2135
sba(iModules.cell
Cell
p2136
(dp2137
g4
I00
sg5
(I01
I01
tp2138
sba(iModules.cell
Cell
p2139
(dp2140
g4
I00
sg5
(I01
I01
tp2141
sba(iModules.cell
Cell
p2142
(dp2143
g4
I00
sg5
(I00
I00
tp2144
sba(iModules.cell
Cell
p2145
(dp2146
g4
I00
sg5
(I00
I00
tp2147
sba(iModules.cell
Cell
p2148
(dp2149
g4
I00
sg5
(I00
I00
tp2150
sba(iModules.cell
Cell
p2151
(dp2152
g4
I00
sg5
(I00
I00
tp2153
sba(iModules.cell
Cell
p2154
(dp2155
g4
I00
sg5
(I00
I00
tp2156
sba(iModules.cell
Cell
p2157
(dp2158
g4
I00
sg5
(I00
I00
tp2159
sba(iModules.cell
Cell
p2160
(dp2161
g4
I00
sg5
(I00
I00
tp2162
sba(iModules.cell
Cell
p2163
(dp2164
g4
I00
sg5
(I00
I00
tp2165
sba(iModules.cell
Cell
p2166
(dp2167
g4
I00
sg5
(I00
I00
tp2168
sba(iModules.cell
Cell
p2169
(dp2170
g4
I00
sg5
(I00
I00
tp2171
sba(iModules.cell
Cell
p2172
(dp2173
g4
I00
sg5
(I00
I00
tp2174
sba(iModules.cell
Cell
p2175
(dp2176
g4
I00
sg5
(I00
I00
tp2177
sba(iModules.cell
Cell
p2178
(dp2179
g4
I00
sg5
(I00
I00
tp2180
sba(iModules.cell
Cell
p2181
(dp2182
g4
I00
sg5
(I00
I00
tp2183
sba(iModules.cell
Cell
p2184
(dp2185
g4
I00
sg5
(I00
I00
tp2186
sba(iModules.cell
Cell
p2187
(dp2188
g4
I00
sg5
(I00
I00
tp2189
sba(iModules.cell
Cell
p2190
(dp2191
g4
I00
sg5
(I00
I00
tp2192
sba(iModules.cell
Cell
p2193
(dp2194
g4
I00
sg5
(I00
I00
tp2195
sba(iModules.cell
Cell
p2196
(dp2197
g4
I00
sg5
(I00
I00
tp2198
sba(iModules.cell
Cell
p2199
(dp2200
g5
(I00
I00
tp2201
sbaa(lp2202
(iModules.cell
Cell
p2203
(dp2204
g4
I00
sg5
(I00
I00
tp2205
sba(iModules.cell
Cell
p2206
(dp2207
g4
I01
sg255
I01
sg5
(I00
I00
tp2208
sba(iModules.cell
Cell
p2209
(dp2210
g4
I01
sg255
I01
sg5
(I01
I01
tp2211
sba(iModules.cell
Cell
p2212
(dp2213
g4
I01
sg255
I01
sg5
(I01
I01
tp2214
sba(iModules.cell
Cell
p2215
(dp2216
g4
I01
sg255
I01
sg5
(I01
I01
tp2217
sba(iModules.cell
Cell
p2218
(dp2219
g4
I01
sg255
I01
sg5
(I01
I01
tp2220
sba(iModules.cell
Cell
p2221
(dp2222
g4
I01
sg255
I01
sg5
(I01
I01
tp2223
sba(iModules.cell
Cell
p2224
(dp2225
g4
I01
sg255
I01
sg5
(I01
I01
tp2226
sba(iModules.cell
Cell
p2227
(dp2228
g4
I01
sg255
I01
sg5
(I01
I01
tp2229
sba(iModules.cell
Cell
p2230
(dp2231
g4
I01
sg255
I01
sg5
(I01
I01
tp2232
sba(iModules.cell
Cell
p2233
(dp2234
g4
I01
sg255
I01
sg5
(I01
I01
tp2235
sba(iModules.cell
Cell
p2236
(dp2237
g4
I01
sg255
I01
sg5
(I01
I01
tp2238
sba(iModules.cell
Cell
p2239
(dp2240
g4
I01
sg255
I01
sg5
(I01
I01
tp2241
sba(iModules.cell
Cell
p2242
(dp2243
g4
I01
sg255
I01
sg5
(I01
I01
tp2244
sba(iModules.cell
Cell
p2245
(dp2246
g4
I01
sg255
I01
sg5
(I01
I01
tp2247
sba(iModules.cell
Cell
p2248
(dp2249
g4
I00
sg5
(I01
I01
tp2250
sba(iModules.cell
Cell
p2251
(dp2252
g4
I00
sg5
(I01
I01
tp2253
sba(iModules.cell
Cell
p2254
(dp2255
g4
I00
sg5
(I01
I01
tp2256
sba(iModules.cell
Cell
p2257
(dp2258
g4
I00
sg5
(I01
I01
tp2259
sba(iModules.cell
Cell
p2260
(dp2261
g4
I00
sg5
(I01
I01
tp2262
sba(iModules.cell
Cell
p2263
(dp2264
g4
I00
sg5
(I01
I01
tp2265
sba(iModules.cell
Cell
p2266
(dp2267
g4
I00
sg5
(I01
I01
tp2268
sba(iModules.cell
Cell
p2269
(dp2270
g4
I00
sg5
(I01
I01
tp2271
sba(iModules.cell
Cell
p2272
(dp2273
g4
I00
sg5
(I01
I01
tp2274
sba(iModules.cell
Cell
p2275
(dp2276
g4
I00
sg5
(I01
I01
tp2277
sba(iModules.cell
Cell
p2278
(dp2279
g4
I00
sg5
(I01
I01
tp2280
sba(iModules.cell
Cell
p2281
(dp2282
g4
I00
sg5
(I01
I01
tp2283
sba(iModules.cell
Cell
p2284
(dp2285
g4
I00
sg5
(I01
I01
tp2286
sba(iModules.cell
Cell
p2287
(dp2288
g4
I00
sg5
(I01
I01
tp2289
sba(iModules.cell
Cell
p2290
(dp2291
g4
I00
sg5
(I01
I01
tp2292
sba(iModules.cell
Cell
p2293
(dp2294
g4
I00
sg5
(I01
I01
tp2295
sba(iModules.cell
Cell
p2296
(dp2297
g4
I00
sg5
(I01
I01
tp2298
sba(iModules.cell
Cell
p2299
(dp2300
g4
I00
sg5
(I01
I01
tp2301
sba(iModules.cell
Cell
p2302
(dp2303
g4
I00
sg5
(I01
I01
tp2304
sba(iModules.cell
Cell
p2305
(dp2306
g4
I00
sg5
(I01
I01
tp2307
sba(iModules.cell
Cell
p2308
(dp2309
g4
I00
sg5
(I01
I01
tp2310
sba(iModules.cell
Cell
p2311
(dp2312
g4
I00
sg5
(I01
I01
tp2313
sba(iModules.cell
Cell
p2314
(dp2315
g4
I00
sg5
(I01
I01
tp2316
sba(iModules.cell
Cell
p2317
(dp2318
g4
I00
sg5
(I01
I01
tp2319
sba(iModules.cell
Cell
p2320
(dp2321
g4
I00
sg5
(I01
I01
tp2322
sba(iModules.cell
Cell
p2323
(dp2324
g4
I00
sg5
(I01
I01
tp2325
sba(iModules.cell
Cell
p2326
(dp2327
g4
I00
sg5
(I01
I01
tp2328
sba(iModules.cell
Cell
p2329
(dp2330
g4
I00
sg5
(I01
I01
tp2331
sba(iModules.cell
Cell
p2332
(dp2333
g4
I00
sg5
(I01
I01
tp2334
sba(iModules.cell
Cell
p2335
(dp2336
g4
I00
sg5
(I01
I01
tp2337
sba(iModules.cell
Cell
p2338
(dp2339
g4
I00
sg5
(I01
I01
tp2340
sba(iModules.cell
Cell
p2341
(dp2342
g4
I00
sg5
(I01
I01
tp2343
sba(iModules.cell
Cell
p2344
(dp2345
g4
I00
sg5
(I01
I01
tp2346
sba(iModules.cell
Cell
p2347
(dp2348
g4
I00
sg5
(I01
I01
tp2349
sba(iModules.cell
Cell
p2350
(dp2351
g4
I00
sg5
(I01
I01
tp2352
sba(iModules.cell
Cell
p2353
(dp2354
g4
I00
sg5
(I01
I01
tp2355
sba(iModules.cell
Cell
p2356
(dp2357
g4
I00
sg5
(I01
I01
tp2358
sba(iModules.cell
Cell
p2359
(dp2360
g4
I00
sg5
(I01
I01
tp2361
sba(iModules.cell
Cell
p2362
(dp2363
g4
I00
sg5
(I01
I01
tp2364
sba(iModules.cell
Cell
p2365
(dp2366
g4
I00
sg5
(I01
I01
tp2367
sba(iModules.cell
Cell
p2368
(dp2369
g4
I00
sg5
(I01
I01
tp2370
sba(iModules.cell
Cell
p2371
(dp2372
g4
I00
sg5
(I01
I01
tp2373
sba(iModules.cell
Cell
p2374
(dp2375
g4
I00
sg5
(I01
I01
tp2376
sba(iModules.cell
Cell
p2377
(dp2378
g4
I00
sg5
(I01
I01
tp2379
sba(iModules.cell
Cell
p2380
(dp2381
g4
I00
sg5
(I01
I01
tp2382
sba(iModules.cell
Cell
p2383
(dp2384
g4
I00
sg5
(I01
I01
tp2385
sba(iModules.cell
Cell
p2386
(dp2387
g4
I00
sg5
(I00
I00
tp2388
sba(iModules.cell
Cell
p2389
(dp2390
g4
I00
sg5
(I00
I00
tp2391
sba(iModules.cell
Cell
p2392
(dp2393
g4
I00
sg5
(I00
I00
tp2394
sba(iModules.cell
Cell
p2395
(dp2396
g4
I00
sg5
(I00
I00
tp2397
sba(iModules.cell
Cell
p2398
(dp2399
g4
I00
sg5
(I00
I00
tp2400
sba(iModules.cell
Cell
p2401
(dp2402
g4
I00
sg5
(I00
I00
tp2403
sba(iModules.cell
Cell
p2404
(dp2405
g4
I00
sg5
(I00
I00
tp2406
sba(iModules.cell
Cell
p2407
(dp2408
g4
I00
sg5
(I00
I00
tp2409
sba(iModules.cell
Cell
p2410
(dp2411
g4
I00
sg5
(I00
I00
tp2412
sba(iModules.cell
Cell
p2413
(dp2414
g4
I00
sg5
(I00
I00
tp2415
sba(iModules.cell
Cell
p2416
(dp2417
g4
I00
sg5
(I00
I00
tp2418
sba(iModules.cell
Cell
p2419
(dp2420
g4
I00
sg5
(I00
I00
tp2421
sba(iModules.cell
Cell
p2422
(dp2423
g4
I00
sg5
(I00
I00
tp2424
sba(iModules.cell
Cell
p2425
(dp2426
g4
I00
sg5
(I00
I00
tp2427
sba(iModules.cell
Cell
p2428
(dp2429
g4
I00
sg5
(I00
I00
tp2430
sba(iModules.cell
Cell
p2431
(dp2432
g4
I00
sg5
(I00
I00
tp2433
sba(iModules.cell
Cell
p2434
(dp2435
g4
I00
sg5
(I00
I00
tp2436
sba(iModules.cell
Cell
p2437
(dp2438
g4
I00
sg5
(I00
I00
tp2439
sba(iModules.cell
Cell
p2440
(dp2441
g4
I00
sg5
(I00
I00
tp2442
sba(iModules.cell
Cell
p2443
(dp2444
g5
(I00
I00
tp2445
sbaa(lp2446
(iModules.cell
Cell
p2447
(dp2448
g4
I00
sg5
(I00
I00
tp2449
sba(iModules.cell
Cell
p2450
(dp2451
g4
I01
sg255
I01
sg5
(I00
I00
tp2452
sba(iModules.cell
Cell
p2453
(dp2454
g4
I01
sg255
I01
sg5
(I01
I01
tp2455
sba(iModules.cell
Cell
p2456
(dp2457
g4
I01
sg255
I01
sg5
(I01
I01
tp2458
sba(iModules.cell
Cell
p2459
(dp2460
g4
I01
sg255
I01
sg5
(I01
I01
tp2461
sba(iModules.cell
Cell
p2462
(dp2463
g4
I01
sg255
I01
sg5
(I01
I01
tp2464
sba(iModules.cell
Cell
p2465
(dp2466
g4
I01
sg255
I01
sg5
(I01
I01
tp2467
sba(iModules.cell
Cell
p2468
(dp2469
g4
I01
sg255
I01
sg5
(I01
I01
tp2470
sba(iModules.cell
Cell
p2471
(dp2472
g4
I01
sg255
I01
sg5
(I01
I01
tp2473
sba(iModules.cell
Cell
p2474
(dp2475
g4
I01
sg255
I01
sg5
(I01
I01
tp2476
sba(iModules.cell
Cell
p2477
(dp2478
g4
I01
sg255
I01
sg5
(I01
I01
tp2479
sba(iModules.cell
Cell
p2480
(dp2481
g4
I01
sg255
I01
sg5
(I01
I01
tp2482
sba(iModules.cell
Cell
p2483
(dp2484
g4
I01
sg255
I01
sg5
(I01
I01
tp2485
sba(iModules.cell
Cell
p2486
(dp2487
g4
I01
sg255
I01
sg5
(I01
I01
tp2488
sba(iModules.cell
Cell
p2489
(dp2490
g4
I01
sg255
I01
sg5
(I01
I01
tp2491
sba(iModules.cell
Cell
p2492
(dp2493
g4
I00
sg5
(I01
I01
tp2494
sba(iModules.cell
Cell
p2495
(dp2496
g4
I00
sg5
(I01
I01
tp2497
sba(iModules.cell
Cell
p2498
(dp2499
g4
I00
sg5
(I01
I01
tp2500
sba(iModules.cell
Cell
p2501
(dp2502
g4
I00
sg5
(I01
I01
tp2503
sba(iModules.cell
Cell
p2504
(dp2505
g4
I00
sg5
(I01
I01
tp2506
sba(iModules.cell
Cell
p2507
(dp2508
g4
I00
sg5
(I01
I01
tp2509
sba(iModules.cell
Cell
p2510
(dp2511
g4
I00
sg5
(I01
I01
tp2512
sba(iModules.cell
Cell
p2513
(dp2514
g4
I00
sg5
(I01
I01
tp2515
sba(iModules.cell
Cell
p2516
(dp2517
g4
I00
sg5
(I01
I01
tp2518
sba(iModules.cell
Cell
p2519
(dp2520
g4
I00
sg5
(I01
I01
tp2521
sba(iModules.cell
Cell
p2522
(dp2523
g4
I00
sg5
(I01
I01
tp2524
sba(iModules.cell
Cell
p2525
(dp2526
g4
I00
sg5
(I01
I01
tp2527
sba(iModules.cell
Cell
p2528
(dp2529
g4
I00
sg5
(I01
I01
tp2530
sba(iModules.cell
Cell
p2531
(dp2532
g4
I00
sg5
(I01
I01
tp2533
sba(iModules.cell
Cell
p2534
(dp2535
g4
I00
sg5
(I01
I01
tp2536
sba(iModules.cell
Cell
p2537
(dp2538
g4
I00
sg5
(I01
I01
tp2539
sba(iModules.cell
Cell
p2540
(dp2541
g4
I00
sg5
(I01
I01
tp2542
sba(iModules.cell
Cell
p2543
(dp2544
g4
I00
sg5
(I01
I01
tp2545
sba(iModules.cell
Cell
p2546
(dp2547
g4
I00
sg5
(I01
I01
tp2548
sba(iModules.cell
Cell
p2549
(dp2550
g4
I00
sg5
(I01
I01
tp2551
sba(iModules.cell
Cell
p2552
(dp2553
g4
I00
sg5
(I01
I01
tp2554
sba(iModules.cell
Cell
p2555
(dp2556
g4
I00
sg5
(I01
I01
tp2557
sba(iModules.cell
Cell
p2558
(dp2559
g4
I00
sg5
(I01
I01
tp2560
sba(iModules.cell
Cell
p2561
(dp2562
g4
I00
sg5
(I01
I01
tp2563
sba(iModules.cell
Cell
p2564
(dp2565
g4
I00
sg5
(I01
I01
tp2566
sba(iModules.cell
Cell
p2567
(dp2568
g4
I00
sg5
(I01
I01
tp2569
sba(iModules.cell
Cell
p2570
(dp2571
g4
I00
sg5
(I01
I01
tp2572
sba(iModules.cell
Cell
p2573
(dp2574
g4
I00
sg5
(I01
I01
tp2575
sba(iModules.cell
Cell
p2576
(dp2577
g4
I00
sg5
(I01
I01
tp2578
sba(iModules.cell
Cell
p2579
(dp2580
g4
I00
sg5
(I01
I01
tp2581
sba(iModules.cell
Cell
p2582
(dp2583
g4
I00
sg5
(I01
I01
tp2584
sba(iModules.cell
Cell
p2585
(dp2586
g4
I00
sg5
(I01
I01
tp2587
sba(iModules.cell
Cell
p2588
(dp2589
g4
I00
sg5
(I01
I01
tp2590
sba(iModules.cell
Cell
p2591
(dp2592
g4
I00
sg5
(I01
I01
tp2593
sba(iModules.cell
Cell
p2594
(dp2595
g4
I00
sg5
(I01
I01
tp2596
sba(iModules.cell
Cell
p2597
(dp2598
g4
I00
sg5
(I01
I01
tp2599
sba(iModules.cell
Cell
p2600
(dp2601
g4
I00
sg5
(I01
I01
tp2602
sba(iModules.cell
Cell
p2603
(dp2604
g4
I00
sg5
(I01
I01
tp2605
sba(iModules.cell
Cell
p2606
(dp2607
g4
I00
sg5
(I01
I01
tp2608
sba(iModules.cell
Cell
p2609
(dp2610
g4
I00
sg5
(I01
I01
tp2611
sba(iModules.cell
Cell
p2612
(dp2613
g4
I00
sg5
(I01
I01
tp2614
sba(iModules.cell
Cell
p2615
(dp2616
g4
I00
sg5
(I01
I01
tp2617
sba(iModules.cell
Cell
p2618
(dp2619
g4
I00
sg5
(I01
I01
tp2620
sba(iModules.cell
Cell
p2621
(dp2622
g4
I00
sg5
(I01
I01
tp2623
sba(iModules.cell
Cell
p2624
(dp2625
g4
I00
sg5
(I01
I01
tp2626
sba(iModules.cell
Cell
p2627
(dp2628
g4
I00
sg5
(I01
I01
tp2629
sba(iModules.cell
Cell
p2630
(dp2631
g4
I00
sg5
(I00
I00
tp2632
sba(iModules.cell
Cell
p2633
(dp2634
g4
I00
sg5
(I00
I00
tp2635
sba(iModules.cell
Cell
p2636
(dp2637
g4
I00
sg5
(I00
I00
tp2638
sba(iModules.cell
Cell
p2639
(dp2640
g4
I00
sg5
(I00
I00
tp2641
sba(iModules.cell
Cell
p2642
(dp2643
g4
I00
sg5
(I00
I00
tp2644
sba(iModules.cell
Cell
p2645
(dp2646
g4
I00
sg5
(I00
I00
tp2647
sba(iModules.cell
Cell
p2648
(dp2649
g4
I00
sg5
(I00
I00
tp2650
sba(iModules.cell
Cell
p2651
(dp2652
g4
I00
sg5
(I00
I00
tp2653
sba(iModules.cell
Cell
p2654
(dp2655
g4
I00
sg5
(I00
I00
tp2656
sba(iModules.cell
Cell
p2657
(dp2658
g4
I00
sg5
(I00
I00
tp2659
sba(iModules.cell
Cell
p2660
(dp2661
g4
I00
sg5
(I00
I00
tp2662
sba(iModules.cell
Cell
p2663
(dp2664
g4
I00
sg5
(I00
I00
tp2665
sba(iModules.cell
Cell
p2666
(dp2667
g4
I00
sg5
(I00
I00
tp2668
sba(iModules.cell
Cell
p2669
(dp2670
g4
I00
sg5
(I00
I00
tp2671
sba(iModules.cell
Cell
p2672
(dp2673
g4
I00
sg5
(I00
I00
tp2674
sba(iModules.cell
Cell
p2675
(dp2676
g4
I00
sg5
(I00
I00
tp2677
sba(iModules.cell
Cell
p2678
(dp2679
g4
I00
sg5
(I00
I00
tp2680
sba(iModules.cell
Cell
p2681
(dp2682
g4
I00
sg5
(I00
I00
tp2683
sba(iModules.cell
Cell
p2684
(dp2685
g4
I00
sg5
(I00
I00
tp2686
sba(iModules.cell
Cell
p2687
(dp2688
g5
(I00
I00
tp2689
sbaa(lp2690
(iModules.cell
Cell
p2691
(dp2692
g4
I00
sg5
(I00
I00
tp2693
sba(iModules.cell
Cell
p2694
(dp2695
g4
I01
sg255
I01
sg5
(I00
I00
tp2696
sba(iModules.cell
Cell
p2697
(dp2698
g4
I01
sg255
I01
sg5
(I01
I01
tp2699
sba(iModules.cell
Cell
p2700
(dp2701
g4
I01
sg255
I01
sg5
(I01
I01
tp2702
sba(iModules.cell
Cell
p2703
(dp2704
g4
I01
sg255
I01
sg5
(I01
I01
tp2705
sba(iModules.cell
Cell
p2706
(dp2707
g4
I01
sg255
I01
sg5
(I01
I01
tp2708
sba(iModules.cell
Cell
p2709
(dp2710
g4
I01
sg255
I01
sg5
(I01
I01
tp2711
sba(iModules.cell
Cell
p2712
(dp2713
g4
I01
sg255
I01
sg5
(I01
I01
tp2714
sba(iModules.cell
Cell
p2715
(dp2716
g4
I01
sg255
I01
sg5
(I01
I01
tp2717
sba(iModules.cell
Cell
p2718
(dp2719
g4
I01
sg255
I01
sg5
(I01
I01
tp2720
sba(iModules.cell
Cell
p2721
(dp2722
g4
I01
sg255
I01
sg5
(I01
I01
tp2723
sba(iModules.cell
Cell
p2724
(dp2725
g4
I01
sg255
I01
sg5
(I01
I01
tp2726
sba(iModules.cell
Cell
p2727
(dp2728
g4
I01
sg255
I01
sg5
(I01
I01
tp2729
sba(iModules.cell
Cell
p2730
(dp2731
g4
I01
sg255
I01
sg5
(I01
I01
tp2732
sba(iModules.cell
Cell
p2733
(dp2734
g4
I01
sg255
I01
sg5
(I01
I01
tp2735
sba(iModules.cell
Cell
p2736
(dp2737
g4
I00
sg5
(I01
I01
tp2738
sba(iModules.cell
Cell
p2739
(dp2740
g4
I00
sg5
(I01
I01
tp2741
sba(iModules.cell
Cell
p2742
(dp2743
g4
I00
sg5
(I01
I01
tp2744
sba(iModules.cell
Cell
p2745
(dp2746
g4
I00
sg5
(I01
I01
tp2747
sba(iModules.cell
Cell
p2748
(dp2749
g4
I00
sg5
(I01
I01
tp2750
sba(iModules.cell
Cell
p2751
(dp2752
g4
I00
sg5
(I01
I01
tp2753
sba(iModules.cell
Cell
p2754
(dp2755
g4
I00
sg5
(I01
I01
tp2756
sba(iModules.cell
Cell
p2757
(dp2758
g4
I00
sg5
(I01
I01
tp2759
sba(iModules.cell
Cell
p2760
(dp2761
g4
I00
sg5
(I01
I01
tp2762
sba(iModules.cell
Cell
p2763
(dp2764
g4
I00
sg5
(I01
I01
tp2765
sba(iModules.cell
Cell
p2766
(dp2767
g4
I00
sg5
(I01
I01
tp2768
sba(iModules.cell
Cell
p2769
(dp2770
g4
I00
sg5
(I01
I01
tp2771
sba(iModules.cell
Cell
p2772
(dp2773
g4
I00
sg5
(I01
I01
tp2774
sba(iModules.cell
Cell
p2775
(dp2776
g4
I00
sg5
(I01
I01
tp2777
sba(iModules.cell
Cell
p2778
(dp2779
g4
I00
sg5
(I01
I01
tp2780
sba(iModules.cell
Cell
p2781
(dp2782
g4
I00
sg5
(I01
I01
tp2783
sba(iModules.cell
Cell
p2784
(dp2785
g4
I00
sg5
(I01
I01
tp2786
sba(iModules.cell
Cell
p2787
(dp2788
g4
I00
sg5
(I01
I01
tp2789
sba(iModules.cell
Cell
p2790
(dp2791
g4
I00
sg5
(I01
I01
tp2792
sba(iModules.cell
Cell
p2793
(dp2794
g4
I00
sg5
(I01
I01
tp2795
sba(iModules.cell
Cell
p2796
(dp2797
g4
I00
sg5
(I01
I01
tp2798
sba(iModules.cell
Cell
p2799
(dp2800
g4
I00
sg5
(I01
I01
tp2801
sba(iModules.cell
Cell
p2802
(dp2803
g4
I00
sg5
(I01
I01
tp2804
sba(iModules.cell
Cell
p2805
(dp2806
g4
I00
sg5
(I01
I01
tp2807
sba(iModules.cell
Cell
p2808
(dp2809
g4
I00
sg5
(I01
I01
tp2810
sba(iModules.cell
Cell
p2811
(dp2812
g4
I00
sg5
(I01
I01
tp2813
sba(iModules.cell
Cell
p2814
(dp2815
g4
I00
sg5
(I01
I01
tp2816
sba(iModules.cell
Cell
p2817
(dp2818
g4
I00
sg5
(I01
I01
tp2819
sba(iModules.cell
Cell
p2820
(dp2821
g4
I00
sg5
(I01
I01
tp2822
sba(iModules.cell
Cell
p2823
(dp2824
g4
I00
sg5
(I01
I01
tp2825
sba(iModules.cell
Cell
p2826
(dp2827
g4
I00
sg5
(I01
I01
tp2828
sba(iModules.cell
Cell
p2829
(dp2830
g4
I00
sg5
(I01
I01
tp2831
sba(iModules.cell
Cell
p2832
(dp2833
g4
I00
sg5
(I01
I01
tp2834
sba(iModules.cell
Cell
p2835
(dp2836
g4
I00
sg5
(I01
I01
tp2837
sba(iModules.cell
Cell
p2838
(dp2839
g4
I00
sg5
(I01
I01
tp2840
sba(iModules.cell
Cell
p2841
(dp2842
g4
I00
sg5
(I01
I01
tp2843
sba(iModules.cell
Cell
p2844
(dp2845
g4
I00
sg5
(I01
I01
tp2846
sba(iModules.cell
Cell
p2847
(dp2848
g4
I00
sg5
(I01
I01
tp2849
sba(iModules.cell
Cell
p2850
(dp2851
g4
I00
sg5
(I01
I01
tp2852
sba(iModules.cell
Cell
p2853
(dp2854
g4
I00
sg5
(I01
I01
tp2855
sba(iModules.cell
Cell
p2856
(dp2857
g4
I00
sg5
(I01
I01
tp2858
sba(iModules.cell
Cell
p2859
(dp2860
g4
I00
sg5
(I01
I01
tp2861
sba(iModules.cell
Cell
p2862
(dp2863
g4
I00
sg5
(I01
I01
tp2864
sba(iModules.cell
Cell
p2865
(dp2866
g4
I00
sg5
(I01
I01
tp2867
sba(iModules.cell
Cell
p2868
(dp2869
g4
I00
sg5
(I01
I01
tp2870
sba(iModules.cell
Cell
p2871
(dp2872
g4
I00
sg5
(I01
I01
tp2873
sba(iModules.cell
Cell
p2874
(dp2875
g4
I00
sg5
(I00
I00
tp2876
sba(iModules.cell
Cell
p2877
(dp2878
g4
I00
sg5
(I00
I00
tp2879
sba(iModules.cell
Cell
p2880
(dp2881
g4
I00
sg5
(I00
I00
tp2882
sba(iModules.cell
Cell
p2883
(dp2884
g4
I00
sg5
(I00
I00
tp2885
sba(iModules.cell
Cell
p2886
(dp2887
g4
I00
sg5
(I00
I00
tp2888
sba(iModules.cell
Cell
p2889
(dp2890
g4
I00
sg5
(I00
I00
tp2891
sba(iModules.cell
Cell
p2892
(dp2893
g4
I00
sg5
(I00
I00
tp2894
sba(iModules.cell
Cell
p2895
(dp2896
g4
I00
sg5
(I00
I00
tp2897
sba(iModules.cell
Cell
p2898
(dp2899
g4
I00
sg5
(I00
I00
tp2900
sba(iModules.cell
Cell
p2901
(dp2902
g4
I00
sg5
(I00
I00
tp2903
sba(iModules.cell
Cell
p2904
(dp2905
g4
I00
sg5
(I00
I00
tp2906
sba(iModules.cell
Cell
p2907
(dp2908
g4
I00
sg5
(I00
I00
tp2909
sba(iModules.cell
Cell
p2910
(dp2911
g4
I00
sg5
(I00
I00
tp2912
sba(iModules.cell
Cell
p2913
(dp2914
g4
I00
sg5
(I00
I00
tp2915
sba(iModules.cell
Cell
p2916
(dp2917
g4
I00
sg5
(I00
I00
tp2918
sba(iModules.cell
Cell
p2919
(dp2920
g4
I00
sg5
(I00
I00
tp2921
sba(iModules.cell
Cell
p2922
(dp2923
g4
I00
sg5
(I00
I00
tp2924
sba(iModules.cell
Cell
p2925
(dp2926
g4
I00
sg5
(I00
I00
tp2927
sba(iModules.cell
Cell
p2928
(dp2929
g4
I00
sg5
(I00
I00
tp2930
sba(iModules.cell
Cell
p2931
(dp2932
g5
(I00
I00
tp2933
sbaa(lp2934
(iModules.cell
Cell
p2935
(dp2936
g4
I00
sg5
(I00
I00
tp2937
sba(iModules.cell
Cell
p2938
(dp2939
g4
I01
sg255
I01
sg5
(I00
I00
tp2940
sba(iModules.cell
Cell
p2941
(dp2942
g4
I01
sg255
I01
sg5
(I01
I01
tp2943
sba(iModules.cell
Cell
p2944
(dp2945
g4
I01
sg255
I01
sg5
(I01
I01
tp2946
sba(iModules.cell
Cell
p2947
(dp2948
g4
I01
sg255
I01
sg5
(I01
I01
tp2949
sba(iModules.cell
Cell
p2950
(dp2951
g4
I01
sg255
I01
sg5
(I01
I01
tp2952
sba(iModules.cell
Cell
p2953
(dp2954
g4
I01
sg255
I01
sg5
(I01
I01
tp2955
sba(iModules.cell
Cell
p2956
(dp2957
g4
I01
sg255
I01
sg5
(I01
I01
tp2958
sba(iModules.cell
Cell
p2959
(dp2960
g4
I01
sg255
I01
sg5
(I01
I01
tp2961
sba(iModules.cell
Cell
p2962
(dp2963
g4
I01
sg255
I01
sg5
(I01
I01
tp2964
sba(iModules.cell
Cell
p2965
(dp2966
g4
I01
sg255
I01
sg5
(I01
I01
tp2967
sba(iModules.cell
Cell
p2968
(dp2969
g4
I01
sg255
I01
sg5
(I01
I01
tp2970
sba(iModules.cell
Cell
p2971
(dp2972
g4
I01
sg255
I01
sg5
(I01
I01
tp2973
sba(iModules.cell
Cell
p2974
(dp2975
g4
I01
sg255
I01
sg5
(I01
I01
tp2976
sba(iModules.cell
Cell
p2977
(dp2978
g4
I01
sg255
I01
sg5
(I01
I01
tp2979
sba(iModules.cell
Cell
p2980
(dp2981
g4
I00
sg5
(I01
I01
tp2982
sba(iModules.cell
Cell
p2983
(dp2984
g4
I00
sg5
(I01
I01
tp2985
sba(iModules.cell
Cell
p2986
(dp2987
g4
I00
sg5
(I01
I01
tp2988
sba(iModules.cell
Cell
p2989
(dp2990
g4
I00
sg5
(I01
I01
tp2991
sba(iModules.cell
Cell
p2992
(dp2993
g4
I00
sg5
(I01
I01
tp2994
sba(iModules.cell
Cell
p2995
(dp2996
g4
I00
sg5
(I01
I01
tp2997
sba(iModules.cell
Cell
p2998
(dp2999
g4
I00
sg5
(I01
I01
tp3000
sba(iModules.cell
Cell
p3001
(dp3002
g4
I00
sg5
(I01
I01
tp3003
sba(iModules.cell
Cell
p3004
(dp3005
g4
I00
sg5
(I01
I01
tp3006
sba(iModules.cell
Cell
p3007
(dp3008
g4
I00
sg5
(I01
I01
tp3009
sba(iModules.cell
Cell
p3010
(dp3011
g4
I00
sg5
(I01
I01
tp3012
sba(iModules.cell
Cell
p3013
(dp3014
g4
I00
sg5
(I01
I01
tp3015
sba(iModules.cell
Cell
p3016
(dp3017
g4
I00
sg5
(I01
I01
tp3018
sba(iModules.cell
Cell
p3019
(dp3020
g4
I00
sg5
(I01
I01
tp3021
sba(iModules.cell
Cell
p3022
(dp3023
g4
I00
sg5
(I01
I01
tp3024
sba(iModules.cell
Cell
p3025
(dp3026
g4
I00
sg5
(I01
I01
tp3027
sba(iModules.cell
Cell
p3028
(dp3029
g4
I00
sg5
(I01
I01
tp3030
sba(iModules.cell
Cell
p3031
(dp3032
g4
I00
sg5
(I01
I01
tp3033
sba(iModules.cell
Cell
p3034
(dp3035
g4
I00
sg5
(I01
I01
tp3036
sba(iModules.cell
Cell
p3037
(dp3038
g4
I00
sg5
(I01
I01
tp3039
sba(iModules.cell
Cell
p3040
(dp3041
g4
I00
sg5
(I01
I01
tp3042
sba(iModules.cell
Cell
p3043
(dp3044
g4
I00
sg5
(I01
I01
tp3045
sba(iModules.cell
Cell
p3046
(dp3047
g4
I00
sg5
(I01
I01
tp3048
sba(iModules.cell
Cell
p3049
(dp3050
g4
I00
sg5
(I01
I01
tp3051
sba(iModules.cell
Cell
p3052
(dp3053
g4
I00
sg5
(I01
I01
tp3054
sba(iModules.cell
Cell
p3055
(dp3056
g4
I00
sg5
(I01
I01
tp3057
sba(iModules.cell
Cell
p3058
(dp3059
g4
I00
sg5
(I01
I01
tp3060
sba(iModules.cell
Cell
p3061
(dp3062
g4
I00
sg5
(I01
I01
tp3063
sba(iModules.cell
Cell
p3064
(dp3065
g4
I00
sg5
(I01
I01
tp3066
sba(iModules.cell
Cell
p3067
(dp3068
g4
I00
sg5
(I01
I01
tp3069
sba(iModules.cell
Cell
p3070
(dp3071
g4
I00
sg5
(I01
I01
tp3072
sba(iModules.cell
Cell
p3073
(dp3074
g4
I00
sg5
(I01
I01
tp3075
sba(iModules.cell
Cell
p3076
(dp3077
g4
I00
sg5
(I01
I01
tp3078
sba(iModules.cell
Cell
p3079
(dp3080
g4
I00
sg5
(I01
I01
tp3081
sba(iModules.cell
Cell
p3082
(dp3083
g4
I00
sg5
(I01
I01
tp3084
sba(iModules.cell
Cell
p3085
(dp3086
g4
I00
sg5
(I01
I01
tp3087
sba(iModules.cell
Cell
p3088
(dp3089
g4
I00
sg5
(I01
I01
tp3090
sba(iModules.cell
Cell
p3091
(dp3092
g4
I00
sg5
(I01
I01
tp3093
sba(iModules.cell
Cell
p3094
(dp3095
g4
I00
sg5
(I01
I01
tp3096
sba(iModules.cell
Cell
p3097
(dp3098
g4
I00
sg5
(I01
I01
tp3099
sba(iModules.cell
Cell
p3100
(dp3101
g4
I00
sg5
(I01
I01
tp3102
sba(iModules.cell
Cell
p3103
(dp3104
g4
I00
sg5
(I01
I01
tp3105
sba(iModules.cell
Cell
p3106
(dp3107
g4
I00
sg5
(I01
I01
tp3108
sba(iModules.cell
Cell
p3109
(dp3110
g4
I00
sg5
(I01
I01
tp3111
sba(iModules.cell
Cell
p3112
(dp3113
g4
I00
sg5
(I01
I01
tp3114
sba(iModules.cell
Cell
p3115
(dp3116
g4
I00
sg5
(I01
I01
tp3117
sba(iModules.cell
Cell
p3118
(dp3119
g4
I00
sg5
(I00
I00
tp3120
sba(iModules.cell
Cell
p3121
(dp3122
g4
I00
sg5
(I00
I00
tp3123
sba(iModules.cell
Cell
p3124
(dp3125
g4
I00
sg5
(I00
I00
tp3126
sba(iModules.cell
Cell
p3127
(dp3128
g4
I00
sg5
(I00
I00
tp3129
sba(iModules.cell
Cell
p3130
(dp3131
g4
I00
sg5
(I00
I00
tp3132
sba(iModules.cell
Cell
p3133
(dp3134
g4
I00
sg5
(I00
I00
tp3135
sba(iModules.cell
Cell
p3136
(dp3137
g4
I00
sg5
(I00
I00
tp3138
sba(iModules.cell
Cell
p3139
(dp3140
g4
I00
sg5
(I00
I00
tp3141
sba(iModules.cell
Cell
p3142
(dp3143
g4
I00
sg5
(I00
I00
tp3144
sba(iModules.cell
Cell
p3145
(dp3146
g4
I00
sg5
(I00
I00
tp3147
sba(iModules.cell
Cell
p3148
(dp3149
g4
I00
sg5
(I00
I00
tp3150
sba(iModules.cell
Cell
p3151
(dp3152
g4
I00
sg5
(I00
I00
tp3153
sba(iModules.cell
Cell
p3154
(dp3155
g4
I00
sg5
(I00
I00
tp3156
sba(iModules.cell
Cell
p3157
(dp3158
g4
I00
sg5
(I00
I00
tp3159
sba(iModules.cell
Cell
p3160
(dp3161
g4
I00
sg5
(I00
I00
tp3162
sba(iModules.cell
Cell
p3163
(dp3164
g4
I00
sg5
(I00
I00
tp3165
sba(iModules.cell
Cell
p3166
(dp3167
g4
I00
sg5
(I00
I00
tp3168
sba(iModules.cell
Cell
p3169
(dp3170
g4
I00
sg5
(I00
I00
tp3171
sba(iModules.cell
Cell
p3172
(dp3173
g4
I00
sg5
(I00
I00
tp3174
sba(iModules.cell
Cell
p3175
(dp3176
g5
(I00
I00
tp3177
sbaa(lp3178
(iModules.cell
Cell
p3179
(dp3180
g4
I00
sg5
(I00
I00
tp3181
sba(iModules.cell
Cell
p3182
(dp3183
g4
I01
sg255
I01
sg5
(I00
I00
tp3184
sba(iModules.cell
Cell
p3185
(dp3186
g4
I01
sg255
I01
sg5
(I01
I01
tp3187
sba(iModules.cell
Cell
p3188
(dp3189
g4
I01
sg255
I01
sg5
(I01
I01
tp3190
sba(iModules.cell
Cell
p3191
(dp3192
g4
I01
sg255
I01
sg5
(I01
I01
tp3193
sba(iModules.cell
Cell
p3194
(dp3195
g4
I01
sg255
I01
sg5
(I01
I01
tp3196
sba(iModules.cell
Cell
p3197
(dp3198
g4
I01
sg255
I01
sg5
(I01
I01
tp3199
sba(iModules.cell
Cell
p3200
(dp3201
g4
I01
sg255
I01
sg5
(I01
I01
tp3202
sba(iModules.cell
Cell
p3203
(dp3204
g4
I01
sg255
I01
sg5
(I01
I01
tp3205
sba(iModules.cell
Cell
p3206
(dp3207
g4
I01
sg255
I01
sg5
(I01
I01
tp3208
sba(iModules.cell
Cell
p3209
(dp3210
g4
I01
sg255
I01
sg5
(I01
I01
tp3211
sba(iModules.cell
Cell
p3212
(dp3213
g4
I01
sg255
I01
sg5
(I01
I01
tp3214
sba(iModules.cell
Cell
p3215
(dp3216
g4
I01
sg255
I01
sg5
(I01
I01
tp3217
sba(iModules.cell
Cell
p3218
(dp3219
g4
I01
sg255
I01
sg5
(I01
I01
tp3220
sba(iModules.cell
Cell
p3221
(dp3222
g4
I01
sg255
I01
sg5
(I01
I01
tp3223
sba(iModules.cell
Cell
p3224
(dp3225
g4
I00
sg5
(I01
I01
tp3226
sba(iModules.cell
Cell
p3227
(dp3228
g4
I00
sg5
(I01
I01
tp3229
sba(iModules.cell
Cell
p3230
(dp3231
g4
I00
sg5
(I01
I01
tp3232
sba(iModules.cell
Cell
p3233
(dp3234
g4
I00
sg5
(I01
I01
tp3235
sba(iModules.cell
Cell
p3236
(dp3237
g4
I00
sg5
(I01
I01
tp3238
sba(iModules.cell
Cell
p3239
(dp3240
g4
I00
sg5
(I01
I01
tp3241
sba(iModules.cell
Cell
p3242
(dp3243
g4
I00
sg5
(I01
I01
tp3244
sba(iModules.cell
Cell
p3245
(dp3246
g4
I00
sg5
(I01
I01
tp3247
sba(iModules.cell
Cell
p3248
(dp3249
g4
I00
sg5
(I01
I01
tp3250
sba(iModules.cell
Cell
p3251
(dp3252
g4
I00
sg5
(I01
I01
tp3253
sba(iModules.cell
Cell
p3254
(dp3255
g4
I00
sg5
(I01
I01
tp3256
sba(iModules.cell
Cell
p3257
(dp3258
g4
I00
sg5
(I01
I01
tp3259
sba(iModules.cell
Cell
p3260
(dp3261
g4
I00
sg5
(I01
I01
tp3262
sba(iModules.cell
Cell
p3263
(dp3264
g4
I00
sg5
(I01
I01
tp3265
sba(iModules.cell
Cell
p3266
(dp3267
g4
I00
sg5
(I01
I01
tp3268
sba(iModules.cell
Cell
p3269
(dp3270
g4
I00
sg5
(I01
I01
tp3271
sba(iModules.cell
Cell
p3272
(dp3273
g4
I00
sg5
(I01
I01
tp3274
sba(iModules.cell
Cell
p3275
(dp3276
g4
I00
sg5
(I01
I01
tp3277
sba(iModules.cell
Cell
p3278
(dp3279
g4
I00
sg5
(I01
I01
tp3280
sba(iModules.cell
Cell
p3281
(dp3282
g4
I00
sg5
(I01
I01
tp3283
sba(iModules.cell
Cell
p3284
(dp3285
g4
I00
sg5
(I01
I01
tp3286
sba(iModules.cell
Cell
p3287
(dp3288
g4
I00
sg5
(I01
I01
tp3289
sba(iModules.cell
Cell
p3290
(dp3291
g4
I00
sg5
(I01
I01
tp3292
sba(iModules.cell
Cell
p3293
(dp3294
g4
I00
sg5
(I01
I01
tp3295
sba(iModules.cell
Cell
p3296
(dp3297
g4
I00
sg5
(I01
I01
tp3298
sba(iModules.cell
Cell
p3299
(dp3300
g4
I00
sg5
(I01
I01
tp3301
sba(iModules.cell
Cell
p3302
(dp3303
g4
I00
sg5
(I01
I01
tp3304
sba(iModules.cell
Cell
p3305
(dp3306
g4
I00
sg5
(I01
I01
tp3307
sba(iModules.cell
Cell
p3308
(dp3309
g4
I00
sg5
(I01
I01
tp3310
sba(iModules.cell
Cell
p3311
(dp3312
g4
I00
sg5
(I01
I01
tp3313
sba(iModules.cell
Cell
p3314
(dp3315
g4
I00
sg5
(I01
I01
tp3316
sba(iModules.cell
Cell
p3317
(dp3318
g4
I00
sg5
(I01
I01
tp3319
sba(iModules.cell
Cell
p3320
(dp3321
g4
I00
sg5
(I01
I01
tp3322
sba(iModules.cell
Cell
p3323
(dp3324
g4
I00
sg5
(I01
I01
tp3325
sba(iModules.cell
Cell
p3326
(dp3327
g4
I00
sg5
(I01
I01
tp3328
sba(iModules.cell
Cell
p3329
(dp3330
g4
I00
sg5
(I01
I01
tp3331
sba(iModules.cell
Cell
p3332
(dp3333
g4
I00
sg5
(I01
I01
tp3334
sba(iModules.cell
Cell
p3335
(dp3336
g4
I00
sg5
(I01
I01
tp3337
sba(iModules.cell
Cell
p3338
(dp3339
g4
I00
sg5
(I01
I01
tp3340
sba(iModules.cell
Cell
p3341
(dp3342
g4
I00
sg5
(I01
I01
tp3343
sba(iModules.cell
Cell
p3344
(dp3345
g4
I00
sg5
(I01
I01
tp3346
sba(iModules.cell
Cell
p3347
(dp3348
g4
I00
sg5
(I01
I01
tp3349
sba(iModules.cell
Cell
p3350
(dp3351
g4
I00
sg5
(I01
I01
tp3352
sba(iModules.cell
Cell
p3353
(dp3354
g4
I00
sg5
(I01
I01
tp3355
sba(iModules.cell
Cell
p3356
(dp3357
g4
I00
sg5
(I01
I01
tp3358
sba(iModules.cell
Cell
p3359
(dp3360
g4
I00
sg5
(I01
I01
tp3361
sba(iModules.cell
Cell
p3362
(dp3363
g4
I00
sg5
(I00
I00
tp3364
sba(iModules.cell
Cell
p3365
(dp3366
g4
I00
sg5
(I00
I00
tp3367
sba(iModules.cell
Cell
p3368
(dp3369
g4
I00
sg5
(I00
I00
tp3370
sba(iModules.cell
Cell
p3371
(dp3372
g4
I00
sg5
(I00
I00
tp3373
sba(iModules.cell
Cell
p3374
(dp3375
g4
I00
sg5
(I00
I00
tp3376
sba(iModules.cell
Cell
p3377
(dp3378
g4
I00
sg5
(I00
I00
tp3379
sba(iModules.cell
Cell
p3380
(dp3381
g4
I00
sg5
(I00
I00
tp3382
sba(iModules.cell
Cell
p3383
(dp3384
g4
I00
sg5
(I00
I00
tp3385
sba(iModules.cell
Cell
p3386
(dp3387
g4
I00
sg5
(I00
I00
tp3388
sba(iModules.cell
Cell
p3389
(dp3390
g4
I00
sg5
(I00
I00
tp3391
sba(iModules.cell
Cell
p3392
(dp3393
g4
I00
sg5
(I00
I00
tp3394
sba(iModules.cell
Cell
p3395
(dp3396
g4
I00
sg5
(I00
I00
tp3397
sba(iModules.cell
Cell
p3398
(dp3399
g4
I00
sg5
(I00
I00
tp3400
sba(iModules.cell
Cell
p3401
(dp3402
g4
I00
sg5
(I00
I00
tp3403
sba(iModules.cell
Cell
p3404
(dp3405
g4
I00
sg5
(I00
I00
tp3406
sba(iModules.cell
Cell
p3407
(dp3408
g4
I00
sg5
(I00
I00
tp3409
sba(iModules.cell
Cell
p3410
(dp3411
g4
I00
sg5
(I00
I00
tp3412
sba(iModules.cell
Cell
p3413
(dp3414
g4
I00
sg5
(I00
I00
tp3415
sba(iModules.cell
Cell
p3416
(dp3417
g4
I00
sg5
(I00
I00
tp3418
sba(iModules.cell
Cell
p3419
(dp3420
g5
(I00
I00
tp3421
sbaa(lp3422
(iModules.cell
Cell
p3423
(dp3424
g4
I00
sg5
(I00
I00
tp3425
sba(iModules.cell
Cell
p3426
(dp3427
g4
I01
sg255
I01
sg5
(I00
I00
tp3428
sba(iModules.cell
Cell
p3429
(dp3430
g4
I01
sg255
I01
sg5
(I01
I01
tp3431
sba(iModules.cell
Cell
p3432
(dp3433
g4
I01
sg255
I01
sg5
(I01
I01
tp3434
sba(iModules.cell
Cell
p3435
(dp3436
g4
I01
sg255
I01
sg5
(I01
I01
tp3437
sba(iModules.cell
Cell
p3438
(dp3439
g4
I01
sg255
I01
sg5
(I01
I01
tp3440
sba(iModules.cell
Cell
p3441
(dp3442
g4
I01
sg255
I01
sg5
(I01
I01
tp3443
sba(iModules.cell
Cell
p3444
(dp3445
g4
I01
sg255
I01
sg5
(I01
I01
tp3446
sba(iModules.cell
Cell
p3447
(dp3448
g4
I01
sg255
I01
sg5
(I01
I01
tp3449
sba(iModules.cell
Cell
p3450
(dp3451
g4
I01
sg255
I01
sg5
(I01
I01
tp3452
sba(iModules.cell
Cell
p3453
(dp3454
g4
I01
sg255
I01
sg5
(I01
I01
tp3455
sba(iModules.cell
Cell
p3456
(dp3457
g4
I01
sg255
I01
sg5
(I01
I01
tp3458
sba(iModules.cell
Cell
p3459
(dp3460
g4
I01
sg255
I01
sg5
(I01
I01
tp3461
sba(iModules.cell
Cell
p3462
(dp3463
g4
I01
sg255
I01
sg5
(I01
I01
tp3464
sba(iModules.cell
Cell
p3465
(dp3466
g4
I01
sg255
I01
sg5
(I01
I01
tp3467
sba(iModules.cell
Cell
p3468
(dp3469
g4
I00
sg5
(I01
I01
tp3470
sba(iModules.cell
Cell
p3471
(dp3472
g4
I00
sg5
(I01
I01
tp3473
sba(iModules.cell
Cell
p3474
(dp3475
g4
I00
sg5
(I01
I01
tp3476
sba(iModules.cell
Cell
p3477
(dp3478
g4
I00
sg5
(I01
I01
tp3479
sba(iModules.cell
Cell
p3480
(dp3481
g4
I00
sg5
(I01
I01
tp3482
sba(iModules.cell
Cell
p3483
(dp3484
g4
I00
sg5
(I01
I01
tp3485
sba(iModules.cell
Cell
p3486
(dp3487
g4
I00
sg5
(I01
I01
tp3488
sba(iModules.cell
Cell
p3489
(dp3490
g4
I00
sg5
(I01
I01
tp3491
sba(iModules.cell
Cell
p3492
(dp3493
g4
I00
sg5
(I01
I01
tp3494
sba(iModules.cell
Cell
p3495
(dp3496
g4
I00
sg5
(I01
I01
tp3497
sba(iModules.cell
Cell
p3498
(dp3499
g4
I00
sg5
(I01
I01
tp3500
sba(iModules.cell
Cell
p3501
(dp3502
g4
I00
sg5
(I01
I01
tp3503
sba(iModules.cell
Cell
p3504
(dp3505
g4
I00
sg5
(I01
I01
tp3506
sba(iModules.cell
Cell
p3507
(dp3508
g4
I00
sg5
(I01
I01
tp3509
sba(iModules.cell
Cell
p3510
(dp3511
g4
I00
sg5
(I01
I01
tp3512
sba(iModules.cell
Cell
p3513
(dp3514
g4
I00
sg5
(I01
I01
tp3515
sba(iModules.cell
Cell
p3516
(dp3517
g4
I00
sg5
(I01
I01
tp3518
sba(iModules.cell
Cell
p3519
(dp3520
g4
I00
sg5
(I01
I01
tp3521
sba(iModules.cell
Cell
p3522
(dp3523
g4
I00
sg5
(I01
I01
tp3524
sba(iModules.cell
Cell
p3525
(dp3526
g4
I00
sg5
(I01
I01
tp3527
sba(iModules.cell
Cell
p3528
(dp3529
g4
I00
sg5
(I01
I01
tp3530
sba(iModules.cell
Cell
p3531
(dp3532
g4
I00
sg5
(I01
I01
tp3533
sba(iModules.cell
Cell
p3534
(dp3535
g4
I00
sg5
(I01
I01
tp3536
sba(iModules.cell
Cell
p3537
(dp3538
g4
I00
sg5
(I01
I01
tp3539
sba(iModules.cell
Cell
p3540
(dp3541
g4
I00
sg5
(I01
I01
tp3542
sba(iModules.cell
Cell
p3543
(dp3544
g4
I00
sg5
(I01
I01
tp3545
sba(iModules.cell
Cell
p3546
(dp3547
g4
I00
sg5
(I01
I01
tp3548
sba(iModules.cell
Cell
p3549
(dp3550
g4
I00
sg5
(I01
I01
tp3551
sba(iModules.cell
Cell
p3552
(dp3553
g4
I00
sg5
(I01
I01
tp3554
sba(iModules.cell
Cell
p3555
(dp3556
g4
I00
sg5
(I01
I01
tp3557
sba(iModules.cell
Cell
p3558
(dp3559
g4
I00
sg5
(I01
I01
tp3560
sba(iModules.cell
Cell
p3561
(dp3562
g4
I00
sg5
(I01
I01
tp3563
sba(iModules.cell
Cell
p3564
(dp3565
g4
I00
sg5
(I01
I01
tp3566
sba(iModules.cell
Cell
p3567
(dp3568
g4
I00
sg5
(I01
I01
tp3569
sba(iModules.cell
Cell
p3570
(dp3571
g4
I00
sg5
(I01
I01
tp3572
sba(iModules.cell
Cell
p3573
(dp3574
g4
I00
sg5
(I01
I01
tp3575
sba(iModules.cell
Cell
p3576
(dp3577
g4
I00
sg5
(I01
I01
tp3578
sba(iModules.cell
Cell
p3579
(dp3580
g4
I00
sg5
(I01
I01
tp3581
sba(iModules.cell
Cell
p3582
(dp3583
g4
I00
sg5
(I01
I01
tp3584
sba(iModules.cell
Cell
p3585
(dp3586
g4
I00
sg5
(I01
I01
tp3587
sba(iModules.cell
Cell
p3588
(dp3589
g4
I00
sg5
(I01
I01
tp3590
sba(iModules.cell
Cell
p3591
(dp3592
g4
I00
sg5
(I01
I01
tp3593
sba(iModules.cell
Cell
p3594
(dp3595
g4
I00
sg5
(I01
I01
tp3596
sba(iModules.cell
Cell
p3597
(dp3598
g4
I00
sg5
(I01
I01
tp3599
sba(iModules.cell
Cell
p3600
(dp3601
g4
I00
sg5
(I01
I01
tp3602
sba(iModules.cell
Cell
p3603
(dp3604
g4
I00
sg5
(I01
I01
tp3605
sba(iModules.cell
Cell
p3606
(dp3607
g4
I00
sg5
(I00
I00
tp3608
sba(iModules.cell
Cell
p3609
(dp3610
g4
I00
sg5
(I00
I00
tp3611
sba(iModules.cell
Cell
p3612
(dp3613
g4
I00
sg5
(I00
I00
tp3614
sba(iModules.cell
Cell
p3615
(dp3616
g4
I00
sg5
(I00
I00
tp3617
sba(iModules.cell
Cell
p3618
(dp3619
g4
I00
sg5
(I00
I00
tp3620
sba(iModules.cell
Cell
p3621
(dp3622
g4
I00
sg5
(I00
I00
tp3623
sba(iModules.cell
Cell
p3624
(dp3625
g4
I00
sg5
(I00
I00
tp3626
sba(iModules.cell
Cell
p3627
(dp3628
g4
I00
sg5
(I00
I00
tp3629
sba(iModules.cell
Cell
p3630
(dp3631
g4
I00
sg5
(I00
I00
tp3632
sba(iModules.cell
Cell
p3633
(dp3634
g4
I00
sg5
(I00
I00
tp3635
sba(iModules.cell
Cell
p3636
(dp3637
g4
I00
sg5
(I00
I00
tp3638
sba(iModules.cell
Cell
p3639
(dp3640
g4
I00
sg5
(I00
I00
tp3641
sba(iModules.cell
Cell
p3642
(dp3643
g4
I00
sg5
(I00
I00
tp3644
sba(iModules.cell
Cell
p3645
(dp3646
g4
I00
sg5
(I00
I00
tp3647
sba(iModules.cell
Cell
p3648
(dp3649
g4
I00
sg5
(I00
I00
tp3650
sba(iModules.cell
Cell
p3651
(dp3652
g4
I00
sg5
(I00
I00
tp3653
sba(iModules.cell
Cell
p3654
(dp3655
g4
I00
sg5
(I00
I00
tp3656
sba(iModules.cell
Cell
p3657
(dp3658
g4
I00
sg5
(I00
I00
tp3659
sba(iModules.cell
Cell
p3660
(dp3661
g4
I00
sg5
(I00
I00
tp3662
sba(iModules.cell
Cell
p3663
(dp3664
g5
(I00
I00
tp3665
sbaa(lp3666
(iModules.cell
Cell
p3667
(dp3668
g4
I00
sg5
(I00
I00
tp3669
sba(iModules.cell
Cell
p3670
(dp3671
g4
I01
sg255
I01
sg5
(I00
I00
tp3672
sba(iModules.cell
Cell
p3673
(dp3674
g4
I01
sg255
I01
sg5
(I01
I01
tp3675
sba(iModules.cell
Cell
p3676
(dp3677
g4
I01
sg255
I01
sg5
(I01
I01
tp3678
sba(iModules.cell
Cell
p3679
(dp3680
g4
I01
sg255
I01
sg5
(I01
I01
tp3681
sba(iModules.cell
Cell
p3682
(dp3683
g4
I01
sg255
I01
sg5
(I01
I01
tp3684
sba(iModules.cell
Cell
p3685
(dp3686
g4
I01
sg255
I01
sg5
(I01
I01
tp3687
sba(iModules.cell
Cell
p3688
(dp3689
g4
I01
sg255
I01
sg5
(I01
I01
tp3690
sba(iModules.cell
Cell
p3691
(dp3692
g4
I01
sg255
I01
sg5
(I01
I01
tp3693
sba(iModules.cell
Cell
p3694
(dp3695
g4
I01
sg255
I01
sg5
(I01
I01
tp3696
sba(iModules.cell
Cell
p3697
(dp3698
g4
I01
sg255
I01
sg5
(I01
I01
tp3699
sba(iModules.cell
Cell
p3700
(dp3701
g4
I01
sg255
I01
sg5
(I01
I01
tp3702
sba(iModules.cell
Cell
p3703
(dp3704
g4
I01
sg255
I01
sg5
(I01
I01
tp3705
sba(iModules.cell
Cell
p3706
(dp3707
g4
I01
sg255
I01
sg5
(I01
I01
tp3708
sba(iModules.cell
Cell
p3709
(dp3710
g4
I01
sg255
I01
sg5
(I01
I01
tp3711
sba(iModules.cell
Cell
p3712
(dp3713
g4
I00
sg5
(I01
I01
tp3714
sba(iModules.cell
Cell
p3715
(dp3716
g4
I00
sg5
(I01
I01
tp3717
sba(iModules.cell
Cell
p3718
(dp3719
g4
I00
sg5
(I01
I01
tp3720
sba(iModules.cell
Cell
p3721
(dp3722
g4
I00
sg5
(I01
I01
tp3723
sba(iModules.cell
Cell
p3724
(dp3725
g4
I00
sg5
(I01
I01
tp3726
sba(iModules.cell
Cell
p3727
(dp3728
g4
I00
sg5
(I01
I01
tp3729
sba(iModules.cell
Cell
p3730
(dp3731
g4
I00
sg5
(I01
I01
tp3732
sba(iModules.cell
Cell
p3733
(dp3734
g4
I00
sg5
(I01
I01
tp3735
sba(iModules.cell
Cell
p3736
(dp3737
g4
I00
sg5
(I01
I01
tp3738
sba(iModules.cell
Cell
p3739
(dp3740
g4
I00
sg5
(I01
I01
tp3741
sba(iModules.cell
Cell
p3742
(dp3743
g4
I00
sg5
(I01
I01
tp3744
sba(iModules.cell
Cell
p3745
(dp3746
g4
I00
sg5
(I01
I01
tp3747
sba(iModules.cell
Cell
p3748
(dp3749
g4
I00
sg5
(I01
I01
tp3750
sba(iModules.cell
Cell
p3751
(dp3752
g4
I00
sg5
(I01
I01
tp3753
sba(iModules.cell
Cell
p3754
(dp3755
g4
I00
sg5
(I01
I01
tp3756
sba(iModules.cell
Cell
p3757
(dp3758
g4
I00
sg5
(I01
I01
tp3759
sba(iModules.cell
Cell
p3760
(dp3761
g4
I00
sg5
(I01
I01
tp3762
sba(iModules.cell
Cell
p3763
(dp3764
g4
I00
sg5
(I01
I01
tp3765
sba(iModules.cell
Cell
p3766
(dp3767
g4
I00
sg5
(I01
I01
tp3768
sba(iModules.cell
Cell
p3769
(dp3770
g4
I00
sg5
(I01
I01
tp3771
sba(iModules.cell
Cell
p3772
(dp3773
g4
I00
sg5
(I01
I01
tp3774
sba(iModules.cell
Cell
p3775
(dp3776
g4
I00
sg5
(I01
I01
tp3777
sba(iModules.cell
Cell
p3778
(dp3779
g4
I00
sg5
(I01
I01
tp3780
sba(iModules.cell
Cell
p3781
(dp3782
g4
I00
sg5
(I01
I01
tp3783
sba(iModules.cell
Cell
p3784
(dp3785
g4
I00
sg5
(I01
I01
tp3786
sba(iModules.cell
Cell
p3787
(dp3788
g4
I00
sg5
(I01
I01
tp3789
sba(iModules.cell
Cell
p3790
(dp3791
g4
I00
sg5
(I01
I01
tp3792
sba(iModules.cell
Cell
p3793
(dp3794
g4
I00
sg5
(I01
I01
tp3795
sba(iModules.cell
Cell
p3796
(dp3797
g4
I00
sg5
(I01
I01
tp3798
sba(iModules.cell
Cell
p3799
(dp3800
g4
I00
sg5
(I01
I01
tp3801
sba(iModules.cell
Cell
p3802
(dp3803
g4
I00
sg5
(I01
I01
tp3804
sba(iModules.cell
Cell
p3805
(dp3806
g4
I00
sg5
(I01
I01
tp3807
sba(iModules.cell
Cell
p3808
(dp3809
g4
I00
sg5
(I01
I01
tp3810
sba(iModules.cell
Cell
p3811
(dp3812
g4
I00
sg5
(I01
I01
tp3813
sba(iModules.cell
Cell
p3814
(dp3815
g4
I00
sg5
(I01
I01
tp3816
sba(iModules.cell
Cell
p3817
(dp3818
g4
I00
sg5
(I01
I01
tp3819
sba(iModules.cell
Cell
p3820
(dp3821
g4
I00
sg5
(I01
I01
tp3822
sba(iModules.cell
Cell
p3823
(dp3824
g4
I00
sg5
(I01
I01
tp3825
sba(iModules.cell
Cell
p3826
(dp3827
g4
I00
sg5
(I01
I01
tp3828
sba(iModules.cell
Cell
p3829
(dp3830
g4
I00
sg5
(I01
I01
tp3831
sba(iModules.cell
Cell
p3832
(dp3833
g4
I00
sg5
(I01
I01
tp3834
sba(iModules.cell
Cell
p3835
(dp3836
g4
I00
sg5
(I01
I01
tp3837
sba(iModules.cell
Cell
p3838
(dp3839
g4
I00
sg5
(I01
I01
tp3840
sba(iModules.cell
Cell
p3841
(dp3842
g4
I00
sg5
(I01
I01
tp3843
sba(iModules.cell
Cell
p3844
(dp3845
g4
I00
sg5
(I01
I01
tp3846
sba(iModules.cell
Cell
p3847
(dp3848
g4
I00
sg5
(I01
I01
tp3849
sba(iModules.cell
Cell
p3850
(dp3851
g4
I00
sg5
(I00
I00
tp3852
sba(iModules.cell
Cell
p3853
(dp3854
g4
I00
sg5
(I00
I00
tp3855
sba(iModules.cell
Cell
p3856
(dp3857
g4
I00
sg5
(I00
I00
tp3858
sba(iModules.cell
Cell
p3859
(dp3860
g4
I00
sg5
(I00
I00
tp3861
sba(iModules.cell
Cell
p3862
(dp3863
g4
I00
sg5
(I00
I00
tp3864
sba(iModules.cell
Cell
p3865
(dp3866
g4
I00
sg5
(I00
I00
tp3867
sba(iModules.cell
Cell
p3868
(dp3869
g4
I00
sg5
(I00
I00
tp3870
sba(iModules.cell
Cell
p3871
(dp3872
g4
I00
sg5
(I00
I00
tp3873
sba(iModules.cell
Cell
p3874
(dp3875
g4
I00
sg5
(I00
I00
tp3876
sba(iModules.cell
Cell
p3877
(dp3878
g4
I00
sg5
(I00
I00
tp3879
sba(iModules.cell
Cell
p3880
(dp3881
g4
I00
sg5
(I00
I00
tp3882
sba(iModules.cell
Cell
p3883
(dp3884
g4
I00
sg5
(I00
I00
tp3885
sba(iModules.cell
Cell
p3886
(dp3887
g4
I00
sg5
(I00
I00
tp3888
sba(iModules.cell
Cell
p3889
(dp3890
g4
I00
sg5
(I00
I00
tp3891
sba(iModules.cell
Cell
p3892
(dp3893
g4
I00
sg5
(I00
I00
tp3894
sba(iModules.cell
Cell
p3895
(dp3896
g4
I00
sg5
(I00
I00
tp3897
sba(iModules.cell
Cell
p3898
(dp3899
g4
I00
sg5
(I00
I00
tp3900
sba(iModules.cell
Cell
p3901
(dp3902
g4
I00
sg5
(I00
I00
tp3903
sba(iModules.cell
Cell
p3904
(dp3905
g4
I00
sg5
(I00
I00
tp3906
sba(iModules.cell
Cell
p3907
(dp3908
g5
(I00
I00
tp3909
sbaa(lp3910
(iModules.cell
Cell
p3911
(dp3912
g4
I00
sg5
(I00
I00
tp3913
sba(iModules.cell
Cell
p3914
(dp3915
g4
I00
sg5
(I00
I00
tp3916
sba(iModules.cell
Cell
p3917
(dp3918
g4
I00
sg5
(I01
I01
tp3919
sba(iModules.cell
Cell
p3920
(dp3921
g4
I00
sg5
(I01
I01
tp3922
sba(iModules.cell
Cell
p3923
(dp3924
g4
I00
sg5
(I01
I01
tp3925
sba(iModules.cell
Cell
p3926
(dp3927
g4
I00
sg5
(I01
I01
tp3928
sba(iModules.cell
Cell
p3929
(dp3930
g4
I00
sg5
(I01
I01
tp3931
sba(iModules.cell
Cell
p3932
(dp3933
g4
I00
sg5
(I01
I01
tp3934
sba(iModules.cell
Cell
p3935
(dp3936
g4
I00
sg5
(I01
I01
tp3937
sba(iModules.cell
Cell
p3938
(dp3939
g4
I00
sg5
(I01
I01
tp3940
sba(iModules.cell
Cell
p3941
(dp3942
g4
I00
sg5
(I01
I01
tp3943
sba(iModules.cell
Cell
p3944
(dp3945
g4
I00
sg5
(I01
I01
tp3946
sba(iModules.cell
Cell
p3947
(dp3948
g4
I00
sg5
(I01
I01
tp3949
sba(iModules.cell
Cell
p3950
(dp3951
g4
I00
sg5
(I01
I01
tp3952
sba(iModules.cell
Cell
p3953
(dp3954
g4
I00
sg5
(I01
I01
tp3955
sba(iModules.cell
Cell
p3956
(dp3957
g4
I00
sg5
(I01
I01
tp3958
sba(iModules.cell
Cell
p3959
(dp3960
g4
I00
sg5
(I01
I01
tp3961
sba(iModules.cell
Cell
p3962
(dp3963
g4
I00
sg5
(I01
I01
tp3964
sba(iModules.cell
Cell
p3965
(dp3966
g4
I00
sg5
(I01
I01
tp3967
sba(iModules.cell
Cell
p3968
(dp3969
g4
I00
sg5
(I01
I01
tp3970
sba(iModules.cell
Cell
p3971
(dp3972
g4
I00
sg5
(I01
I01
tp3973
sba(iModules.cell
Cell
p3974
(dp3975
g4
I00
sg5
(I01
I01
tp3976
sba(iModules.cell
Cell
p3977
(dp3978
g4
I00
sg5
(I01
I01
tp3979
sba(iModules.cell
Cell
p3980
(dp3981
g4
I00
sg5
(I01
I01
tp3982
sba(iModules.cell
Cell
p3983
(dp3984
g4
I00
sg5
(I01
I01
tp3985
sba(iModules.cell
Cell
p3986
(dp3987
g4
I00
sg5
(I01
I01
tp3988
sba(iModules.cell
Cell
p3989
(dp3990
g4
I00
sg5
(I01
I01
tp3991
sba(iModules.cell
Cell
p3992
(dp3993
g4
I00
sg5
(I01
I01
tp3994
sba(iModules.cell
Cell
p3995
(dp3996
g4
I00
sg5
(I01
I01
tp3997
sba(iModules.cell
Cell
p3998
(dp3999
g4
I00
sg5
(I01
I01
tp4000
sba(iModules.cell
Cell
p4001
(dp4002
g4
I00
sg5
(I01
I01
tp4003
sba(iModules.cell
Cell
p4004
(dp4005
g4
I00
sg5
(I01
I01
tp4006
sba(iModules.cell
Cell
p4007
(dp4008
g4
I00
sg5
(I01
I01
tp4009
sba(iModules.cell
Cell
p4010
(dp4011
g4
I00
sg5
(I01
I01
tp4012
sba(iModules.cell
Cell
p4013
(dp4014
g4
I00
sg5
(I01
I01
tp4015
sba(iModules.cell
Cell
p4016
(dp4017
g4
I00
sg5
(I01
I01
tp4018
sba(iModules.cell
Cell
p4019
(dp4020
g4
I00
sg5
(I01
I01
tp4021
sba(iModules.cell
Cell
p4022
(dp4023
g4
I00
sg5
(I01
I01
tp4024
sba(iModules.cell
Cell
p4025
(dp4026
g4
I00
sg5
(I01
I01
tp4027
sba(iModules.cell
Cell
p4028
(dp4029
g4
I00
sg5
(I01
I01
tp4030
sba(iModules.cell
Cell
p4031
(dp4032
g4
I00
sg5
(I01
I01
tp4033
sba(iModules.cell
Cell
p4034
(dp4035
g4
I00
sg5
(I01
I01
tp4036
sba(iModules.cell
Cell
p4037
(dp4038
g4
I00
sg5
(I01
I01
tp4039
sba(iModules.cell
Cell
p4040
(dp4041
g4
I00
sg5
(I01
I01
tp4042
sba(iModules.cell
Cell
p4043
(dp4044
g4
I00
sg5
(I01
I01
tp4045
sba(iModules.cell
Cell
p4046
(dp4047
g4
I00
sg5
(I01
I01
tp4048
sba(iModules.cell
Cell
p4049
(dp4050
g4
I00
sg5
(I01
I01
tp4051
sba(iModules.cell
Cell
p4052
(dp4053
g4
I00
sg5
(I01
I01
tp4054
sba(iModules.cell
Cell
p4055
(dp4056
g4
I00
sg5
(I01
I01
tp4057
sba(iModules.cell
Cell
p4058
(dp4059
g4
I00
sg5
(I01
I01
tp4060
sba(iModules.cell
Cell
p4061
(dp4062
g4
I00
sg5
(I01
I01
tp4063
sba(iModules.cell
Cell
p4064
(dp4065
g4
I00
sg5
(I01
I01
tp4066
sba(iModules.cell
Cell
p4067
(dp4068
g4
I00
sg5
(I01
I01
tp4069
sba(iModules.cell
Cell
p4070
(dp4071
g4
I00
sg5
(I01
I01
tp4072
sba(iModules.cell
Cell
p4073
(dp4074
g4
I00
sg5
(I01
I01
tp4075
sba(iModules.cell
Cell
p4076
(dp4077
g4
I00
sg5
(I01
I01
tp4078
sba(iModules.cell
Cell
p4079
(dp4080
g4
I00
sg5
(I01
I01
tp4081
sba(iModules.cell
Cell
p4082
(dp4083
g4
I00
sg5
(I01
I01
tp4084
sba(iModules.cell
Cell
p4085
(dp4086
g4
I00
sg5
(I01
I01
tp4087
sba(iModules.cell
Cell
p4088
(dp4089
g4
I00
sg5
(I01
I01
tp4090
sba(iModules.cell
Cell
p4091
(dp4092
g4
I00
sg5
(I01
I01
tp4093
sba(iModules.cell
Cell
p4094
(dp4095
g4
I00
sg5
(I00
I00
tp4096
sba(iModules.cell
Cell
p4097
(dp4098
g4
I00
sg5
(I00
I00
tp4099
sba(iModules.cell
Cell
p4100
(dp4101
g4
I00
sg5
(I00
I00
tp4102
sba(iModules.cell
Cell
p4103
(dp4104
g4
I00
sg5
(I00
I00
tp4105
sba(iModules.cell
Cell
p4106
(dp4107
g4
I00
sg5
(I00
I00
tp4108
sba(iModules.cell
Cell
p4109
(dp4110
g4
I00
sg5
(I00
I00
tp4111
sba(iModules.cell
Cell
p4112
(dp4113
g4
I00
sg5
(I00
I00
tp4114
sba(iModules.cell
Cell
p4115
(dp4116
g4
I00
sg5
(I00
I00
tp4117
sba(iModules.cell
Cell
p4118
(dp4119
g4
I00
sg5
(I00
I00
tp4120
sba(iModules.cell
Cell
p4121
(dp4122
g4
I00
sg5
(I00
I00
tp4123
sba(iModules.cell
Cell
p4124
(dp4125
g4
I00
sg5
(I00
I00
tp4126
sba(iModules.cell
Cell
p4127
(dp4128
g4
I00
sg5
(I00
I00
tp4129
sba(iModules.cell
Cell
p4130
(dp4131
g4
I00
sg5
(I00
I00
tp4132
sba(iModules.cell
Cell
p4133
(dp4134
g4
I00
sg5
(I00
I00
tp4135
sba(iModules.cell
Cell
p4136
(dp4137
g4
I00
sg5
(I00
I00
tp4138
sba(iModules.cell
Cell
p4139
(dp4140
g4
I00
sg5
(I00
I00
tp4141
sba(iModules.cell
Cell
p4142
(dp4143
g4
I00
sg5
(I00
I00
tp4144
sba(iModules.cell
Cell
p4145
(dp4146
g4
I00
sg5
(I00
I00
tp4147
sba(iModules.cell
Cell
p4148
(dp4149
g4
I00
sg5
(I00
I00
tp4150
sba(iModules.cell
Cell
p4151
(dp4152
g5
(I00
I00
tp4153
sbaa(lp4154
(iModules.cell
Cell
p4155
(dp4156
g4
I00
sg5
(I00
I00
tp4157
sba(iModules.cell
Cell
p4158
(dp4159
g4
I00
sg5
(I00
I00
tp4160
sba(iModules.cell
Cell
p4161
(dp4162
g4
I00
sg5
(I01
I01
tp4163
sba(iModules.cell
Cell
p4164
(dp4165
g4
I00
sg5
(I01
I01
tp4166
sba(iModules.cell
Cell
p4167
(dp4168
g4
I00
sg5
(I01
I01
tp4169
sba(iModules.cell
Cell
p4170
(dp4171
g4
I00
sg5
(I01
I01
tp4172
sba(iModules.cell
Cell
p4173
(dp4174
g4
I00
sg5
(I01
I01
tp4175
sba(iModules.cell
Cell
p4176
(dp4177
g4
I00
sg5
(I01
I01
tp4178
sba(iModules.cell
Cell
p4179
(dp4180
g4
I00
sg5
(I01
I01
tp4181
sba(iModules.cell
Cell
p4182
(dp4183
g4
I00
sg5
(I01
I01
tp4184
sba(iModules.cell
Cell
p4185
(dp4186
g4
I00
sg5
(I01
I01
tp4187
sba(iModules.cell
Cell
p4188
(dp4189
g4
I00
sg5
(I01
I01
tp4190
sba(iModules.cell
Cell
p4191
(dp4192
g4
I00
sg5
(I01
I01
tp4193
sba(iModules.cell
Cell
p4194
(dp4195
g4
I00
sg5
(I01
I01
tp4196
sba(iModules.cell
Cell
p4197
(dp4198
g4
I00
sg5
(I01
I01
tp4199
sba(iModules.cell
Cell
p4200
(dp4201
g4
I00
sg5
(I01
I01
tp4202
sba(iModules.cell
Cell
p4203
(dp4204
g4
I00
sg5
(I01
I01
tp4205
sba(iModules.cell
Cell
p4206
(dp4207
g4
I00
sg5
(I01
I01
tp4208
sba(iModules.cell
Cell
p4209
(dp4210
g4
I00
sg5
(I01
I01
tp4211
sba(iModules.cell
Cell
p4212
(dp4213
g4
I00
sg5
(I01
I01
tp4214
sba(iModules.cell
Cell
p4215
(dp4216
g4
I00
sg5
(I01
I01
tp4217
sba(iModules.cell
Cell
p4218
(dp4219
g4
I00
sg5
(I01
I01
tp4220
sba(iModules.cell
Cell
p4221
(dp4222
g4
I00
sg5
(I01
I01
tp4223
sba(iModules.cell
Cell
p4224
(dp4225
g4
I00
sg5
(I01
I01
tp4226
sba(iModules.cell
Cell
p4227
(dp4228
g4
I00
sg5
(I01
I01
tp4229
sba(iModules.cell
Cell
p4230
(dp4231
g4
I00
sg5
(I01
I01
tp4232
sba(iModules.cell
Cell
p4233
(dp4234
g4
I00
sg5
(I01
I01
tp4235
sba(iModules.cell
Cell
p4236
(dp4237
g4
I00
sg5
(I01
I01
tp4238
sba(iModules.cell
Cell
p4239
(dp4240
g4
I00
sg5
(I01
I01
tp4241
sba(iModules.cell
Cell
p4242
(dp4243
g4
I00
sg5
(I01
I01
tp4244
sba(iModules.cell
Cell
p4245
(dp4246
g4
I00
sg5
(I01
I01
tp4247
sba(iModules.cell
Cell
p4248
(dp4249
g4
I00
sg5
(I01
I01
tp4250
sba(iModules.cell
Cell
p4251
(dp4252
g4
I00
sg5
(I01
I01
tp4253
sba(iModules.cell
Cell
p4254
(dp4255
g4
I00
sg5
(I01
I01
tp4256
sba(iModules.cell
Cell
p4257
(dp4258
g4
I00
sg5
(I01
I01
tp4259
sba(iModules.cell
Cell
p4260
(dp4261
g4
I00
sg5
(I01
I01
tp4262
sba(iModules.cell
Cell
p4263
(dp4264
g4
I00
sg5
(I01
I01
tp4265
sba(iModules.cell
Cell
p4266
(dp4267
g4
I00
sg5
(I01
I01
tp4268
sba(iModules.cell
Cell
p4269
(dp4270
g4
I00
sg5
(I01
I01
tp4271
sba(iModules.cell
Cell
p4272
(dp4273
g4
I00
sg5
(I01
I01
tp4274
sba(iModules.cell
Cell
p4275
(dp4276
g4
I00
sg5
(I01
I01
tp4277
sba(iModules.cell
Cell
p4278
(dp4279
g4
I00
sg5
(I01
I01
tp4280
sba(iModules.cell
Cell
p4281
(dp4282
g4
I00
sg5
(I01
I01
tp4283
sba(iModules.cell
Cell
p4284
(dp4285
g4
I00
sg5
(I01
I01
tp4286
sba(iModules.cell
Cell
p4287
(dp4288
g4
I00
sg5
(I01
I01
tp4289
sba(iModules.cell
Cell
p4290
(dp4291
g4
I00
sg5
(I01
I01
tp4292
sba(iModules.cell
Cell
p4293
(dp4294
g4
I00
sg5
(I01
I01
tp4295
sba(iModules.cell
Cell
p4296
(dp4297
g4
I00
sg5
(I01
I01
tp4298
sba(iModules.cell
Cell
p4299
(dp4300
g4
I00
sg5
(I01
I01
tp4301
sba(iModules.cell
Cell
p4302
(dp4303
g4
I00
sg5
(I01
I01
tp4304
sba(iModules.cell
Cell
p4305
(dp4306
g4
I00
sg5
(I01
I01
tp4307
sba(iModules.cell
Cell
p4308
(dp4309
g4
I00
sg5
(I01
I01
tp4310
sba(iModules.cell
Cell
p4311
(dp4312
g4
I00
sg5
(I01
I01
tp4313
sba(iModules.cell
Cell
p4314
(dp4315
g4
I00
sg5
(I01
I01
tp4316
sba(iModules.cell
Cell
p4317
(dp4318
g4
I00
sg5
(I01
I01
tp4319
sba(iModules.cell
Cell
p4320
(dp4321
g4
I00
sg5
(I01
I01
tp4322
sba(iModules.cell
Cell
p4323
(dp4324
g4
I00
sg5
(I01
I01
tp4325
sba(iModules.cell
Cell
p4326
(dp4327
g4
I00
sg5
(I01
I01
tp4328
sba(iModules.cell
Cell
p4329
(dp4330
g4
I00
sg5
(I01
I01
tp4331
sba(iModules.cell
Cell
p4332
(dp4333
g4
I00
sg5
(I01
I01
tp4334
sba(iModules.cell
Cell
p4335
(dp4336
g4
I00
sg5
(I01
I01
tp4337
sba(iModules.cell
Cell
p4338
(dp4339
g4
I00
sg5
(I00
I00
tp4340
sba(iModules.cell
Cell
p4341
(dp4342
g4
I00
sg5
(I00
I00
tp4343
sba(iModules.cell
Cell
p4344
(dp4345
g4
I00
sg5
(I00
I00
tp4346
sba(iModules.cell
Cell
p4347
(dp4348
g4
I00
sg5
(I00
I00
tp4349
sba(iModules.cell
Cell
p4350
(dp4351
g4
I00
sg5
(I00
I00
tp4352
sba(iModules.cell
Cell
p4353
(dp4354
g4
I00
sg5
(I00
I00
tp4355
sba(iModules.cell
Cell
p4356
(dp4357
g4
I00
sg5
(I00
I00
tp4358
sba(iModules.cell
Cell
p4359
(dp4360
g4
I00
sg5
(I00
I00
tp4361
sba(iModules.cell
Cell
p4362
(dp4363
g4
I00
sg5
(I00
I00
tp4364
sba(iModules.cell
Cell
p4365
(dp4366
g4
I00
sg5
(I00
I00
tp4367
sba(iModules.cell
Cell
p4368
(dp4369
g4
I00
sg5
(I00
I00
tp4370
sba(iModules.cell
Cell
p4371
(dp4372
g4
I00
sg5
(I00
I00
tp4373
sba(iModules.cell
Cell
p4374
(dp4375
g4
I00
sg5
(I00
I00
tp4376
sba(iModules.cell
Cell
p4377
(dp4378
g4
I00
sg5
(I00
I00
tp4379
sba(iModules.cell
Cell
p4380
(dp4381
g4
I00
sg5
(I00
I00
tp4382
sba(iModules.cell
Cell
p4383
(dp4384
g4
I00
sg5
(I00
I00
tp4385
sba(iModules.cell
Cell
p4386
(dp4387
g4
I00
sg5
(I00
I00
tp4388
sba(iModules.cell
Cell
p4389
(dp4390
g4
I00
sg5
(I00
I00
tp4391
sba(iModules.cell
Cell
p4392
(dp4393
g4
I00
sg5
(I00
I00
tp4394
sba(iModules.cell
Cell
p4395
(dp4396
g5
(I00
I00
tp4397
sbaa(lp4398
(iModules.cell
Cell
p4399
(dp4400
g4
I00
sg5
(I00
I00
tp4401
sba(iModules.cell
Cell
p4402
(dp4403
g4
I00
sg5
(I00
I00
tp4404
sba(iModules.cell
Cell
p4405
(dp4406
g4
I00
sg5
(I01
I01
tp4407
sba(iModules.cell
Cell
p4408
(dp4409
g4
I00
sg5
(I01
I01
tp4410
sba(iModules.cell
Cell
p4411
(dp4412
g4
I00
sg5
(I01
I01
tp4413
sba(iModules.cell
Cell
p4414
(dp4415
g4
I00
sg5
(I01
I01
tp4416
sba(iModules.cell
Cell
p4417
(dp4418
g4
I00
sg5
(I01
I01
tp4419
sba(iModules.cell
Cell
p4420
(dp4421
g4
I00
sg5
(I01
I01
tp4422
sba(iModules.cell
Cell
p4423
(dp4424
g4
I00
sg5
(I01
I01
tp4425
sba(iModules.cell
Cell
p4426
(dp4427
g4
I00
sg5
(I01
I01
tp4428
sba(iModules.cell
Cell
p4429
(dp4430
g4
I00
sg5
(I01
I01
tp4431
sba(iModules.cell
Cell
p4432
(dp4433
g4
I00
sg5
(I01
I01
tp4434
sba(iModules.cell
Cell
p4435
(dp4436
g4
I00
sg5
(I01
I01
tp4437
sba(iModules.cell
Cell
p4438
(dp4439
g4
I00
sg5
(I01
I01
tp4440
sba(iModules.cell
Cell
p4441
(dp4442
g4
I00
sg5
(I01
I01
tp4443
sba(iModules.cell
Cell
p4444
(dp4445
g4
I00
sg5
(I01
I01
tp4446
sba(iModules.cell
Cell
p4447
(dp4448
g4
I00
sg5
(I01
I01
tp4449
sba(iModules.cell
Cell
p4450
(dp4451
g4
I00
sg5
(I01
I01
tp4452
sba(iModules.cell
Cell
p4453
(dp4454
g4
I00
sg5
(I01
I01
tp4455
sba(iModules.cell
Cell
p4456
(dp4457
g4
I00
sg5
(I01
I01
tp4458
sba(iModules.cell
Cell
p4459
(dp4460
g4
I00
sg5
(I01
I01
tp4461
sba(iModules.cell
Cell
p4462
(dp4463
g4
I00
sg5
(I01
I01
tp4464
sba(iModules.cell
Cell
p4465
(dp4466
g4
I00
sg5
(I01
I01
tp4467
sba(iModules.cell
Cell
p4468
(dp4469
g4
I00
sg5
(I01
I01
tp4470
sba(iModules.cell
Cell
p4471
(dp4472
g4
I00
sg5
(I01
I01
tp4473
sba(iModules.cell
Cell
p4474
(dp4475
g4
I00
sg5
(I01
I01
tp4476
sba(iModules.cell
Cell
p4477
(dp4478
g4
I00
sg5
(I01
I01
tp4479
sba(iModules.cell
Cell
p4480
(dp4481
g4
I00
sg5
(I01
I01
tp4482
sba(iModules.cell
Cell
p4483
(dp4484
g4
I00
sg5
(I01
I01
tp4485
sba(iModules.cell
Cell
p4486
(dp4487
g4
I00
sg5
(I01
I01
tp4488
sba(iModules.cell
Cell
p4489
(dp4490
g4
I00
sg5
(I01
I01
tp4491
sba(iModules.cell
Cell
p4492
(dp4493
g4
I00
sg5
(I01
I01
tp4494
sba(iModules.cell
Cell
p4495
(dp4496
g4
I00
sg5
(I01
I01
tp4497
sba(iModules.cell
Cell
p4498
(dp4499
g4
I00
sg5
(I01
I01
tp4500
sba(iModules.cell
Cell
p4501
(dp4502
g4
I00
sg5
(I01
I01
tp4503
sba(iModules.cell
Cell
p4504
(dp4505
g4
I00
sg5
(I01
I01
tp4506
sba(iModules.cell
Cell
p4507
(dp4508
g4
I00
sg5
(I01
I01
tp4509
sba(iModules.cell
Cell
p4510
(dp4511
g4
I00
sg5
(I01
I01
tp4512
sba(iModules.cell
Cell
p4513
(dp4514
g4
I00
sg5
(I01
I01
tp4515
sba(iModules.cell
Cell
p4516
(dp4517
g4
I00
sg5
(I01
I01
tp4518
sba(iModules.cell
Cell
p4519
(dp4520
g4
I00
sg5
(I01
I01
tp4521
sba(iModules.cell
Cell
p4522
(dp4523
g4
I00
sg5
(I01
I01
tp4524
sba(iModules.cell
Cell
p4525
(dp4526
g4
I00
sg5
(I01
I01
tp4527
sba(iModules.cell
Cell
p4528
(dp4529
g4
I00
sg5
(I01
I01
tp4530
sba(iModules.cell
Cell
p4531
(dp4532
g4
I00
sg5
(I01
I01
tp4533
sba(iModules.cell
Cell
p4534
(dp4535
g4
I00
sg5
(I01
I01
tp4536
sba(iModules.cell
Cell
p4537
(dp4538
g4
I00
sg5
(I01
I01
tp4539
sba(iModules.cell
Cell
p4540
(dp4541
g4
I00
sg5
(I01
I01
tp4542
sba(iModules.cell
Cell
p4543
(dp4544
g4
I00
sg5
(I01
I01
tp4545
sba(iModules.cell
Cell
p4546
(dp4547
g4
I00
sg5
(I01
I01
tp4548
sba(iModules.cell
Cell
p4549
(dp4550
g4
I00
sg5
(I01
I01
tp4551
sba(iModules.cell
Cell
p4552
(dp4553
g4
I00
sg5
(I01
I01
tp4554
sba(iModules.cell
Cell
p4555
(dp4556
g4
I00
sg5
(I01
I01
tp4557
sba(iModules.cell
Cell
p4558
(dp4559
g4
I00
sg5
(I01
I01
tp4560
sba(iModules.cell
Cell
p4561
(dp4562
g4
I00
sg5
(I01
I01
tp4563
sba(iModules.cell
Cell
p4564
(dp4565
g4
I00
sg5
(I01
I01
tp4566
sba(iModules.cell
Cell
p4567
(dp4568
g4
I00
sg5
(I01
I01
tp4569
sba(iModules.cell
Cell
p4570
(dp4571
g4
I00
sg5
(I01
I01
tp4572
sba(iModules.cell
Cell
p4573
(dp4574
g4
I00
sg5
(I01
I01
tp4575
sba(iModules.cell
Cell
p4576
(dp4577
g4
I00
sg5
(I01
I01
tp4578
sba(iModules.cell
Cell
p4579
(dp4580
g4
I00
sg5
(I01
I01
tp4581
sba(iModules.cell
Cell
p4582
(dp4583
g4
I00
sg5
(I00
I00
tp4584
sba(iModules.cell
Cell
p4585
(dp4586
g4
I00
sg5
(I00
I00
tp4587
sba(iModules.cell
Cell
p4588
(dp4589
g4
I00
sg5
(I00
I00
tp4590
sba(iModules.cell
Cell
p4591
(dp4592
g4
I00
sg5
(I00
I00
tp4593
sba(iModules.cell
Cell
p4594
(dp4595
g4
I00
sg5
(I00
I00
tp4596
sba(iModules.cell
Cell
p4597
(dp4598
g4
I00
sg5
(I00
I00
tp4599
sba(iModules.cell
Cell
p4600
(dp4601
g4
I00
sg5
(I00
I00
tp4602
sba(iModules.cell
Cell
p4603
(dp4604
g4
I00
sg5
(I00
I00
tp4605
sba(iModules.cell
Cell
p4606
(dp4607
g4
I00
sg5
(I00
I00
tp4608
sba(iModules.cell
Cell
p4609
(dp4610
g4
I00
sg5
(I00
I00
tp4611
sba(iModules.cell
Cell
p4612
(dp4613
g4
I00
sg5
(I00
I00
tp4614
sba(iModules.cell
Cell
p4615
(dp4616
g4
I00
sg5
(I00
I00
tp4617
sba(iModules.cell
Cell
p4618
(dp4619
g4
I00
sg5
(I00
I00
tp4620
sba(iModules.cell
Cell
p4621
(dp4622
g4
I00
sg5
(I00
I00
tp4623
sba(iModules.cell
Cell
p4624
(dp4625
g4
I00
sg5
(I00
I00
tp4626
sba(iModules.cell
Cell
p4627
(dp4628
g4
I00
sg5
(I00
I00
tp4629
sba(iModules.cell
Cell
p4630
(dp4631
g4
I00
sg5
(I00
I00
tp4632
sba(iModules.cell
Cell
p4633
(dp4634
g4
I00
sg5
(I00
I00
tp4635
sba(iModules.cell
Cell
p4636
(dp4637
g4
I00
sg5
(I00
I00
tp4638
sba(iModules.cell
Cell
p4639
(dp4640
g5
(I00
I00
tp4641
sbaa(lp4642
(iModules.cell
Cell
p4643
(dp4644
g4
I00
sg5
(I00
I00
tp4645
sba(iModules.cell
Cell
p4646
(dp4647
g4
I00
sg5
(I00
I00
tp4648
sba(iModules.cell
Cell
p4649
(dp4650
g4
I00
sg5
(I01
I01
tp4651
sba(iModules.cell
Cell
p4652
(dp4653
g4
I00
sg5
(I01
I01
tp4654
sba(iModules.cell
Cell
p4655
(dp4656
g4
I00
sg5
(I01
I01
tp4657
sba(iModules.cell
Cell
p4658
(dp4659
g4
I00
sg5
(I01
I01
tp4660
sba(iModules.cell
Cell
p4661
(dp4662
g4
I00
sg5
(I01
I01
tp4663
sba(iModules.cell
Cell
p4664
(dp4665
g4
I00
sg5
(I01
I01
tp4666
sba(iModules.cell
Cell
p4667
(dp4668
g4
I00
sg5
(I01
I01
tp4669
sba(iModules.cell
Cell
p4670
(dp4671
g4
I00
sg5
(I01
I01
tp4672
sba(iModules.cell
Cell
p4673
(dp4674
g4
I00
sg5
(I01
I01
tp4675
sba(iModules.cell
Cell
p4676
(dp4677
g4
I00
sg5
(I01
I01
tp4678
sba(iModules.cell
Cell
p4679
(dp4680
g4
I00
sg5
(I01
I01
tp4681
sba(iModules.cell
Cell
p4682
(dp4683
g4
I00
sg5
(I01
I01
tp4684
sba(iModules.cell
Cell
p4685
(dp4686
g4
I00
sg5
(I01
I01
tp4687
sba(iModules.cell
Cell
p4688
(dp4689
g4
I00
sg5
(I01
I01
tp4690
sba(iModules.cell
Cell
p4691
(dp4692
g4
I00
sg5
(I01
I01
tp4693
sba(iModules.cell
Cell
p4694
(dp4695
g4
I00
sg5
(I01
I01
tp4696
sba(iModules.cell
Cell
p4697
(dp4698
g4
I00
sg5
(I01
I01
tp4699
sba(iModules.cell
Cell
p4700
(dp4701
g4
I00
sg5
(I01
I01
tp4702
sba(iModules.cell
Cell
p4703
(dp4704
g4
I00
sg5
(I01
I01
tp4705
sba(iModules.cell
Cell
p4706
(dp4707
g4
I00
sg5
(I01
I01
tp4708
sba(iModules.cell
Cell
p4709
(dp4710
g4
I00
sg5
(I01
I01
tp4711
sba(iModules.cell
Cell
p4712
(dp4713
g4
I00
sg5
(I01
I01
tp4714
sba(iModules.cell
Cell
p4715
(dp4716
g4
I00
sg5
(I01
I01
tp4717
sba(iModules.cell
Cell
p4718
(dp4719
g4
I00
sg5
(I01
I01
tp4720
sba(iModules.cell
Cell
p4721
(dp4722
g4
I00
sg5
(I01
I01
tp4723
sba(iModules.cell
Cell
p4724
(dp4725
g4
I00
sg5
(I01
I01
tp4726
sba(iModules.cell
Cell
p4727
(dp4728
g4
I00
sg5
(I01
I01
tp4729
sba(iModules.cell
Cell
p4730
(dp4731
g4
I00
sg5
(I01
I01
tp4732
sba(iModules.cell
Cell
p4733
(dp4734
g4
I00
sg5
(I01
I01
tp4735
sba(iModules.cell
Cell
p4736
(dp4737
g4
I00
sg5
(I01
I01
tp4738
sba(iModules.cell
Cell
p4739
(dp4740
g4
I00
sg5
(I01
I01
tp4741
sba(iModules.cell
Cell
p4742
(dp4743
g4
I00
sg5
(I01
I01
tp4744
sba(iModules.cell
Cell
p4745
(dp4746
g4
I00
sg5
(I01
I01
tp4747
sba(iModules.cell
Cell
p4748
(dp4749
g4
I00
sg5
(I01
I01
tp4750
sba(iModules.cell
Cell
p4751
(dp4752
g4
I00
sg5
(I01
I01
tp4753
sba(iModules.cell
Cell
p4754
(dp4755
g4
I00
sg5
(I01
I01
tp4756
sba(iModules.cell
Cell
p4757
(dp4758
g4
I00
sg5
(I01
I01
tp4759
sba(iModules.cell
Cell
p4760
(dp4761
g4
I00
sg5
(I01
I01
tp4762
sba(iModules.cell
Cell
p4763
(dp4764
g4
I00
sg5
(I01
I01
tp4765
sba(iModules.cell
Cell
p4766
(dp4767
g4
I00
sg5
(I01
I01
tp4768
sba(iModules.cell
Cell
p4769
(dp4770
g4
I00
sg5
(I01
I01
tp4771
sba(iModules.cell
Cell
p4772
(dp4773
g4
I00
sg5
(I01
I01
tp4774
sba(iModules.cell
Cell
p4775
(dp4776
g4
I00
sg5
(I01
I01
tp4777
sba(iModules.cell
Cell
p4778
(dp4779
g4
I00
sg5
(I01
I01
tp4780
sba(iModules.cell
Cell
p4781
(dp4782
g4
I00
sg5
(I01
I01
tp4783
sba(iModules.cell
Cell
p4784
(dp4785
g4
I00
sg5
(I01
I01
tp4786
sba(iModules.cell
Cell
p4787
(dp4788
g4
I00
sg5
(I01
I01
tp4789
sba(iModules.cell
Cell
p4790
(dp4791
g4
I00
sg5
(I01
I01
tp4792
sba(iModules.cell
Cell
p4793
(dp4794
g4
I00
sg5
(I01
I01
tp4795
sba(iModules.cell
Cell
p4796
(dp4797
g4
I00
sg5
(I01
I01
tp4798
sba(iModules.cell
Cell
p4799
(dp4800
g4
I00
sg5
(I01
I01
tp4801
sba(iModules.cell
Cell
p4802
(dp4803
g4
I00
sg5
(I01
I01
tp4804
sba(iModules.cell
Cell
p4805
(dp4806
g4
I00
sg5
(I01
I01
tp4807
sba(iModules.cell
Cell
p4808
(dp4809
g4
I00
sg5
(I01
I01
tp4810
sba(iModules.cell
Cell
p4811
(dp4812
g4
I00
sg5
(I01
I01
tp4813
sba(iModules.cell
Cell
p4814
(dp4815
g4
I00
sg5
(I01
I01
tp4816
sba(iModules.cell
Cell
p4817
(dp4818
g4
I00
sg5
(I01
I01
tp4819
sba(iModules.cell
Cell
p4820
(dp4821
g4
I00
sg5
(I01
I01
tp4822
sba(iModules.cell
Cell
p4823
(dp4824
g4
I00
sg5
(I01
I01
tp4825
sba(iModules.cell
Cell
p4826
(dp4827
g4
I00
sg5
(I00
I00
tp4828
sba(iModules.cell
Cell
p4829
(dp4830
g4
I00
sg5
(I00
I00
tp4831
sba(iModules.cell
Cell
p4832
(dp4833
g4
I00
sg5
(I00
I00
tp4834
sba(iModules.cell
Cell
p4835
(dp4836
g4
I00
sg5
(I00
I00
tp4837
sba(iModules.cell
Cell
p4838
(dp4839
g4
I00
sg5
(I00
I00
tp4840
sba(iModules.cell
Cell
p4841
(dp4842
g4
I00
sg5
(I00
I00
tp4843
sba(iModules.cell
Cell
p4844
(dp4845
g4
I00
sg5
(I00
I00
tp4846
sba(iModules.cell
Cell
p4847
(dp4848
g4
I00
sg5
(I00
I00
tp4849
sba(iModules.cell
Cell
p4850
(dp4851
g4
I00
sg5
(I00
I00
tp4852
sba(iModules.cell
Cell
p4853
(dp4854
g4
I00
sg5
(I00
I00
tp4855
sba(iModules.cell
Cell
p4856
(dp4857
g4
I00
sg5
(I00
I00
tp4858
sba(iModules.cell
Cell
p4859
(dp4860
g4
I00
sg5
(I00
I00
tp4861
sba(iModules.cell
Cell
p4862
(dp4863
g4
I00
sg5
(I00
I00
tp4864
sba(iModules.cell
Cell
p4865
(dp4866
g4
I00
sg5
(I00
I00
tp4867
sba(iModules.cell
Cell
p4868
(dp4869
g4
I00
sg5
(I00
I00
tp4870
sba(iModules.cell
Cell
p4871
(dp4872
g4
I00
sg5
(I00
I00
tp4873
sba(iModules.cell
Cell
p4874
(dp4875
g4
I00
sg5
(I00
I00
tp4876
sba(iModules.cell
Cell
p4877
(dp4878
g4
I00
sg5
(I00
I00
tp4879
sba(iModules.cell
Cell
p4880
(dp4881
g4
I00
sg5
(I00
I00
tp4882
sba(iModules.cell
Cell
p4883
(dp4884
g5
(I00
I00
tp4885
sbaa(lp4886
(iModules.cell
Cell
p4887
(dp4888
g4
I00
sg5
(I00
I00
tp4889
sba(iModules.cell
Cell
p4890
(dp4891
g4
I00
sg5
(I00
I00
tp4892
sba(iModules.cell
Cell
p4893
(dp4894
g4
I00
sg5
(I01
I01
tp4895
sba(iModules.cell
Cell
p4896
(dp4897
g4
I00
sg5
(I01
I01
tp4898
sba(iModules.cell
Cell
p4899
(dp4900
g4
I00
sg5
(I01
I01
tp4901
sba(iModules.cell
Cell
p4902
(dp4903
g4
I00
sg5
(I01
I01
tp4904
sba(iModules.cell
Cell
p4905
(dp4906
g4
I00
sg5
(I01
I01
tp4907
sba(iModules.cell
Cell
p4908
(dp4909
g4
I00
sg5
(I01
I01
tp4910
sba(iModules.cell
Cell
p4911
(dp4912
g4
I00
sg5
(I01
I01
tp4913
sba(iModules.cell
Cell
p4914
(dp4915
g4
I00
sg5
(I01
I01
tp4916
sba(iModules.cell
Cell
p4917
(dp4918
g4
I00
sg5
(I01
I01
tp4919
sba(iModules.cell
Cell
p4920
(dp4921
g4
I00
sg5
(I01
I01
tp4922
sba(iModules.cell
Cell
p4923
(dp4924
g4
I00
sg5
(I01
I01
tp4925
sba(iModules.cell
Cell
p4926
(dp4927
g4
I00
sg5
(I01
I01
tp4928
sba(iModules.cell
Cell
p4929
(dp4930
g4
I00
sg5
(I01
I01
tp4931
sba(iModules.cell
Cell
p4932
(dp4933
g4
I00
sg5
(I01
I01
tp4934
sba(iModules.cell
Cell
p4935
(dp4936
g4
I00
sg5
(I01
I01
tp4937
sba(iModules.cell
Cell
p4938
(dp4939
g4
I00
sg5
(I01
I01
tp4940
sba(iModules.cell
Cell
p4941
(dp4942
g4
I00
sg5
(I01
I01
tp4943
sba(iModules.cell
Cell
p4944
(dp4945
g4
I00
sg5
(I01
I01
tp4946
sba(iModules.cell
Cell
p4947
(dp4948
g4
I00
sg5
(I01
I01
tp4949
sba(iModules.cell
Cell
p4950
(dp4951
g4
I00
sg5
(I01
I01
tp4952
sba(iModules.cell
Cell
p4953
(dp4954
g4
I00
sg5
(I01
I01
tp4955
sba(iModules.cell
Cell
p4956
(dp4957
g4
I00
sg5
(I01
I01
tp4958
sba(iModules.cell
Cell
p4959
(dp4960
g4
I00
sg5
(I01
I01
tp4961
sba(iModules.cell
Cell
p4962
(dp4963
g4
I00
sg5
(I01
I01
tp4964
sba(iModules.cell
Cell
p4965
(dp4966
g4
I00
sg5
(I01
I01
tp4967
sba(iModules.cell
Cell
p4968
(dp4969
g4
I00
sg5
(I01
I01
tp4970
sba(iModules.cell
Cell
p4971
(dp4972
g4
I00
sg5
(I01
I01
tp4973
sba(iModules.cell
Cell
p4974
(dp4975
g4
I00
sg5
(I01
I01
tp4976
sba(iModules.cell
Cell
p4977
(dp4978
g4
I00
sg5
(I01
I01
tp4979
sba(iModules.cell
Cell
p4980
(dp4981
g4
I00
sg5
(I01
I01
tp4982
sba(iModules.cell
Cell
p4983
(dp4984
g4
I00
sg5
(I01
I01
tp4985
sba(iModules.cell
Cell
p4986
(dp4987
g4
I00
sg5
(I01
I01
tp4988
sba(iModules.cell
Cell
p4989
(dp4990
g4
I00
sg5
(I01
I01
tp4991
sba(iModules.cell
Cell
p4992
(dp4993
g4
I00
sg5
(I01
I01
tp4994
sba(iModules.cell
Cell
p4995
(dp4996
g4
I00
sg5
(I01
I01
tp4997
sba(iModules.cell
Cell
p4998
(dp4999
g4
I00
sg5
(I01
I01
tp5000
sba(iModules.cell
Cell
p5001
(dp5002
g4
I00
sg5
(I01
I01
tp5003
sba(iModules.cell
Cell
p5004
(dp5005
g4
I00
sg5
(I01
I01
tp5006
sba(iModules.cell
Cell
p5007
(dp5008
g4
I00
sg5
(I01
I01
tp5009
sba(iModules.cell
Cell
p5010
(dp5011
g4
I00
sg5
(I01
I01
tp5012
sba(iModules.cell
Cell
p5013
(dp5014
g4
I00
sg5
(I01
I01
tp5015
sba(iModules.cell
Cell
p5016
(dp5017
g4
I00
sg5
(I01
I01
tp5018
sba(iModules.cell
Cell
p5019
(dp5020
g4
I00
sg5
(I01
I01
tp5021
sba(iModules.cell
Cell
p5022
(dp5023
g4
I00
sg5
(I01
I01
tp5024
sba(iModules.cell
Cell
p5025
(dp5026
g4
I00
sg5
(I01
I01
tp5027
sba(iModules.cell
Cell
p5028
(dp5029
g4
I00
sg5
(I01
I01
tp5030
sba(iModules.cell
Cell
p5031
(dp5032
g4
I00
sg5
(I01
I01
tp5033
sba(iModules.cell
Cell
p5034
(dp5035
g4
I00
sg5
(I01
I01
tp5036
sba(iModules.cell
Cell
p5037
(dp5038
g4
I00
sg5
(I01
I01
tp5039
sba(iModules.cell
Cell
p5040
(dp5041
g4
I00
sg5
(I01
I01
tp5042
sba(iModules.cell
Cell
p5043
(dp5044
g4
I00
sg5
(I01
I01
tp5045
sba(iModules.cell
Cell
p5046
(dp5047
g4
I00
sg5
(I01
I01
tp5048
sba(iModules.cell
Cell
p5049
(dp5050
g4
I00
sg5
(I01
I01
tp5051
sba(iModules.cell
Cell
p5052
(dp5053
g4
I00
sg5
(I01
I01
tp5054
sba(iModules.cell
Cell
p5055
(dp5056
g4
I00
sg5
(I01
I01
tp5057
sba(iModules.cell
Cell
p5058
(dp5059
g4
I00
sg5
(I01
I01
tp5060
sba(iModules.cell
Cell
p5061
(dp5062
g4
I00
sg5
(I01
I01
tp5063
sba(iModules.cell
Cell
p5064
(dp5065
g4
I00
sg5
(I01
I01
tp5066
sba(iModules.cell
Cell
p5067
(dp5068
g4
I00
sg5
(I01
I01
tp5069
sba(iModules.cell
Cell
p5070
(dp5071
g4
I00
sg5
(I00
I00
tp5072
sba(iModules.cell
Cell
p5073
(dp5074
g4
I00
sg5
(I00
I00
tp5075
sba(iModules.cell
Cell
p5076
(dp5077
g4
I00
sg5
(I00
I00
tp5078
sba(iModules.cell
Cell
p5079
(dp5080
g4
I00
sg5
(I00
I00
tp5081
sba(iModules.cell
Cell
p5082
(dp5083
g4
I00
sg5
(I00
I00
tp5084
sba(iModules.cell
Cell
p5085
(dp5086
g4
I00
sg5
(I00
I00
tp5087
sba(iModules.cell
Cell
p5088
(dp5089
g4
I00
sg5
(I00
I00
tp5090
sba(iModules.cell
Cell
p5091
(dp5092
g4
I00
sg5
(I00
I00
tp5093
sba(iModules.cell
Cell
p5094
(dp5095
g4
I00
sg5
(I00
I00
tp5096
sba(iModules.cell
Cell
p5097
(dp5098
g4
I00
sg5
(I00
I00
tp5099
sba(iModules.cell
Cell
p5100
(dp5101
g4
I00
sg5
(I00
I00
tp5102
sba(iModules.cell
Cell
p5103
(dp5104
g4
I00
sg5
(I00
I00
tp5105
sba(iModules.cell
Cell
p5106
(dp5107
g4
I00
sg5
(I00
I00
tp5108
sba(iModules.cell
Cell
p5109
(dp5110
g4
I00
sg5
(I00
I00
tp5111
sba(iModules.cell
Cell
p5112
(dp5113
g4
I00
sg5
(I00
I00
tp5114
sba(iModules.cell
Cell
p5115
(dp5116
g4
I00
sg5
(I00
I00
tp5117
sba(iModules.cell
Cell
p5118
(dp5119
g4
I00
sg5
(I00
I00
tp5120
sba(iModules.cell
Cell
p5121
(dp5122
g4
I00
sg5
(I00
I00
tp5123
sba(iModules.cell
Cell
p5124
(dp5125
g4
I00
sg5
(I00
I00
tp5126
sba(iModules.cell
Cell
p5127
(dp5128
g5
(I00
I00
tp5129
sbaa(lp5130
(iModules.cell
Cell
p5131
(dp5132
g4
I00
sg5
(I00
I00
tp5133
sba(iModules.cell
Cell
p5134
(dp5135
g4
I00
sg5
(I00
I00
tp5136
sba(iModules.cell
Cell
p5137
(dp5138
g4
I00
sg5
(I01
I01
tp5139
sba(iModules.cell
Cell
p5140
(dp5141
g4
I00
sg5
(I01
I01
tp5142
sba(iModules.cell
Cell
p5143
(dp5144
g4
I00
sg5
(I01
I01
tp5145
sba(iModules.cell
Cell
p5146
(dp5147
g4
I00
sg5
(I01
I01
tp5148
sba(iModules.cell
Cell
p5149
(dp5150
g4
I00
sg5
(I01
I01
tp5151
sba(iModules.cell
Cell
p5152
(dp5153
g4
I00
sg5
(I01
I01
tp5154
sba(iModules.cell
Cell
p5155
(dp5156
g4
I00
sg5
(I01
I01
tp5157
sba(iModules.cell
Cell
p5158
(dp5159
g4
I00
sg5
(I01
I01
tp5160
sba(iModules.cell
Cell
p5161
(dp5162
g4
I00
sg5
(I01
I01
tp5163
sba(iModules.cell
Cell
p5164
(dp5165
g4
I00
sg5
(I01
I01
tp5166
sba(iModules.cell
Cell
p5167
(dp5168
g4
I00
sg5
(I01
I01
tp5169
sba(iModules.cell
Cell
p5170
(dp5171
g4
I00
sg5
(I01
I01
tp5172
sba(iModules.cell
Cell
p5173
(dp5174
g4
I00
sg5
(I01
I01
tp5175
sba(iModules.cell
Cell
p5176
(dp5177
g4
I00
sg5
(I01
I01
tp5178
sba(iModules.cell
Cell
p5179
(dp5180
g4
I00
sg5
(I01
I01
tp5181
sba(iModules.cell
Cell
p5182
(dp5183
g4
I00
sg5
(I01
I01
tp5184
sba(iModules.cell
Cell
p5185
(dp5186
g4
I00
sg5
(I01
I01
tp5187
sba(iModules.cell
Cell
p5188
(dp5189
g4
I00
sg5
(I01
I01
tp5190
sba(iModules.cell
Cell
p5191
(dp5192
g4
I00
sg5
(I01
I01
tp5193
sba(iModules.cell
Cell
p5194
(dp5195
g4
I00
sg5
(I01
I01
tp5196
sba(iModules.cell
Cell
p5197
(dp5198
g4
I00
sg5
(I01
I01
tp5199
sba(iModules.cell
Cell
p5200
(dp5201
g4
I00
sg5
(I01
I01
tp5202
sba(iModules.cell
Cell
p5203
(dp5204
g4
I00
sg5
(I01
I01
tp5205
sba(iModules.cell
Cell
p5206
(dp5207
g4
I00
sg5
(I01
I01
tp5208
sba(iModules.cell
Cell
p5209
(dp5210
g4
I00
sg5
(I01
I01
tp5211
sba(iModules.cell
Cell
p5212
(dp5213
g4
I00
sg5
(I01
I01
tp5214
sba(iModules.cell
Cell
p5215
(dp5216
g4
I00
sg5
(I01
I01
tp5217
sba(iModules.cell
Cell
p5218
(dp5219
g4
I00
sg5
(I01
I01
tp5220
sba(iModules.cell
Cell
p5221
(dp5222
g4
I00
sg5
(I01
I01
tp5223
sba(iModules.cell
Cell
p5224
(dp5225
g4
I00
sg5
(I01
I01
tp5226
sba(iModules.cell
Cell
p5227
(dp5228
g4
I00
sg5
(I01
I01
tp5229
sba(iModules.cell
Cell
p5230
(dp5231
g4
I00
sg5
(I01
I01
tp5232
sba(iModules.cell
Cell
p5233
(dp5234
g4
I00
sg5
(I01
I01
tp5235
sba(iModules.cell
Cell
p5236
(dp5237
g4
I00
sg5
(I01
I01
tp5238
sba(iModules.cell
Cell
p5239
(dp5240
g4
I00
sg5
(I01
I01
tp5241
sba(iModules.cell
Cell
p5242
(dp5243
g4
I00
sg5
(I01
I01
tp5244
sba(iModules.cell
Cell
p5245
(dp5246
g4
I00
sg5
(I01
I01
tp5247
sba(iModules.cell
Cell
p5248
(dp5249
g4
I00
sg5
(I01
I01
tp5250
sba(iModules.cell
Cell
p5251
(dp5252
g4
I00
sg5
(I01
I01
tp5253
sba(iModules.cell
Cell
p5254
(dp5255
g4
I00
sg5
(I01
I01
tp5256
sba(iModules.cell
Cell
p5257
(dp5258
g4
I00
sg5
(I01
I01
tp5259
sba(iModules.cell
Cell
p5260
(dp5261
g4
I00
sg5
(I01
I01
tp5262
sba(iModules.cell
Cell
p5263
(dp5264
g4
I00
sg5
(I01
I01
tp5265
sba(iModules.cell
Cell
p5266
(dp5267
g4
I00
sg5
(I01
I01
tp5268
sba(iModules.cell
Cell
p5269
(dp5270
g4
I00
sg5
(I01
I01
tp5271
sba(iModules.cell
Cell
p5272
(dp5273
g4
I00
sg5
(I01
I01
tp5274
sba(iModules.cell
Cell
p5275
(dp5276
g4
I00
sg5
(I01
I01
tp5277
sba(iModules.cell
Cell
p5278
(dp5279
g4
I00
sg5
(I01
I01
tp5280
sba(iModules.cell
Cell
p5281
(dp5282
g4
I00
sg5
(I01
I01
tp5283
sba(iModules.cell
Cell
p5284
(dp5285
g4
I00
sg5
(I01
I01
tp5286
sba(iModules.cell
Cell
p5287
(dp5288
g4
I00
sg5
(I01
I01
tp5289
sba(iModules.cell
Cell
p5290
(dp5291
g4
I00
sg5
(I01
I01
tp5292
sba(iModules.cell
Cell
p5293
(dp5294
g4
I00
sg5
(I01
I01
tp5295
sba(iModules.cell
Cell
p5296
(dp5297
g4
I00
sg5
(I01
I01
tp5298
sba(iModules.cell
Cell
p5299
(dp5300
g4
I00
sg5
(I01
I01
tp5301
sba(iModules.cell
Cell
p5302
(dp5303
g4
I00
sg5
(I01
I01
tp5304
sba(iModules.cell
Cell
p5305
(dp5306
g4
I00
sg5
(I01
I01
tp5307
sba(iModules.cell
Cell
p5308
(dp5309
g4
I00
sg5
(I01
I01
tp5310
sba(iModules.cell
Cell
p5311
(dp5312
g4
I00
sg5
(I01
I01
tp5313
sba(iModules.cell
Cell
p5314
(dp5315
g4
I00
sg5
(I00
I00
tp5316
sba(iModules.cell
Cell
p5317
(dp5318
g4
I00
sg5
(I00
I00
tp5319
sba(iModules.cell
Cell
p5320
(dp5321
g4
I00
sg5
(I00
I00
tp5322
sba(iModules.cell
Cell
p5323
(dp5324
g4
I00
sg5
(I00
I00
tp5325
sba(iModules.cell
Cell
p5326
(dp5327
g4
I00
sg5
(I00
I00
tp5328
sba(iModules.cell
Cell
p5329
(dp5330
g4
I00
sg5
(I00
I00
tp5331
sba(iModules.cell
Cell
p5332
(dp5333
g4
I00
sg5
(I00
I00
tp5334
sba(iModules.cell
Cell
p5335
(dp5336
g4
I00
sg5
(I00
I00
tp5337
sba(iModules.cell
Cell
p5338
(dp5339
g4
I00
sg5
(I00
I00
tp5340
sba(iModules.cell
Cell
p5341
(dp5342
g4
I00
sg5
(I00
I00
tp5343
sba(iModules.cell
Cell
p5344
(dp5345
g4
I00
sg5
(I00
I00
tp5346
sba(iModules.cell
Cell
p5347
(dp5348
g4
I00
sg5
(I00
I00
tp5349
sba(iModules.cell
Cell
p5350
(dp5351
g4
I00
sg5
(I00
I00
tp5352
sba(iModules.cell
Cell
p5353
(dp5354
g4
I00
sg5
(I00
I00
tp5355
sba(iModules.cell
Cell
p5356
(dp5357
g4
I00
sg5
(I00
I00
tp5358
sba(iModules.cell
Cell
p5359
(dp5360
g4
I00
sg5
(I00
I00
tp5361
sba(iModules.cell
Cell
p5362
(dp5363
g4
I00
sg5
(I00
I00
tp5364
sba(iModules.cell
Cell
p5365
(dp5366
g4
I00
sg5
(I00
I00
tp5367
sba(iModules.cell
Cell
p5368
(dp5369
g4
I00
sg5
(I00
I00
tp5370
sba(iModules.cell
Cell
p5371
(dp5372
g5
(I00
I00
tp5373
sbaa(lp5374
(iModules.cell
Cell
p5375
(dp5376
g4
I00
sg5
(I00
I00
tp5377
sba(iModules.cell
Cell
p5378
(dp5379
g4
I00
sg5
(I00
I00
tp5380
sba(iModules.cell
Cell
p5381
(dp5382
g4
I00
sg5
(I00
I00
tp5383
sba(iModules.cell
Cell
p5384
(dp5385
g4
I00
sg5
(I00
I00
tp5386
sba(iModules.cell
Cell
p5387
(dp5388
g4
I00
sg5
(I00
I00
tp5389
sba(iModules.cell
Cell
p5390
(dp5391
g4
I00
sg5
(I00
I00
tp5392
sba(iModules.cell
Cell
p5393
(dp5394
g4
I00
sg5
(I00
I00
tp5395
sba(iModules.cell
Cell
p5396
(dp5397
g4
I00
sg5
(I00
I00
tp5398
sba(iModules.cell
Cell
p5399
(dp5400
g4
I00
sg5
(I00
I00
tp5401
sba(iModules.cell
Cell
p5402
(dp5403
g4
I00
sg5
(I00
I00
tp5404
sba(iModules.cell
Cell
p5405
(dp5406
g4
I00
sg5
(I00
I00
tp5407
sba(iModules.cell
Cell
p5408
(dp5409
g4
I00
sg5
(I00
I00
tp5410
sba(iModules.cell
Cell
p5411
(dp5412
g4
I00
sg5
(I00
I00
tp5413
sba(iModules.cell
Cell
p5414
(dp5415
g4
I00
sg5
(I00
I00
tp5416
sba(iModules.cell
Cell
p5417
(dp5418
g4
I00
sg5
(I00
I00
tp5419
sba(iModules.cell
Cell
p5420
(dp5421
g4
I00
sg5
(I00
I00
tp5422
sba(iModules.cell
Cell
p5423
(dp5424
g4
I00
sg5
(I00
I00
tp5425
sba(iModules.cell
Cell
p5426
(dp5427
g4
I00
sg5
(I00
I00
tp5428
sba(iModules.cell
Cell
p5429
(dp5430
g4
I00
sg5
(I00
I00
tp5431
sba(iModules.cell
Cell
p5432
(dp5433
g4
I00
sg5
(I00
I00
tp5434
sba(iModules.cell
Cell
p5435
(dp5436
g4
I00
sg5
(I00
I00
tp5437
sba(iModules.cell
Cell
p5438
(dp5439
g4
I00
sg5
(I00
I00
tp5440
sba(iModules.cell
Cell
p5441
(dp5442
g4
I00
sg5
(I00
I00
tp5443
sba(iModules.cell
Cell
p5444
(dp5445
g4
I00
sg5
(I00
I00
tp5446
sba(iModules.cell
Cell
p5447
(dp5448
g4
I00
sg5
(I00
I00
tp5449
sba(iModules.cell
Cell
p5450
(dp5451
g4
I00
sg5
(I00
I00
tp5452
sba(iModules.cell
Cell
p5453
(dp5454
g4
I00
sg5
(I00
I00
tp5455
sba(iModules.cell
Cell
p5456
(dp5457
g4
I00
sg5
(I00
I00
tp5458
sba(iModules.cell
Cell
p5459
(dp5460
g4
I00
sg5
(I00
I00
tp5461
sba(iModules.cell
Cell
p5462
(dp5463
g4
I00
sg5
(I00
I00
tp5464
sba(iModules.cell
Cell
p5465
(dp5466
g4
I00
sg5
(I00
I00
tp5467
sba(iModules.cell
Cell
p5468
(dp5469
g4
I00
sg5
(I00
I00
tp5470
sba(iModules.cell
Cell
p5471
(dp5472
g4
I00
sg5
(I00
I00
tp5473
sba(iModules.cell
Cell
p5474
(dp5475
g4
I00
sg5
(I00
I00
tp5476
sba(iModules.cell
Cell
p5477
(dp5478
g4
I00
sg5
(I00
I00
tp5479
sba(iModules.cell
Cell
p5480
(dp5481
g4
I00
sg5
(I00
I00
tp5482
sba(iModules.cell
Cell
p5483
(dp5484
g4
I00
sg5
(I00
I00
tp5485
sba(iModules.cell
Cell
p5486
(dp5487
g4
I00
sg5
(I00
I00
tp5488
sba(iModules.cell
Cell
p5489
(dp5490
g4
I00
sg5
(I00
I00
tp5491
sba(iModules.cell
Cell
p5492
(dp5493
g4
I00
sg5
(I00
I00
tp5494
sba(iModules.cell
Cell
p5495
(dp5496
g4
I00
sg5
(I00
I00
tp5497
sba(iModules.cell
Cell
p5498
(dp5499
g4
I00
sg5
(I00
I00
tp5500
sba(iModules.cell
Cell
p5501
(dp5502
g4
I00
sg5
(I00
I00
tp5503
sba(iModules.cell
Cell
p5504
(dp5505
g4
I00
sg5
(I00
I00
tp5506
sba(iModules.cell
Cell
p5507
(dp5508
g4
I00
sg5
(I00
I00
tp5509
sba(iModules.cell
Cell
p5510
(dp5511
g4
I00
sg5
(I00
I00
tp5512
sba(iModules.cell
Cell
p5513
(dp5514
g4
I00
sg5
(I00
I00
tp5515
sba(iModules.cell
Cell
p5516
(dp5517
g4
I00
sg5
(I00
I00
tp5518
sba(iModules.cell
Cell
p5519
(dp5520
g4
I00
sg5
(I00
I00
tp5521
sba(iModules.cell
Cell
p5522
(dp5523
g4
I00
sg5
(I00
I00
tp5524
sba(iModules.cell
Cell
p5525
(dp5526
g4
I00
sg5
(I00
I00
tp5527
sba(iModules.cell
Cell
p5528
(dp5529
g4
I00
sg5
(I00
I00
tp5530
sba(iModules.cell
Cell
p5531
(dp5532
g4
I00
sg5
(I00
I00
tp5533
sba(iModules.cell
Cell
p5534
(dp5535
g4
I00
sg5
(I00
I00
tp5536
sba(iModules.cell
Cell
p5537
(dp5538
g4
I00
sg5
(I00
I00
tp5539
sba(iModules.cell
Cell
p5540
(dp5541
g4
I00
sg5
(I00
I00
tp5542
sba(iModules.cell
Cell
p5543
(dp5544
g4
I00
sg5
(I00
I00
tp5545
sba(iModules.cell
Cell
p5546
(dp5547
g4
I00
sg5
(I00
I00
tp5548
sba(iModules.cell
Cell
p5549
(dp5550
g4
I00
sg5
(I00
I00
tp5551
sba(iModules.cell
Cell
p5552
(dp5553
g4
I00
sg5
(I00
I00
tp5554
sba(iModules.cell
Cell
p5555
(dp5556
g4
I00
sg5
(I00
I00
tp5557
sba(iModules.cell
Cell
p5558
(dp5559
g4
I00
sg5
(I00
I00
tp5560
sba(iModules.cell
Cell
p5561
(dp5562
g4
I00
sg5
(I00
I00
tp5563
sba(iModules.cell
Cell
p5564
(dp5565
g4
I00
sg5
(I00
I00
tp5566
sba(iModules.cell
Cell
p5567
(dp5568
g4
I00
sg5
(I00
I00
tp5569
sba(iModules.cell
Cell
p5570
(dp5571
g4
I00
sg5
(I00
I00
tp5572
sba(iModules.cell
Cell
p5573
(dp5574
g4
I00
sg5
(I00
I00
tp5575
sba(iModules.cell
Cell
p5576
(dp5577
g4
I00
sg5
(I00
I00
tp5578
sba(iModules.cell
Cell
p5579
(dp5580
g4
I00
sg5
(I00
I00
tp5581
sba(iModules.cell
Cell
p5582
(dp5583
g4
I00
sg5
(I00
I00
tp5584
sba(iModules.cell
Cell
p5585
(dp5586
g4
I00
sg5
(I00
I00
tp5587
sba(iModules.cell
Cell
p5588
(dp5589
g4
I00
sg5
(I00
I00
tp5590
sba(iModules.cell
Cell
p5591
(dp5592
g4
I00
sg5
(I00
I00
tp5593
sba(iModules.cell
Cell
p5594
(dp5595
g4
I00
sg5
(I00
I00
tp5596
sba(iModules.cell
Cell
p5597
(dp5598
g4
I00
sg5
(I00
I00
tp5599
sba(iModules.cell
Cell
p5600
(dp5601
g4
I00
sg5
(I00
I00
tp5602
sba(iModules.cell
Cell
p5603
(dp5604
g4
I00
sg5
(I00
I00
tp5605
sba(iModules.cell
Cell
p5606
(dp5607
g4
I00
sg5
(I00
I00
tp5608
sba(iModules.cell
Cell
p5609
(dp5610
g4
I00
sg5
(I00
I00
tp5611
sba(iModules.cell
Cell
p5612
(dp5613
g4
I00
sg5
(I00
I00
tp5614
sba(iModules.cell
Cell
p5615
(dp5616
g5
(I00
I00
tp5617
sbaa(lp5618
(iModules.cell
Cell
p5619
(dp5620
g5
(I00
I00
tp5621
sba(iModules.cell
Cell
p5622
(dp5623
g5
(I00
I00
tp5624
sba(iModules.cell
Cell
p5625
(dp5626
g5
(I00
I00
tp5627
sba(iModules.cell
Cell
p5628
(dp5629
g5
(I00
I00
tp5630
sba(iModules.cell
Cell
p5631
(dp5632
g5
(I00
I00
tp5633
sba(iModules.cell
Cell
p5634
(dp5635
g5
(I00
I00
tp5636
sba(iModules.cell
Cell
p5637
(dp5638
g5
(I00
I00
tp5639
sba(iModules.cell
Cell
p5640
(dp5641
g5
(I00
I00
tp5642
sba(iModules.cell
Cell
p5643
(dp5644
g5
(I00
I00
tp5645
sba(iModules.cell
Cell
p5646
(dp5647
g5
(I00
I00
tp5648
sba(iModules.cell
Cell
p5649
(dp5650
g5
(I00
I00
tp5651
sba(iModules.cell
Cell
p5652
(dp5653
g5
(I00
I00
tp5654
sba(iModules.cell
Cell
p5655
(dp5656
g5
(I00
I00
tp5657
sba(iModules.cell
Cell
p5658
(dp5659
g5
(I00
I00
tp5660
sba(iModules.cell
Cell
p5661
(dp5662
g5
(I00
I00
tp5663
sba(iModules.cell
Cell
p5664
(dp5665
g5
(I00
I00
tp5666
sba(iModules.cell
Cell
p5667
(dp5668
g5
(I00
I00
tp5669
sba(iModules.cell
Cell
p5670
(dp5671
g5
(I00
I00
tp5672
sba(iModules.cell
Cell
p5673
(dp5674
g5
(I00
I00
tp5675
sba(iModules.cell
Cell
p5676
(dp5677
g5
(I00
I00
tp5678
sba(iModules.cell
Cell
p5679
(dp5680
g5
(I00
I00
tp5681
sba(iModules.cell
Cell
p5682
(dp5683
g5
(I00
I00
tp5684
sba(iModules.cell
Cell
p5685
(dp5686
g5
(I00
I00
tp5687
sba(iModules.cell
Cell
p5688
(dp5689
g5
(I00
I00
tp5690
sba(iModules.cell
Cell
p5691
(dp5692
g5
(I00
I00
tp5693
sba(iModules.cell
Cell
p5694
(dp5695
g5
(I00
I00
tp5696
sba(iModules.cell
Cell
p5697
(dp5698
g5
(I00
I00
tp5699
sba(iModules.cell
Cell
p5700
(dp5701
g5
(I00
I00
tp5702
sba(iModules.cell
Cell
p5703
(dp5704
g5
(I00
I00
tp5705
sba(iModules.cell
Cell
p5706
(dp5707
g5
(I00
I00
tp5708
sba(iModules.cell
Cell
p5709
(dp5710
g5
(I00
I00
tp5711
sba(iModules.cell
Cell
p5712
(dp5713
g5
(I00
I00
tp5714
sba(iModules.cell
Cell
p5715
(dp5716
g5
(I00
I00
tp5717
sba(iModules.cell
Cell
p5718
(dp5719
g5
(I00
I00
tp5720
sba(iModules.cell
Cell
p5721
(dp5722
g5
(I00
I00
tp5723
sba(iModules.cell
Cell
p5724
(dp5725
g5
(I00
I00
tp5726
sba(iModules.cell
Cell
p5727
(dp5728
g5
(I00
I00
tp5729
sba(iModules.cell
Cell
p5730
(dp5731
g5
(I00
I00
tp5732
sba(iModules.cell
Cell
p5733
(dp5734
g5
(I00
I00
tp5735
sba(iModules.cell
Cell
p5736
(dp5737
g5
(I00
I00
tp5738
sba(iModules.cell
Cell
p5739
(dp5740
g5
(I00
I00
tp5741
sba(iModules.cell
Cell
p5742
(dp5743
g5
(I00
I00
tp5744
sba(iModules.cell
Cell
p5745
(dp5746
g5
(I00
I00
tp5747
sba(iModules.cell
Cell
p5748
(dp5749
g5
(I00
I00
tp5750
sba(iModules.cell
Cell
p5751
(dp5752
g5
(I00
I00
tp5753
sba(iModules.cell
Cell
p5754
(dp5755
g5
(I00
I00
tp5756
sba(iModules.cell
Cell
p5757
(dp5758
g5
(I00
I00
tp5759
sba(iModules.cell
Cell
p5760
(dp5761
g5
(I00
I00
tp5762
sba(iModules.cell
Cell
p5763
(dp5764
g5
(I00
I00
tp5765
sba(iModules.cell
Cell
p5766
(dp5767
g5
(I00
I00
tp5768
sba(iModules.cell
Cell
p5769
(dp5770
g5
(I00
I00
tp5771
sba(iModules.cell
Cell
p5772
(dp5773
g5
(I00
I00
tp5774
sba(iModules.cell
Cell
p5775
(dp5776
g5
(I00
I00
tp5777
sba(iModules.cell
Cell
p5778
(dp5779
g5
(I00
I00
tp5780
sba(iModules.cell
Cell
p5781
(dp5782
g5
(I00
I00
tp5783
sba(iModules.cell
Cell
p5784
(dp5785
g5
(I00
I00
tp5786
sba(iModules.cell
Cell
p5787
(dp5788
g5
(I00
I00
tp5789
sba(iModules.cell
Cell
p5790
(dp5791
g5
(I00
I00
tp5792
sba(iModules.cell
Cell
p5793
(dp5794
g5
(I00
I00
tp5795
sba(iModules.cell
Cell
p5796
(dp5797
g5
(I00
I00
tp5798
sba(iModules.cell
Cell
p5799
(dp5800
g5
(I00
I00
tp5801
sba(iModules.cell
Cell
p5802
(dp5803
g5
(I00
I00
tp5804
sba(iModules.cell
Cell
p5805
(dp5806
g5
(I00
I00
tp5807
sba(iModules.cell
Cell
p5808
(dp5809
g5
(I00
I00
tp5810
sba(iModules.cell
Cell
p5811
(dp5812
g5
(I00
I00
tp5813
sba(iModules.cell
Cell
p5814
(dp5815
g5
(I00
I00
tp5816
sba(iModules.cell
Cell
p5817
(dp5818
g5
(I00
I00
tp5819
sba(iModules.cell
Cell
p5820
(dp5821
g5
(I00
I00
tp5822
sba(iModules.cell
Cell
p5823
(dp5824
g5
(I00
I00
tp5825
sba(iModules.cell
Cell
p5826
(dp5827
g5
(I00
I00
tp5828
sba(iModules.cell
Cell
p5829
(dp5830
g5
(I00
I00
tp5831
sba(iModules.cell
Cell
p5832
(dp5833
g5
(I00
I00
tp5834
sba(iModules.cell
Cell
p5835
(dp5836
g5
(I00
I00
tp5837
sba(iModules.cell
Cell
p5838
(dp5839
g5
(I00
I00
tp5840
sba(iModules.cell
Cell
p5841
(dp5842
g5
(I00
I00
tp5843
sba(iModules.cell
Cell
p5844
(dp5845
g5
(I00
I00
tp5846
sba(iModules.cell
Cell
p5847
(dp5848
g5
(I00
I00
tp5849
sba(iModules.cell
Cell
p5850
(dp5851
g5
(I00
I00
tp5852
sba(iModules.cell
Cell
p5853
(dp5854
g5
(I00
I00
tp5855
sba(iModules.cell
Cell
p5856
(dp5857
g5
(I00
I00
tp5858
sba(iModules.cell
Cell
p5859
(dp5860
g5
(I00
I00
tp5861
sbaa(lp5862
(iModules.cell
Cell
p5863
(dp5864
g5
(I00
I00
tp5865
sba(iModules.cell
Cell
p5866
(dp5867
g5
(I00
I00
tp5868
sba(iModules.cell
Cell
p5869
(dp5870
g5
(I00
I00
tp5871
sba(iModules.cell
Cell
p5872
(dp5873
g5
(I00
I00
tp5874
sba(iModules.cell
Cell
p5875
(dp5876
g5
(I00
I00
tp5877
sba(iModules.cell
Cell
p5878
(dp5879
g5
(I00
I00
tp5880
sba(iModules.cell
Cell
p5881
(dp5882
g5
(I00
I00
tp5883
sba(iModules.cell
Cell
p5884
(dp5885
g5
(I00
I00
tp5886
sba(iModules.cell
Cell
p5887
(dp5888
g5
(I00
I00
tp5889
sba(iModules.cell
Cell
p5890
(dp5891
g5
(I00
I00
tp5892
sba(iModules.cell
Cell
p5893
(dp5894
g5
(I00
I00
tp5895
sba(iModules.cell
Cell
p5896
(dp5897
g5
(I00
I00
tp5898
sba(iModules.cell
Cell
p5899
(dp5900
g5
(I00
I00
tp5901
sba(iModules.cell
Cell
p5902
(dp5903
g5
(I00
I00
tp5904
sba(iModules.cell
Cell
p5905
(dp5906
g5
(I00
I00
tp5907
sba(iModules.cell
Cell
p5908
(dp5909
g5
(I00
I00
tp5910
sba(iModules.cell
Cell
p5911
(dp5912
g5
(I00
I00
tp5913
sba(iModules.cell
Cell
p5914
(dp5915
g5
(I00
I00
tp5916
sba(iModules.cell
Cell
p5917
(dp5918
g5
(I00
I00
tp5919
sba(iModules.cell
Cell
p5920
(dp5921
g5
(I00
I00
tp5922
sba(iModules.cell
Cell
p5923
(dp5924
g5
(I00
I00
tp5925
sba(iModules.cell
Cell
p5926
(dp5927
g5
(I00
I00
tp5928
sba(iModules.cell
Cell
p5929
(dp5930
g5
(I00
I00
tp5931
sba(iModules.cell
Cell
p5932
(dp5933
g5
(I00
I00
tp5934
sba(iModules.cell
Cell
p5935
(dp5936
g5
(I00
I00
tp5937
sba(iModules.cell
Cell
p5938
(dp5939
g5
(I00
I00
tp5940
sba(iModules.cell
Cell
p5941
(dp5942
g5
(I00
I00
tp5943
sba(iModules.cell
Cell
p5944
(dp5945
g5
(I00
I00
tp5946
sba(iModules.cell
Cell
p5947
(dp5948
g5
(I00
I00
tp5949
sba(iModules.cell
Cell
p5950
(dp5951
g5
(I00
I00
tp5952
sba(iModules.cell
Cell
p5953
(dp5954
g5
(I00
I00
tp5955
sba(iModules.cell
Cell
p5956
(dp5957
g5
(I00
I00
tp5958
sba(iModules.cell
Cell
p5959
(dp5960
g5
(I00
I00
tp5961
sba(iModules.cell
Cell
p5962
(dp5963
g5
(I00
I00
tp5964
sba(iModules.cell
Cell
p5965
(dp5966
g5
(I00
I00
tp5967
sba(iModules.cell
Cell
p5968
(dp5969
g5
(I00
I00
tp5970
sba(iModules.cell
Cell
p5971
(dp5972
g5
(I00
I00
tp5973
sba(iModules.cell
Cell
p5974
(dp5975
g5
(I00
I00
tp5976
sba(iModules.cell
Cell
p5977
(dp5978
g5
(I00
I00
tp5979
sba(iModules.cell
Cell
p5980
(dp5981
g5
(I00
I00
tp5982
sba(iModules.cell
Cell
p5983
(dp5984
g5
(I00
I00
tp5985
sba(iModules.cell
Cell
p5986
(dp5987
g5
(I00
I00
tp5988
sba(iModules.cell
Cell
p5989
(dp5990
g5
(I00
I00
tp5991
sba(iModules.cell
Cell
p5992
(dp5993
g5
(I00
I00
tp5994
sba(iModules.cell
Cell
p5995
(dp5996
g5
(I00
I00
tp5997
sba(iModules.cell
Cell
p5998
(dp5999
g5
(I00
I00
tp6000
sba(iModules.cell
Cell
p6001
(dp6002
g5
(I00
I00
tp6003
sba(iModules.cell
Cell
p6004
(dp6005
g5
(I00
I00
tp6006
sba(iModules.cell
Cell
p6007
(dp6008
g5
(I00
I00
tp6009
sba(iModules.cell
Cell
p6010
(dp6011
g5
(I00
I00
tp6012
sba(iModules.cell
Cell
p6013
(dp6014
g5
(I00
I00
tp6015
sba(iModules.cell
Cell
p6016
(dp6017
g5
(I00
I00
tp6018
sba(iModules.cell
Cell
p6019
(dp6020
g5
(I00
I00
tp6021
sba(iModules.cell
Cell
p6022
(dp6023
g5
(I00
I00
tp6024
sba(iModules.cell
Cell
p6025
(dp6026
g5
(I00
I00
tp6027
sba(iModules.cell
Cell
p6028
(dp6029
g5
(I00
I00
tp6030
sba(iModules.cell
Cell
p6031
(dp6032
g5
(I00
I00
tp6033
sba(iModules.cell
Cell
p6034
(dp6035
g5
(I00
I00
tp6036
sba(iModules.cell
Cell
p6037
(dp6038
g5
(I00
I00
tp6039
sba(iModules.cell
Cell
p6040
(dp6041
g5
(I00
I00
tp6042
sba(iModules.cell
Cell
p6043
(dp6044
g5
(I00
I00
tp6045
sba(iModules.cell
Cell
p6046
(dp6047
g5
(I00
I00
tp6048
sba(iModules.cell
Cell
p6049
(dp6050
g5
(I00
I00
tp6051
sba(iModules.cell
Cell
p6052
(dp6053
g5
(I00
I00
tp6054
sba(iModules.cell
Cell
p6055
(dp6056
g5
(I00
I00
tp6057
sba(iModules.cell
Cell
p6058
(dp6059
g5
(I00
I00
tp6060
sba(iModules.cell
Cell
p6061
(dp6062
g5
(I00
I00
tp6063
sba(iModules.cell
Cell
p6064
(dp6065
g5
(I00
I00
tp6066
sba(iModules.cell
Cell
p6067
(dp6068
g5
(I00
I00
tp6069
sba(iModules.cell
Cell
p6070
(dp6071
g5
(I00
I00
tp6072
sba(iModules.cell
Cell
p6073
(dp6074
g5
(I00
I00
tp6075
sba(iModules.cell
Cell
p6076
(dp6077
g5
(I00
I00
tp6078
sba(iModules.cell
Cell
p6079
(dp6080
g5
(I00
I00
tp6081
sba(iModules.cell
Cell
p6082
(dp6083
g5
(I00
I00
tp6084
sba(iModules.cell
Cell
p6085
(dp6086
g5
(I00
I00
tp6087
sba(iModules.cell
Cell
p6088
(dp6089
g5
(I00
I00
tp6090
sba(iModules.cell
Cell
p6091
(dp6092
g5
(I00
I00
tp6093
sba(iModules.cell
Cell
p6094
(dp6095
g5
(I00
I00
tp6096
sba(iModules.cell
Cell
p6097
(dp6098
g5
(I00
I00
tp6099
sba(iModules.cell
Cell
p6100
(dp6101
g5
(I00
I00
tp6102
sba(iModules.cell
Cell
p6103
(dp6104
g5
(I00
I00
tp6105
sbaa.