(lp0
(lp1
(iModules.cell
Cell
p2
(dp3
S'visible'
p4
I00
sS'type'
p5
(I00
I00
I00
tp6
sS'pc'
p7
(lp8
I18
aI20
asba(iModules.cell
Cell
p9
(dp10
g4
I00
sg5
(I00
I00
I00
tp11
sba(iModules.cell
Cell
p12
(dp13
g4
I00
sg5
(I00
I00
I00
tp14
sba(iModules.cell
Cell
p15
(dp16
g4
I00
sg5
(I00
I00
I00
tp17
sba(iModules.cell
Cell
p18
(dp19
g4
I00
sg5
(I00
I00
I00
tp20
sba(iModules.cell
Cell
p21
(dp22
g4
I00
sg5
(I00
I00
I00
tp23
sba(iModules.cell
Cell
p24
(dp25
g4
I00
sg5
(I00
I00
I00
tp26
sba(iModules.cell
Cell
p27
(dp28
g4
I00
sg5
(I00
I00
I00
tp29
sba(iModules.cell
Cell
p30
(dp31
g4
I00
sg5
(I00
I00
I00
tp32
sba(iModules.cell
Cell
p33
(dp34
g4
I00
sg5
(I00
I00
I00
tp35
sba(iModules.cell
Cell
p36
(dp37
g4
I00
sg5
(I00
I00
I00
tp38
sba(iModules.cell
Cell
p39
(dp40
g4
I00
sg5
(I00
I00
I00
tp41
sba(iModules.cell
Cell
p42
(dp43
g4
I00
sg5
(I00
I00
I00
tp44
sba(iModules.cell
Cell
p45
(dp46
g4
I00
sg5
(I00
I00
I00
tp47
sba(iModules.cell
Cell
p48
(dp49
g4
I00
sg5
(I00
I00
I00
tp50
sba(iModules.cell
Cell
p51
(dp52
g4
I00
sg5
(I00
I00
I00
tp53
sba(iModules.cell
Cell
p54
(dp55
g4
I00
sg5
(I00
I00
I00
tp56
sba(iModules.cell
Cell
p57
(dp58
g4
I00
sg5
(I00
I00
I00
tp59
sba(iModules.cell
Cell
p60
(dp61
g4
I00
sg5
(I00
I00
I00
tp62
sba(iModules.cell
Cell
p63
(dp64
g4
I00
sg5
(I00
I00
I00
tp65
sba(iModules.cell
Cell
p66
(dp67
g4
I00
sg5
(I00
I00
I00
tp68
sba(iModules.cell
Cell
p69
(dp70
g4
I00
sg5
(I00
I00
I00
tp71
sba(iModules.cell
Cell
p72
(dp73
g4
I00
sg5
(I00
I00
I00
tp74
sba(iModules.cell
Cell
p75
(dp76
g4
I00
sg5
(I00
I00
I00
tp77
sba(iModules.cell
Cell
p78
(dp79
g4
I00
sg5
(I00
I00
I00
tp80
sba(iModules.cell
Cell
p81
(dp82
g4
I00
sg5
(I00
I00
I00
tp83
sba(iModules.cell
Cell
p84
(dp85
g4
I00
sg5
(I00
I00
I00
tp86
sba(iModules.cell
Cell
p87
(dp88
g4
I00
sg5
(I00
I00
I00
tp89
sba(iModules.cell
Cell
p90
(dp91
g4
I00
sg5
(I00
I00
I00
tp92
sba(iModules.cell
Cell
p93
(dp94
g4
I00
sg5
(I00
I00
I00
tp95
sba(iModules.cell
Cell
p96
(dp97
g4
I00
sg5
(I00
I00
I00
tp98
sba(iModules.cell
Cell
p99
(dp100
g4
I00
sg5
(I00
I00
I00
tp101
sba(iModules.cell
Cell
p102
(dp103
g4
I00
sg5
(I00
I00
I00
tp104
sba(iModules.cell
Cell
p105
(dp106
g4
I00
sg5
(I00
I00
I00
tp107
sba(iModules.cell
Cell
p108
(dp109
g4
I00
sg5
(I00
I00
I00
tp110
sba(iModules.cell
Cell
p111
(dp112
g4
I00
sg5
(I00
I00
I00
tp113
sba(iModules.cell
Cell
p114
(dp115
g4
I00
sg5
(I00
I00
I00
tp116
sba(iModules.cell
Cell
p117
(dp118
g4
I00
sg5
(I00
I00
I00
tp119
sba(iModules.cell
Cell
p120
(dp121
g4
I00
sg5
(I00
I00
I00
tp122
sba(iModules.cell
Cell
p123
(dp124
g4
I00
sg5
(I00
I00
I00
tp125
sba(iModules.cell
Cell
p126
(dp127
g4
I00
sg5
(I00
I00
I00
tp128
sba(iModules.cell
Cell
p129
(dp130
g4
I00
sg5
(I00
I00
I00
tp131
sba(iModules.cell
Cell
p132
(dp133
g4
I00
sg5
(I00
I00
I00
tp134
sba(iModules.cell
Cell
p135
(dp136
g4
I00
sg5
(I00
I00
I00
tp137
sba(iModules.cell
Cell
p138
(dp139
g4
I00
sg5
(I00
I00
I00
tp140
sba(iModules.cell
Cell
p141
(dp142
g4
I00
sg5
(I00
I00
I00
tp143
sba(iModules.cell
Cell
p144
(dp145
g4
I00
sg5
(I00
I00
I00
tp146
sba(iModules.cell
Cell
p147
(dp148
g4
I00
sg5
(I00
I00
I00
tp149
sba(iModules.cell
Cell
p150
(dp151
g4
I00
sg5
(I00
I00
I00
tp152
sba(iModules.cell
Cell
p153
(dp154
g4
I00
sg5
(I00
I00
I00
tp155
sba(iModules.cell
Cell
p156
(dp157
g4
I00
sg5
(I00
I00
I00
tp158
sba(iModules.cell
Cell
p159
(dp160
g4
I00
sg5
(I00
I00
I00
tp161
sba(iModules.cell
Cell
p162
(dp163
g4
I00
sg5
(I00
I00
I00
tp164
sba(iModules.cell
Cell
p165
(dp166
g4
I00
sg5
(I00
I00
I00
tp167
sba(iModules.cell
Cell
p168
(dp169
g4
I00
sg5
(I00
I00
I00
tp170
sba(iModules.cell
Cell
p171
(dp172
g4
I00
sg5
(I00
I00
I00
tp173
sba(iModules.cell
Cell
p174
(dp175
g4
I00
sg5
(I00
I00
I00
tp176
sba(iModules.cell
Cell
p177
(dp178
g4
I00
sg5
(I00
I00
I00
tp179
sba(iModules.cell
Cell
p180
(dp181
g4
I00
sg5
(I00
I00
I00
tp182
sba(iModules.cell
Cell
p183
(dp184
g4
I00
sg5
(I00
I00
I00
tp185
sba(iModules.cell
Cell
p186
(dp187
g4
I00
sg5
(I00
I00
I00
tp188
sba(iModules.cell
Cell
p189
(dp190
g4
I00
sg5
(I00
I00
I00
tp191
sba(iModules.cell
Cell
p192
(dp193
g4
I00
sg5
(I00
I00
I00
tp194
sba(iModules.cell
Cell
p195
(dp196
g4
I00
sg5
(I00
I00
I00
tp197
sba(iModules.cell
Cell
p198
(dp199
g4
I00
sg5
(I00
I00
I00
tp200
sba(iModules.cell
Cell
p201
(dp202
g4
I00
sg5
(I00
I00
I00
tp203
sba(iModules.cell
Cell
p204
(dp205
g4
I00
sg5
(I00
I00
I00
tp206
sba(iModules.cell
Cell
p207
(dp208
g4
I00
sg5
(I00
I00
I00
tp209
sba(iModules.cell
Cell
p210
(dp211
g4
I00
sg5
(I00
I00
I00
tp212
sba(iModules.cell
Cell
p213
(dp214
g4
I00
sg5
(I00
I00
I00
tp215
sba(iModules.cell
Cell
p216
(dp217
g4
I00
sg5
(I00
I00
I00
tp218
sba(iModules.cell
Cell
p219
(dp220
g4
I00
sg5
(I00
I00
I00
tp221
sba(iModules.cell
Cell
p222
(dp223
g4
I00
sg5
(I00
I00
I00
tp224
sba(iModules.cell
Cell
p225
(dp226
g4
I00
sg5
(I00
I00
I00
tp227
sba(iModules.cell
Cell
p228
(dp229
g4
I00
sg5
(I00
I00
I00
tp230
sba(iModules.cell
Cell
p231
(dp232
g4
I00
sg5
(I00
I00
I00
tp233
sba(iModules.cell
Cell
p234
(dp235
g4
I00
sg5
(I00
I00
I00
tp236
sba(iModules.cell
Cell
p237
(dp238
g4
I00
sg5
(I00
I00
I00
tp239
sba(iModules.cell
Cell
p240
(dp241
g4
I00
sg5
(I00
I00
I00
tp242
sba(iModules.cell
Cell
p243
(dp244
g4
I00
sg5
(I00
I00
I00
tp245
sba(iModules.cell
Cell
p246
(dp247
g5
(I00
I00
I00
tp248
sbaa(lp249
(iModules.cell
Cell
p250
(dp251
g4
I00
sg5
(I00
I00
I00
tp252
sba(iModules.cell
Cell
p253
(dp254
g4
I00
sS'explored'
p255
I01
sg5
(I00
I00
I00
tp256
sba(iModules.cell
Cell
p257
(dp258
g4
I00
sg255
I01
sg5
(I00
I00
I00
tp259
sba(iModules.cell
Cell
p260
(dp261
g4
I00
sg255
I01
sg5
(I00
I00
I00
tp262
sba(iModules.cell
Cell
p263
(dp264
g4
I00
sg255
I01
sg5
(I00
I00
I00
tp265
sba(iModules.cell
Cell
p266
(dp267
g4
I00
sg255
I01
sg5
(I00
I00
I00
tp268
sba(iModules.cell
Cell
p269
(dp270
g4
I00
sg255
I01
sg5
(I00
I00
I00
tp271
sba(iModules.cell
Cell
p272
(dp273
g4
I00
sg255
I01
sg5
(I00
I00
I00
tp274
sba(iModules.cell
Cell
p275
(dp276
g4
I00
sg255
I01
sg5
(I00
I00
I00
tp277
sba(iModules.cell
Cell
p278
(dp279
g4
I00
sg255
I01
sg5
(I00
I00
I00
tp280
sba(iModules.cell
Cell
p281
(dp282
g4
I00
sg255
I01
sg5
(I00
I00
I00
tp283
sba(iModules.cell
Cell
p284
(dp285
g4
I00
sg255
I01
sg5
(I00
I00
I00
tp286
sba(iModules.cell
Cell
p287
(dp288
g4
I00
sS'explored'
p289
I01
sg5
(I00
I00
I00
tp290
sba(iModules.cell
Cell
p291
(dp292
g4
I00
sg289
I01
sg5
(I00
I00
I00
tp293
sba(iModules.cell
Cell
p294
(dp295
g4
I00
sg289
I01
sg5
(I00
I00
I00
tp296
sba(iModules.cell
Cell
p297
(dp298
g4
I00
sS'explored'
p299
I01
sg5
(I00
I00
I00
tp300
sba(iModules.cell
Cell
p301
(dp302
g4
I00
sg299
I01
sg5
(I00
I00
I00
tp303
sba(iModules.cell
Cell
p304
(dp305
g4
I00
sg299
I01
sg5
(I00
I00
I00
tp306
sba(iModules.cell
Cell
p307
(dp308
g4
I00
sg299
I01
sg5
(I00
I00
I00
tp309
sba(iModules.cell
Cell
p310
(dp311
g4
I00
sg299
I01
sg5
(I00
I00
I00
tp312
sba(iModules.cell
Cell
p313
(dp314
g4
I00
sg299
I01
sg5
(I00
I00
I00
tp315
sba(iModules.cell
Cell
p316
(dp317
g4
I00
sg299
I01
sg5
(I00
I00
I00
tp318
sba(iModules.cell
Cell
p319
(dp320
g4
I00
sg299
I01
sg5
(I00
I00
I00
tp321
sba(iModules.cell
Cell
p322
(dp323
g4
I00
sg299
I01
sg5
(I00
I00
I00
tp324
sba(iModules.cell
Cell
p325
(dp326
g4
I00
sg299
I01
sg5
(I00
I00
I00
tp327
sba(iModules.cell
Cell
p328
(dp329
g4
I00
sg299
I01
sg5
(I00
I00
I00
tp330
sba(iModules.cell
Cell
p331
(dp332
g4
I00
sg299
I01
sg5
(I00
I00
I00
tp333
sba(iModules.cell
Cell
p334
(dp335
g4
I00
sg299
I01
sg5
(I00
I00
I00
tp336
sba(iModules.cell
Cell
p337
(dp338
g4
I00
sg299
I01
sg5
(I00
I00
I00
tp339
sba(iModules.cell
Cell
p340
(dp341
g4
I00
sg299
I01
sg5
(I00
I00
I00
tp342
sba(iModules.cell
Cell
p343
(dp344
g4
I00
sg299
I01
sg5
(I00
I00
I00
tp345
sba(iModules.cell
Cell
p346
(dp347
g4
I00
sg299
I01
sg5
(I00
I00
I00
tp348
sba(iModules.cell
Cell
p349
(dp350
g4
I00
sg299
I01
sg5
(I00
I00
I00
tp351
sba(iModules.cell
Cell
p352
(dp353
g4
I00
sg299
I01
sg5
(I00
I00
I00
tp354
sba(iModules.cell
Cell
p355
(dp356
g4
I00
sg299
I01
sg5
(I00
I00
I00
tp357
sba(iModules.cell
Cell
p358
(dp359
g4
I00
sg299
I01
sg5
(I00
I00
I00
tp360
sba(iModules.cell
Cell
p361
(dp362
g4
I00
sg299
I01
sg5
(I00
I00
I00
tp363
sba(iModules.cell
Cell
p364
(dp365
g4
I00
sg299
I01
sg5
(I00
I00
I00
tp366
sba(iModules.cell
Cell
p367
(dp368
g4
I00
sg299
I01
sg5
(I00
I00
I00
tp369
sba(iModules.cell
Cell
p370
(dp371
g4
I00
sS'explored'
p372
I01
sg5
(I00
I00
I00
tp373
sba(iModules.cell
Cell
p374
(dp375
g4
I00
sg372
I01
sg5
(I00
I00
I00
tp376
sba(iModules.cell
Cell
p377
(dp378
g4
I00
sg372
I01
sg5
(I00
I00
I00
tp379
sba(iModules.cell
Cell
p380
(dp381
g4
I00
sg372
I01
sg5
(I00
I00
I00
tp382
sba(iModules.cell
Cell
p383
(dp384
g4
I00
sg372
I01
sg5
(I00
I00
I00
tp385
sba(iModules.cell
Cell
p386
(dp387
g4
I00
sg372
I01
sg5
(I00
I00
I00
tp388
sba(iModules.cell
Cell
p389
(dp390
g4
I00
sg372
I01
sg5
(I00
I00
I00
tp391
sba(iModules.cell
Cell
p392
(dp393
g4
I00
sg372
I01
sg5
(I00
I00
I00
tp394
sba(iModules.cell
Cell
p395
(dp396
g4
I00
sg372
I01
sg5
(I00
I00
I00
tp397
sba(iModules.cell
Cell
p398
(dp399
g4
I00
sg372
I01
sg5
(I00
I00
I00
tp400
sba(iModules.cell
Cell
p401
(dp402
g4
I00
sg372
I01
sg5
(I00
I00
I00
tp403
sba(iModules.cell
Cell
p404
(dp405
g4
I00
sg372
I01
sg5
(I00
I00
I00
tp406
sba(iModules.cell
Cell
p407
(dp408
g4
I00
sg372
I01
sg5
(I00
I00
I00
tp409
sba(iModules.cell
Cell
p410
(dp411
g4
I00
sg372
I01
sg5
(I00
I00
I00
tp412
sba(iModules.cell
Cell
p413
(dp414
g4
I00
sg372
I01
sg5
(I00
I00
I00
tp415
sba(iModules.cell
Cell
p416
(dp417
g4
I00
sg372
I01
sg5
(I00
I00
I00
tp418
sba(iModules.cell
Cell
p419
(dp420
g4
I00
sg372
I01
sg5
(I00
I00
I00
tp421
sba(iModules.cell
Cell
p422
(dp423
g4
I00
sg372
I01
sg5
(I00
I00
I00
tp424
sba(iModules.cell
Cell
p425
(dp426
g4
I00
sg372
I01
sg5
(I00
I00
I00
tp427
sba(iModules.cell
Cell
p428
(dp429
g4
I00
sg372
I01
sg5
(I00
I00
I00
tp430
sba(iModules.cell
Cell
p431
(dp432
g4
I00
sg372
I01
sg5
(I00
I00
I00
tp433
sba(iModules.cell
Cell
p434
(dp435
g4
I00
sg372
I01
sg5
(I00
I00
I00
tp436
sba(iModules.cell
Cell
p437
(dp438
g4
I00
sg372
I01
sg5
(I00
I00
I00
tp439
sba(iModules.cell
Cell
p440
(dp441
g4
I00
sg5
(I00
I00
I00
tp442
sba(iModules.cell
Cell
p443
(dp444
g4
I00
sg5
(I00
I00
I00
tp445
sba(iModules.cell
Cell
p446
(dp447
g4
I00
sg5
(I00
I00
I00
tp448
sba(iModules.cell
Cell
p449
(dp450
g4
I00
sg5
(I00
I00
I00
tp451
sba(iModules.cell
Cell
p452
(dp453
g4
I00
sg5
(I00
I00
I00
tp454
sba(iModules.cell
Cell
p455
(dp456
g4
I00
sg5
(I00
I00
I00
tp457
sba(iModules.cell
Cell
p458
(dp459
g4
I00
sg5
(I00
I00
I00
tp460
sba(iModules.cell
Cell
p461
(dp462
g4
I00
sg5
(I00
I00
I00
tp463
sba(iModules.cell
Cell
p464
(dp465
g4
I00
sg5
(I00
I00
I00
tp466
sba(iModules.cell
Cell
p467
(dp468
g4
I00
sg5
(I00
I00
I00
tp469
sba(iModules.cell
Cell
p470
(dp471
g4
I00
sg5
(I00
I00
I00
tp472
sba(iModules.cell
Cell
p473
(dp474
g4
I00
sg5
(I00
I00
I00
tp475
sba(iModules.cell
Cell
p476
(dp477
g4
I00
sg5
(I00
I00
I00
tp478
sba(iModules.cell
Cell
p479
(dp480
g4
I00
sg5
(I00
I00
I00
tp481
sba(iModules.cell
Cell
p482
(dp483
g4
I00
sg5
(I00
I00
I00
tp484
sba(iModules.cell
Cell
p485
(dp486
g4
I00
sg5
(I00
I00
I00
tp487
sba(iModules.cell
Cell
p488
(dp489
g4
I00
sg5
(I00
I00
I00
tp490
sba(iModules.cell
Cell
p491
(dp492
g4
I00
sg5
(I00
I00
I00
tp493
sba(iModules.cell
Cell
p494
(dp495
g5
(I00
I00
I00
tp496
sbaa(lp497
(iModules.cell
Cell
p498
(dp499
g4
I00
sg5
(I00
I00
I00
tp500
sba(iModules.cell
Cell
p501
(dp502
g4
I00
sg255
I01
sg5
(I00
I00
I00
tp503
sba(iModules.cell
Cell
p504
(dp505
g4
I00
sg255
I01
sg5
(I01
I01
I00
tp506
sba(iModules.cell
Cell
p507
(dp508
g4
I00
sg255
I01
sg5
(I01
I01
I00
tp509
sba(iModules.cell
Cell
p510
(dp511
g4
I00
sg255
I01
sg5
(I01
I01
I00
tp512
sba(iModules.cell
Cell
p513
(dp514
g4
I00
sg255
I01
sg5
(I01
I01
I00
tp515
sba(iModules.cell
Cell
p516
(dp517
g4
I00
sg255
I01
sg5
(I01
I01
I00
tp518
sba(iModules.cell
Cell
p519
(dp520
g4
I00
sg255
I01
sg5
(I01
I01
I00
tp521
sba(iModules.cell
Cell
p522
(dp523
g4
I00
sg255
I01
sg5
(I01
I01
I00
tp524
sba(iModules.cell
Cell
p525
(dp526
g4
I00
sg255
I01
sg5
(I01
I01
I00
tp527
sba(iModules.cell
Cell
p528
(dp529
g4
I00
sg255
I01
sg5
(I01
I01
I00
tp530
sba(iModules.cell
Cell
p531
(dp532
g4
I00
sg255
I01
sg5
(I01
I01
I00
tp533
sba(iModules.cell
Cell
p534
(dp535
g4
I00
sg289
I01
sg5
(I01
I01
I00
tp536
sba(iModules.cell
Cell
p537
(dp538
g4
I00
sg289
I01
sg5
(I01
I01
I00
tp539
sba(iModules.cell
Cell
p540
(dp541
g4
I00
sg289
I01
sg5
(I01
I01
I00
tp542
sba(iModules.cell
Cell
p543
(dp544
g4
I00
sg299
I01
sg5
(I01
I01
I00
tp545
sba(iModules.cell
Cell
p546
(dp547
g4
I00
sg299
I01
sg5
(I01
I01
I00
tp548
sba(iModules.cell
Cell
p549
(dp550
g4
I00
sg299
I01
sg5
(I01
I01
I00
tp551
sba(iModules.cell
Cell
p552
(dp553
g4
I00
sg299
I01
sg5
(I01
I01
I00
tp554
sba(iModules.cell
Cell
p555
(dp556
g4
I00
sg299
I01
sg5
(I01
I01
I00
tp557
sba(iModules.cell
Cell
p558
(dp559
g4
I00
sg299
I01
sg5
(I01
I01
I00
tp560
sba(iModules.cell
Cell
p561
(dp562
g4
I00
sg299
I01
sg5
(I01
I01
I00
tp563
sba(iModules.cell
Cell
p564
(dp565
g4
I00
sg299
I01
sg5
(I01
I01
I00
tp566
sba(iModules.cell
Cell
p567
(dp568
g4
I00
sg299
I01
sg5
(I01
I01
I00
tp569
sba(iModules.cell
Cell
p570
(dp571
g4
I00
sg299
I01
sg5
(I01
I01
I00
tp572
sba(iModules.cell
Cell
p573
(dp574
g4
I00
sg299
I01
sg5
(I01
I01
I00
tp575
sba(iModules.cell
Cell
p576
(dp577
g4
I00
sg299
I01
sg5
(I01
I01
I00
tp578
sba(iModules.cell
Cell
p579
(dp580
g4
I00
sg299
I01
sg5
(I01
I01
I00
tp581
sba(iModules.cell
Cell
p582
(dp583
g4
I00
sg299
I01
sg5
(I01
I01
I00
tp584
sba(iModules.cell
Cell
p585
(dp586
g4
I00
sg299
I01
sg5
(I01
I01
I00
tp587
sba(iModules.cell
Cell
p588
(dp589
g4
I00
sg299
I01
sg5
(I01
I01
I00
tp590
sba(iModules.cell
Cell
p591
(dp592
g4
I00
sg299
I01
sg5
(I01
I01
I00
tp593
sba(iModules.cell
Cell
p594
(dp595
g4
I00
sg299
I01
sg5
(I01
I01
I00
tp596
sba(iModules.cell
Cell
p597
(dp598
g4
I00
sg299
I01
sg5
(I01
I01
I00
tp599
sba(iModules.cell
Cell
p600
(dp601
g4
I00
sg299
I01
sg5
(I01
I01
I00
tp602
sba(iModules.cell
Cell
p603
(dp604
g4
I00
sg299
I01
sg5
(I01
I01
I00
tp605
sba(iModules.cell
Cell
p606
(dp607
g4
I00
sg299
I01
sg5
(I01
I01
I00
tp608
sba(iModules.cell
Cell
p609
(dp610
g4
I00
sg299
I01
sg5
(I01
I01
I00
tp611
sba(iModules.cell
Cell
p612
(dp613
g4
I00
sg299
I01
sg5
(I01
I01
I00
tp614
sba(iModules.cell
Cell
p615
(dp616
g4
I00
sg372
I01
sg5
(I01
I01
I00
tp617
sba(iModules.cell
Cell
p618
(dp619
g4
I00
sg372
I01
sg5
(I01
I01
I00
tp620
sba(iModules.cell
Cell
p621
(dp622
g4
I00
sg372
I01
sg5
(I01
I01
I00
tp623
sba(iModules.cell
Cell
p624
(dp625
g4
I00
sg372
I01
sg5
(I01
I01
I00
tp626
sba(iModules.cell
Cell
p627
(dp628
g4
I00
sg372
I01
sg5
(I01
I01
I00
tp629
sba(iModules.cell
Cell
p630
(dp631
g4
I00
sg372
I01
sg5
(I01
I01
I00
tp632
sba(iModules.cell
Cell
p633
(dp634
g4
I00
sg372
I01
sg5
(I01
I01
I00
tp635
sba(iModules.cell
Cell
p636
(dp637
g4
I00
sg372
I01
sg5
(I01
I01
I00
tp638
sba(iModules.cell
Cell
p639
(dp640
g4
I00
sg372
I01
sg5
(I01
I01
I00
tp641
sba(iModules.cell
Cell
p642
(dp643
g4
I00
sg372
I01
sg5
(I01
I01
I00
tp644
sba(iModules.cell
Cell
p645
(dp646
g4
I00
sg372
I01
sg5
(I01
I01
I00
tp647
sba(iModules.cell
Cell
p648
(dp649
g4
I00
sg372
I01
sg5
(I01
I01
I00
tp650
sba(iModules.cell
Cell
p651
(dp652
g4
I00
sg372
I01
sg5
(I01
I01
I00
tp653
sba(iModules.cell
Cell
p654
(dp655
g4
I00
sg372
I01
sg5
(I01
I01
I00
tp656
sba(iModules.cell
Cell
p657
(dp658
g4
I00
sg372
I01
sg5
(I01
I01
I00
tp659
sba(iModules.cell
Cell
p660
(dp661
g4
I00
sg372
I01
sg5
(I01
I01
I00
tp662
sba(iModules.cell
Cell
p663
(dp664
g4
I00
sg372
I01
sg5
(I01
I01
I00
tp665
sba(iModules.cell
Cell
p666
(dp667
g4
I00
sg372
I01
sg5
(I01
I01
I00
tp668
sba(iModules.cell
Cell
p669
(dp670
g4
I00
sg372
I01
sg5
(I01
I01
I00
tp671
sba(iModules.cell
Cell
p672
(dp673
g4
I00
sg372
I01
sg5
(I01
I01
I00
tp674
sba(iModules.cell
Cell
p675
(dp676
g4
I00
sg372
I01
sg5
(I01
I01
I00
tp677
sba(iModules.cell
Cell
p678
(dp679
g4
I00
sg372
I01
sg5
(I01
I01
I00
tp680
sba(iModules.cell
Cell
p681
(dp682
g4
I00
sg372
I01
sg5
(I00
I00
I00
tp683
sba(iModules.cell
Cell
p684
(dp685
g4
I00
sg5
(I00
I00
I00
tp686
sba(iModules.cell
Cell
p687
(dp688
g4
I00
sg5
(I00
I00
I00
tp689
sba(iModules.cell
Cell
p690
(dp691
g4
I00
sg5
(I00
I00
I00
tp692
sba(iModules.cell
Cell
p693
(dp694
g4
I00
sg5
(I00
I00
I00
tp695
sba(iModules.cell
Cell
p696
(dp697
g4
I00
sg5
(I00
I00
I00
tp698
sba(iModules.cell
Cell
p699
(dp700
g4
I00
sg5
(I00
I00
I00
tp701
sba(iModules.cell
Cell
p702
(dp703
g4
I00
sg5
(I00
I00
I00
tp704
sba(iModules.cell
Cell
p705
(dp706
g4
I00
sg5
(I00
I00
I00
tp707
sba(iModules.cell
Cell
p708
(dp709
g4
I00
sg5
(I00
I00
I00
tp710
sba(iModules.cell
Cell
p711
(dp712
g4
I00
sg5
(I00
I00
I00
tp713
sba(iModules.cell
Cell
p714
(dp715
g4
I00
sg5
(I00
I00
I00
tp716
sba(iModules.cell
Cell
p717
(dp718
g4
I00
sg5
(I00
I00
I00
tp719
sba(iModules.cell
Cell
p720
(dp721
g4
I00
sg5
(I00
I00
I00
tp722
sba(iModules.cell
Cell
p723
(dp724
g4
I00
sg5
(I00
I00
I00
tp725
sba(iModules.cell
Cell
p726
(dp727
g4
I00
sg5
(I00
I00
I00
tp728
sba(iModules.cell
Cell
p729
(dp730
g4
I00
sg5
(I00
I00
I00
tp731
sba(iModules.cell
Cell
p732
(dp733
g4
I00
sg5
(I00
I00
I00
tp734
sba(iModules.cell
Cell
p735
(dp736
g4
I00
sg5
(I00
I00
I00
tp737
sba(iModules.cell
Cell
p738
(dp739
g5
(I00
I00
I00
tp740
sbaa(lp741
(iModules.cell
Cell
p742
(dp743
g4
I00
sg5
(I00
I00
I00
tp744
sba(iModules.cell
Cell
p745
(dp746
g4
I00
sg255
I01
sg5
(I00
I00
I00
tp747
sba(iModules.cell
Cell
p748
(dp749
g4
I00
sg255
I01
sg5
(I01
I01
I00
tp750
sba(iModules.cell
Cell
p751
(dp752
g4
I00
sg255
I01
sg5
(I01
I01
I00
tp753
sba(iModules.cell
Cell
p754
(dp755
g4
I00
sg255
I01
sg5
(I01
I01
I00
tp756
sba(iModules.cell
Cell
p757
(dp758
g4
I00
sg255
I01
sg5
(I01
I01
I00
tp759
sba(iModules.cell
Cell
p760
(dp761
g4
I00
sg255
I01
sg5
(I01
I01
I00
tp762
sba(iModules.cell
Cell
p763
(dp764
g4
I00
sg255
I01
sg5
(I01
I01
I00
tp765
sba(iModules.cell
Cell
p766
(dp767
g4
I00
sg255
I01
sg5
(I01
I01
I00
tp768
sba(iModules.cell
Cell
p769
(dp770
g4
I00
sg255
I01
sg5
(I01
I01
I00
tp771
sba(iModules.cell
Cell
p772
(dp773
g4
I00
sg255
I01
sg5
(I01
I01
I00
tp774
sba(iModules.cell
Cell
p775
(dp776
g4
I00
sg255
I01
sg5
(I01
I01
I00
tp777
sba(iModules.cell
Cell
p778
(dp779
g4
I00
sg289
I01
sg5
(I01
I01
I00
tp780
sba(iModules.cell
Cell
p781
(dp782
g4
I00
sg289
I01
sg5
(I01
I01
I00
tp783
sba(iModules.cell
Cell
p784
(dp785
g4
I00
sg289
I01
sg5
(I01
I01
I00
tp786
sba(iModules.cell
Cell
p787
(dp788
g4
I00
sg299
I01
sg5
(I01
I01
I00
tp789
sba(iModules.cell
Cell
p790
(dp791
g4
I00
sg299
I01
sg5
(I01
I01
I00
tp792
sba(iModules.cell
Cell
p793
(dp794
g4
I00
sg299
I01
sg5
(I01
I01
I00
tp795
sba(iModules.cell
Cell
p796
(dp797
g4
I00
sg299
I01
sg5
(I01
I01
I00
tp798
sba(iModules.cell
Cell
p799
(dp800
g4
I00
sg299
I01
sg5
(I01
I01
I00
tp801
sba(iModules.cell
Cell
p802
(dp803
g4
I00
sg299
I01
sg5
(I01
I01
I00
tp804
sba(iModules.cell
Cell
p805
(dp806
g4
I00
sg299
I01
sg5
(I01
I01
I00
tp807
sba(iModules.cell
Cell
p808
(dp809
g4
I00
sg299
I01
sg5
(I01
I01
I00
tp810
sba(iModules.cell
Cell
p811
(dp812
g4
I00
sg299
I01
sg5
(I01
I01
I00
tp813
sba(iModules.cell
Cell
p814
(dp815
g4
I00
sg299
I01
sg5
(I01
I01
I00
tp816
sba(iModules.cell
Cell
p817
(dp818
g4
I00
sg299
I01
sg5
(I01
I01
I00
tp819
sba(iModules.cell
Cell
p820
(dp821
g4
I00
sg299
I01
sg5
(I01
I01
I00
tp822
sba(iModules.cell
Cell
p823
(dp824
g4
I00
sg299
I01
sg5
(I01
I01
I00
tp825
sba(iModules.cell
Cell
p826
(dp827
g4
I00
sg299
I01
sg5
(I01
I01
I00
tp828
sba(iModules.cell
Cell
p829
(dp830
g4
I00
sg299
I01
sg5
(I01
I01
I00
tp831
sba(iModules.cell
Cell
p832
(dp833
g4
I00
sg299
I01
sg5
(I01
I01
I00
tp834
sba(iModules.cell
Cell
p835
(dp836
g4
I00
sg299
I01
sg5
(I01
I01
I00
tp837
sba(iModules.cell
Cell
p838
(dp839
g4
I00
sg299
I01
sg5
(I01
I01
I00
tp840
sba(iModules.cell
Cell
p841
(dp842
g4
I00
sg299
I01
sg5
(I01
I01
I00
tp843
sba(iModules.cell
Cell
p844
(dp845
g4
I00
sg299
I01
sg5
(I01
I01
I00
tp846
sba(iModules.cell
Cell
p847
(dp848
g4
I00
sg299
I01
sg5
(I01
I01
I00
tp849
sba(iModules.cell
Cell
p850
(dp851
g4
I00
sg299
I01
sg5
(I01
I01
I00
tp852
sba(iModules.cell
Cell
p853
(dp854
g4
I00
sg299
I01
sg5
(I01
I01
I00
tp855
sba(iModules.cell
Cell
p856
(dp857
g4
I00
sg299
I01
sg5
(I01
I01
I00
tp858
sba(iModules.cell
Cell
p859
(dp860
g4
I00
sg372
I01
sg5
(I01
I01
I00
tp861
sba(iModules.cell
Cell
p862
(dp863
g4
I00
sg372
I01
sg5
(I01
I01
I00
tp864
sba(iModules.cell
Cell
p865
(dp866
g4
I00
sg372
I01
sg5
(I01
I01
I00
tp867
sba(iModules.cell
Cell
p868
(dp869
g4
I00
sg372
I01
sg5
(I01
I01
I00
tp870
sba(iModules.cell
Cell
p871
(dp872
g4
I00
sg372
I01
sg5
(I01
I01
I00
tp873
sba(iModules.cell
Cell
p874
(dp875
g4
I00
sg372
I01
sg5
(I01
I01
I00
tp876
sba(iModules.cell
Cell
p877
(dp878
g4
I00
sg372
I01
sg5
(I01
I01
I00
tp879
sba(iModules.cell
Cell
p880
(dp881
g4
I00
sg372
I01
sg5
(I01
I01
I00
tp882
sba(iModules.cell
Cell
p883
(dp884
g4
I00
sg372
I01
sg5
(I01
I01
I00
tp885
sba(iModules.cell
Cell
p886
(dp887
g4
I00
sg372
I01
sg5
(I01
I01
I00
tp888
sba(iModules.cell
Cell
p889
(dp890
g4
I00
sg372
I01
sg5
(I01
I01
I00
tp891
sba(iModules.cell
Cell
p892
(dp893
g4
I00
sg372
I01
sg5
(I01
I01
I00
tp894
sba(iModules.cell
Cell
p895
(dp896
g4
I00
sg372
I01
sg5
(I01
I01
I00
tp897
sba(iModules.cell
Cell
p898
(dp899
g4
I00
sg372
I01
sg5
(I01
I01
I00
tp900
sba(iModules.cell
Cell
p901
(dp902
g4
I00
sg372
I01
sg5
(I01
I01
I00
tp903
sba(iModules.cell
Cell
p904
(dp905
g4
I00
sg372
I01
sg5
(I01
I01
I00
tp906
sba(iModules.cell
Cell
p907
(dp908
g4
I00
sg372
I01
sg5
(I01
I01
I00
tp909
sba(iModules.cell
Cell
p910
(dp911
g4
I00
sg372
I01
sg5
(I01
I01
I00
tp912
sba(iModules.cell
Cell
p913
(dp914
g4
I00
sg372
I01
sg5
(I01
I01
I00
tp915
sba(iModules.cell
Cell
p916
(dp917
g4
I00
sg372
I01
sg5
(I01
I01
I00
tp918
sba(iModules.cell
Cell
p919
(dp920
g4
I00
sg372
I01
sg5
(I01
I01
I00
tp921
sba(iModules.cell
Cell
p922
(dp923
g4
I00
sg372
I01
sg5
(I01
I01
I00
tp924
sba(iModules.cell
Cell
p925
(dp926
g4
I00
sg372
I01
sg5
(I00
I00
I00
tp927
sba(iModules.cell
Cell
p928
(dp929
g4
I00
sg5
(I00
I00
I00
tp930
sba(iModules.cell
Cell
p931
(dp932
g4
I00
sg5
(I00
I00
I00
tp933
sba(iModules.cell
Cell
p934
(dp935
g4
I00
sg5
(I00
I00
I00
tp936
sba(iModules.cell
Cell
p937
(dp938
g4
I00
sg5
(I00
I00
I00
tp939
sba(iModules.cell
Cell
p940
(dp941
g4
I00
sg5
(I00
I00
I00
tp942
sba(iModules.cell
Cell
p943
(dp944
g4
I00
sg5
(I00
I00
I00
tp945
sba(iModules.cell
Cell
p946
(dp947
g4
I00
sg5
(I00
I00
I00
tp948
sba(iModules.cell
Cell
p949
(dp950
g4
I00
sg5
(I00
I00
I00
tp951
sba(iModules.cell
Cell
p952
(dp953
g4
I00
sg5
(I00
I00
I00
tp954
sba(iModules.cell
Cell
p955
(dp956
g4
I00
sg5
(I00
I00
I00
tp957
sba(iModules.cell
Cell
p958
(dp959
g4
I00
sg5
(I00
I00
I00
tp960
sba(iModules.cell
Cell
p961
(dp962
g4
I00
sg5
(I00
I00
I00
tp963
sba(iModules.cell
Cell
p964
(dp965
g4
I00
sg5
(I00
I00
I00
tp966
sba(iModules.cell
Cell
p967
(dp968
g4
I00
sg5
(I00
I00
I00
tp969
sba(iModules.cell
Cell
p970
(dp971
g4
I00
sg5
(I00
I00
I00
tp972
sba(iModules.cell
Cell
p973
(dp974
g4
I00
sg5
(I00
I00
I00
tp975
sba(iModules.cell
Cell
p976
(dp977
g4
I00
sg5
(I00
I00
I00
tp978
sba(iModules.cell
Cell
p979
(dp980
g4
I00
sg5
(I00
I00
I00
tp981
sba(iModules.cell
Cell
p982
(dp983
g5
(I00
I00
I00
tp984
sbaa(lp985
(iModules.cell
Cell
p986
(dp987
g4
I00
sg5
(I00
I00
I00
tp988
sba(iModules.cell
Cell
p989
(dp990
g4
I00
sg255
I01
sg5
(I00
I00
I00
tp991
sba(iModules.cell
Cell
p992
(dp993
g4
I00
sg255
I01
sg5
(I01
I01
I00
tp994
sba(iModules.cell
Cell
p995
(dp996
g4
I00
sg255
I01
sg5
(I01
I01
I00
tp997
sba(iModules.cell
Cell
p998
(dp999
g4
I00
sg255
I01
sg5
(I01
I01
I00
tp1000
sba(iModules.cell
Cell
p1001
(dp1002
g4
I00
sg255
I01
sg5
(I01
I01
I00
tp1003
sba(iModules.cell
Cell
p1004
(dp1005
g4
I00
sg255
I01
sg5
(I01
I01
I00
tp1006
sba(iModules.cell
Cell
p1007
(dp1008
g4
I00
sg255
I01
sg5
(I01
I01
I00
tp1009
sba(iModules.cell
Cell
p1010
(dp1011
g4
I00
sg255
I01
sg5
(I01
I01
I00
tp1012
sba(iModules.cell
Cell
p1013
(dp1014
g4
I00
sg255
I01
sg5
(I01
I01
I00
tp1015
sba(iModules.cell
Cell
p1016
(dp1017
g4
I00
sg255
I01
sg5
(I01
I01
I00
tp1018
sba(iModules.cell
Cell
p1019
(dp1020
g4
I00
sg255
I01
sg5
(I01
I01
I00
tp1021
sba(iModules.cell
Cell
p1022
(dp1023
g4
I00
sg289
I01
sg5
(I01
I01
I00
tp1024
sba(iModules.cell
Cell
p1025
(dp1026
g4
I00
sg289
I01
sg5
(I01
I01
I00
tp1027
sba(iModules.cell
Cell
p1028
(dp1029
g4
I00
sg289
I01
sg5
(I01
I01
I00
tp1030
sba(iModules.cell
Cell
p1031
(dp1032
g4
I00
sg299
I01
sg5
(I01
I01
I00
tp1033
sba(iModules.cell
Cell
p1034
(dp1035
g4
I00
sg299
I01
sg5
(I01
I01
I00
tp1036
sba(iModules.cell
Cell
p1037
(dp1038
g4
I00
sg299
I01
sg5
(I01
I01
I00
tp1039
sba(iModules.cell
Cell
p1040
(dp1041
g4
I00
sg299
I01
sg5
(I01
I01
I00
tp1042
sba(iModules.cell
Cell
p1043
(dp1044
g4
I00
sg299
I01
sg5
(I01
I01
I00
tp1045
sba(iModules.cell
Cell
p1046
(dp1047
g4
I00
sg299
I01
sg5
(I01
I01
I00
tp1048
sba(iModules.cell
Cell
p1049
(dp1050
g4
I00
sg299
I01
sg5
(I01
I01
I00
tp1051
sba(iModules.cell
Cell
p1052
(dp1053
g4
I00
sg299
I01
sg5
(I01
I01
I00
tp1054
sba(iModules.cell
Cell
p1055
(dp1056
g4
I00
sg299
I01
sg5
(I01
I01
I00
tp1057
sba(iModules.cell
Cell
p1058
(dp1059
g4
I00
sg299
I01
sg5
(I01
I01
I00
tp1060
sba(iModules.cell
Cell
p1061
(dp1062
g4
I00
sg299
I01
sg5
(I01
I01
I00
tp1063
sba(iModules.cell
Cell
p1064
(dp1065
g4
I00
sg299
I01
sg5
(I01
I01
I00
tp1066
sba(iModules.cell
Cell
p1067
(dp1068
g4
I00
sg299
I01
sg5
(I01
I01
I00
tp1069
sba(iModules.cell
Cell
p1070
(dp1071
g4
I00
sg299
I01
sg5
(I01
I01
I00
tp1072
sba(iModules.cell
Cell
p1073
(dp1074
g4
I00
sg299
I01
sg5
(I01
I01
I00
tp1075
sba(iModules.cell
Cell
p1076
(dp1077
g4
I00
sg299
I01
sg5
(I01
I01
I00
tp1078
sba(iModules.cell
Cell
p1079
(dp1080
g4
I00
sg299
I01
sg5
(I01
I01
I00
tp1081
sba(iModules.cell
Cell
p1082
(dp1083
g4
I00
sg299
I01
sg5
(I01
I01
I00
tp1084
sba(iModules.cell
Cell
p1085
(dp1086
g4
I00
sg299
I01
sg5
(I01
I01
I00
tp1087
sba(iModules.cell
Cell
p1088
(dp1089
g4
I00
sg299
I01
sg5
(I01
I01
I00
tp1090
sba(iModules.cell
Cell
p1091
(dp1092
g4
I00
sg299
I01
sg5
(I01
I01
I00
tp1093
sba(iModules.cell
Cell
p1094
(dp1095
g4
I00
sg299
I01
sg5
(I01
I01
I00
tp1096
sba(iModules.cell
Cell
p1097
(dp1098
g4
I00
sg299
I01
sg5
(I01
I01
I00
tp1099
sba(iModules.cell
Cell
p1100
(dp1101
g4
I00
sg299
I01
sg5
(I01
I01
I00
tp1102
sba(iModules.cell
Cell
p1103
(dp1104
g4
I00
sg372
I01
sg5
(I01
I01
I00
tp1105
sba(iModules.cell
Cell
p1106
(dp1107
g4
I00
sg372
I01
sg5
(I01
I01
I00
tp1108
sba(iModules.cell
Cell
p1109
(dp1110
g4
I00
sg372
I01
sg5
(I01
I01
I00
tp1111
sba(iModules.cell
Cell
p1112
(dp1113
g4
I00
sg372
I01
sg5
(I01
I01
I00
tp1114
sba(iModules.cell
Cell
p1115
(dp1116
g4
I00
sg372
I01
sg5
(I01
I01
I00
tp1117
sba(iModules.cell
Cell
p1118
(dp1119
g4
I00
sg372
I01
sg5
(I01
I01
I00
tp1120
sba(iModules.cell
Cell
p1121
(dp1122
g4
I00
sg372
I01
sg5
(I01
I01
I00
tp1123
sba(iModules.cell
Cell
p1124
(dp1125
g4
I00
sg372
I01
sg5
(I01
I01
I00
tp1126
sba(iModules.cell
Cell
p1127
(dp1128
g4
I00
sg372
I01
sg5
(I01
I01
I00
tp1129
sba(iModules.cell
Cell
p1130
(dp1131
g4
I00
sg372
I01
sg5
(I01
I01
I00
tp1132
sba(iModules.cell
Cell
p1133
(dp1134
g4
I00
sg372
I01
sg5
(I01
I01
I00
tp1135
sba(iModules.cell
Cell
p1136
(dp1137
g4
I00
sg372
I01
sg5
(I01
I01
I00
tp1138
sba(iModules.cell
Cell
p1139
(dp1140
g4
I00
sg372
I01
sg5
(I01
I01
I00
tp1141
sba(iModules.cell
Cell
p1142
(dp1143
g4
I00
sg372
I01
sg5
(I01
I01
I00
tp1144
sba(iModules.cell
Cell
p1145
(dp1146
g4
I00
sg372
I01
sg5
(I01
I01
I00
tp1147
sba(iModules.cell
Cell
p1148
(dp1149
g4
I00
sg372
I01
sg5
(I01
I01
I00
tp1150
sba(iModules.cell
Cell
p1151
(dp1152
g4
I00
sg372
I01
sg5
(I01
I01
I00
tp1153
sba(iModules.cell
Cell
p1154
(dp1155
g4
I00
sg372
I01
sg5
(I01
I01
I00
tp1156
sba(iModules.cell
Cell
p1157
(dp1158
g4
I00
sg372
I01
sg5
(I01
I01
I00
tp1159
sba(iModules.cell
Cell
p1160
(dp1161
g4
I00
sg372
I01
sg5
(I01
I01
I00
tp1162
sba(iModules.cell
Cell
p1163
(dp1164
g4
I00
sg372
I01
sg5
(I01
I01
I00
tp1165
sba(iModules.cell
Cell
p1166
(dp1167
g4
I00
sg372
I01
sg5
(I01
I01
I00
tp1168
sba(iModules.cell
Cell
p1169
(dp1170
g4
I00
sg372
I01
sg5
(I00
I00
I00
tp1171
sba(iModules.cell
Cell
p1172
(dp1173
g4
I00
sg5
(I00
I00
I00
tp1174
sba(iModules.cell
Cell
p1175
(dp1176
g4
I00
sg5
(I00
I00
I00
tp1177
sba(iModules.cell
Cell
p1178
(dp1179
g4
I00
sg5
(I00
I00
I00
tp1180
sba(iModules.cell
Cell
p1181
(dp1182
g4
I00
sg5
(I00
I00
I00
tp1183
sba(iModules.cell
Cell
p1184
(dp1185
g4
I00
sg5
(I00
I00
I00
tp1186
sba(iModules.cell
Cell
p1187
(dp1188
g4
I00
sg5
(I00
I00
I00
tp1189
sba(iModules.cell
Cell
p1190
(dp1191
g4
I00
sg5
(I00
I00
I00
tp1192
sba(iModules.cell
Cell
p1193
(dp1194
g4
I00
sg5
(I00
I00
I00
tp1195
sba(iModules.cell
Cell
p1196
(dp1197
g4
I00
sg5
(I00
I00
I00
tp1198
sba(iModules.cell
Cell
p1199
(dp1200
g4
I00
sg5
(I00
I00
I00
tp1201
sba(iModules.cell
Cell
p1202
(dp1203
g4
I00
sg5
(I00
I00
I00
tp1204
sba(iModules.cell
Cell
p1205
(dp1206
g4
I00
sg5
(I00
I00
I00
tp1207
sba(iModules.cell
Cell
p1208
(dp1209
g4
I00
sg5
(I00
I00
I00
tp1210
sba(iModules.cell
Cell
p1211
(dp1212
g4
I00
sg5
(I00
I00
I00
tp1213
sba(iModules.cell
Cell
p1214
(dp1215
g4
I00
sg5
(I00
I00
I00
tp1216
sba(iModules.cell
Cell
p1217
(dp1218
g4
I00
sg5
(I00
I00
I00
tp1219
sba(iModules.cell
Cell
p1220
(dp1221
g4
I00
sg5
(I00
I00
I00
tp1222
sba(iModules.cell
Cell
p1223
(dp1224
g4
I00
sg5
(I00
I00
I00
tp1225
sba(iModules.cell
Cell
p1226
(dp1227
g5
(I00
I00
I00
tp1228
sbaa(lp1229
(iModules.cell
Cell
p1230
(dp1231
g4
I00
sg5
(I00
I00
I00
tp1232
sba(iModules.cell
Cell
p1233
(dp1234
g4
I00
sg255
I01
sg5
(I00
I00
I00
tp1235
sba(iModules.cell
Cell
p1236
(dp1237
g4
I00
sg255
I01
sg5
(I01
I01
I00
tp1238
sba(iModules.cell
Cell
p1239
(dp1240
g4
I00
sg255
I01
sg5
(I01
I01
I00
tp1241
sba(iModules.cell
Cell
p1242
(dp1243
g4
I00
sg255
I01
sg5
(I01
I01
I00
tp1244
sba(iModules.cell
Cell
p1245
(dp1246
g4
I00
sg255
I01
sg5
(I01
I01
I00
tp1247
sba(iModules.cell
Cell
p1248
(dp1249
g4
I00
sg255
I01
sg5
(I01
I01
I00
tp1250
sba(iModules.cell
Cell
p1251
(dp1252
g4
I00
sg255
I01
sg5
(I01
I01
I00
tp1253
sba(iModules.cell
Cell
p1254
(dp1255
g4
I00
sg255
I01
sg5
(I01
I01
I00
tp1256
sba(iModules.cell
Cell
p1257
(dp1258
g4
I00
sg255
I01
sg5
(I01
I01
I00
tp1259
sba(iModules.cell
Cell
p1260
(dp1261
g4
I00
sg255
I01
sg5
(I01
I01
I00
tp1262
sba(iModules.cell
Cell
p1263
(dp1264
g4
I00
sg255
I01
sg5
(I01
I01
I00
tp1265
sba(iModules.cell
Cell
p1266
(dp1267
g4
I00
sg289
I01
sg5
(I01
I01
I00
tp1268
sba(iModules.cell
Cell
p1269
(dp1270
g4
I00
sg289
I01
sg5
(I01
I01
I00
tp1271
sba(iModules.cell
Cell
p1272
(dp1273
g4
I00
sg289
I01
sg5
(I01
I01
I00
tp1274
sba(iModules.cell
Cell
p1275
(dp1276
g4
I00
sg299
I01
sg5
(I01
I01
I00
tp1277
sba(iModules.cell
Cell
p1278
(dp1279
g4
I00
sg299
I01
sg5
(I01
I01
I00
tp1280
sba(iModules.cell
Cell
p1281
(dp1282
g4
I00
sg299
I01
sg5
(I01
I01
I00
tp1283
sba(iModules.cell
Cell
p1284
(dp1285
g4
I00
sg299
I01
sg5
(I01
I01
I00
tp1286
sba(iModules.cell
Cell
p1287
(dp1288
g4
I00
sg299
I01
sg5
(I01
I01
I00
tp1289
sba(iModules.cell
Cell
p1290
(dp1291
g4
I00
sg299
I01
sg5
(I01
I01
I00
tp1292
sba(iModules.cell
Cell
p1293
(dp1294
g4
I00
sg299
I01
sg5
(I01
I01
I00
tp1295
sba(iModules.cell
Cell
p1296
(dp1297
g4
I00
sg299
I01
sg5
(I01
I01
I00
tp1298
sba(iModules.cell
Cell
p1299
(dp1300
g4
I00
sg299
I01
sg5
(I01
I01
I00
tp1301
sba(iModules.cell
Cell
p1302
(dp1303
g4
I00
sg299
I01
sg5
(I01
I01
I00
tp1304
sba(iModules.cell
Cell
p1305
(dp1306
g4
I00
sg299
I01
sg5
(I01
I01
I00
tp1307
sba(iModules.cell
Cell
p1308
(dp1309
g4
I00
sg299
I01
sg5
(I01
I01
I00
tp1310
sba(iModules.cell
Cell
p1311
(dp1312
g4
I00
sg299
I01
sg5
(I01
I01
I00
tp1313
sba(iModules.cell
Cell
p1314
(dp1315
g4
I00
sg299
I01
sg5
(I01
I01
I00
tp1316
sba(iModules.cell
Cell
p1317
(dp1318
g4
I00
sg299
I01
sg5
(I01
I01
I00
tp1319
sba(iModules.cell
Cell
p1320
(dp1321
g4
I00
sg299
I01
sg5
(I01
I01
I00
tp1322
sba(iModules.cell
Cell
p1323
(dp1324
g4
I00
sg299
I01
sg5
(I01
I01
I00
tp1325
sba(iModules.cell
Cell
p1326
(dp1327
g4
I00
sg299
I01
sg5
(I01
I01
I00
tp1328
sba(iModules.cell
Cell
p1329
(dp1330
g4
I00
sg299
I01
sg5
(I01
I01
I00
tp1331
sba(iModules.cell
Cell
p1332
(dp1333
g4
I00
sg299
I01
sg5
(I01
I01
I00
tp1334
sba(iModules.cell
Cell
p1335
(dp1336
g4
I00
sg299
I01
sg5
(I01
I01
I00
tp1337
sba(iModules.cell
Cell
p1338
(dp1339
g4
I00
sg299
I01
sg5
(I01
I01
I00
tp1340
sba(iModules.cell
Cell
p1341
(dp1342
g4
I00
sg299
I01
sg5
(I01
I01
I00
tp1343
sba(iModules.cell
Cell
p1344
(dp1345
g4
I00
sg299
I01
sg5
(I01
I01
I00
tp1346
sba(iModules.cell
Cell
p1347
(dp1348
g4
I00
sg372
I01
sg5
(I01
I01
I00
tp1349
sba(iModules.cell
Cell
p1350
(dp1351
g4
I00
sg372
I01
sg5
(I01
I01
I00
tp1352
sba(iModules.cell
Cell
p1353
(dp1354
g4
I00
sg372
I01
sg5
(I01
I01
I00
tp1355
sba(iModules.cell
Cell
p1356
(dp1357
g4
I00
sg372
I01
sg5
(I01
I01
I00
tp1358
sba(iModules.cell
Cell
p1359
(dp1360
g4
I00
sg372
I01
sg5
(I01
I01
I00
tp1361
sba(iModules.cell
Cell
p1362
(dp1363
g4
I00
sg372
I01
sg5
(I01
I01
I00
tp1364
sba(iModules.cell
Cell
p1365
(dp1366
g4
I00
sg372
I01
sg5
(I01
I01
I00
tp1367
sba(iModules.cell
Cell
p1368
(dp1369
g4
I00
sg372
I01
sg5
(I01
I01
I00
tp1370
sba(iModules.cell
Cell
p1371
(dp1372
g4
I00
sg372
I01
sg5
(I01
I01
I00
tp1373
sba(iModules.cell
Cell
p1374
(dp1375
g4
I00
sg372
I01
sg5
(I01
I01
I00
tp1376
sba(iModules.cell
Cell
p1377
(dp1378
g4
I00
sg372
I01
sg5
(I01
I01
I00
tp1379
sba(iModules.cell
Cell
p1380
(dp1381
g4
I00
sg372
I01
sg5
(I01
I01
I00
tp1382
sba(iModules.cell
Cell
p1383
(dp1384
g4
I00
sg372
I01
sg5
(I01
I01
I00
tp1385
sba(iModules.cell
Cell
p1386
(dp1387
g4
I00
sg372
I01
sg5
(I01
I01
I00
tp1388
sba(iModules.cell
Cell
p1389
(dp1390
g4
I00
sg372
I01
sg5
(I01
I01
I00
tp1391
sba(iModules.cell
Cell
p1392
(dp1393
g4
I00
sg372
I01
sg5
(I01
I01
I00
tp1394
sba(iModules.cell
Cell
p1395
(dp1396
g4
I00
sg372
I01
sg5
(I01
I01
I00
tp1397
sba(iModules.cell
Cell
p1398
(dp1399
g4
I00
sg372
I01
sg5
(I01
I01
I00
tp1400
sba(iModules.cell
Cell
p1401
(dp1402
g4
I00
sg372
I01
sg5
(I01
I01
I00
tp1403
sba(iModules.cell
Cell
p1404
(dp1405
g4
I00
sg372
I01
sg5
(I01
I01
I00
tp1406
sba(iModules.cell
Cell
p1407
(dp1408
g4
I00
sg372
I01
sg5
(I01
I01
I00
tp1409
sba(iModules.cell
Cell
p1410
(dp1411
g4
I00
sg372
I01
sg5
(I01
I01
I00
tp1412
sba(iModules.cell
Cell
p1413
(dp1414
g4
I00
sg372
I01
sg5
(I00
I00
I00
tp1415
sba(iModules.cell
Cell
p1416
(dp1417
g4
I00
sg5
(I00
I00
I00
tp1418
sba(iModules.cell
Cell
p1419
(dp1420
g4
I00
sg5
(I00
I00
I00
tp1421
sba(iModules.cell
Cell
p1422
(dp1423
g4
I00
sg5
(I00
I00
I00
tp1424
sba(iModules.cell
Cell
p1425
(dp1426
g4
I00
sg5
(I00
I00
I00
tp1427
sba(iModules.cell
Cell
p1428
(dp1429
g4
I00
sg5
(I00
I00
I00
tp1430
sba(iModules.cell
Cell
p1431
(dp1432
g4
I00
sg5
(I00
I00
I00
tp1433
sba(iModules.cell
Cell
p1434
(dp1435
g4
I00
sg5
(I00
I00
I00
tp1436
sba(iModules.cell
Cell
p1437
(dp1438
g4
I00
sg5
(I00
I00
I00
tp1439
sba(iModules.cell
Cell
p1440
(dp1441
g4
I00
sg5
(I00
I00
I00
tp1442
sba(iModules.cell
Cell
p1443
(dp1444
g4
I00
sg5
(I00
I00
I00
tp1445
sba(iModules.cell
Cell
p1446
(dp1447
g4
I00
sg5
(I00
I00
I00
tp1448
sba(iModules.cell
Cell
p1449
(dp1450
g4
I00
sg5
(I00
I00
I00
tp1451
sba(iModules.cell
Cell
p1452
(dp1453
g4
I00
sg5
(I00
I00
I00
tp1454
sba(iModules.cell
Cell
p1455
(dp1456
g4
I00
sg5
(I00
I00
I00
tp1457
sba(iModules.cell
Cell
p1458
(dp1459
g4
I00
sg5
(I00
I00
I00
tp1460
sba(iModules.cell
Cell
p1461
(dp1462
g4
I00
sg5
(I00
I00
I00
tp1463
sba(iModules.cell
Cell
p1464
(dp1465
g4
I00
sg5
(I00
I00
I00
tp1466
sba(iModules.cell
Cell
p1467
(dp1468
g4
I00
sg5
(I00
I00
I00
tp1469
sba(iModules.cell
Cell
p1470
(dp1471
g5
(I00
I00
I00
tp1472
sbaa(lp1473
(iModules.cell
Cell
p1474
(dp1475
g4
I00
sg5
(I00
I00
I00
tp1476
sba(iModules.cell
Cell
p1477
(dp1478
g4
I00
sg255
I01
sg5
(I00
I00
I00
tp1479
sba(iModules.cell
Cell
p1480
(dp1481
g4
I00
sg255
I01
sg5
(I01
I01
I00
tp1482
sba(iModules.cell
Cell
p1483
(dp1484
g4
I00
sg255
I01
sg5
(I01
I01
I00
tp1485
sba(iModules.cell
Cell
p1486
(dp1487
g4
I00
sg255
I01
sg5
(I01
I01
I00
tp1488
sba(iModules.cell
Cell
p1489
(dp1490
g4
I00
sg255
I01
sg5
(I01
I01
I00
tp1491
sba(iModules.cell
Cell
p1492
(dp1493
g4
I00
sg255
I01
sg5
(I01
I01
I00
tp1494
sba(iModules.cell
Cell
p1495
(dp1496
g4
I00
sg255
I01
sg5
(I01
I01
I00
tp1497
sba(iModules.cell
Cell
p1498
(dp1499
g4
I00
sg255
I01
sg5
(I01
I01
I00
tp1500
sba(iModules.cell
Cell
p1501
(dp1502
g4
I00
sg255
I01
sg5
(I01
I01
I00
tp1503
sba(iModules.cell
Cell
p1504
(dp1505
g4
I00
sg255
I01
sg5
(I01
I01
I00
tp1506
sba(iModules.cell
Cell
p1507
(dp1508
g4
I00
sg255
I01
sg5
(I01
I01
I00
tp1509
sba(iModules.cell
Cell
p1510
(dp1511
g4
I00
sg289
I01
sg5
(I01
I01
I00
tp1512
sba(iModules.cell
Cell
p1513
(dp1514
g4
I00
sg289
I01
sg5
(I01
I01
I00
tp1515
sba(iModules.cell
Cell
p1516
(dp1517
g4
I00
sg289
I01
sg5
(I01
I01
I00
tp1518
sba(iModules.cell
Cell
p1519
(dp1520
g4
I00
sg299
I01
sg5
(I01
I01
I00
tp1521
sba(iModules.cell
Cell
p1522
(dp1523
g4
I00
sg299
I01
sg5
(I01
I01
I00
tp1524
sba(iModules.cell
Cell
p1525
(dp1526
g4
I00
sg299
I01
sg5
(I01
I01
I00
tp1527
sba(iModules.cell
Cell
p1528
(dp1529
g4
I00
sg299
I01
sg5
(I01
I01
I00
tp1530
sba(iModules.cell
Cell
p1531
(dp1532
g4
I00
sg299
I01
sg5
(I01
I01
I00
tp1533
sba(iModules.cell
Cell
p1534
(dp1535
g4
I00
sg299
I01
sg5
(I01
I01
I00
tp1536
sba(iModules.cell
Cell
p1537
(dp1538
g4
I00
sg299
I01
sg5
(I01
I01
I00
tp1539
sba(iModules.cell
Cell
p1540
(dp1541
g4
I00
sg299
I01
sg5
(I01
I01
I00
tp1542
sba(iModules.cell
Cell
p1543
(dp1544
g4
I00
sg299
I01
sg5
(I01
I01
I00
tp1545
sba(iModules.cell
Cell
p1546
(dp1547
g4
I00
sg299
I01
sg5
(I01
I01
I00
tp1548
sba(iModules.cell
Cell
p1549
(dp1550
g4
I00
sg299
I01
sg5
(I01
I01
I00
tp1551
sba(iModules.cell
Cell
p1552
(dp1553
g4
I00
sg299
I01
sg5
(I01
I01
I00
tp1554
sba(iModules.cell
Cell
p1555
(dp1556
g4
I00
sg299
I01
sg5
(I01
I01
I00
tp1557
sba(iModules.cell
Cell
p1558
(dp1559
g4
I00
sg299
I01
sg5
(I01
I01
I00
tp1560
sba(iModules.cell
Cell
p1561
(dp1562
g4
I00
sg299
I01
sg5
(I01
I01
I00
tp1563
sba(iModules.cell
Cell
p1564
(dp1565
g4
I00
sg299
I01
sg5
(I01
I01
I00
tp1566
sba(iModules.cell
Cell
p1567
(dp1568
g4
I00
sg299
I01
sg5
(I01
I01
I00
tp1569
sba(iModules.cell
Cell
p1570
(dp1571
g4
I00
sg299
I01
sg5
(I01
I01
I00
tp1572
sba(iModules.cell
Cell
p1573
(dp1574
g4
I00
sg299
I01
sg5
(I01
I01
I00
tp1575
sba(iModules.cell
Cell
p1576
(dp1577
g4
I00
sg299
I01
sg5
(I01
I01
I00
tp1578
sba(iModules.cell
Cell
p1579
(dp1580
g4
I00
sg299
I01
sg5
(I01
I01
I00
tp1581
sba(iModules.cell
Cell
p1582
(dp1583
g4
I00
sg299
I01
sg5
(I01
I01
I00
tp1584
sba(iModules.cell
Cell
p1585
(dp1586
g4
I00
sg299
I01
sg5
(I01
I01
I00
tp1587
sba(iModules.cell
Cell
p1588
(dp1589
g4
I00
sg299
I01
sg5
(I01
I01
I00
tp1590
sba(iModules.cell
Cell
p1591
(dp1592
g4
I00
sg372
I01
sg5
(I01
I01
I00
tp1593
sba(iModules.cell
Cell
p1594
(dp1595
g4
I00
sg372
I01
sg5
(I01
I01
I00
tp1596
sba(iModules.cell
Cell
p1597
(dp1598
g4
I00
sg372
I01
sg5
(I01
I01
I00
tp1599
sba(iModules.cell
Cell
p1600
(dp1601
g4
I00
sg372
I01
sg5
(I01
I01
I00
tp1602
sba(iModules.cell
Cell
p1603
(dp1604
g4
I00
sg372
I01
sg5
(I01
I01
I00
tp1605
sba(iModules.cell
Cell
p1606
(dp1607
g4
I00
sg372
I01
sg5
(I01
I01
I00
tp1608
sba(iModules.cell
Cell
p1609
(dp1610
g4
I00
sg372
I01
sg5
(I01
I01
I00
tp1611
sba(iModules.cell
Cell
p1612
(dp1613
g4
I00
sg372
I01
sg5
(I01
I01
I00
tp1614
sba(iModules.cell
Cell
p1615
(dp1616
g4
I00
sg372
I01
sg5
(I01
I01
I00
tp1617
sba(iModules.cell
Cell
p1618
(dp1619
g4
I00
sg372
I01
sg5
(I01
I01
I00
tp1620
sba(iModules.cell
Cell
p1621
(dp1622
g4
I00
sg372
I01
sg5
(I01
I01
I00
tp1623
sba(iModules.cell
Cell
p1624
(dp1625
g4
I00
sg372
I01
sg5
(I01
I01
I00
tp1626
sba(iModules.cell
Cell
p1627
(dp1628
g4
I00
sg372
I01
sg5
(I01
I01
I00
tp1629
sba(iModules.cell
Cell
p1630
(dp1631
g4
I00
sg372
I01
sg5
(I01
I01
I00
tp1632
sba(iModules.cell
Cell
p1633
(dp1634
g4
I00
sg372
I01
sg5
(I01
I01
I00
tp1635
sba(iModules.cell
Cell
p1636
(dp1637
g4
I00
sg372
I01
sg5
(I01
I01
I00
tp1638
sba(iModules.cell
Cell
p1639
(dp1640
g4
I00
sg372
I01
sg5
(I01
I01
I00
tp1641
sba(iModules.cell
Cell
p1642
(dp1643
g4
I00
sg372
I01
sg5
(I01
I01
I00
tp1644
sba(iModules.cell
Cell
p1645
(dp1646
g4
I00
sg372
I01
sg5
(I01
I01
I00
tp1647
sba(iModules.cell
Cell
p1648
(dp1649
g4
I00
sg372
I01
sg5
(I01
I01
I00
tp1650
sba(iModules.cell
Cell
p1651
(dp1652
g4
I00
sg372
I01
sg5
(I01
I01
I00
tp1653
sba(iModules.cell
Cell
p1654
(dp1655
g4
I00
sg372
I01
sg5
(I01
I01
I00
tp1656
sba(iModules.cell
Cell
p1657
(dp1658
g4
I00
sg372
I01
sg5
(I00
I00
I00
tp1659
sba(iModules.cell
Cell
p1660
(dp1661
g4
I00
sg5
(I00
I00
I00
tp1662
sba(iModules.cell
Cell
p1663
(dp1664
g4
I00
sg5
(I00
I00
I00
tp1665
sba(iModules.cell
Cell
p1666
(dp1667
g4
I00
sg5
(I00
I00
I00
tp1668
sba(iModules.cell
Cell
p1669
(dp1670
g4
I00
sg5
(I00
I00
I00
tp1671
sba(iModules.cell
Cell
p1672
(dp1673
g4
I00
sg5
(I00
I00
I00
tp1674
sba(iModules.cell
Cell
p1675
(dp1676
g4
I00
sg5
(I00
I00
I00
tp1677
sba(iModules.cell
Cell
p1678
(dp1679
g4
I00
sg5
(I00
I00
I00
tp1680
sba(iModules.cell
Cell
p1681
(dp1682
g4
I00
sg5
(I00
I00
I00
tp1683
sba(iModules.cell
Cell
p1684
(dp1685
g4
I00
sg5
(I00
I00
I00
tp1686
sba(iModules.cell
Cell
p1687
(dp1688
g4
I00
sg5
(I00
I00
I00
tp1689
sba(iModules.cell
Cell
p1690
(dp1691
g4
I00
sg5
(I00
I00
I00
tp1692
sba(iModules.cell
Cell
p1693
(dp1694
g4
I00
sg5
(I00
I00
I00
tp1695
sba(iModules.cell
Cell
p1696
(dp1697
g4
I00
sg5
(I00
I00
I00
tp1698
sba(iModules.cell
Cell
p1699
(dp1700
g4
I00
sg5
(I00
I00
I00
tp1701
sba(iModules.cell
Cell
p1702
(dp1703
g4
I00
sg5
(I00
I00
I00
tp1704
sba(iModules.cell
Cell
p1705
(dp1706
g4
I00
sg5
(I00
I00
I00
tp1707
sba(iModules.cell
Cell
p1708
(dp1709
g4
I00
sg5
(I00
I00
I00
tp1710
sba(iModules.cell
Cell
p1711
(dp1712
g4
I00
sg5
(I00
I00
I00
tp1713
sba(iModules.cell
Cell
p1714
(dp1715
g5
(I00
I00
I00
tp1716
sbaa(lp1717
(iModules.cell
Cell
p1718
(dp1719
g4
I00
sg5
(I00
I00
I00
tp1720
sba(iModules.cell
Cell
p1721
(dp1722
g4
I00
sg255
I01
sg5
(I00
I00
I00
tp1723
sba(iModules.cell
Cell
p1724
(dp1725
g4
I00
sg255
I01
sg5
(I01
I01
I00
tp1726
sba(iModules.cell
Cell
p1727
(dp1728
g4
I00
sg255
I01
sg5
(I01
I01
I00
tp1729
sba(iModules.cell
Cell
p1730
(dp1731
g4
I00
sg255
I01
sg5
(I01
I01
I00
tp1732
sba(iModules.cell
Cell
p1733
(dp1734
g4
I00
sg255
I01
sg5
(I01
I01
I00
tp1735
sba(iModules.cell
Cell
p1736
(dp1737
g4
I00
sg255
I01
sg5
(I01
I01
I00
tp1738
sba(iModules.cell
Cell
p1739
(dp1740
g4
I00
sg255
I01
sg5
(I01
I01
I00
tp1741
sba(iModules.cell
Cell
p1742
(dp1743
g4
I00
sg255
I01
sg5
(I01
I01
I00
tp1744
sba(iModules.cell
Cell
p1745
(dp1746
g4
I00
sg255
I01
sg5
(I01
I01
I00
tp1747
sba(iModules.cell
Cell
p1748
(dp1749
g4
I00
sg255
I01
sg5
(I01
I01
I00
tp1750
sba(iModules.cell
Cell
p1751
(dp1752
g4
I00
sg255
I01
sg5
(I01
I01
I00
tp1753
sba(iModules.cell
Cell
p1754
(dp1755
g4
I00
sg289
I01
sg5
(I01
I01
I00
tp1756
sba(iModules.cell
Cell
p1757
(dp1758
g4
I00
sg289
I01
sg5
(I01
I01
I00
tp1759
sba(iModules.cell
Cell
p1760
(dp1761
g4
I00
sg289
I01
sg5
(I00
I00
I00
tp1762
sba(iModules.cell
Cell
p1763
(dp1764
g4
I00
sg299
I01
sg5
(I00
I00
I00
tp1765
sba(iModules.cell
Cell
p1766
(dp1767
g4
I00
sg299
I01
sg5
(I00
I00
I00
tp1768
sba(iModules.cell
Cell
p1769
(dp1770
g4
I00
sg299
I01
sg5
(I00
I00
I00
tp1771
sba(iModules.cell
Cell
p1772
(dp1773
g4
I00
sg299
I01
sg5
(I00
I00
I00
tp1774
sba(iModules.cell
Cell
p1775
(dp1776
g4
I00
sg299
I01
sg5
(I00
I00
I00
tp1777
sba(iModules.cell
Cell
p1778
(dp1779
g4
I00
sg299
I01
sg5
(I00
I00
I00
tp1780
sba(iModules.cell
Cell
p1781
(dp1782
g4
I00
sg299
I01
sg5
(I00
I00
I00
tp1783
sba(iModules.cell
Cell
p1784
(dp1785
g4
I00
sg299
I01
sg5
(I00
I00
I00
tp1786
sba(iModules.cell
Cell
p1787
(dp1788
g4
I00
sg299
I01
sg5
(I01
I01
I00
tp1789
sba(iModules.cell
Cell
p1790
(dp1791
g4
I00
sg299
I01
sg5
(I01
I01
I00
tp1792
sba(iModules.cell
Cell
p1793
(dp1794
g4
I00
sg299
I01
sg5
(I01
I01
I00
tp1795
sba(iModules.cell
Cell
p1796
(dp1797
g4
I00
sg299
I01
sg5
(I01
I01
I00
tp1798
sba(iModules.cell
Cell
p1799
(dp1800
g4
I00
sg299
I01
sg5
(I01
I01
I00
tp1801
sba(iModules.cell
Cell
p1802
(dp1803
g4
I00
sg299
I01
sg5
(I01
I01
I00
tp1804
sba(iModules.cell
Cell
p1805
(dp1806
g4
I00
sg299
I01
sg5
(I01
I01
I00
tp1807
sba(iModules.cell
Cell
p1808
(dp1809
g4
I00
sg299
I01
sg5
(I01
I01
I00
tp1810
sba(iModules.cell
Cell
p1811
(dp1812
g4
I00
sg299
I01
sg5
(I01
I01
I00
tp1813
sba(iModules.cell
Cell
p1814
(dp1815
g4
I00
sg299
I01
sg5
(I01
I01
I00
tp1816
sba(iModules.cell
Cell
p1817
(dp1818
g4
I00
sg299
I01
sg5
(I01
I01
I00
tp1819
sba(iModules.cell
Cell
p1820
(dp1821
g4
I00
sg299
I01
sg5
(I01
I01
I00
tp1822
sba(iModules.cell
Cell
p1823
(dp1824
g4
I00
sg299
I01
sg5
(I01
I01
I00
tp1825
sba(iModules.cell
Cell
p1826
(dp1827
g4
I00
sg299
I01
sg5
(I01
I01
I00
tp1828
sba(iModules.cell
Cell
p1829
(dp1830
g4
I00
sg299
I01
sg5
(I01
I01
I00
tp1831
sba(iModules.cell
Cell
p1832
(dp1833
g4
I00
sg299
I01
sg5
(I01
I01
I00
tp1834
sba(iModules.cell
Cell
p1835
(dp1836
g4
I00
sg372
I01
sg5
(I01
I01
I00
tp1837
sba(iModules.cell
Cell
p1838
(dp1839
g4
I00
sg372
I01
sg5
(I01
I01
I00
tp1840
sba(iModules.cell
Cell
p1841
(dp1842
g4
I00
sg372
I01
sg5
(I01
I01
I00
tp1843
sba(iModules.cell
Cell
p1844
(dp1845
g4
I00
sg372
I01
sg5
(I01
I01
I00
tp1846
sba(iModules.cell
Cell
p1847
(dp1848
g4
I00
sg372
I01
sg5
(I01
I01
I00
tp1849
sba(iModules.cell
Cell
p1850
(dp1851
g4
I00
sg372
I01
sg5
(I01
I01
I00
tp1852
sba(iModules.cell
Cell
p1853
(dp1854
g4
I00
sg372
I01
sg5
(I01
I01
I00
tp1855
sba(iModules.cell
Cell
p1856
(dp1857
g4
I00
sg372
I01
sg5
(I01
I01
I00
tp1858
sba(iModules.cell
Cell
p1859
(dp1860
g4
I00
sg372
I01
sg5
(I01
I01
I00
tp1861
sba(iModules.cell
Cell
p1862
(dp1863
g4
I00
sg372
I01
sg5
(I01
I01
I00
tp1864
sba(iModules.cell
Cell
p1865
(dp1866
g4
I00
sg372
I01
sg5
(I01
I01
I00
tp1867
sba(iModules.cell
Cell
p1868
(dp1869
g4
I00
sg372
I01
sg5
(I01
I01
I00
tp1870
sba(iModules.cell
Cell
p1871
(dp1872
g4
I00
sg372
I01
sg5
(I01
I01
I00
tp1873
sba(iModules.cell
Cell
p1874
(dp1875
g4
I00
sg372
I01
sg5
(I01
I01
I00
tp1876
sba(iModules.cell
Cell
p1877
(dp1878
g4
I00
sg372
I01
sg5
(I01
I01
I00
tp1879
sba(iModules.cell
Cell
p1880
(dp1881
g4
I00
sg372
I01
sg5
(I01
I01
I00
tp1882
sba(iModules.cell
Cell
p1883
(dp1884
g4
I00
sg372
I01
sg5
(I01
I01
I00
tp1885
sba(iModules.cell
Cell
p1886
(dp1887
g4
I00
sg372
I01
sg5
(I01
I01
I00
tp1888
sba(iModules.cell
Cell
p1889
(dp1890
g4
I00
sg372
I01
sg5
(I01
I01
I00
tp1891
sba(iModules.cell
Cell
p1892
(dp1893
g4
I00
sg372
I01
sg5
(I01
I01
I00
tp1894
sba(iModules.cell
Cell
p1895
(dp1896
g4
I00
sg372
I01
sg5
(I01
I01
I00
tp1897
sba(iModules.cell
Cell
p1898
(dp1899
g4
I00
sg372
I01
sg5
(I01
I01
I00
tp1900
sba(iModules.cell
Cell
p1901
(dp1902
g4
I00
sg372
I01
sg5
(I00
I00
I00
tp1903
sba(iModules.cell
Cell
p1904
(dp1905
g4
I00
sg5
(I00
I00
I00
tp1906
sba(iModules.cell
Cell
p1907
(dp1908
g4
I00
sg5
(I00
I00
I00
tp1909
sba(iModules.cell
Cell
p1910
(dp1911
g4
I00
sg5
(I00
I00
I00
tp1912
sba(iModules.cell
Cell
p1913
(dp1914
g4
I00
sg5
(I00
I00
I00
tp1915
sba(iModules.cell
Cell
p1916
(dp1917
g4
I00
sg5
(I00
I00
I00
tp1918
sba(iModules.cell
Cell
p1919
(dp1920
g4
I00
sg5
(I00
I00
I00
tp1921
sba(iModules.cell
Cell
p1922
(dp1923
g4
I00
sg5
(I00
I00
I00
tp1924
sba(iModules.cell
Cell
p1925
(dp1926
g4
I00
sg5
(I00
I00
I00
tp1927
sba(iModules.cell
Cell
p1928
(dp1929
g4
I00
sg5
(I00
I00
I00
tp1930
sba(iModules.cell
Cell
p1931
(dp1932
g4
I00
sg5
(I00
I00
I00
tp1933
sba(iModules.cell
Cell
p1934
(dp1935
g4
I00
sg5
(I00
I00
I00
tp1936
sba(iModules.cell
Cell
p1937
(dp1938
g4
I00
sg5
(I00
I00
I00
tp1939
sba(iModules.cell
Cell
p1940
(dp1941
g4
I00
sg5
(I00
I00
I00
tp1942
sba(iModules.cell
Cell
p1943
(dp1944
g4
I00
sg5
(I00
I00
I00
tp1945
sba(iModules.cell
Cell
p1946
(dp1947
g4
I00
sg5
(I00
I00
I00
tp1948
sba(iModules.cell
Cell
p1949
(dp1950
g4
I00
sg5
(I00
I00
I00
tp1951
sba(iModules.cell
Cell
p1952
(dp1953
g4
I00
sg5
(I00
I00
I00
tp1954
sba(iModules.cell
Cell
p1955
(dp1956
g4
I00
sg5
(I00
I00
I00
tp1957
sba(iModules.cell
Cell
p1958
(dp1959
g5
(I00
I00
I00
tp1960
sbaa(lp1961
(iModules.cell
Cell
p1962
(dp1963
g4
I00
sg5
(I00
I00
I00
tp1964
sba(iModules.cell
Cell
p1965
(dp1966
g4
I00
sg255
I01
sg5
(I00
I00
I00
tp1967
sba(iModules.cell
Cell
p1968
(dp1969
g4
I00
sg255
I01
sg5
(I01
I01
I00
tp1970
sba(iModules.cell
Cell
p1971
(dp1972
g4
I00
sg255
I01
sg5
(I01
I01
I00
tp1973
sba(iModules.cell
Cell
p1974
(dp1975
g4
I00
sg255
I01
sg5
(I01
I01
I00
tp1976
sba(iModules.cell
Cell
p1977
(dp1978
g4
I00
sg255
I01
sg5
(I01
I01
I00
tp1979
sba(iModules.cell
Cell
p1980
(dp1981
g4
I00
sg255
I01
sg5
(I01
I01
I00
tp1982
sba(iModules.cell
Cell
p1983
(dp1984
g4
I00
sg255
I01
sg5
(I01
I01
I00
tp1985
sba(iModules.cell
Cell
p1986
(dp1987
g4
I00
sg255
I01
sg5
(I01
I01
I00
tp1988
sba(iModules.cell
Cell
p1989
(dp1990
g4
I00
sg255
I01
sg5
(I01
I01
I00
tp1991
sba(iModules.cell
Cell
p1992
(dp1993
g4
I00
sg255
I01
sg5
(I01
I01
I00
tp1994
sba(iModules.cell
Cell
p1995
(dp1996
g4
I00
sg255
I01
sg5
(I01
I01
I00
tp1997
sba(iModules.cell
Cell
p1998
(dp1999
g4
I00
sg289
I01
sg5
(I01
I01
I00
tp2000
sba(iModules.cell
Cell
p2001
(dp2002
g4
I00
sg289
I01
sg5
(I01
I01
I00
tp2003
sba(iModules.cell
Cell
p2004
(dp2005
g4
I00
sg289
I01
sg5
(I00
I00
I00
tp2006
sba(iModules.cell
Cell
p2007
(dp2008
S'lit'
p2009
I01
sg4
I00
sg299
I01
sg5
(I01
I01
I00
tp2010
sba(iModules.cell
Cell
p2011
(dp2012
g2009
I01
sg4
I00
sg299
I01
sg5
(I01
I01
I00
tp2013
sba(iModules.cell
Cell
p2014
(dp2015
g2009
I01
sg4
I00
sg299
I01
sg5
(I01
I01
I00
tp2016
sba(iModules.cell
Cell
p2017
(dp2018
g2009
I01
sg4
I00
sg299
I01
sg5
(I01
I01
I00
tp2019
sba(iModules.cell
Cell
p2020
(dp2021
g2009
I01
sg4
I00
sg299
I01
sg5
(I01
I01
I00
tp2022
sba(iModules.cell
Cell
p2023
(dp2024
g2009
I01
sg4
I00
sg299
I01
sg5
(I01
I01
I00
tp2025
sba(iModules.cell
Cell
p2026
(dp2027
g2009
I01
sg4
I00
sg299
I01
sg5
(I01
I01
I00
tp2028
sba(iModules.cell
Cell
p2029
(dp2030
g4
I00
sg299
I01
sg5
(I00
I00
I00
tp2031
sba(iModules.cell
Cell
p2032
(dp2033
g4
I00
sg299
I01
sg5
(I01
I01
I00
tp2034
sba(iModules.cell
Cell
p2035
(dp2036
g4
I00
sg299
I01
sg5
(I01
I01
I00
tp2037
sba(iModules.cell
Cell
p2038
(dp2039
g4
I00
sg299
I01
sg5
(I01
I01
I00
tp2040
sba(iModules.cell
Cell
p2041
(dp2042
g4
I00
sg299
I01
sg5
(I01
I01
I00
tp2043
sba(iModules.cell
Cell
p2044
(dp2045
g4
I00
sg299
I01
sg5
(I01
I01
I00
tp2046
sba(iModules.cell
Cell
p2047
(dp2048
g4
I00
sg299
I01
sg5
(I01
I01
I00
tp2049
sba(iModules.cell
Cell
p2050
(dp2051
g4
I00
sg299
I01
sg5
(I01
I01
I00
tp2052
sba(iModules.cell
Cell
p2053
(dp2054
g4
I00
sg299
I01
sg5
(I01
I01
I00
tp2055
sba(iModules.cell
Cell
p2056
(dp2057
g4
I00
sg299
I01
sg5
(I01
I01
I00
tp2058
sba(iModules.cell
Cell
p2059
(dp2060
g4
I00
sg299
I01
sg5
(I01
I01
I00
tp2061
sba(iModules.cell
Cell
p2062
(dp2063
g4
I00
sg299
I01
sg5
(I01
I01
I00
tp2064
sba(iModules.cell
Cell
p2065
(dp2066
g4
I00
sg299
I01
sg5
(I01
I01
I00
tp2067
sba(iModules.cell
Cell
p2068
(dp2069
g4
I00
sg299
I01
sg5
(I01
I01
I00
tp2070
sba(iModules.cell
Cell
p2071
(dp2072
g4
I00
sg299
I01
sg5
(I01
I01
I00
tp2073
sba(iModules.cell
Cell
p2074
(dp2075
g4
I00
sg299
I01
sg5
(I01
I01
I00
tp2076
sba(iModules.cell
Cell
p2077
(dp2078
g4
I00
sg299
I01
sg5
(I01
I01
I00
tp2079
sba(iModules.cell
Cell
p2080
(dp2081
g4
I00
sg372
I01
sg5
(I01
I01
I00
tp2082
sba(iModules.cell
Cell
p2083
(dp2084
g4
I00
sg372
I01
sg5
(I01
I01
I00
tp2085
sba(iModules.cell
Cell
p2086
(dp2087
g4
I00
sg372
I01
sg5
(I01
I01
I00
tp2088
sba(iModules.cell
Cell
p2089
(dp2090
g4
I00
sg372
I01
sg5
(I01
I01
I00
tp2091
sba(iModules.cell
Cell
p2092
(dp2093
g4
I00
sg372
I01
sg5
(I01
I01
I00
tp2094
sba(iModules.cell
Cell
p2095
(dp2096
g4
I00
sg372
I01
sg5
(I01
I01
I00
tp2097
sba(iModules.cell
Cell
p2098
(dp2099
g4
I00
sg372
I01
sg5
(I01
I01
I00
tp2100
sba(iModules.cell
Cell
p2101
(dp2102
g4
I00
sg372
I01
sg5
(I01
I01
I00
tp2103
sba(iModules.cell
Cell
p2104
(dp2105
g4
I00
sg372
I01
sg5
(I01
I01
I00
tp2106
sba(iModules.cell
Cell
p2107
(dp2108
g4
I00
sg372
I01
sg5
(I01
I01
I00
tp2109
sba(iModules.cell
Cell
p2110
(dp2111
g4
I00
sg372
I01
sg5
(I01
I01
I00
tp2112
sba(iModules.cell
Cell
p2113
(dp2114
g4
I00
sg372
I01
sg5
(I01
I01
I00
tp2115
sba(iModules.cell
Cell
p2116
(dp2117
g4
I00
sg372
I01
sg5
(I01
I01
I00
tp2118
sba(iModules.cell
Cell
p2119
(dp2120
g4
I00
sg372
I01
sg5
(I01
I01
I00
tp2121
sba(iModules.cell
Cell
p2122
(dp2123
g4
I00
sg372
I01
sg5
(I01
I01
I00
tp2124
sba(iModules.cell
Cell
p2125
(dp2126
g4
I00
sg372
I01
sg5
(I01
I01
I00
tp2127
sba(iModules.cell
Cell
p2128
(dp2129
g4
I00
sg372
I01
sg5
(I01
I01
I00
tp2130
sba(iModules.cell
Cell
p2131
(dp2132
g4
I00
sg372
I01
sg5
(I01
I01
I00
tp2133
sba(iModules.cell
Cell
p2134
(dp2135
g4
I00
sg372
I01
sg5
(I01
I01
I00
tp2136
sba(iModules.cell
Cell
p2137
(dp2138
g4
I00
sg372
I01
sg5
(I01
I01
I00
tp2139
sba(iModules.cell
Cell
p2140
(dp2141
g4
I00
sg372
I01
sg5
(I01
I01
I00
tp2142
sba(iModules.cell
Cell
p2143
(dp2144
g4
I00
sg372
I01
sg5
(I01
I01
I00
tp2145
sba(iModules.cell
Cell
p2146
(dp2147
g4
I00
sg372
I01
sg5
(I00
I00
I00
tp2148
sba(iModules.cell
Cell
p2149
(dp2150
g4
I00
sg5
(I00
I00
I00
tp2151
sba(iModules.cell
Cell
p2152
(dp2153
g4
I00
sg5
(I00
I00
I00
tp2154
sba(iModules.cell
Cell
p2155
(dp2156
g4
I00
sg5
(I00
I00
I00
tp2157
sba(iModules.cell
Cell
p2158
(dp2159
g4
I00
sg5
(I00
I00
I00
tp2160
sba(iModules.cell
Cell
p2161
(dp2162
g4
I00
sg5
(I00
I00
I00
tp2163
sba(iModules.cell
Cell
p2164
(dp2165
g4
I00
sg5
(I00
I00
I00
tp2166
sba(iModules.cell
Cell
p2167
(dp2168
g4
I00
sg5
(I00
I00
I00
tp2169
sba(iModules.cell
Cell
p2170
(dp2171
g4
I00
sg5
(I00
I00
I00
tp2172
sba(iModules.cell
Cell
p2173
(dp2174
g4
I00
sg5
(I00
I00
I00
tp2175
sba(iModules.cell
Cell
p2176
(dp2177
g4
I00
sg5
(I00
I00
I00
tp2178
sba(iModules.cell
Cell
p2179
(dp2180
g4
I00
sg5
(I00
I00
I00
tp2181
sba(iModules.cell
Cell
p2182
(dp2183
g4
I00
sg5
(I00
I00
I00
tp2184
sba(iModules.cell
Cell
p2185
(dp2186
g4
I00
sg5
(I00
I00
I00
tp2187
sba(iModules.cell
Cell
p2188
(dp2189
g4
I00
sg5
(I00
I00
I00
tp2190
sba(iModules.cell
Cell
p2191
(dp2192
g4
I00
sg5
(I00
I00
I00
tp2193
sba(iModules.cell
Cell
p2194
(dp2195
g4
I00
sg5
(I00
I00
I00
tp2196
sba(iModules.cell
Cell
p2197
(dp2198
g4
I00
sg5
(I00
I00
I00
tp2199
sba(iModules.cell
Cell
p2200
(dp2201
g4
I00
sg5
(I00
I00
I00
tp2202
sba(iModules.cell
Cell
p2203
(dp2204
g5
(I00
I00
I00
tp2205
sbaa(lp2206
(iModules.cell
Cell
p2207
(dp2208
g4
I00
sg5
(I00
I00
I00
tp2209
sba(iModules.cell
Cell
p2210
(dp2211
g4
I00
sg255
I01
sg5
(I00
I00
I00
tp2212
sba(iModules.cell
Cell
p2213
(dp2214
g4
I00
sg255
I01
sg5
(I01
I01
I00
tp2215
sba(iModules.cell
Cell
p2216
(dp2217
g4
I00
sg255
I01
sg5
(I01
I01
I00
tp2218
sba(iModules.cell
Cell
p2219
(dp2220
g4
I00
sg255
I01
sg5
(I01
I01
I00
tp2221
sba(iModules.cell
Cell
p2222
(dp2223
g4
I00
sg255
I01
sg5
(I01
I01
I00
tp2224
sba(iModules.cell
Cell
p2225
(dp2226
g4
I00
sg255
I01
sg5
(I01
I01
I00
tp2227
sba(iModules.cell
Cell
p2228
(dp2229
g4
I00
sg255
I01
sg5
(I01
I01
I00
tp2230
sba(iModules.cell
Cell
p2231
(dp2232
g4
I00
sg255
I01
sg5
(I01
I01
I00
tp2233
sba(iModules.cell
Cell
p2234
(dp2235
g4
I00
sg255
I01
sg5
(I01
I01
I00
tp2236
sba(iModules.cell
Cell
p2237
(dp2238
g4
I00
sg255
I01
sg5
(I01
I01
I00
tp2239
sba(iModules.cell
Cell
p2240
(dp2241
g4
I00
sg255
I01
sg5
(I01
I01
I00
tp2242
sba(iModules.cell
Cell
p2243
(dp2244
g4
I00
sg289
I01
sg5
(I01
I01
I00
tp2245
sba(iModules.cell
Cell
p2246
(dp2247
g4
I00
sg289
I01
sg5
(I01
I01
I00
tp2248
sba(iModules.cell
Cell
p2249
(dp2250
g4
I00
sg289
I01
sg5
(I00
I00
I00
tp2251
sba(iModules.cell
Cell
p2252
(dp2253
g2009
I01
sg4
I00
sg299
I01
sg5
(I01
I01
I00
tp2254
sba(iModules.cell
Cell
p2255
(dp2256
g2009
I01
sg4
I00
sg299
I01
sg5
(I01
I01
I00
tp2257
sba(iModules.cell
Cell
p2258
(dp2259
g2009
I01
sg4
I00
sg299
I01
sg5
(I01
I01
I00
tp2260
sba(iModules.cell
Cell
p2261
(dp2262
g2009
I01
sg4
I00
sg299
I01
sg5
(I01
I01
I00
tp2263
sba(iModules.cell
Cell
p2264
(dp2265
g2009
I01
sg4
I00
sg299
I01
sg5
(I01
I01
I00
tp2266
sba(iModules.cell
Cell
p2267
(dp2268
g2009
I01
sg4
I00
sg299
I01
sg5
(I01
I01
I00
tp2269
sba(iModules.cell
Cell
p2270
(dp2271
g2009
I01
sg4
I00
sg299
I01
sg5
(I01
I01
I00
tp2272
sba(iModules.cell
Cell
p2273
(dp2274
g4
I00
sg299
I01
sg5
(I00
I00
I00
tp2275
sba(iModules.cell
Cell
p2276
(dp2277
g4
I00
sg299
I01
sg5
(I01
I01
I00
tp2278
sba(iModules.cell
Cell
p2279
(dp2280
g4
I00
sg299
I01
sg5
(I01
I01
I00
tp2281
sba(iModules.cell
Cell
p2282
(dp2283
g4
I00
sg299
I01
sg5
(I01
I01
I00
tp2284
sba(iModules.cell
Cell
p2285
(dp2286
g4
I00
sg299
I01
sg5
(I01
I01
I00
tp2287
sba(iModules.cell
Cell
p2288
(dp2289
g4
I00
sg299
I01
sg5
(I01
I01
I00
tp2290
sba(iModules.cell
Cell
p2291
(dp2292
g4
I00
sg299
I01
sg5
(I01
I01
I00
tp2293
sba(iModules.cell
Cell
p2294
(dp2295
g4
I00
sg299
I01
sg5
(I01
I01
I00
tp2296
sba(iModules.cell
Cell
p2297
(dp2298
g4
I00
sg299
I01
sg5
(I01
I01
I00
tp2299
sba(iModules.cell
Cell
p2300
(dp2301
g4
I00
sg299
I01
sg5
(I01
I01
I00
tp2302
sba(iModules.cell
Cell
p2303
(dp2304
g4
I00
sg299
I01
sg5
(I01
I01
I00
tp2305
sba(iModules.cell
Cell
p2306
(dp2307
g4
I00
sg299
I01
sg5
(I01
I01
I00
tp2308
sba(iModules.cell
Cell
p2309
(dp2310
g4
I00
sg299
I01
sg5
(I01
I01
I00
tp2311
sba(iModules.cell
Cell
p2312
(dp2313
g4
I00
sg299
I01
sg5
(I01
I01
I00
tp2314
sba(iModules.cell
Cell
p2315
(dp2316
g4
I00
sg299
I01
sg5
(I01
I01
I00
tp2317
sba(iModules.cell
Cell
p2318
(dp2319
g4
I00
sg299
I01
sg5
(I01
I01
I00
tp2320
sba(iModules.cell
Cell
p2321
(dp2322
g4
I00
sg299
I01
sg5
(I01
I01
I00
tp2323
sba(iModules.cell
Cell
p2324
(dp2325
g4
I00
sg372
I01
sg5
(I01
I01
I00
tp2326
sba(iModules.cell
Cell
p2327
(dp2328
g4
I00
sg372
I01
sg5
(I01
I01
I00
tp2329
sba(iModules.cell
Cell
p2330
(dp2331
g4
I00
sg372
I01
sg5
(I01
I01
I00
tp2332
sba(iModules.cell
Cell
p2333
(dp2334
g4
I00
sg372
I01
sg5
(I01
I01
I00
tp2335
sba(iModules.cell
Cell
p2336
(dp2337
g4
I00
sg372
I01
sg5
(I01
I01
I00
tp2338
sba(iModules.cell
Cell
p2339
(dp2340
g4
I00
sg372
I01
sg5
(I01
I01
I00
tp2341
sba(iModules.cell
Cell
p2342
(dp2343
g4
I00
sg372
I01
sg5
(I01
I01
I00
tp2344
sba(iModules.cell
Cell
p2345
(dp2346
g4
I00
sg372
I01
sg5
(I01
I01
I00
tp2347
sba(iModules.cell
Cell
p2348
(dp2349
g4
I00
sg372
I01
sg5
(I01
I01
I00
tp2350
sba(iModules.cell
Cell
p2351
(dp2352
g4
I00
sg372
I01
sg5
(I01
I01
I00
tp2353
sba(iModules.cell
Cell
p2354
(dp2355
g4
I00
sg372
I01
sg5
(I01
I01
I00
tp2356
sba(iModules.cell
Cell
p2357
(dp2358
g4
I00
sg372
I01
sg5
(I01
I01
I00
tp2359
sba(iModules.cell
Cell
p2360
(dp2361
g4
I00
sg372
I01
sg5
(I01
I01
I00
tp2362
sba(iModules.cell
Cell
p2363
(dp2364
g4
I00
sg372
I01
sg5
(I01
I01
I00
tp2365
sba(iModules.cell
Cell
p2366
(dp2367
g4
I00
sg372
I01
sg5
(I01
I01
I00
tp2368
sba(iModules.cell
Cell
p2369
(dp2370
g4
I00
sg372
I01
sg5
(I01
I01
I00
tp2371
sba(iModules.cell
Cell
p2372
(dp2373
g4
I00
sg372
I01
sg5
(I01
I01
I00
tp2374
sba(iModules.cell
Cell
p2375
(dp2376
g4
I00
sg372
I01
sg5
(I01
I01
I00
tp2377
sba(iModules.cell
Cell
p2378
(dp2379
g4
I00
sg372
I01
sg5
(I01
I01
I00
tp2380
sba(iModules.cell
Cell
p2381
(dp2382
g4
I00
sg372
I01
sg5
(I01
I01
I00
tp2383
sba(iModules.cell
Cell
p2384
(dp2385
g4
I00
sg372
I01
sg5
(I01
I01
I00
tp2386
sba(iModules.cell
Cell
p2387
(dp2388
g4
I00
sg372
I01
sg5
(I01
I01
I00
tp2389
sba(iModules.cell
Cell
p2390
(dp2391
g4
I00
sg372
I01
sg5
(I00
I00
I00
tp2392
sba(iModules.cell
Cell
p2393
(dp2394
g4
I00
sg5
(I00
I00
I00
tp2395
sba(iModules.cell
Cell
p2396
(dp2397
g4
I00
sg5
(I00
I00
I00
tp2398
sba(iModules.cell
Cell
p2399
(dp2400
g4
I00
sg5
(I00
I00
I00
tp2401
sba(iModules.cell
Cell
p2402
(dp2403
g4
I00
sg5
(I00
I00
I00
tp2404
sba(iModules.cell
Cell
p2405
(dp2406
g4
I00
sg5
(I00
I00
I00
tp2407
sba(iModules.cell
Cell
p2408
(dp2409
g4
I00
sg5
(I00
I00
I00
tp2410
sba(iModules.cell
Cell
p2411
(dp2412
g4
I00
sg5
(I00
I00
I00
tp2413
sba(iModules.cell
Cell
p2414
(dp2415
g4
I00
sg5
(I00
I00
I00
tp2416
sba(iModules.cell
Cell
p2417
(dp2418
g4
I00
sg5
(I00
I00
I00
tp2419
sba(iModules.cell
Cell
p2420
(dp2421
g4
I00
sg5
(I00
I00
I00
tp2422
sba(iModules.cell
Cell
p2423
(dp2424
g4
I00
sg5
(I00
I00
I00
tp2425
sba(iModules.cell
Cell
p2426
(dp2427
g4
I00
sg5
(I00
I00
I00
tp2428
sba(iModules.cell
Cell
p2429
(dp2430
g4
I00
sg5
(I00
I00
I00
tp2431
sba(iModules.cell
Cell
p2432
(dp2433
g4
I00
sg5
(I00
I00
I00
tp2434
sba(iModules.cell
Cell
p2435
(dp2436
g4
I00
sg5
(I00
I00
I00
tp2437
sba(iModules.cell
Cell
p2438
(dp2439
g4
I00
sg5
(I00
I00
I00
tp2440
sba(iModules.cell
Cell
p2441
(dp2442
g4
I00
sg5
(I00
I00
I00
tp2443
sba(iModules.cell
Cell
p2444
(dp2445
g4
I00
sg5
(I00
I00
I00
tp2446
sba(iModules.cell
Cell
p2447
(dp2448
g5
(I00
I00
I00
tp2449
sbaa(lp2450
(iModules.cell
Cell
p2451
(dp2452
g4
I00
sg5
(I00
I00
I00
tp2453
sba(iModules.cell
Cell
p2454
(dp2455
g4
I00
sg255
I01
sg5
(I00
I00
I00
tp2456
sba(iModules.cell
Cell
p2457
(dp2458
g4
I00
sg255
I01
sg5
(I01
I01
I00
tp2459
sba(iModules.cell
Cell
p2460
(dp2461
g4
I00
sg255
I01
sg5
(I01
I01
I00
tp2462
sba(iModules.cell
Cell
p2463
(dp2464
g4
I00
sg255
I01
sg5
(I01
I01
I00
tp2465
sba(iModules.cell
Cell
p2466
(dp2467
g4
I00
sg255
I01
sg5
(I01
I01
I00
tp2468
sba(iModules.cell
Cell
p2469
(dp2470
g4
I00
sg255
I01
sg5
(I01
I01
I00
tp2471
sba(iModules.cell
Cell
p2472
(dp2473
g4
I00
sg255
I01
sg5
(I01
I01
I00
tp2474
sba(iModules.cell
Cell
p2475
(dp2476
g4
I00
sg255
I01
sg5
(I01
I01
I00
tp2477
sba(iModules.cell
Cell
p2478
(dp2479
g4
I00
sg255
I01
sg5
(I01
I01
I00
tp2480
sba(iModules.cell
Cell
p2481
(dp2482
g4
I00
sg255
I01
sg5
(I01
I01
I00
tp2483
sba(iModules.cell
Cell
p2484
(dp2485
g4
I00
sS'explored'
p2486
I01
sg5
(I01
I01
I00
tp2487
sba(iModules.cell
Cell
p2488
(dp2489
g4
I00
sg289
I01
sg5
(I01
I01
I00
tp2490
sba(iModules.cell
Cell
p2491
(dp2492
g4
I00
sg289
I01
sg5
(I01
I01
I00
tp2493
sba(iModules.cell
Cell
p2494
(dp2495
g4
I00
sg289
I01
sg5
(I00
I00
I00
tp2496
sba(iModules.cell
Cell
p2497
(dp2498
g2009
I01
sg4
I00
sS'explored'
p2499
I01
sg5
(I01
I01
I00
tp2500
sba(iModules.cell
Cell
p2501
(dp2502
g2009
I01
sg4
I00
sg2499
I01
sg5
(I01
I01
I00
tp2503
sba(iModules.cell
Cell
p2504
(dp2505
g2009
I01
sg4
I00
sg2499
I01
sg5
(I01
I01
I00
tp2506
sba(iModules.cell
Cell
p2507
(dp2508
g2009
I01
sg4
I00
sg2499
I01
sg5
(I01
I01
I00
tp2509
sba(iModules.cell
Cell
p2510
(dp2511
g2009
I01
sg4
I00
sg2499
I01
sg5
(I01
I01
I00
tp2512
sba(iModules.cell
Cell
p2513
(dp2514
g2009
I01
sg4
I00
sg2499
I01
sg5
(I01
I01
I00
tp2515
sba(iModules.cell
Cell
p2516
(dp2517
g2009
I01
sg4
I00
sg2499
I01
sg5
(I01
I01
I00
tp2518
sba(iModules.cell
Cell
p2519
(dp2520
g4
I00
sg2499
I01
sg5
(I00
I00
I00
tp2521
sba(iModules.cell
Cell
p2522
(dp2523
g4
I00
sg2499
I01
sg5
(I01
I01
I00
tp2524
sba(iModules.cell
Cell
p2525
(dp2526
g4
I00
sg2499
I01
sg5
(I01
I01
I00
tp2527
sba(iModules.cell
Cell
p2528
(dp2529
g4
I00
sg2499
I01
sg5
(I01
I01
I00
tp2530
sba(iModules.cell
Cell
p2531
(dp2532
g4
I00
sg2499
I01
sg5
(I01
I01
I00
tp2533
sba(iModules.cell
Cell
p2534
(dp2535
g4
I00
sg2499
I01
sg5
(I01
I01
I00
tp2536
sba(iModules.cell
Cell
p2537
(dp2538
g4
I00
sg2499
I01
sg5
(I01
I01
I00
tp2539
sba(iModules.cell
Cell
p2540
(dp2541
g4
I00
sg2499
I01
sg5
(I01
I01
I00
tp2542
sba(iModules.cell
Cell
p2543
(dp2544
g4
I00
sg2499
I01
sg5
(I01
I01
I00
tp2545
sba(iModules.cell
Cell
p2546
(dp2547
g4
I00
sg2499
I01
sg5
(I01
I01
I00
tp2548
sba(iModules.cell
Cell
p2549
(dp2550
g4
I00
sg2499
I01
sg5
(I01
I01
I00
tp2551
sba(iModules.cell
Cell
p2552
(dp2553
g4
I00
sS'explored'
p2554
I01
sg5
(I01
I01
I00
tp2555
sba(iModules.cell
Cell
p2556
(dp2557
g4
I00
sg2554
I01
sg5
(I01
I01
I00
tp2558
sba(iModules.cell
Cell
p2559
(dp2560
g4
I00
sg2554
I01
sg5
(I01
I01
I00
tp2561
sba(iModules.cell
Cell
p2562
(dp2563
g4
I00
sg2554
I01
sg5
(I01
I01
I00
tp2564
sba(iModules.cell
Cell
p2565
(dp2566
g4
I00
sg2554
I01
sg5
(I01
I01
I00
tp2567
sba(iModules.cell
Cell
p2568
(dp2569
g4
I00
sg372
I01
sg5
(I01
I01
I00
tp2570
sba(iModules.cell
Cell
p2571
(dp2572
g4
I00
sg372
I01
sg5
(I01
I01
I00
tp2573
sba(iModules.cell
Cell
p2574
(dp2575
g4
I00
sg372
I01
sg5
(I01
I01
I00
tp2576
sba(iModules.cell
Cell
p2577
(dp2578
g4
I00
sg372
I01
sg5
(I01
I01
I00
tp2579
sba(iModules.cell
Cell
p2580
(dp2581
g4
I00
sg372
I01
sg5
(I01
I01
I00
tp2582
sba(iModules.cell
Cell
p2583
(dp2584
g4
I00
sg372
I01
sg5
(I01
I01
I00
tp2585
sba(iModules.cell
Cell
p2586
(dp2587
g4
I00
sg372
I01
sg5
(I01
I01
I00
tp2588
sba(iModules.cell
Cell
p2589
(dp2590
g4
I00
sg372
I01
sg5
(I01
I01
I00
tp2591
sba(iModules.cell
Cell
p2592
(dp2593
g4
I00
sg372
I01
sg5
(I01
I01
I00
tp2594
sba(iModules.cell
Cell
p2595
(dp2596
g4
I00
sg372
I01
sg5
(I01
I01
I00
tp2597
sba(iModules.cell
Cell
p2598
(dp2599
g4
I00
sg372
I01
sg5
(I01
I01
I00
tp2600
sba(iModules.cell
Cell
p2601
(dp2602
g4
I00
sg372
I01
sg5
(I01
I01
I00
tp2603
sba(iModules.cell
Cell
p2604
(dp2605
g4
I00
sg372
I01
sg5
(I01
I01
I00
tp2606
sba(iModules.cell
Cell
p2607
(dp2608
g4
I00
sg372
I01
sg5
(I01
I01
I00
tp2609
sba(iModules.cell
Cell
p2610
(dp2611
g4
I00
sg372
I01
sg5
(I01
I01
I00
tp2612
sba(iModules.cell
Cell
p2613
(dp2614
g4
I00
sg372
I01
sg5
(I01
I01
I00
tp2615
sba(iModules.cell
Cell
p2616
(dp2617
g4
I00
sg372
I01
sg5
(I01
I01
I00
tp2618
sba(iModules.cell
Cell
p2619
(dp2620
g4
I00
sg372
I01
sg5
(I01
I01
I00
tp2621
sba(iModules.cell
Cell
p2622
(dp2623
g4
I00
sg372
I01
sg5
(I01
I01
I00
tp2624
sba(iModules.cell
Cell
p2625
(dp2626
g4
I00
sg372
I01
sg5
(I01
I01
I00
tp2627
sba(iModules.cell
Cell
p2628
(dp2629
g4
I00
sg372
I01
sg5
(I01
I01
I00
tp2630
sba(iModules.cell
Cell
p2631
(dp2632
g4
I00
sg372
I01
sg5
(I01
I01
I00
tp2633
sba(iModules.cell
Cell
p2634
(dp2635
g4
I00
sg372
I01
sg5
(I01
I01
I00
tp2636
sba(iModules.cell
Cell
p2637
(dp2638
g4
I00
sg372
I01
sg5
(I00
I00
I00
tp2639
sba(iModules.cell
Cell
p2640
(dp2641
g4
I00
sg5
(I00
I00
I00
tp2642
sba(iModules.cell
Cell
p2643
(dp2644
g4
I00
sg5
(I00
I00
I00
tp2645
sba(iModules.cell
Cell
p2646
(dp2647
g4
I00
sg5
(I00
I00
I00
tp2648
sba(iModules.cell
Cell
p2649
(dp2650
g4
I00
sg5
(I00
I00
I00
tp2651
sba(iModules.cell
Cell
p2652
(dp2653
g4
I00
sg5
(I00
I00
I00
tp2654
sba(iModules.cell
Cell
p2655
(dp2656
g4
I00
sg5
(I00
I00
I00
tp2657
sba(iModules.cell
Cell
p2658
(dp2659
g4
I00
sg5
(I00
I00
I00
tp2660
sba(iModules.cell
Cell
p2661
(dp2662
g4
I00
sg5
(I00
I00
I00
tp2663
sba(iModules.cell
Cell
p2664
(dp2665
g4
I00
sg5
(I00
I00
I00
tp2666
sba(iModules.cell
Cell
p2667
(dp2668
g4
I00
sg5
(I00
I00
I00
tp2669
sba(iModules.cell
Cell
p2670
(dp2671
g4
I00
sg5
(I00
I00
I00
tp2672
sba(iModules.cell
Cell
p2673
(dp2674
g4
I00
sg5
(I00
I00
I00
tp2675
sba(iModules.cell
Cell
p2676
(dp2677
g4
I00
sg5
(I00
I00
I00
tp2678
sba(iModules.cell
Cell
p2679
(dp2680
g4
I00
sg5
(I00
I00
I00
tp2681
sba(iModules.cell
Cell
p2682
(dp2683
g4
I00
sg5
(I00
I00
I00
tp2684
sba(iModules.cell
Cell
p2685
(dp2686
g4
I00
sg5
(I00
I00
I00
tp2687
sba(iModules.cell
Cell
p2688
(dp2689
g4
I00
sg5
(I00
I00
I00
tp2690
sba(iModules.cell
Cell
p2691
(dp2692
g4
I00
sg5
(I00
I00
I00
tp2693
sba(iModules.cell
Cell
p2694
(dp2695
g5
(I00
I00
I00
tp2696
sbaa(lp2697
(iModules.cell
Cell
p2698
(dp2699
g4
I00
sg5
(I00
I00
I00
tp2700
sba(iModules.cell
Cell
p2701
(dp2702
g4
I00
sg2486
I01
sg5
(I00
I00
I00
tp2703
sba(iModules.cell
Cell
p2704
(dp2705
g4
I00
sg2486
I01
sg5
(I01
I01
I00
tp2706
sba(iModules.cell
Cell
p2707
(dp2708
g4
I00
sg2486
I01
sg5
(I01
I01
I00
tp2709
sba(iModules.cell
Cell
p2710
(dp2711
g4
I00
sg2486
I01
sg5
(I01
I01
I00
tp2712
sba(iModules.cell
Cell
p2713
(dp2714
g4
I00
sg2486
I01
sg5
(I01
I01
I00
tp2715
sba(iModules.cell
Cell
p2716
(dp2717
g4
I00
sg2486
I01
sg5
(I01
I01
I00
tp2718
sba(iModules.cell
Cell
p2719
(dp2720
g4
I00
sg2486
I01
sg5
(I01
I01
I00
tp2721
sba(iModules.cell
Cell
p2722
(dp2723
g4
I00
sg2486
I01
sg5
(I01
I01
I00
tp2724
sba(iModules.cell
Cell
p2725
(dp2726
g4
I00
sg2486
I01
sg5
(I01
I01
I00
tp2727
sba(iModules.cell
Cell
p2728
(dp2729
g4
I00
sg2486
I01
sg5
(I01
I01
I00
tp2730
sba(iModules.cell
Cell
p2731
(dp2732
g4
I00
sg2486
I01
sg5
(I01
I01
I00
tp2733
sba(iModules.cell
Cell
p2734
(dp2735
g4
I00
sg289
I01
sg5
(I01
I01
I00
tp2736
sba(iModules.cell
Cell
p2737
(dp2738
g4
I00
sg289
I01
sg5
(I01
I01
I00
tp2739
sba(iModules.cell
Cell
p2740
(dp2741
g4
I00
sg289
I01
sg5
(I00
I00
I00
tp2742
sba(iModules.cell
Cell
p2743
(dp2744
g2009
I01
sg4
I00
sg2499
I01
sg5
(I01
I01
I00
tp2745
sba(iModules.cell
Cell
p2746
(dp2747
g2009
I01
sg4
I00
sg2499
I01
sg5
(I01
I01
I00
tp2748
sba(iModules.cell
Cell
p2749
(dp2750
g2009
I01
sg4
I00
sg2499
I01
sg5
(I01
I01
I00
tp2751
sba(iModules.cell
Cell
p2752
(dp2753
g2009
I01
sg4
I00
sg2499
I01
sg5
(I01
I01
I00
tp2754
sba(iModules.cell
Cell
p2755
(dp2756
g2009
I01
sg4
I00
sg2499
I01
sg5
(I01
I01
I00
tp2757
sba(iModules.cell
Cell
p2758
(dp2759
g2009
I01
sg4
I00
sg2499
I01
sg5
(I01
I01
I00
tp2760
sba(iModules.cell
Cell
p2761
(dp2762
g2009
I01
sg4
I00
sg2499
I01
sg5
(I01
I01
I00
tp2763
sba(iModules.cell
Door
p2764
(dp2765
S'type'
p2766
(I00
I00
I01
tp2767
sS'explored'
p2768
I01
sS'door'
p2769
I00
sS'visible'
p2770
I00
sba(iModules.cell
Cell
p2771
(dp2772
g4
I00
sg2499
I01
sg5
(I01
I01
I00
tp2773
sba(iModules.cell
Cell
p2774
(dp2775
g4
I00
sg2499
I01
sg5
(I01
I01
I00
tp2776
sba(iModules.cell
Cell
p2777
(dp2778
g4
I00
sg2499
I01
sg5
(I01
I01
I00
tp2779
sba(iModules.cell
Cell
p2780
(dp2781
g4
I00
sg2499
I01
sg5
(I01
I01
I00
tp2782
sba(iModules.cell
Cell
p2783
(dp2784
g4
I00
sg2499
I01
sg5
(I01
I01
I00
tp2785
sba(iModules.cell
Cell
p2786
(dp2787
g4
I00
sg2499
I01
sg5
(I01
I01
I00
tp2788
sba(iModules.cell
Cell
p2789
(dp2790
g4
I00
sg2499
I01
sg5
(I01
I01
I00
tp2791
sba(iModules.cell
Cell
p2792
(dp2793
g4
I00
sg2499
I01
sg5
(I01
I01
I00
tp2794
sba(iModules.cell
Cell
p2795
(dp2796
g4
I00
sg2499
I01
sg5
(I01
I01
I00
tp2797
sba(iModules.cell
Cell
p2798
(dp2799
g4
I00
sg2499
I01
sg5
(I01
I01
I00
tp2800
sba(iModules.cell
Cell
p2801
(dp2802
g4
I00
sg2499
I01
sg5
(I01
I01
I00
tp2803
sba(iModules.cell
Cell
p2804
(dp2805
g4
I00
sg2554
I01
sg5
(I01
I01
I00
tp2806
sba(iModules.cell
Cell
p2807
(dp2808
g4
I00
sg2554
I01
sg5
(I01
I01
I00
tp2809
sba(iModules.cell
Cell
p2810
(dp2811
g4
I00
sg2554
I01
sg5
(I01
I01
I00
tp2812
sba(iModules.cell
Cell
p2813
(dp2814
g4
I00
sg2554
I01
sg5
(I01
I01
I00
tp2815
sba(iModules.cell
Cell
p2816
(dp2817
g4
I00
sg2554
I01
sg5
(I01
I01
I00
tp2818
sba(iModules.cell
Cell
p2819
(dp2820
g4
I00
sg372
I01
sg5
(I01
I01
I00
tp2821
sba(iModules.cell
Cell
p2822
(dp2823
g4
I00
sg372
I01
sg5
(I01
I01
I00
tp2824
sba(iModules.cell
Cell
p2825
(dp2826
g4
I00
sg372
I01
sg5
(I01
I01
I00
tp2827
sba(iModules.cell
Cell
p2828
(dp2829
g4
I00
sg372
I01
sg5
(I01
I01
I00
tp2830
sba(iModules.cell
Cell
p2831
(dp2832
g4
I00
sg372
I01
sg5
(I01
I01
I00
tp2833
sba(iModules.cell
Cell
p2834
(dp2835
g4
I00
sg372
I01
sg5
(I01
I01
I00
tp2836
sba(iModules.cell
Cell
p2837
(dp2838
g4
I00
sg372
I01
sg5
(I01
I01
I00
tp2839
sba(iModules.cell
Cell
p2840
(dp2841
g4
I00
sg372
I01
sg5
(I01
I01
I00
tp2842
sba(iModules.cell
Cell
p2843
(dp2844
g4
I00
sg372
I01
sg5
(I01
I01
I00
tp2845
sba(iModules.cell
Cell
p2846
(dp2847
g4
I00
sg372
I01
sg5
(I01
I01
I00
tp2848
sba(iModules.cell
Cell
p2849
(dp2850
g4
I00
sg372
I01
sg5
(I01
I01
I00
tp2851
sba(iModules.cell
Cell
p2852
(dp2853
g4
I00
sg372
I01
sg5
(I01
I01
I00
tp2854
sba(iModules.cell
Cell
p2855
(dp2856
g4
I00
sg372
I01
sg5
(I01
I01
I00
tp2857
sba(iModules.cell
Cell
p2858
(dp2859
g4
I00
sg372
I01
sg5
(I01
I01
I00
tp2860
sba(iModules.cell
Cell
p2861
(dp2862
g4
I00
sg372
I01
sg5
(I01
I01
I00
tp2863
sba(iModules.cell
Cell
p2864
(dp2865
g4
I00
sg372
I01
sg5
(I01
I01
I00
tp2866
sba(iModules.cell
Cell
p2867
(dp2868
g4
I00
sg372
I01
sg5
(I01
I01
I00
tp2869
sba(iModules.cell
Cell
p2870
(dp2871
g4
I00
sg372
I01
sg5
(I01
I01
I00
tp2872
sba(iModules.cell
Cell
p2873
(dp2874
g4
I00
sg372
I01
sg5
(I01
I01
I00
tp2875
sba(iModules.cell
Cell
p2876
(dp2877
g4
I00
sg372
I01
sg5
(I01
I01
I00
tp2878
sba(iModules.cell
Cell
p2879
(dp2880
g4
I00
sg372
I01
sg5
(I01
I01
I00
tp2881
sba(iModules.cell
Cell
p2882
(dp2883
g4
I00
sg372
I01
sg5
(I01
I01
I00
tp2884
sba(iModules.cell
Cell
p2885
(dp2886
g4
I00
sg372
I01
sg5
(I00
I00
I00
tp2887
sba(iModules.cell
Cell
p2888
(dp2889
g4
I00
sg5
(I00
I00
I00
tp2890
sba(iModules.cell
Cell
p2891
(dp2892
g4
I00
sg5
(I00
I00
I00
tp2893
sba(iModules.cell
Cell
p2894
(dp2895
g4
I00
sg5
(I00
I00
I00
tp2896
sba(iModules.cell
Cell
p2897
(dp2898
g4
I00
sg5
(I00
I00
I00
tp2899
sba(iModules.cell
Cell
p2900
(dp2901
g4
I00
sg5
(I00
I00
I00
tp2902
sba(iModules.cell
Cell
p2903
(dp2904
g4
I00
sg5
(I00
I00
I00
tp2905
sba(iModules.cell
Cell
p2906
(dp2907
g4
I00
sg5
(I00
I00
I00
tp2908
sba(iModules.cell
Cell
p2909
(dp2910
g4
I00
sg5
(I00
I00
I00
tp2911
sba(iModules.cell
Cell
p2912
(dp2913
g4
I00
sg5
(I00
I00
I00
tp2914
sba(iModules.cell
Cell
p2915
(dp2916
g4
I00
sg5
(I00
I00
I00
tp2917
sba(iModules.cell
Cell
p2918
(dp2919
g4
I00
sg5
(I00
I00
I00
tp2920
sba(iModules.cell
Cell
p2921
(dp2922
g4
I00
sg5
(I00
I00
I00
tp2923
sba(iModules.cell
Cell
p2924
(dp2925
g4
I00
sg5
(I00
I00
I00
tp2926
sba(iModules.cell
Cell
p2927
(dp2928
g4
I00
sg5
(I00
I00
I00
tp2929
sba(iModules.cell
Cell
p2930
(dp2931
g4
I00
sg5
(I00
I00
I00
tp2932
sba(iModules.cell
Cell
p2933
(dp2934
g4
I00
sg5
(I00
I00
I00
tp2935
sba(iModules.cell
Cell
p2936
(dp2937
g4
I00
sg5
(I00
I00
I00
tp2938
sba(iModules.cell
Cell
p2939
(dp2940
g4
I00
sg5
(I00
I00
I00
tp2941
sba(iModules.cell
Cell
p2942
(dp2943
g5
(I00
I00
I00
tp2944
sbaa(lp2945
(iModules.cell
Cell
p2946
(dp2947
g4
I00
sg5
(I00
I00
I00
tp2948
sba(iModules.cell
Cell
p2949
(dp2950
g4
I00
sg299
I01
sg5
(I00
I00
I00
tp2951
sba(iModules.cell
Cell
p2952
(dp2953
g4
I00
sg299
I01
sg5
(I01
I01
I00
tp2954
sba(iModules.cell
Cell
p2955
(dp2956
g4
I00
sg299
I01
sg5
(I01
I01
I00
tp2957
sba(iModules.cell
Cell
p2958
(dp2959
g4
I00
sg299
I01
sg5
(I01
I01
I00
tp2960
sba(iModules.cell
Cell
p2961
(dp2962
g4
I00
sg299
I01
sg5
(I01
I01
I00
tp2963
sba(iModules.cell
Cell
p2964
(dp2965
g4
I00
sg299
I01
sg5
(I01
I01
I00
tp2966
sba(iModules.cell
Cell
p2967
(dp2968
g4
I00
sg299
I01
sg5
(I01
I01
I00
tp2969
sba(iModules.cell
Cell
p2970
(dp2971
g4
I00
sg299
I01
sg5
(I01
I01
I00
tp2972
sba(iModules.cell
Cell
p2973
(dp2974
g4
I00
sg299
I01
sg5
(I01
I01
I00
tp2975
sba(iModules.cell
Cell
p2976
(dp2977
g4
I00
sg299
I01
sg5
(I01
I01
I00
tp2978
sba(iModules.cell
Cell
p2979
(dp2980
g4
I00
sS'explored'
p2981
I01
sg5
(I01
I01
I00
tp2982
sba(iModules.cell
Cell
p2983
(dp2984
g4
I00
sg2981
I01
sg5
(I01
I01
I00
tp2985
sba(iModules.cell
Cell
p2986
(dp2987
g4
I00
sg2981
I01
sg5
(I01
I01
I00
tp2988
sba(iModules.cell
Cell
p2989
(dp2990
g4
I00
sg2499
I01
sg5
(I00
I00
I00
tp2991
sba(iModules.cell
Cell
p2992
(dp2993
g2009
I01
sg4
I00
sg2499
I01
sg5
(I01
I01
I00
tp2994
sba(iModules.cell
Cell
p2995
(dp2996
g2009
I01
sg4
I00
sg2499
I01
sg5
(I01
I01
I00
tp2997
sba(iModules.cell
Cell
p2998
(dp2999
g2009
I01
sg4
I00
sg2499
I01
sg5
(I01
I01
I00
tp3000
sba(iModules.cell
Cell
p3001
(dp3002
g2009
I01
sg4
I00
sg2499
I01
sg5
(I01
I01
I00
tp3003
sba(iModules.cell
Cell
p3004
(dp3005
g2009
I01
sg4
I00
sg2499
I01
sg5
(I01
I01
I00
tp3006
sba(iModules.cell
Cell
p3007
(dp3008
g2009
I01
sg4
I00
sg2499
I01
sg5
(I01
I01
I00
tp3009
sba(iModules.cell
Cell
p3010
(dp3011
g2009
I01
sg4
I00
sg2499
I01
sg5
(I01
I01
I00
tp3012
sba(iModules.cell
Cell
p3013
(dp3014
g4
I00
sg2499
I01
sg5
(I00
I00
I00
tp3015
sba(iModules.cell
Cell
p3016
(dp3017
g4
I00
sg2499
I01
sg5
(I01
I01
I00
tp3018
sba(iModules.cell
Cell
p3019
(dp3020
g4
I00
sg2499
I01
sg5
(I01
I01
I00
tp3021
sba(iModules.cell
Cell
p3022
(dp3023
g4
I00
sg2499
I01
sg5
(I01
I01
I00
tp3024
sba(iModules.cell
Cell
p3025
(dp3026
g4
I00
sg2499
I01
sg5
(I01
I01
I00
tp3027
sba(iModules.cell
Cell
p3028
(dp3029
g4
I00
sg2499
I01
sg5
(I01
I01
I00
tp3030
sba(iModules.cell
Cell
p3031
(dp3032
g4
I00
sg2499
I01
sg5
(I01
I01
I00
tp3033
sba(iModules.cell
Cell
p3034
(dp3035
g4
I00
sg2499
I01
sg5
(I01
I01
I00
tp3036
sba(iModules.cell
Cell
p3037
(dp3038
g4
I00
sg2499
I01
sg5
(I01
I01
I00
tp3039
sba(iModules.cell
Cell
p3040
(dp3041
g4
I00
sg2499
I01
sg5
(I01
I01
I00
tp3042
sba(iModules.cell
Cell
p3043
(dp3044
g4
I00
sg2499
I01
sg5
(I01
I01
I00
tp3045
sba(iModules.cell
Cell
p3046
(dp3047
g4
I00
sg2499
I01
sg5
(I01
I01
I00
tp3048
sba(iModules.cell
Cell
p3049
(dp3050
g4
I00
sg2499
I01
sg5
(I01
I01
I00
tp3051
sba(iModules.cell
Cell
p3052
(dp3053
g4
I00
sg2554
I01
sg5
(I01
I01
I00
tp3054
sba(iModules.cell
Cell
p3055
(dp3056
g4
I00
sg2554
I01
sg5
(I01
I01
I00
tp3057
sba(iModules.cell
Cell
p3058
(dp3059
g4
I00
sg2554
I01
sg5
(I01
I01
I00
tp3060
sba(iModules.cell
Cell
p3061
(dp3062
g4
I00
sg2554
I01
sg5
(I01
I01
I00
tp3063
sba(iModules.cell
Cell
p3064
(dp3065
g4
I00
sg2554
I01
sg5
(I01
I01
I00
tp3066
sba(iModules.cell
Cell
p3067
(dp3068
g4
I00
sg372
I01
sg5
(I01
I01
I00
tp3069
sba(iModules.cell
Cell
p3070
(dp3071
g4
I00
sg372
I01
sg5
(I01
I01
I00
tp3072
sba(iModules.cell
Cell
p3073
(dp3074
g4
I00
sg372
I01
sg5
(I01
I01
I00
tp3075
sba(iModules.cell
Cell
p3076
(dp3077
g4
I00
sg372
I01
sg5
(I01
I01
I00
tp3078
sba(iModules.cell
Cell
p3079
(dp3080
g4
I00
sg372
I01
sg5
(I01
I01
I00
tp3081
sba(iModules.cell
Cell
p3082
(dp3083
g4
I00
sg372
I01
sg5
(I01
I01
I00
tp3084
sba(iModules.cell
Cell
p3085
(dp3086
g4
I00
sg372
I01
sg5
(I01
I01
I00
tp3087
sba(iModules.cell
Cell
p3088
(dp3089
g4
I00
sg372
I01
sg5
(I01
I01
I00
tp3090
sba(iModules.cell
Cell
p3091
(dp3092
g4
I00
sg372
I01
sg5
(I01
I01
I00
tp3093
sba(iModules.cell
Cell
p3094
(dp3095
g4
I00
sg372
I01
sg5
(I01
I01
I00
tp3096
sba(iModules.cell
Cell
p3097
(dp3098
g4
I00
sg372
I01
sg5
(I01
I01
I00
tp3099
sba(iModules.cell
Cell
p3100
(dp3101
g4
I00
sg372
I01
sg5
(I01
I01
I00
tp3102
sba(iModules.cell
Cell
p3103
(dp3104
g4
I00
sg372
I01
sg5
(I01
I01
I00
tp3105
sba(iModules.cell
Cell
p3106
(dp3107
g4
I00
sg372
I01
sg5
(I01
I01
I00
tp3108
sba(iModules.cell
Cell
p3109
(dp3110
g4
I00
sg372
I01
sg5
(I01
I01
I00
tp3111
sba(iModules.cell
Cell
p3112
(dp3113
g4
I00
sg372
I01
sg5
(I01
I01
I00
tp3114
sba(iModules.cell
Cell
p3115
(dp3116
g4
I00
sg372
I01
sg5
(I01
I01
I00
tp3117
sba(iModules.cell
Cell
p3118
(dp3119
g4
I00
sg372
I01
sg5
(I01
I01
I00
tp3120
sba(iModules.cell
Cell
p3121
(dp3122
g4
I00
sg372
I01
sg5
(I01
I01
I00
tp3123
sba(iModules.cell
Cell
p3124
(dp3125
g4
I00
sg372
I01
sg5
(I01
I01
I00
tp3126
sba(iModules.cell
Cell
p3127
(dp3128
g4
I00
sg372
I01
sg5
(I01
I01
I00
tp3129
sba(iModules.cell
Cell
p3130
(dp3131
g4
I00
sg372
I01
sg5
(I00
I00
I00
tp3132
sba(iModules.cell
Cell
p3133
(dp3134
g4
I00
sg5
(I00
I00
I00
tp3135
sba(iModules.cell
Cell
p3136
(dp3137
g4
I00
sg5
(I00
I00
I00
tp3138
sba(iModules.cell
Cell
p3139
(dp3140
g4
I00
sg5
(I00
I00
I00
tp3141
sba(iModules.cell
Cell
p3142
(dp3143
g4
I00
sg5
(I00
I00
I00
tp3144
sba(iModules.cell
Cell
p3145
(dp3146
g4
I00
sg5
(I00
I00
I00
tp3147
sba(iModules.cell
Cell
p3148
(dp3149
g4
I00
sg5
(I00
I00
I00
tp3150
sba(iModules.cell
Cell
p3151
(dp3152
g4
I00
sg5
(I00
I00
I00
tp3153
sba(iModules.cell
Cell
p3154
(dp3155
g4
I00
sg5
(I00
I00
I00
tp3156
sba(iModules.cell
Cell
p3157
(dp3158
g4
I00
sg5
(I00
I00
I00
tp3159
sba(iModules.cell
Cell
p3160
(dp3161
g4
I00
sg5
(I00
I00
I00
tp3162
sba(iModules.cell
Cell
p3163
(dp3164
g4
I00
sg5
(I00
I00
I00
tp3165
sba(iModules.cell
Cell
p3166
(dp3167
g4
I00
sg5
(I00
I00
I00
tp3168
sba(iModules.cell
Cell
p3169
(dp3170
g4
I00
sg5
(I00
I00
I00
tp3171
sba(iModules.cell
Cell
p3172
(dp3173
g4
I00
sg5
(I00
I00
I00
tp3174
sba(iModules.cell
Cell
p3175
(dp3176
g4
I00
sg5
(I00
I00
I00
tp3177
sba(iModules.cell
Cell
p3178
(dp3179
g4
I00
sg5
(I00
I00
I00
tp3180
sba(iModules.cell
Cell
p3181
(dp3182
g4
I00
sg5
(I00
I00
I00
tp3183
sba(iModules.cell
Cell
p3184
(dp3185
g4
I00
sg5
(I00
I00
I00
tp3186
sba(iModules.cell
Cell
p3187
(dp3188
g5
(I00
I00
I00
tp3189
sbaa(lp3190
(iModules.cell
Cell
p3191
(dp3192
g4
I00
sg5
(I00
I00
I00
tp3193
sba(iModules.cell
Cell
p3194
(dp3195
g4
I00
sg299
I01
sg5
(I00
I00
I00
tp3196
sba(iModules.cell
Cell
p3197
(dp3198
g4
I00
sg299
I01
sg5
(I01
I01
I00
tp3199
sba(iModules.cell
Cell
p3200
(dp3201
g4
I00
sg299
I01
sg5
(I01
I01
I00
tp3202
sba(iModules.cell
Cell
p3203
(dp3204
g4
I00
sg299
I01
sg5
(I01
I01
I00
tp3205
sba(iModules.cell
Cell
p3206
(dp3207
g4
I00
sg299
I01
sg5
(I01
I01
I00
tp3208
sba(iModules.cell
Cell
p3209
(dp3210
g4
I00
sg299
I01
sg5
(I01
I01
I00
tp3211
sba(iModules.cell
Cell
p3212
(dp3213
g4
I00
sg299
I01
sg5
(I01
I01
I00
tp3214
sba(iModules.cell
Cell
p3215
(dp3216
g4
I00
sg299
I01
sg5
(I01
I01
I00
tp3217
sba(iModules.cell
Cell
p3218
(dp3219
g4
I00
sg299
I01
sg5
(I01
I01
I00
tp3220
sba(iModules.cell
Cell
p3221
(dp3222
g4
I00
sg2981
I01
sg5
(I01
I01
I00
tp3223
sba(iModules.cell
Cell
p3224
(dp3225
g4
I00
sg2981
I01
sg5
(I01
I01
I00
tp3226
sba(iModules.cell
Cell
p3227
(dp3228
g4
I00
sg2981
I01
sg5
(I01
I01
I00
tp3229
sba(iModules.cell
Cell
p3230
(dp3231
g4
I00
sg2981
I01
sg5
(I01
I01
I00
tp3232
sba(iModules.cell
Cell
p3233
(dp3234
g4
I00
sg2981
I01
sg5
(I00
I00
I00
tp3235
sba(iModules.cell
Cell
p3236
(dp3237
g2009
I01
sg4
I00
sg2499
I01
sg5
(I01
I01
I00
tp3238
sba(iModules.cell
Cell
p3239
(dp3240
g2009
I01
sg4
I00
sg2499
I01
sg5
(I01
I01
I00
tp3241
sba(iModules.cell
Cell
p3242
(dp3243
g2009
I01
sg4
I00
sg2499
I01
sg5
(I01
I01
I00
tp3244
sba(iModules.cell
Cell
p3245
(dp3246
g2009
I01
sg4
I00
sg2499
I01
sg5
(I01
I01
I00
tp3247
sba(iModules.cell
Cell
p3248
(dp3249
g2009
I01
sg4
I00
sg2499
I01
sg5
(I01
I01
I00
tp3250
sba(iModules.cell
Cell
p3251
(dp3252
g2009
I01
sg4
I00
sg2499
I01
sg5
(I01
I01
I00
tp3253
sba(iModules.cell
Cell
p3254
(dp3255
g2009
I01
sg4
I00
sg2499
I01
sg5
(I01
I01
I00
tp3256
sba(iModules.cell
Cell
p3257
(dp3258
g4
I00
sg2499
I01
sg5
(I00
I00
I00
tp3259
sba(iModules.cell
Cell
p3260
(dp3261
g4
I00
sg2499
I01
sg5
(I01
I01
I00
tp3262
sba(iModules.cell
Cell
p3263
(dp3264
g4
I00
sg2499
I01
sg5
(I01
I01
I00
tp3265
sba(iModules.cell
Cell
p3266
(dp3267
g4
I00
sg2499
I01
sg5
(I01
I01
I00
tp3268
sba(iModules.cell
Cell
p3269
(dp3270
g4
I00
sg2499
I01
sg5
(I01
I01
I00
tp3271
sba(iModules.cell
Cell
p3272
(dp3273
g4
I00
sg2499
I01
sg5
(I01
I01
I00
tp3274
sba(iModules.cell
Cell
p3275
(dp3276
g4
I00
sg2499
I01
sg5
(I01
I01
I00
tp3277
sba(iModules.cell
Cell
p3278
(dp3279
g4
I00
sg2499
I01
sg5
(I01
I01
I00
tp3280
sba(iModules.cell
Cell
p3281
(dp3282
g4
I00
sg2499
I01
sg5
(I01
I01
I00
tp3283
sba(iModules.cell
Cell
p3284
(dp3285
g4
I00
sg2499
I01
sg5
(I01
I01
I00
tp3286
sba(iModules.cell
Cell
p3287
(dp3288
g4
I00
sg2499
I01
sg5
(I01
I01
I00
tp3289
sba(iModules.cell
Cell
p3290
(dp3291
g4
I00
sg2499
I01
sg5
(I01
I01
I00
tp3292
sba(iModules.cell
Cell
p3293
(dp3294
g4
I00
sg2499
I01
sg5
(I01
I01
I00
tp3295
sba(iModules.cell
Cell
p3296
(dp3297
g4
I00
sg2499
I01
sg5
(I01
I01
I00
tp3298
sba(iModules.cell
Cell
p3299
(dp3300
g4
I00
sg2554
I01
sg5
(I01
I01
I00
tp3301
sba(iModules.cell
Cell
p3302
(dp3303
g4
I00
sg2554
I01
sg5
(I01
I01
I00
tp3304
sba(iModules.cell
Cell
p3305
(dp3306
g4
I00
sg2554
I01
sg5
(I01
I01
I00
tp3307
sba(iModules.cell
Cell
p3308
(dp3309
g4
I00
sg2554
I01
sg5
(I01
I01
I00
tp3310
sba(iModules.cell
Cell
p3311
(dp3312
g4
I00
sg2554
I01
sg5
(I01
I01
I00
tp3313
sba(iModules.cell
Cell
p3314
(dp3315
g4
I00
sg372
I01
sg5
(I01
I01
I00
tp3316
sba(iModules.cell
Cell
p3317
(dp3318
g4
I00
sg372
I01
sg5
(I01
I01
I00
tp3319
sba(iModules.cell
Cell
p3320
(dp3321
g4
I00
sg372
I01
sg5
(I01
I01
I00
tp3322
sba(iModules.cell
Cell
p3323
(dp3324
g4
I00
sg372
I01
sg5
(I01
I01
I00
tp3325
sba(iModules.cell
Cell
p3326
(dp3327
g4
I00
sg372
I01
sg5
(I01
I01
I00
tp3328
sba(iModules.cell
Cell
p3329
(dp3330
g4
I00
sg372
I01
sg5
(I01
I01
I00
tp3331
sba(iModules.cell
Cell
p3332
(dp3333
g4
I00
sg372
I01
sg5
(I01
I01
I00
tp3334
sba(iModules.cell
Cell
p3335
(dp3336
g4
I00
sg372
I01
sg5
(I01
I01
I00
tp3337
sba(iModules.cell
Cell
p3338
(dp3339
g4
I00
sg372
I01
sg5
(I01
I01
I00
tp3340
sba(iModules.cell
Cell
p3341
(dp3342
g4
I00
sg372
I01
sg5
(I01
I01
I00
tp3343
sba(iModules.cell
Cell
p3344
(dp3345
g4
I00
sg372
I01
sg5
(I01
I01
I00
tp3346
sba(iModules.cell
Cell
p3347
(dp3348
g4
I00
sg372
I01
sg5
(I01
I01
I00
tp3349
sba(iModules.cell
Cell
p3350
(dp3351
g4
I00
sg372
I01
sg5
(I01
I01
I00
tp3352
sba(iModules.cell
Cell
p3353
(dp3354
g4
I00
sg372
I01
sg5
(I01
I01
I00
tp3355
sba(iModules.cell
Cell
p3356
(dp3357
g4
I00
sg372
I01
sg5
(I01
I01
I00
tp3358
sba(iModules.cell
Cell
p3359
(dp3360
g4
I00
sg372
I01
sg5
(I01
I01
I00
tp3361
sba(iModules.cell
Cell
p3362
(dp3363
g4
I00
sg372
I01
sg5
(I01
I01
I00
tp3364
sba(iModules.cell
Cell
p3365
(dp3366
g4
I00
sg372
I01
sg5
(I01
I01
I00
tp3367
sba(iModules.cell
Cell
p3368
(dp3369
g4
I00
sg372
I01
sg5
(I01
I01
I00
tp3370
sba(iModules.cell
Cell
p3371
(dp3372
g4
I00
sg372
I01
sg5
(I01
I01
I00
tp3373
sba(iModules.cell
Cell
p3374
(dp3375
g4
I00
sg372
I01
sg5
(I00
I00
I00
tp3376
sba(iModules.cell
Cell
p3377
(dp3378
g4
I00
sg5
(I00
I00
I00
tp3379
sba(iModules.cell
Cell
p3380
(dp3381
g4
I00
sg5
(I00
I00
I00
tp3382
sba(iModules.cell
Cell
p3383
(dp3384
g4
I00
sg5
(I00
I00
I00
tp3385
sba(iModules.cell
Cell
p3386
(dp3387
g4
I00
sg5
(I00
I00
I00
tp3388
sba(iModules.cell
Cell
p3389
(dp3390
g4
I00
sg5
(I00
I00
I00
tp3391
sba(iModules.cell
Cell
p3392
(dp3393
g4
I00
sg5
(I00
I00
I00
tp3394
sba(iModules.cell
Cell
p3395
(dp3396
g4
I00
sg5
(I00
I00
I00
tp3397
sba(iModules.cell
Cell
p3398
(dp3399
g4
I00
sg5
(I00
I00
I00
tp3400
sba(iModules.cell
Cell
p3401
(dp3402
g4
I00
sg5
(I00
I00
I00
tp3403
sba(iModules.cell
Cell
p3404
(dp3405
g4
I00
sg5
(I00
I00
I00
tp3406
sba(iModules.cell
Cell
p3407
(dp3408
g4
I00
sg5
(I00
I00
I00
tp3409
sba(iModules.cell
Cell
p3410
(dp3411
g4
I00
sg5
(I00
I00
I00
tp3412
sba(iModules.cell
Cell
p3413
(dp3414
g4
I00
sg5
(I00
I00
I00
tp3415
sba(iModules.cell
Cell
p3416
(dp3417
g4
I00
sg5
(I00
I00
I00
tp3418
sba(iModules.cell
Cell
p3419
(dp3420
g4
I00
sg5
(I00
I00
I00
tp3421
sba(iModules.cell
Cell
p3422
(dp3423
g4
I00
sg5
(I00
I00
I00
tp3424
sba(iModules.cell
Cell
p3425
(dp3426
g4
I00
sg5
(I00
I00
I00
tp3427
sba(iModules.cell
Cell
p3428
(dp3429
g4
I00
sg5
(I00
I00
I00
tp3430
sba(iModules.cell
Cell
p3431
(dp3432
g5
(I00
I00
I00
tp3433
sbaa(lp3434
(iModules.cell
Cell
p3435
(dp3436
g4
I00
sg5
(I00
I00
I00
tp3437
sba(iModules.cell
Cell
p3438
(dp3439
g4
I00
sg299
I01
sg5
(I00
I00
I00
tp3440
sba(iModules.cell
Cell
p3441
(dp3442
g4
I00
sg299
I01
sg5
(I01
I01
I00
tp3443
sba(iModules.cell
Cell
p3444
(dp3445
g4
I00
sg299
I01
sg5
(I01
I01
I00
tp3446
sba(iModules.cell
Cell
p3447
(dp3448
g4
I00
sg299
I01
sg5
(I01
I01
I00
tp3449
sba(iModules.cell
Cell
p3450
(dp3451
g4
I00
sg299
I01
sg5
(I01
I01
I00
tp3452
sba(iModules.cell
Cell
p3453
(dp3454
g4
I00
sg299
I01
sg5
(I01
I01
I00
tp3455
sba(iModules.cell
Cell
p3456
(dp3457
g4
I00
sg299
I01
sg5
(I01
I01
I00
tp3458
sba(iModules.cell
Cell
p3459
(dp3460
g4
I00
sg299
I01
sg5
(I01
I01
I00
tp3461
sba(iModules.cell
Cell
p3462
(dp3463
g4
I00
sg2981
I01
sg5
(I01
I01
I00
tp3464
sba(iModules.cell
Cell
p3465
(dp3466
g4
I00
sg2981
I01
sg5
(I01
I01
I00
tp3467
sba(iModules.cell
Cell
p3468
(dp3469
g4
I00
sg2981
I01
sg5
(I01
I01
I00
tp3470
sba(iModules.cell
Cell
p3471
(dp3472
g4
I00
sg2981
I01
sg5
(I01
I01
I00
tp3473
sba(iModules.cell
Cell
p3474
(dp3475
g4
I00
sg2981
I01
sg5
(I01
I01
I00
tp3476
sba(iModules.cell
Cell
p3477
(dp3478
g4
I00
sg2981
I01
sg5
(I00
I00
I00
tp3479
sba(iModules.cell
Cell
p3480
(dp3481
g4
I00
sg2981
I01
sg5
(I00
I00
I00
tp3482
sba(iModules.cell
Cell
p3483
(dp3484
g4
I00
sg2499
I01
sg5
(I00
I00
I00
tp3485
sba(iModules.cell
Cell
p3486
(dp3487
g4
I00
sg2499
I01
sg5
(I00
I00
I00
tp3488
sba(iModules.cell
Cell
p3489
(dp3490
g4
I00
sg2499
I01
sg5
(I00
I00
I00
tp3491
sba(iModules.cell
Cell
p3492
(dp3493
g4
I00
sg2499
I01
sg5
(I00
I00
I00
tp3494
sba(iModules.cell
Cell
p3495
(dp3496
g4
I00
sg2499
I01
sg5
(I00
I00
I00
tp3497
sba(iModules.cell
Cell
p3498
(dp3499
g4
I00
sg2499
I01
sg5
(I00
I00
I00
tp3500
sba(iModules.cell
Cell
p3501
(dp3502
g4
I00
sg2499
I01
sg5
(I00
I00
I00
tp3503
sba(iModules.cell
Cell
p3504
(dp3505
g4
I00
sg2499
I01
sg5
(I01
I01
I00
tp3506
sba(iModules.cell
Cell
p3507
(dp3508
g4
I00
sg2499
I01
sg5
(I01
I01
I00
tp3509
sba(iModules.cell
Cell
p3510
(dp3511
g4
I00
sg2499
I01
sg5
(I01
I01
I00
tp3512
sba(iModules.cell
Cell
p3513
(dp3514
g4
I00
sg2499
I01
sg5
(I01
I01
I00
tp3515
sba(iModules.cell
Cell
p3516
(dp3517
g4
I00
sg2499
I01
sg5
(I01
I01
I00
tp3518
sba(iModules.cell
Cell
p3519
(dp3520
g4
I00
sg2499
I01
sg5
(I01
I01
I00
tp3521
sba(iModules.cell
Cell
p3522
(dp3523
g4
I00
sg2499
I01
sg5
(I01
I01
I00
tp3524
sba(iModules.cell
Cell
p3525
(dp3526
g4
I00
sg2499
I01
sg5
(I01
I01
I00
tp3527
sba(iModules.cell
Cell
p3528
(dp3529
g4
I00
sg2499
I01
sg5
(I01
I01
I00
tp3530
sba(iModules.cell
Cell
p3531
(dp3532
g4
I00
sg2499
I01
sg5
(I01
I01
I00
tp3533
sba(iModules.cell
Cell
p3534
(dp3535
g4
I00
sg2499
I01
sg5
(I01
I01
I00
tp3536
sba(iModules.cell
Cell
p3537
(dp3538
g4
I00
sg2499
I01
sg5
(I01
I01
I00
tp3539
sba(iModules.cell
Cell
p3540
(dp3541
g4
I00
sg2499
I01
sg5
(I01
I01
I00
tp3542
sba(iModules.cell
Cell
p3543
(dp3544
g4
I00
sg2554
I01
sg5
(I01
I01
I00
tp3545
sba(iModules.cell
Cell
p3546
(dp3547
g4
I00
sg2554
I01
sg5
(I01
I01
I00
tp3548
sba(iModules.cell
Cell
p3549
(dp3550
g4
I00
sg2554
I01
sg5
(I01
I01
I00
tp3551
sba(iModules.cell
Cell
p3552
(dp3553
g4
I00
sg2554
I01
sg5
(I01
I01
I00
tp3554
sba(iModules.cell
Cell
p3555
(dp3556
g4
I00
sg2554
I01
sg5
(I01
I01
I00
tp3557
sba(iModules.cell
Cell
p3558
(dp3559
g4
I00
sg372
I01
sg5
(I01
I01
I00
tp3560
sba(iModules.cell
Cell
p3561
(dp3562
g4
I00
sg372
I01
sg5
(I01
I01
I00
tp3563
sba(iModules.cell
Cell
p3564
(dp3565
g4
I00
sg372
I01
sg5
(I01
I01
I00
tp3566
sba(iModules.cell
Cell
p3567
(dp3568
g4
I00
sg372
I01
sg5
(I01
I01
I00
tp3569
sba(iModules.cell
Cell
p3570
(dp3571
g4
I00
sg372
I01
sg5
(I01
I01
I00
tp3572
sba(iModules.cell
Cell
p3573
(dp3574
g4
I00
sg372
I01
sg5
(I01
I01
I00
tp3575
sba(iModules.cell
Cell
p3576
(dp3577
g4
I00
sg372
I01
sg5
(I01
I01
I00
tp3578
sba(iModules.cell
Cell
p3579
(dp3580
g4
I00
sg372
I01
sg5
(I01
I01
I00
tp3581
sba(iModules.cell
Cell
p3582
(dp3583
g4
I00
sg372
I01
sg5
(I01
I01
I00
tp3584
sba(iModules.cell
Cell
p3585
(dp3586
g4
I00
sg372
I01
sg5
(I01
I01
I00
tp3587
sba(iModules.cell
Cell
p3588
(dp3589
g4
I00
sg372
I01
sg5
(I01
I01
I00
tp3590
sba(iModules.cell
Cell
p3591
(dp3592
g4
I00
sg372
I01
sg5
(I01
I01
I00
tp3593
sba(iModules.cell
Cell
p3594
(dp3595
g4
I00
sg372
I01
sg5
(I01
I01
I00
tp3596
sba(iModules.cell
Cell
p3597
(dp3598
g4
I00
sg372
I01
sg5
(I01
I01
I00
tp3599
sba(iModules.cell
Cell
p3600
(dp3601
g4
I00
sg372
I01
sg5
(I01
I01
I00
tp3602
sba(iModules.cell
Cell
p3603
(dp3604
g4
I00
sg372
I01
sg5
(I01
I01
I00
tp3605
sba(iModules.cell
Cell
p3606
(dp3607
g4
I00
sg372
I01
sg5
(I01
I01
I00
tp3608
sba(iModules.cell
Cell
p3609
(dp3610
g4
I00
sg372
I01
sg5
(I01
I01
I00
tp3611
sba(iModules.cell
Cell
p3612
(dp3613
g4
I00
sg372
I01
sg5
(I01
I01
I00
tp3614
sba(iModules.cell
Cell
p3615
(dp3616
g4
I00
sg372
I01
sg5
(I01
I01
I00
tp3617
sba(iModules.cell
Cell
p3618
(dp3619
g4
I00
sg372
I01
sg5
(I00
I00
I00
tp3620
sba(iModules.cell
Cell
p3621
(dp3622
g4
I00
sg5
(I00
I00
I00
tp3623
sba(iModules.cell
Cell
p3624
(dp3625
g4
I00
sg5
(I00
I00
I00
tp3626
sba(iModules.cell
Cell
p3627
(dp3628
g4
I00
sg5
(I00
I00
I00
tp3629
sba(iModules.cell
Cell
p3630
(dp3631
g4
I00
sg5
(I00
I00
I00
tp3632
sba(iModules.cell
Cell
p3633
(dp3634
g4
I00
sg5
(I00
I00
I00
tp3635
sba(iModules.cell
Cell
p3636
(dp3637
g4
I00
sg5
(I00
I00
I00
tp3638
sba(iModules.cell
Cell
p3639
(dp3640
g4
I00
sg5
(I00
I00
I00
tp3641
sba(iModules.cell
Cell
p3642
(dp3643
g4
I00
sg5
(I00
I00
I00
tp3644
sba(iModules.cell
Cell
p3645
(dp3646
g4
I00
sg5
(I00
I00
I00
tp3647
sba(iModules.cell
Cell
p3648
(dp3649
g4
I00
sg5
(I00
I00
I00
tp3650
sba(iModules.cell
Cell
p3651
(dp3652
g4
I00
sg5
(I00
I00
I00
tp3653
sba(iModules.cell
Cell
p3654
(dp3655
g4
I00
sg5
(I00
I00
I00
tp3656
sba(iModules.cell
Cell
p3657
(dp3658
g4
I00
sg5
(I00
I00
I00
tp3659
sba(iModules.cell
Cell
p3660
(dp3661
g4
I00
sg5
(I00
I00
I00
tp3662
sba(iModules.cell
Cell
p3663
(dp3664
g4
I00
sg5
(I00
I00
I00
tp3665
sba(iModules.cell
Cell
p3666
(dp3667
g4
I00
sg5
(I00
I00
I00
tp3668
sba(iModules.cell
Cell
p3669
(dp3670
g4
I00
sg5
(I00
I00
I00
tp3671
sba(iModules.cell
Cell
p3672
(dp3673
g4
I00
sg5
(I00
I00
I00
tp3674
sba(iModules.cell
Cell
p3675
(dp3676
g5
(I00
I00
I00
tp3677
sbaa(lp3678
(iModules.cell
Cell
p3679
(dp3680
g4
I00
sg5
(I00
I00
I00
tp3681
sba(iModules.cell
Cell
p3682
(dp3683
g4
I00
sg372
I01
sg5
(I00
I00
I00
tp3684
sba(iModules.cell
Cell
p3685
(dp3686
g4
I00
sg372
I01
sg5
(I01
I01
I00
tp3687
sba(iModules.cell
Cell
p3688
(dp3689
g4
I00
sg372
I01
sg5
(I01
I01
I00
tp3690
sba(iModules.cell
Cell
p3691
(dp3692
g4
I00
sg372
I01
sg5
(I01
I01
I00
tp3693
sba(iModules.cell
Cell
p3694
(dp3695
g4
I00
sg372
I01
sg5
(I01
I01
I00
tp3696
sba(iModules.cell
Cell
p3697
(dp3698
g4
I00
sg372
I01
sg5
(I01
I01
I00
tp3699
sba(iModules.cell
Cell
p3700
(dp3701
g4
I00
sg372
I01
sg5
(I01
I01
I00
tp3702
sba(iModules.cell
Cell
p3703
(dp3704
g4
I00
sg2768
I01
sg5
(I01
I01
I00
tp3705
sba(iModules.cell
Cell
p3706
(dp3707
g4
I00
sg2981
I01
sg5
(I01
I01
I00
tp3708
sba(iModules.cell
Cell
p3709
(dp3710
g4
I00
sg2981
I01
sg5
(I01
I01
I00
tp3711
sba(iModules.cell
Cell
p3712
(dp3713
g4
I00
sg2981
I01
sg5
(I01
I01
I00
tp3714
sba(iModules.cell
Cell
p3715
(dp3716
g4
I00
sg2981
I01
sg5
(I01
I01
I00
tp3717
sba(iModules.cell
Cell
p3718
(dp3719
g4
I00
sg2981
I01
sg5
(I01
I01
I00
tp3720
sba(iModules.cell
Cell
p3721
(dp3722
g4
I00
sg2981
I01
sg5
(I01
I01
I00
tp3723
sba(iModules.cell
Cell
p3724
(dp3725
g4
I00
sg2981
I01
sg5
(I01
I01
I00
tp3726
sba(iModules.cell
Cell
p3727
(dp3728
g4
I00
sg2981
I01
sg5
(I01
I01
I00
tp3729
sba(iModules.cell
Cell
p3730
(dp3731
g4
I00
sg2499
I01
sg5
(I01
I01
I00
tp3732
sba(iModules.cell
Cell
p3733
(dp3734
g4
I00
sg2499
I01
sg5
(I01
I01
I00
tp3735
sba(iModules.cell
Cell
p3736
(dp3737
g4
I00
sg2499
I01
sg5
(I01
I01
I00
tp3738
sba(iModules.cell
Cell
p3739
(dp3740
g4
I00
sg2499
I01
sg5
(I01
I01
I00
tp3741
sba(iModules.cell
Cell
p3742
(dp3743
g4
I00
sg2499
I01
sg5
(I01
I01
I00
tp3744
sba(iModules.cell
Cell
p3745
(dp3746
g4
I00
sg2499
I01
sg5
(I01
I01
I00
tp3747
sba(iModules.cell
Cell
p3748
(dp3749
g4
I00
sg2499
I01
sg5
(I01
I01
I00
tp3750
sba(iModules.cell
Cell
p3751
(dp3752
g4
I00
sg2499
I01
sg5
(I01
I01
I00
tp3753
sba(iModules.cell
Cell
p3754
(dp3755
g4
I00
sg2499
I01
sg5
(I01
I01
I00
tp3756
sba(iModules.cell
Cell
p3757
(dp3758
g4
I00
sg2499
I01
sg5
(I01
I01
I00
tp3759
sba(iModules.cell
Cell
p3760
(dp3761
g4
I00
sg2499
I01
sg5
(I01
I01
I00
tp3762
sba(iModules.cell
Cell
p3763
(dp3764
g4
I00
sg2499
I01
sg5
(I01
I01
I00
tp3765
sba(iModules.cell
Cell
p3766
(dp3767
g4
I00
sg2499
I01
sg5
(I01
I01
I00
tp3768
sba(iModules.cell
Cell
p3769
(dp3770
g4
I00
sg2499
I01
sg5
(I01
I01
I00
tp3771
sba(iModules.cell
Cell
p3772
(dp3773
g4
I00
sg2499
I01
sg5
(I01
I01
I00
tp3774
sba(iModules.cell
Cell
p3775
(dp3776
g4
I00
sg2499
I01
sg5
(I01
I01
I00
tp3777
sba(iModules.cell
Cell
p3778
(dp3779
g4
I00
sg2499
I01
sg5
(I01
I01
I00
tp3780
sba(iModules.cell
Cell
p3781
(dp3782
g4
I00
sg2499
I01
sg5
(I01
I01
I00
tp3783
sba(iModules.cell
Cell
p3784
(dp3785
g4
I00
sg2499
I01
sg5
(I01
I01
I00
tp3786
sba(iModules.cell
Cell
p3787
(dp3788
g4
I00
sg2554
I01
sg5
(I01
I01
I00
tp3789
sba(iModules.cell
Cell
p3790
(dp3791
g4
I00
sg2554
I01
sg5
(I01
I01
I00
tp3792
sba(iModules.cell
Cell
p3793
(dp3794
g4
I00
sg2554
I01
sg5
(I01
I01
I00
tp3795
sba(iModules.cell
Cell
p3796
(dp3797
g4
I00
sg2554
I01
sg5
(I01
I01
I00
tp3798
sba(iModules.cell
Cell
p3799
(dp3800
g4
I00
sg2554
I01
sg5
(I01
I01
I00
tp3801
sba(iModules.cell
Cell
p3802
(dp3803
g4
I00
sg372
I01
sg5
(I01
I01
I00
tp3804
sba(iModules.cell
Cell
p3805
(dp3806
g4
I00
sg372
I01
sg5
(I01
I01
I00
tp3807
sba(iModules.cell
Cell
p3808
(dp3809
g4
I00
sg372
I01
sg5
(I01
I01
I00
tp3810
sba(iModules.cell
Cell
p3811
(dp3812
g4
I00
sg372
I01
sg5
(I01
I01
I00
tp3813
sba(iModules.cell
Cell
p3814
(dp3815
g4
I00
sg372
I01
sg5
(I01
I01
I00
tp3816
sba(iModules.cell
Cell
p3817
(dp3818
g4
I00
sg372
I01
sg5
(I01
I01
I00
tp3819
sba(iModules.cell
Cell
p3820
(dp3821
g4
I00
sg372
I01
sg5
(I01
I01
I00
tp3822
sba(iModules.cell
Cell
p3823
(dp3824
g4
I00
sg372
I01
sg5
(I01
I01
I00
tp3825
sba(iModules.cell
Cell
p3826
(dp3827
g4
I00
sg372
I01
sg5
(I01
I01
I00
tp3828
sba(iModules.cell
Cell
p3829
(dp3830
g4
I00
sg372
I01
sg5
(I01
I01
I00
tp3831
sba(iModules.cell
Cell
p3832
(dp3833
g4
I00
sg372
I01
sg5
(I01
I01
I00
tp3834
sba(iModules.cell
Cell
p3835
(dp3836
g4
I00
sg372
I01
sg5
(I01
I01
I00
tp3837
sba(iModules.cell
Cell
p3838
(dp3839
g4
I00
sg372
I01
sg5
(I01
I01
I00
tp3840
sba(iModules.cell
Cell
p3841
(dp3842
g4
I00
sg372
I01
sg5
(I01
I01
I00
tp3843
sba(iModules.cell
Cell
p3844
(dp3845
g4
I00
sg372
I01
sg5
(I01
I01
I00
tp3846
sba(iModules.cell
Cell
p3847
(dp3848
g4
I00
sg372
I01
sg5
(I01
I01
I00
tp3849
sba(iModules.cell
Cell
p3850
(dp3851
g4
I00
sg372
I01
sg5
(I01
I01
I00
tp3852
sba(iModules.cell
Cell
p3853
(dp3854
g4
I00
sg372
I01
sg5
(I01
I01
I00
tp3855
sba(iModules.cell
Cell
p3856
(dp3857
g4
I00
sg372
I01
sg5
(I01
I01
I00
tp3858
sba(iModules.cell
Cell
p3859
(dp3860
g4
I00
sg372
I01
sg5
(I01
I01
I00
tp3861
sba(iModules.cell
Cell
p3862
(dp3863
g4
I00
sg372
I01
sg5
(I00
I00
I00
tp3864
sba(iModules.cell
Cell
p3865
(dp3866
g4
I00
sg5
(I00
I00
I00
tp3867
sba(iModules.cell
Cell
p3868
(dp3869
g4
I00
sg5
(I00
I00
I00
tp3870
sba(iModules.cell
Cell
p3871
(dp3872
g4
I00
sg5
(I00
I00
I00
tp3873
sba(iModules.cell
Cell
p3874
(dp3875
g4
I00
sg5
(I00
I00
I00
tp3876
sba(iModules.cell
Cell
p3877
(dp3878
g4
I00
sg5
(I00
I00
I00
tp3879
sba(iModules.cell
Cell
p3880
(dp3881
g4
I00
sg5
(I00
I00
I00
tp3882
sba(iModules.cell
Cell
p3883
(dp3884
g4
I00
sg5
(I00
I00
I00
tp3885
sba(iModules.cell
Cell
p3886
(dp3887
g4
I00
sg5
(I00
I00
I00
tp3888
sba(iModules.cell
Cell
p3889
(dp3890
g4
I00
sg5
(I00
I00
I00
tp3891
sba(iModules.cell
Cell
p3892
(dp3893
g4
I00
sg5
(I00
I00
I00
tp3894
sba(iModules.cell
Cell
p3895
(dp3896
g4
I00
sg5
(I00
I00
I00
tp3897
sba(iModules.cell
Cell
p3898
(dp3899
g4
I00
sg5
(I00
I00
I00
tp3900
sba(iModules.cell
Cell
p3901
(dp3902
g4
I00
sg5
(I00
I00
I00
tp3903
sba(iModules.cell
Cell
p3904
(dp3905
g4
I00
sg5
(I00
I00
I00
tp3906
sba(iModules.cell
Cell
p3907
(dp3908
g4
I00
sg5
(I00
I00
I00
tp3909
sba(iModules.cell
Cell
p3910
(dp3911
g4
I00
sg5
(I00
I00
I00
tp3912
sba(iModules.cell
Cell
p3913
(dp3914
g4
I00
sg5
(I00
I00
I00
tp3915
sba(iModules.cell
Cell
p3916
(dp3917
g4
I00
sg5
(I00
I00
I00
tp3918
sba(iModules.cell
Cell
p3919
(dp3920
g5
(I00
I00
I00
tp3921
sbaa(lp3922
(iModules.cell
Cell
p3923
(dp3924
g4
I00
sg5
(I00
I00
I00
tp3925
sba(iModules.cell
Cell
p3926
(dp3927
g4
I00
sg372
I01
sg5
(I00
I00
I00
tp3928
sba(iModules.cell
Cell
p3929
(dp3930
g4
I00
sg372
I01
sg5
(I01
I01
I00
tp3931
sba(iModules.cell
Cell
p3932
(dp3933
g4
I00
sg372
I01
sg5
(I01
I01
I00
tp3934
sba(iModules.cell
Cell
p3935
(dp3936
g4
I00
sg372
I01
sg5
(I01
I01
I00
tp3937
sba(iModules.cell
Cell
p3938
(dp3939
g4
I00
sg372
I01
sg5
(I01
I01
I00
tp3940
sba(iModules.cell
Cell
p3941
(dp3942
g4
I00
sg372
I01
sg5
(I01
I01
I00
tp3943
sba(iModules.cell
Cell
p3944
(dp3945
g4
I00
sg372
I01
sg5
(I01
I01
I00
tp3946
sba(iModules.cell
Cell
p3947
(dp3948
g4
I00
sg2768
I01
sg5
(I01
I01
I00
tp3949
sba(iModules.cell
Cell
p3950
(dp3951
g4
I00
sg2768
I01
sg5
(I01
I01
I00
tp3952
sba(iModules.cell
Cell
p3953
(dp3954
g4
I00
sg2981
I01
sg5
(I01
I01
I00
tp3955
sba(iModules.cell
Cell
p3956
(dp3957
g4
I00
sg2981
I01
sg5
(I01
I01
I00
tp3958
sba(iModules.cell
Cell
p3959
(dp3960
g4
I00
sg2981
I01
sg5
(I01
I01
I00
tp3961
sba(iModules.cell
Cell
p3962
(dp3963
g4
I00
sg2981
I01
sg5
(I01
I01
I00
tp3964
sba(iModules.cell
Cell
p3965
(dp3966
g4
I00
sg2981
I01
sg5
(I01
I01
I00
tp3967
sba(iModules.cell
Cell
p3968
(dp3969
g4
I00
sg2981
I01
sg5
(I01
I01
I00
tp3970
sba(iModules.cell
Cell
p3971
(dp3972
g4
I00
sg2981
I01
sg5
(I01
I01
I00
tp3973
sba(iModules.cell
Cell
p3974
(dp3975
g4
I00
sg2981
I01
sg5
(I01
I01
I00
tp3976
sba(iModules.cell
Cell
p3977
(dp3978
g4
I00
sg2499
I01
sg5
(I01
I01
I00
tp3979
sba(iModules.cell
Cell
p3980
(dp3981
g4
I00
sg2499
I01
sg5
(I01
I01
I00
tp3982
sba(iModules.cell
Cell
p3983
(dp3984
g4
I00
sg2499
I01
sg5
(I01
I01
I00
tp3985
sba(iModules.cell
Cell
p3986
(dp3987
g4
I00
sg2499
I01
sg5
(I01
I01
I00
tp3988
sba(iModules.cell
Cell
p3989
(dp3990
g4
I00
sg2499
I01
sg5
(I01
I01
I00
tp3991
sba(iModules.cell
Cell
p3992
(dp3993
g4
I00
sg2499
I01
sg5
(I01
I01
I00
tp3994
sba(iModules.cell
Cell
p3995
(dp3996
g4
I00
sg2499
I01
sg5
(I01
I01
I00
tp3997
sba(iModules.cell
Cell
p3998
(dp3999
g4
I00
sg2499
I01
sg5
(I01
I01
I00
tp4000
sba(iModules.cell
Cell
p4001
(dp4002
g4
I00
sg2499
I01
sg5
(I01
I01
I00
tp4003
sba(iModules.cell
Cell
p4004
(dp4005
g4
I00
sg2499
I01
sg5
(I01
I01
I00
tp4006
sba(iModules.cell
Cell
p4007
(dp4008
g4
I00
sg2499
I01
sg5
(I01
I01
I00
tp4009
sba(iModules.cell
Cell
p4010
(dp4011
g4
I00
sg2499
I01
sg5
(I01
I01
I00
tp4012
sba(iModules.cell
Cell
p4013
(dp4014
g4
I00
sg2499
I01
sg5
(I01
I01
I00
tp4015
sba(iModules.cell
Cell
p4016
(dp4017
g4
I00
sg2499
I01
sg5
(I01
I01
I00
tp4018
sba(iModules.cell
Cell
p4019
(dp4020
g4
I00
sg2499
I01
sg5
(I01
I01
I00
tp4021
sba(iModules.cell
Cell
p4022
(dp4023
g4
I00
sg2499
I01
sg5
(I01
I01
I00
tp4024
sba(iModules.cell
Cell
p4025
(dp4026
g4
I00
sg2499
I01
sg5
(I01
I01
I00
tp4027
sba(iModules.cell
Cell
p4028
(dp4029
g4
I00
sg2499
I01
sg5
(I01
I01
I00
tp4030
sba(iModules.cell
Cell
p4031
(dp4032
g4
I00
sg2554
I01
sg5
(I01
I01
I00
tp4033
sba(iModules.cell
Cell
p4034
(dp4035
g4
I00
sg2554
I01
sg5
(I01
I01
I00
tp4036
sba(iModules.cell
Cell
p4037
(dp4038
g4
I00
sg2554
I01
sg5
(I01
I01
I00
tp4039
sba(iModules.cell
Cell
p4040
(dp4041
g4
I00
sg2554
I01
sg5
(I01
I01
I00
tp4042
sba(iModules.cell
Cell
p4043
(dp4044
g4
I00
sg2554
I01
sg5
(I01
I01
I00
tp4045
sba(iModules.cell
Cell
p4046
(dp4047
g4
I00
sg372
I01
sg5
(I01
I01
I00
tp4048
sba(iModules.cell
Cell
p4049
(dp4050
g4
I00
sg372
I01
sg5
(I01
I01
I00
tp4051
sba(iModules.cell
Cell
p4052
(dp4053
g4
I00
sg372
I01
sg5
(I01
I01
I00
tp4054
sba(iModules.cell
Cell
p4055
(dp4056
g4
I00
sg372
I01
sg5
(I01
I01
I00
tp4057
sba(iModules.cell
Cell
p4058
(dp4059
g4
I00
sg372
I01
sg5
(I01
I01
I00
tp4060
sba(iModules.cell
Cell
p4061
(dp4062
g4
I00
sg372
I01
sg5
(I01
I01
I00
tp4063
sba(iModules.cell
Cell
p4064
(dp4065
g4
I00
sg372
I01
sg5
(I01
I01
I00
tp4066
sba(iModules.cell
Cell
p4067
(dp4068
g4
I00
sg372
I01
sg5
(I01
I01
I00
tp4069
sba(iModules.cell
Cell
p4070
(dp4071
g4
I00
sg372
I01
sg5
(I01
I01
I00
tp4072
sba(iModules.cell
Cell
p4073
(dp4074
g4
I00
sg372
I01
sg5
(I01
I01
I00
tp4075
sba(iModules.cell
Cell
p4076
(dp4077
g4
I00
sg372
I01
sg5
(I01
I01
I00
tp4078
sba(iModules.cell
Cell
p4079
(dp4080
g4
I00
sg372
I01
sg5
(I01
I01
I00
tp4081
sba(iModules.cell
Cell
p4082
(dp4083
g4
I00
sg372
I01
sg5
(I01
I01
I00
tp4084
sba(iModules.cell
Cell
p4085
(dp4086
g4
I00
sg372
I01
sg5
(I01
I01
I00
tp4087
sba(iModules.cell
Cell
p4088
(dp4089
g4
I00
sg372
I01
sg5
(I01
I01
I00
tp4090
sba(iModules.cell
Cell
p4091
(dp4092
g4
I00
sg372
I01
sg5
(I01
I01
I00
tp4093
sba(iModules.cell
Cell
p4094
(dp4095
g4
I00
sg372
I01
sg5
(I01
I01
I00
tp4096
sba(iModules.cell
Cell
p4097
(dp4098
g4
I00
sg372
I01
sg5
(I01
I01
I00
tp4099
sba(iModules.cell
Cell
p4100
(dp4101
g4
I00
sg372
I01
sg5
(I01
I01
I00
tp4102
sba(iModules.cell
Cell
p4103
(dp4104
g4
I00
sg372
I01
sg5
(I01
I01
I00
tp4105
sba(iModules.cell
Cell
p4106
(dp4107
g4
I00
sg372
I01
sg5
(I00
I00
I00
tp4108
sba(iModules.cell
Cell
p4109
(dp4110
g4
I00
sg5
(I00
I00
I00
tp4111
sba(iModules.cell
Cell
p4112
(dp4113
g4
I00
sg5
(I00
I00
I00
tp4114
sba(iModules.cell
Cell
p4115
(dp4116
g4
I00
sg5
(I00
I00
I00
tp4117
sba(iModules.cell
Cell
p4118
(dp4119
g4
I00
sg5
(I00
I00
I00
tp4120
sba(iModules.cell
Cell
p4121
(dp4122
g4
I00
sg5
(I00
I00
I00
tp4123
sba(iModules.cell
Cell
p4124
(dp4125
g4
I00
sg5
(I00
I00
I00
tp4126
sba(iModules.cell
Cell
p4127
(dp4128
g4
I00
sg5
(I00
I00
I00
tp4129
sba(iModules.cell
Cell
p4130
(dp4131
g4
I00
sg5
(I00
I00
I00
tp4132
sba(iModules.cell
Cell
p4133
(dp4134
g4
I00
sg5
(I00
I00
I00
tp4135
sba(iModules.cell
Cell
p4136
(dp4137
g4
I00
sg5
(I00
I00
I00
tp4138
sba(iModules.cell
Cell
p4139
(dp4140
g4
I00
sg5
(I00
I00
I00
tp4141
sba(iModules.cell
Cell
p4142
(dp4143
g4
I00
sg5
(I00
I00
I00
tp4144
sba(iModules.cell
Cell
p4145
(dp4146
g4
I00
sg5
(I00
I00
I00
tp4147
sba(iModules.cell
Cell
p4148
(dp4149
g4
I00
sg5
(I00
I00
I00
tp4150
sba(iModules.cell
Cell
p4151
(dp4152
g4
I00
sg5
(I00
I00
I00
tp4153
sba(iModules.cell
Cell
p4154
(dp4155
g4
I00
sg5
(I00
I00
I00
tp4156
sba(iModules.cell
Cell
p4157
(dp4158
g4
I00
sg5
(I00
I00
I00
tp4159
sba(iModules.cell
Cell
p4160
(dp4161
g4
I00
sg5
(I00
I00
I00
tp4162
sba(iModules.cell
Cell
p4163
(dp4164
g5
(I00
I00
I00
tp4165
sbaa(lp4166
(iModules.cell
Cell
p4167
(dp4168
g4
I00
sg5
(I00
I00
I00
tp4169
sba(iModules.cell
Cell
p4170
(dp4171
g4
I00
sg372
I01
sg5
(I00
I00
I00
tp4172
sba(iModules.cell
Cell
p4173
(dp4174
g4
I00
sg372
I01
sg5
(I01
I01
I00
tp4175
sba(iModules.cell
Cell
p4176
(dp4177
g4
I00
sg372
I01
sg5
(I01
I01
I00
tp4178
sba(iModules.cell
Cell
p4179
(dp4180
g4
I00
sg372
I01
sg5
(I01
I01
I00
tp4181
sba(iModules.cell
Cell
p4182
(dp4183
g4
I00
sg372
I01
sg5
(I01
I01
I00
tp4184
sba(iModules.cell
Cell
p4185
(dp4186
g4
I00
sg372
I01
sg5
(I01
I01
I00
tp4187
sba(iModules.cell
Cell
p4188
(dp4189
g4
I00
sg372
I01
sg5
(I01
I01
I00
tp4190
sba(iModules.cell
Cell
p4191
(dp4192
g4
I00
sg2768
I01
sg5
(I01
I01
I00
tp4193
sba(iModules.cell
Cell
p4194
(dp4195
g4
I00
sg2768
I01
sg5
(I01
I01
I00
tp4196
sba(iModules.cell
Cell
p4197
(dp4198
g4
I00
sg2768
I01
sg5
(I01
I01
I00
tp4199
sba(iModules.cell
Cell
p4200
(dp4201
g4
I00
sg2981
I01
sg5
(I01
I01
I00
tp4202
sba(iModules.cell
Cell
p4203
(dp4204
g4
I00
sg2981
I01
sg5
(I01
I01
I00
tp4205
sba(iModules.cell
Cell
p4206
(dp4207
g4
I00
sg2981
I01
sg5
(I01
I01
I00
tp4208
sba(iModules.cell
Cell
p4209
(dp4210
g4
I00
sg2981
I01
sg5
(I01
I01
I00
tp4211
sba(iModules.cell
Cell
p4212
(dp4213
g4
I00
sg2981
I01
sg5
(I01
I01
I00
tp4214
sba(iModules.cell
Cell
p4215
(dp4216
g4
I00
sg2981
I01
sg5
(I01
I01
I00
tp4217
sba(iModules.cell
Cell
p4218
(dp4219
g4
I00
sg2981
I01
sg5
(I01
I01
I00
tp4220
sba(iModules.cell
Cell
p4221
(dp4222
g4
I00
sS'explored'
p4223
I01
sg5
(I01
I01
I00
tp4224
sba(iModules.cell
Cell
p4225
(dp4226
g4
I00
sg2499
I01
sg5
(I01
I01
I00
tp4227
sba(iModules.cell
Cell
p4228
(dp4229
g4
I00
sg2499
I01
sg5
(I01
I01
I00
tp4230
sba(iModules.cell
Cell
p4231
(dp4232
g4
I00
sg2499
I01
sg5
(I01
I01
I00
tp4233
sba(iModules.cell
Cell
p4234
(dp4235
g4
I00
sg2499
I01
sg5
(I01
I01
I00
tp4236
sba(iModules.cell
Cell
p4237
(dp4238
g4
I00
sg2499
I01
sg5
(I01
I01
I00
tp4239
sba(iModules.cell
Cell
p4240
(dp4241
g4
I00
sg2499
I01
sg5
(I01
I01
I00
tp4242
sba(iModules.cell
Cell
p4243
(dp4244
g4
I00
sg2499
I01
sg5
(I01
I01
I00
tp4245
sba(iModules.cell
Cell
p4246
(dp4247
g4
I00
sg2499
I01
sg5
(I01
I01
I00
tp4248
sba(iModules.cell
Cell
p4249
(dp4250
g4
I00
sg2499
I01
sg5
(I01
I01
I00
tp4251
sba(iModules.cell
Cell
p4252
(dp4253
g4
I00
sg2499
I01
sg5
(I01
I01
I00
tp4254
sba(iModules.cell
Cell
p4255
(dp4256
g4
I00
sg2499
I01
sg5
(I01
I01
I00
tp4257
sba(iModules.cell
Cell
p4258
(dp4259
g4
I00
sg2499
I01
sg5
(I01
I01
I00
tp4260
sba(iModules.cell
Cell
p4261
(dp4262
g4
I00
sg2499
I01
sg5
(I01
I01
I00
tp4263
sba(iModules.cell
Cell
p4264
(dp4265
g4
I00
sg2499
I01
sg5
(I01
I01
I00
tp4266
sba(iModules.cell
Cell
p4267
(dp4268
g4
I00
sg2499
I01
sg5
(I01
I01
I00
tp4269
sba(iModules.cell
Cell
p4270
(dp4271
g4
I00
sg2499
I01
sg5
(I01
I01
I00
tp4272
sba(iModules.cell
Cell
p4273
(dp4274
g4
I00
sg2499
I01
sg5
(I01
I01
I00
tp4275
sba(iModules.cell
Cell
p4276
(dp4277
g4
I00
sg2554
I01
sg5
(I01
I01
I00
tp4278
sba(iModules.cell
Cell
p4279
(dp4280
g4
I00
sg2554
I01
sg5
(I01
I01
I00
tp4281
sba(iModules.cell
Cell
p4282
(dp4283
g4
I00
sg2554
I01
sg5
(I01
I01
I00
tp4284
sba(iModules.cell
Cell
p4285
(dp4286
g4
I00
sg2554
I01
sg5
(I01
I01
I00
tp4287
sba(iModules.cell
Cell
p4288
(dp4289
g4
I00
sg2554
I01
sg5
(I01
I01
I00
tp4290
sba(iModules.cell
Cell
p4291
(dp4292
g4
I00
sg372
I01
sg5
(I01
I01
I00
tp4293
sba(iModules.cell
Cell
p4294
(dp4295
g4
I00
sg372
I01
sg5
(I01
I01
I00
tp4296
sba(iModules.cell
Cell
p4297
(dp4298
g4
I00
sg372
I01
sg5
(I01
I01
I00
tp4299
sba(iModules.cell
Cell
p4300
(dp4301
g4
I00
sg372
I01
sg5
(I01
I01
I00
tp4302
sba(iModules.cell
Cell
p4303
(dp4304
g4
I00
sg372
I01
sg5
(I01
I01
I00
tp4305
sba(iModules.cell
Cell
p4306
(dp4307
g4
I00
sg372
I01
sg5
(I01
I01
I00
tp4308
sba(iModules.cell
Cell
p4309
(dp4310
g4
I00
sg372
I01
sg5
(I01
I01
I00
tp4311
sba(iModules.cell
Cell
p4312
(dp4313
g4
I00
sg372
I01
sg5
(I01
I01
I00
tp4314
sba(iModules.cell
Cell
p4315
(dp4316
g4
I00
sg372
I01
sg5
(I01
I01
I00
tp4317
sba(iModules.cell
Cell
p4318
(dp4319
g4
I00
sg372
I01
sg5
(I01
I01
I00
tp4320
sba(iModules.cell
Cell
p4321
(dp4322
g4
I00
sg372
I01
sg5
(I01
I01
I00
tp4323
sba(iModules.cell
Cell
p4324
(dp4325
g4
I00
sg372
I01
sg5
(I01
I01
I00
tp4326
sba(iModules.cell
Cell
p4327
(dp4328
g4
I00
sg372
I01
sg5
(I01
I01
I00
tp4329
sba(iModules.cell
Cell
p4330
(dp4331
g4
I00
sg372
I01
sg5
(I01
I01
I00
tp4332
sba(iModules.cell
Cell
p4333
(dp4334
g4
I00
sg372
I01
sg5
(I01
I01
I00
tp4335
sba(iModules.cell
Cell
p4336
(dp4337
g4
I00
sg372
I01
sg5
(I01
I01
I00
tp4338
sba(iModules.cell
Cell
p4339
(dp4340
g4
I00
sg372
I01
sg5
(I01
I01
I00
tp4341
sba(iModules.cell
Cell
p4342
(dp4343
g4
I00
sg372
I01
sg5
(I01
I01
I00
tp4344
sba(iModules.cell
Cell
p4345
(dp4346
g4
I00
sg372
I01
sg5
(I01
I01
I00
tp4347
sba(iModules.cell
Cell
p4348
(dp4349
g4
I00
sg372
I01
sg5
(I01
I01
I00
tp4350
sba(iModules.cell
Cell
p4351
(dp4352
g4
I00
sg372
I01
sg5
(I00
I00
I00
tp4353
sba(iModules.cell
Cell
p4354
(dp4355
g4
I00
sg5
(I00
I00
I00
tp4356
sba(iModules.cell
Cell
p4357
(dp4358
g4
I00
sg5
(I00
I00
I00
tp4359
sba(iModules.cell
Cell
p4360
(dp4361
g4
I00
sg5
(I00
I00
I00
tp4362
sba(iModules.cell
Cell
p4363
(dp4364
g4
I00
sg5
(I00
I00
I00
tp4365
sba(iModules.cell
Cell
p4366
(dp4367
g4
I00
sg5
(I00
I00
I00
tp4368
sba(iModules.cell
Cell
p4369
(dp4370
g4
I00
sg5
(I00
I00
I00
tp4371
sba(iModules.cell
Cell
p4372
(dp4373
g4
I00
sg5
(I00
I00
I00
tp4374
sba(iModules.cell
Cell
p4375
(dp4376
g4
I00
sg5
(I00
I00
I00
tp4377
sba(iModules.cell
Cell
p4378
(dp4379
g4
I00
sg5
(I00
I00
I00
tp4380
sba(iModules.cell
Cell
p4381
(dp4382
g4
I00
sg5
(I00
I00
I00
tp4383
sba(iModules.cell
Cell
p4384
(dp4385
g4
I00
sg5
(I00
I00
I00
tp4386
sba(iModules.cell
Cell
p4387
(dp4388
g4
I00
sg5
(I00
I00
I00
tp4389
sba(iModules.cell
Cell
p4390
(dp4391
g4
I00
sg5
(I00
I00
I00
tp4392
sba(iModules.cell
Cell
p4393
(dp4394
g4
I00
sg5
(I00
I00
I00
tp4395
sba(iModules.cell
Cell
p4396
(dp4397
g4
I00
sg5
(I00
I00
I00
tp4398
sba(iModules.cell
Cell
p4399
(dp4400
g4
I00
sg5
(I00
I00
I00
tp4401
sba(iModules.cell
Cell
p4402
(dp4403
g4
I00
sg5
(I00
I00
I00
tp4404
sba(iModules.cell
Cell
p4405
(dp4406
g4
I00
sg5
(I00
I00
I00
tp4407
sba(iModules.cell
Cell
p4408
(dp4409
g5
(I00
I00
I00
tp4410
sbaa(lp4411
(iModules.cell
Cell
p4412
(dp4413
g4
I00
sg5
(I00
I00
I00
tp4414
sba(iModules.cell
Cell
p4415
(dp4416
g4
I00
sg372
I01
sg5
(I00
I00
I00
tp4417
sba(iModules.cell
Cell
p4418
(dp4419
g4
I00
sg372
I01
sg5
(I01
I01
I00
tp4420
sba(iModules.cell
Cell
p4421
(dp4422
g4
I00
sg372
I01
sg5
(I01
I01
I00
tp4423
sba(iModules.cell
Cell
p4424
(dp4425
g4
I00
sg372
I01
sg5
(I01
I01
I00
tp4426
sba(iModules.cell
Cell
p4427
(dp4428
g4
I00
sg372
I01
sg5
(I01
I01
I00
tp4429
sba(iModules.cell
Cell
p4430
(dp4431
g4
I00
sg372
I01
sg5
(I01
I01
I00
tp4432
sba(iModules.cell
Cell
p4433
(dp4434
g4
I00
sg372
I01
sg5
(I01
I01
I00
tp4435
sba(iModules.cell
Cell
p4436
(dp4437
g4
I00
sg2768
I01
sg5
(I01
I01
I00
tp4438
sba(iModules.cell
Cell
p4439
(dp4440
g4
I00
sg2768
I01
sg5
(I01
I01
I00
tp4441
sba(iModules.cell
Cell
p4442
(dp4443
g4
I00
sg2768
I01
sg5
(I01
I01
I00
tp4444
sba(iModules.cell
Cell
p4445
(dp4446
g4
I00
sg2768
I01
sg5
(I01
I01
I00
tp4447
sba(iModules.cell
Cell
p4448
(dp4449
g4
I00
sg2981
I01
sg5
(I01
I01
I00
tp4450
sba(iModules.cell
Cell
p4451
(dp4452
g4
I00
sg2981
I01
sg5
(I01
I01
I00
tp4453
sba(iModules.cell
Cell
p4454
(dp4455
g4
I00
sg2981
I01
sg5
(I01
I01
I00
tp4456
sba(iModules.cell
Cell
p4457
(dp4458
g4
I00
sg2981
I01
sg5
(I01
I01
I00
tp4459
sba(iModules.cell
Cell
p4460
(dp4461
g4
I00
sg2981
I01
sg5
(I01
I01
I00
tp4462
sba(iModules.cell
Cell
p4463
(dp4464
g4
I00
sg2981
I01
sg5
(I01
I01
I00
tp4465
sba(iModules.cell
Cell
p4466
(dp4467
g4
I00
sg4223
I01
sg5
(I01
I01
I00
tp4468
sba(iModules.cell
Cell
p4469
(dp4470
g4
I00
sg4223
I01
sg5
(I01
I01
I00
tp4471
sba(iModules.cell
Cell
p4472
(dp4473
g4
I00
sg2499
I01
sg5
(I01
I01
I00
tp4474
sba(iModules.cell
Cell
p4475
(dp4476
g4
I00
sg2499
I01
sg5
(I01
I01
I00
tp4477
sba(iModules.cell
Cell
p4478
(dp4479
g4
I00
sg2499
I01
sg5
(I01
I01
I00
tp4480
sba(iModules.cell
Cell
p4481
(dp4482
g4
I00
sg2499
I01
sg5
(I01
I01
I00
tp4483
sba(iModules.cell
Cell
p4484
(dp4485
g4
I00
sg2499
I01
sg5
(I01
I01
I00
tp4486
sba(iModules.cell
Cell
p4487
(dp4488
g4
I00
sg2499
I01
sg5
(I01
I01
I00
tp4489
sba(iModules.cell
Cell
p4490
(dp4491
g4
I00
sg2499
I01
sg5
(I01
I01
I00
tp4492
sba(iModules.cell
Cell
p4493
(dp4494
g4
I00
sg2499
I01
sg5
(I01
I01
I00
tp4495
sba(iModules.cell
Cell
p4496
(dp4497
g4
I00
sg2499
I01
sg5
(I01
I01
I00
tp4498
sba(iModules.cell
Cell
p4499
(dp4500
g4
I00
sg2499
I01
sg5
(I01
I01
I00
tp4501
sba(iModules.cell
Cell
p4502
(dp4503
g4
I00
sg2499
I01
sg5
(I01
I01
I00
tp4504
sba(iModules.cell
Cell
p4505
(dp4506
g4
I00
sg2499
I01
sg5
(I01
I01
I00
tp4507
sba(iModules.cell
Cell
p4508
(dp4509
g4
I00
sg2499
I01
sg5
(I01
I01
I00
tp4510
sba(iModules.cell
Cell
p4511
(dp4512
g4
I00
sg2499
I01
sg5
(I01
I01
I00
tp4513
sba(iModules.cell
Cell
p4514
(dp4515
g4
I00
sg2499
I01
sg5
(I01
I01
I00
tp4516
sba(iModules.cell
Cell
p4517
(dp4518
g4
I00
sg2499
I01
sg5
(I01
I01
I00
tp4519
sba(iModules.cell
Cell
p4520
(dp4521
g4
I00
sg2554
I01
sg5
(I01
I01
I00
tp4522
sba(iModules.cell
Cell
p4523
(dp4524
g4
I00
sg2554
I01
sg5
(I01
I01
I00
tp4525
sba(iModules.cell
Cell
p4526
(dp4527
g4
I00
sg2554
I01
sg5
(I01
I01
I00
tp4528
sba(iModules.cell
Cell
p4529
(dp4530
g4
I00
sg2554
I01
sg5
(I01
I01
I00
tp4531
sba(iModules.cell
Cell
p4532
(dp4533
g4
I00
sg2554
I01
sg5
(I01
I01
I00
tp4534
sba(iModules.cell
Cell
p4535
(dp4536
g4
I00
sg372
I01
sg5
(I01
I01
I00
tp4537
sba(iModules.cell
Cell
p4538
(dp4539
g4
I00
sg372
I01
sg5
(I01
I01
I00
tp4540
sba(iModules.cell
Cell
p4541
(dp4542
g4
I00
sg372
I01
sg5
(I01
I01
I00
tp4543
sba(iModules.cell
Cell
p4544
(dp4545
g4
I00
sg372
I01
sg5
(I01
I01
I00
tp4546
sba(iModules.cell
Cell
p4547
(dp4548
g4
I00
sg372
I01
sg5
(I01
I01
I00
tp4549
sba(iModules.cell
Cell
p4550
(dp4551
g4
I00
sg372
I01
sg5
(I01
I01
I00
tp4552
sba(iModules.cell
Cell
p4553
(dp4554
g4
I00
sg372
I01
sg5
(I01
I01
I00
tp4555
sba(iModules.cell
Cell
p4556
(dp4557
g4
I00
sg372
I01
sg5
(I01
I01
I00
tp4558
sba(iModules.cell
Cell
p4559
(dp4560
g4
I00
sg372
I01
sg5
(I01
I01
I00
tp4561
sba(iModules.cell
Cell
p4562
(dp4563
g4
I00
sg372
I01
sg5
(I01
I01
I00
tp4564
sba(iModules.cell
Cell
p4565
(dp4566
g4
I00
sg372
I01
sg5
(I01
I01
I00
tp4567
sba(iModules.cell
Cell
p4568
(dp4569
g4
I00
sg372
I01
sg5
(I01
I01
I00
tp4570
sba(iModules.cell
Cell
p4571
(dp4572
g4
I00
sg372
I01
sg5
(I01
I01
I00
tp4573
sba(iModules.cell
Cell
p4574
(dp4575
g4
I00
sg372
I01
sg5
(I01
I01
I00
tp4576
sba(iModules.cell
Cell
p4577
(dp4578
g4
I00
sg372
I01
sg5
(I01
I01
I00
tp4579
sba(iModules.cell
Cell
p4580
(dp4581
g4
I00
sg372
I01
sg5
(I01
I01
I00
tp4582
sba(iModules.cell
Cell
p4583
(dp4584
g4
I00
sg372
I01
sg5
(I01
I01
I00
tp4585
sba(iModules.cell
Cell
p4586
(dp4587
g4
I00
sg372
I01
sg5
(I01
I01
I00
tp4588
sba(iModules.cell
Cell
p4589
(dp4590
g4
I00
sg372
I01
sg5
(I01
I01
I00
tp4591
sba(iModules.cell
Cell
p4592
(dp4593
g4
I00
sg372
I01
sg5
(I01
I01
I00
tp4594
sba(iModules.cell
Cell
p4595
(dp4596
g4
I00
sg372
I01
sg5
(I00
I00
I00
tp4597
sba(iModules.cell
Cell
p4598
(dp4599
g4
I00
sg5
(I00
I00
I00
tp4600
sba(iModules.cell
Cell
p4601
(dp4602
g4
I00
sg5
(I00
I00
I00
tp4603
sba(iModules.cell
Cell
p4604
(dp4605
g4
I00
sg5
(I00
I00
I00
tp4606
sba(iModules.cell
Cell
p4607
(dp4608
g4
I00
sg5
(I00
I00
I00
tp4609
sba(iModules.cell
Cell
p4610
(dp4611
g4
I00
sg5
(I00
I00
I00
tp4612
sba(iModules.cell
Cell
p4613
(dp4614
g4
I00
sg5
(I00
I00
I00
tp4615
sba(iModules.cell
Cell
p4616
(dp4617
g4
I00
sg5
(I00
I00
I00
tp4618
sba(iModules.cell
Cell
p4619
(dp4620
g4
I00
sg5
(I00
I00
I00
tp4621
sba(iModules.cell
Cell
p4622
(dp4623
g4
I00
sg5
(I00
I00
I00
tp4624
sba(iModules.cell
Cell
p4625
(dp4626
g4
I00
sg5
(I00
I00
I00
tp4627
sba(iModules.cell
Cell
p4628
(dp4629
g4
I00
sg5
(I00
I00
I00
tp4630
sba(iModules.cell
Cell
p4631
(dp4632
g4
I00
sg5
(I00
I00
I00
tp4633
sba(iModules.cell
Cell
p4634
(dp4635
g4
I00
sg5
(I00
I00
I00
tp4636
sba(iModules.cell
Cell
p4637
(dp4638
g4
I00
sg5
(I00
I00
I00
tp4639
sba(iModules.cell
Cell
p4640
(dp4641
g4
I00
sg5
(I00
I00
I00
tp4642
sba(iModules.cell
Cell
p4643
(dp4644
g4
I00
sg5
(I00
I00
I00
tp4645
sba(iModules.cell
Cell
p4646
(dp4647
g4
I00
sg5
(I00
I00
I00
tp4648
sba(iModules.cell
Cell
p4649
(dp4650
g4
I00
sg5
(I00
I00
I00
tp4651
sba(iModules.cell
Cell
p4652
(dp4653
g5
(I00
I00
I00
tp4654
sbaa(lp4655
(iModules.cell
Cell
p4656
(dp4657
g4
I00
sg5
(I00
I00
I00
tp4658
sba(iModules.cell
Cell
p4659
(dp4660
g4
I00
sg372
I01
sg5
(I00
I00
I00
tp4661
sba(iModules.cell
Cell
p4662
(dp4663
g4
I00
sg372
I01
sg5
(I01
I01
I00
tp4664
sba(iModules.cell
Cell
p4665
(dp4666
g4
I00
sg372
I01
sg5
(I01
I01
I00
tp4667
sba(iModules.cell
Cell
p4668
(dp4669
g4
I00
sg372
I01
sg5
(I01
I01
I00
tp4670
sba(iModules.cell
Cell
p4671
(dp4672
g4
I00
sg372
I01
sg5
(I01
I01
I00
tp4673
sba(iModules.cell
Cell
p4674
(dp4675
g4
I00
sg372
I01
sg5
(I01
I01
I00
tp4676
sba(iModules.cell
Cell
p4677
(dp4678
g4
I00
sg372
I01
sg5
(I01
I01
I00
tp4679
sba(iModules.cell
Cell
p4680
(dp4681
g4
I00
sg2768
I01
sg5
(I01
I01
I00
tp4682
sba(iModules.cell
Cell
p4683
(dp4684
g4
I00
sg2768
I01
sg5
(I01
I01
I00
tp4685
sba(iModules.cell
Cell
p4686
(dp4687
g4
I00
sg2768
I01
sg5
(I01
I01
I00
tp4688
sba(iModules.cell
Cell
p4689
(dp4690
g4
I00
sg2768
I01
sg5
(I01
I01
I00
tp4691
sba(iModules.cell
Cell
p4692
(dp4693
g4
I00
sg2768
I01
sg5
(I01
I01
I00
tp4694
sba(iModules.cell
Cell
p4695
(dp4696
g4
I00
sg2981
I01
sg5
(I01
I01
I00
tp4697
sba(iModules.cell
Cell
p4698
(dp4699
g4
I00
sg2981
I01
sg5
(I01
I01
I00
tp4700
sba(iModules.cell
Cell
p4701
(dp4702
g4
I00
sg2981
I01
sg5
(I01
I01
I00
tp4703
sba(iModules.cell
Cell
p4704
(dp4705
g4
I00
sg2981
I01
sg5
(I01
I01
I00
tp4706
sba(iModules.cell
Cell
p4707
(dp4708
g4
I00
sg2981
I01
sg5
(I01
I01
I00
tp4709
sba(iModules.cell
Cell
p4710
(dp4711
g4
I00
sg4223
I01
sg5
(I01
I01
I00
tp4712
sba(iModules.cell
Cell
p4713
(dp4714
g4
I00
sg4223
I01
sg5
(I01
I01
I00
tp4715
sba(iModules.cell
Cell
p4716
(dp4717
g4
I00
sg4223
I01
sg5
(I01
I01
I00
tp4718
sba(iModules.cell
Cell
p4719
(dp4720
g4
I00
sg2499
I01
sg5
(I01
I01
I00
tp4721
sba(iModules.cell
Cell
p4722
(dp4723
g4
I00
sg2499
I01
sg5
(I01
I01
I00
tp4724
sba(iModules.cell
Cell
p4725
(dp4726
g4
I00
sg2499
I01
sg5
(I01
I01
I00
tp4727
sba(iModules.cell
Cell
p4728
(dp4729
g4
I00
sg2499
I01
sg5
(I01
I01
I00
tp4730
sba(iModules.cell
Cell
p4731
(dp4732
g4
I00
sg2499
I01
sg5
(I01
I01
I00
tp4733
sba(iModules.cell
Cell
p4734
(dp4735
g4
I00
sg2499
I01
sg5
(I01
I01
I00
tp4736
sba(iModules.cell
Cell
p4737
(dp4738
g4
I00
sg2499
I01
sg5
(I01
I01
I00
tp4739
sba(iModules.cell
Cell
p4740
(dp4741
g4
I00
sg2499
I01
sg5
(I01
I01
I00
tp4742
sba(iModules.cell
Cell
p4743
(dp4744
g4
I00
sg2499
I01
sg5
(I01
I01
I00
tp4745
sba(iModules.cell
Cell
p4746
(dp4747
g4
I00
sg2499
I01
sg5
(I01
I01
I00
tp4748
sba(iModules.cell
Cell
p4749
(dp4750
g4
I00
sg2499
I01
sg5
(I01
I01
I00
tp4751
sba(iModules.cell
Cell
p4752
(dp4753
g4
I00
sg2499
I01
sg5
(I01
I01
I00
tp4754
sba(iModules.cell
Cell
p4755
(dp4756
g4
I00
sg2499
I01
sg5
(I01
I01
I00
tp4757
sba(iModules.cell
Cell
p4758
(dp4759
g4
I00
sg2499
I01
sg5
(I01
I01
I00
tp4760
sba(iModules.cell
Cell
p4761
(dp4762
g4
I00
sg2499
I01
sg5
(I01
I01
I00
tp4763
sba(iModules.cell
Cell
p4764
(dp4765
g4
I00
sg2554
I01
sg5
(I01
I01
I00
tp4766
sba(iModules.cell
Cell
p4767
(dp4768
g4
I00
sg2554
I01
sg5
(I01
I01
I00
tp4769
sba(iModules.cell
Cell
p4770
(dp4771
g4
I00
sg2554
I01
sg5
(I01
I01
I00
tp4772
sba(iModules.cell
Cell
p4773
(dp4774
g4
I00
sg2554
I01
sg5
(I01
I01
I00
tp4775
sba(iModules.cell
Cell
p4776
(dp4777
g4
I00
sg2554
I01
sg5
(I01
I01
I00
tp4778
sba(iModules.cell
Cell
p4779
(dp4780
g4
I00
sg372
I01
sg5
(I01
I01
I00
tp4781
sba(iModules.cell
Cell
p4782
(dp4783
g4
I00
sg372
I01
sg5
(I01
I01
I00
tp4784
sba(iModules.cell
Cell
p4785
(dp4786
g4
I00
sg372
I01
sg5
(I01
I01
I00
tp4787
sba(iModules.cell
Cell
p4788
(dp4789
g4
I00
sg372
I01
sg5
(I01
I01
I00
tp4790
sba(iModules.cell
Cell
p4791
(dp4792
g4
I00
sg372
I01
sg5
(I01
I01
I00
tp4793
sba(iModules.cell
Cell
p4794
(dp4795
g4
I00
sg372
I01
sg5
(I01
I01
I00
tp4796
sba(iModules.cell
Cell
p4797
(dp4798
g4
I00
sg372
I01
sg5
(I01
I01
I00
tp4799
sba(iModules.cell
Cell
p4800
(dp4801
g4
I00
sg372
I01
sg5
(I01
I01
I00
tp4802
sba(iModules.cell
Cell
p4803
(dp4804
g4
I00
sg372
I01
sg5
(I01
I01
I00
tp4805
sba(iModules.cell
Cell
p4806
(dp4807
g4
I00
sg372
I01
sg5
(I01
I01
I00
tp4808
sba(iModules.cell
Cell
p4809
(dp4810
g4
I00
sg372
I01
sg5
(I01
I01
I00
tp4811
sba(iModules.cell
Cell
p4812
(dp4813
g4
I00
sg372
I01
sg5
(I01
I01
I00
tp4814
sba(iModules.cell
Cell
p4815
(dp4816
g4
I00
sg372
I01
sg5
(I01
I01
I00
tp4817
sba(iModules.cell
Cell
p4818
(dp4819
g4
I00
sg372
I01
sg5
(I01
I01
I00
tp4820
sba(iModules.cell
Cell
p4821
(dp4822
g4
I00
sg372
I01
sg5
(I01
I01
I00
tp4823
sba(iModules.cell
Cell
p4824
(dp4825
g4
I00
sg372
I01
sg5
(I01
I01
I00
tp4826
sba(iModules.cell
Cell
p4827
(dp4828
g4
I00
sg372
I01
sg5
(I01
I01
I00
tp4829
sba(iModules.cell
Cell
p4830
(dp4831
g4
I00
sg372
I01
sg5
(I01
I01
I00
tp4832
sba(iModules.cell
Cell
p4833
(dp4834
g4
I00
sg372
I01
sg5
(I01
I01
I00
tp4835
sba(iModules.cell
Cell
p4836
(dp4837
g4
I00
sg372
I01
sg5
(I01
I01
I00
tp4838
sba(iModules.cell
Cell
p4839
(dp4840
g4
I00
sg372
I01
sg5
(I00
I00
I00
tp4841
sba(iModules.cell
Cell
p4842
(dp4843
g4
I00
sg5
(I00
I00
I00
tp4844
sba(iModules.cell
Cell
p4845
(dp4846
g4
I00
sg5
(I00
I00
I00
tp4847
sba(iModules.cell
Cell
p4848
(dp4849
g4
I00
sg5
(I00
I00
I00
tp4850
sba(iModules.cell
Cell
p4851
(dp4852
g4
I00
sg5
(I00
I00
I00
tp4853
sba(iModules.cell
Cell
p4854
(dp4855
g4
I00
sg5
(I00
I00
I00
tp4856
sba(iModules.cell
Cell
p4857
(dp4858
g4
I00
sg5
(I00
I00
I00
tp4859
sba(iModules.cell
Cell
p4860
(dp4861
g4
I00
sg5
(I00
I00
I00
tp4862
sba(iModules.cell
Cell
p4863
(dp4864
g4
I00
sg5
(I00
I00
I00
tp4865
sba(iModules.cell
Cell
p4866
(dp4867
g4
I00
sg5
(I00
I00
I00
tp4868
sba(iModules.cell
Cell
p4869
(dp4870
g4
I00
sg5
(I00
I00
I00
tp4871
sba(iModules.cell
Cell
p4872
(dp4873
g4
I00
sg5
(I00
I00
I00
tp4874
sba(iModules.cell
Cell
p4875
(dp4876
g4
I00
sg5
(I00
I00
I00
tp4877
sba(iModules.cell
Cell
p4878
(dp4879
g4
I00
sg5
(I00
I00
I00
tp4880
sba(iModules.cell
Cell
p4881
(dp4882
g4
I00
sg5
(I00
I00
I00
tp4883
sba(iModules.cell
Cell
p4884
(dp4885
g4
I00
sg5
(I00
I00
I00
tp4886
sba(iModules.cell
Cell
p4887
(dp4888
g4
I00
sg5
(I00
I00
I00
tp4889
sba(iModules.cell
Cell
p4890
(dp4891
g4
I00
sg5
(I00
I00
I00
tp4892
sba(iModules.cell
Cell
p4893
(dp4894
g4
I00
sg5
(I00
I00
I00
tp4895
sba(iModules.cell
Cell
p4896
(dp4897
g5
(I00
I00
I00
tp4898
sbaa(lp4899
(iModules.cell
Cell
p4900
(dp4901
g4
I00
sg5
(I00
I00
I00
tp4902
sba(iModules.cell
Cell
p4903
(dp4904
g4
I00
sg372
I01
sg5
(I00
I00
I00
tp4905
sba(iModules.cell
Cell
p4906
(dp4907
g4
I00
sg372
I01
sg5
(I01
I01
I00
tp4908
sba(iModules.cell
Cell
p4909
(dp4910
g4
I00
sg372
I01
sg5
(I01
I01
I00
tp4911
sba(iModules.cell
Cell
p4912
(dp4913
g4
I00
sg372
I01
sg5
(I01
I01
I00
tp4914
sba(iModules.cell
Cell
p4915
(dp4916
g4
I00
sg372
I01
sg5
(I01
I01
I00
tp4917
sba(iModules.cell
Cell
p4918
(dp4919
g4
I00
sg372
I01
sg5
(I01
I01
I00
tp4920
sba(iModules.cell
Cell
p4921
(dp4922
g4
I00
sg372
I01
sg5
(I01
I01
I00
tp4923
sba(iModules.cell
Cell
p4924
(dp4925
g4
I00
sg372
I01
sg5
(I01
I01
I00
tp4926
sba(iModules.cell
Cell
p4927
(dp4928
g4
I00
sg372
I01
sg5
(I01
I01
I00
tp4929
sba(iModules.cell
Cell
p4930
(dp4931
g4
I00
sg372
I01
sg5
(I01
I01
I00
tp4932
sba(iModules.cell
Cell
p4933
(dp4934
g4
I00
sg372
I01
sg5
(I01
I01
I00
tp4935
sba(iModules.cell
Cell
p4936
(dp4937
g4
I00
sg372
I01
sg5
(I01
I01
I00
tp4938
sba(iModules.cell
Cell
p4939
(dp4940
g4
I00
sg372
I01
sg5
(I01
I01
I00
tp4941
sba(iModules.cell
Cell
p4942
(dp4943
g4
I00
sg2981
I01
sg5
(I01
I01
I00
tp4944
sba(iModules.cell
Cell
p4945
(dp4946
g4
I00
sg2981
I01
sg5
(I01
I01
I00
tp4947
sba(iModules.cell
Cell
p4948
(dp4949
g4
I00
sg2981
I01
sg5
(I01
I01
I00
tp4950
sba(iModules.cell
Cell
p4951
(dp4952
g4
I00
sg2981
I01
sg5
(I01
I01
I00
tp4953
sba(iModules.cell
Cell
p4954
(dp4955
g4
I00
sg4223
I01
sg5
(I01
I01
I00
tp4956
sba(iModules.cell
Cell
p4957
(dp4958
g4
I00
sg4223
I01
sg5
(I01
I01
I00
tp4959
sba(iModules.cell
Cell
p4960
(dp4961
g4
I00
sg4223
I01
sg5
(I01
I01
I00
tp4962
sba(iModules.cell
Cell
p4963
(dp4964
g4
I00
sg4223
I01
sg5
(I01
I01
I00
tp4965
sba(iModules.cell
Cell
p4966
(dp4967
g4
I00
sg2499
I01
sg5
(I01
I01
I00
tp4968
sba(iModules.cell
Cell
p4969
(dp4970
g4
I00
sg2499
I01
sg5
(I01
I01
I00
tp4971
sba(iModules.cell
Cell
p4972
(dp4973
g4
I00
sg2499
I01
sg5
(I01
I01
I00
tp4974
sba(iModules.cell
Cell
p4975
(dp4976
g4
I00
sg2499
I01
sg5
(I01
I01
I00
tp4977
sba(iModules.cell
Cell
p4978
(dp4979
g4
I00
sg2499
I01
sg5
(I01
I01
I00
tp4980
sba(iModules.cell
Cell
p4981
(dp4982
g4
I00
sg2499
I01
sg5
(I01
I01
I00
tp4983
sba(iModules.cell
Cell
p4984
(dp4985
g4
I00
sg2499
I01
sg5
(I01
I01
I00
tp4986
sba(iModules.cell
Cell
p4987
(dp4988
g4
I00
sg2499
I01
sg5
(I01
I01
I00
tp4989
sba(iModules.cell
Cell
p4990
(dp4991
g4
I00
sg2499
I01
sg5
(I01
I01
I00
tp4992
sba(iModules.cell
Cell
p4993
(dp4994
g4
I00
sg2499
I01
sg5
(I01
I01
I00
tp4995
sba(iModules.cell
Cell
p4996
(dp4997
g4
I00
sg2499
I01
sg5
(I01
I01
I00
tp4998
sba(iModules.cell
Cell
p4999
(dp5000
g4
I00
sg2499
I01
sg5
(I01
I01
I00
tp5001
sba(iModules.cell
Cell
p5002
(dp5003
g4
I00
sg2499
I01
sg5
(I01
I01
I00
tp5004
sba(iModules.cell
Cell
p5005
(dp5006
g4
I00
sg2499
I01
sg5
(I01
I01
I00
tp5007
sba(iModules.cell
Cell
p5008
(dp5009
g4
I00
sg2554
I01
sg5
(I01
I01
I00
tp5010
sba(iModules.cell
Cell
p5011
(dp5012
g4
I00
sg2554
I01
sg5
(I01
I01
I00
tp5013
sba(iModules.cell
Cell
p5014
(dp5015
g4
I00
sg2554
I01
sg5
(I01
I01
I00
tp5016
sba(iModules.cell
Cell
p5017
(dp5018
g4
I00
sg2554
I01
sg5
(I01
I01
I00
tp5019
sba(iModules.cell
Cell
p5020
(dp5021
g4
I00
sg2554
I01
sg5
(I01
I01
I00
tp5022
sba(iModules.cell
Cell
p5023
(dp5024
g4
I00
sg372
I01
sg5
(I01
I01
I00
tp5025
sba(iModules.cell
Cell
p5026
(dp5027
g4
I00
sg372
I01
sg5
(I01
I01
I00
tp5028
sba(iModules.cell
Cell
p5029
(dp5030
g4
I00
sg372
I01
sg5
(I01
I01
I00
tp5031
sba(iModules.cell
Cell
p5032
(dp5033
g4
I00
sg372
I01
sg5
(I01
I01
I00
tp5034
sba(iModules.cell
Cell
p5035
(dp5036
g4
I00
sg372
I01
sg5
(I01
I01
I00
tp5037
sba(iModules.cell
Cell
p5038
(dp5039
g4
I00
sg372
I01
sg5
(I01
I01
I00
tp5040
sba(iModules.cell
Cell
p5041
(dp5042
g4
I00
sg372
I01
sg5
(I01
I01
I00
tp5043
sba(iModules.cell
Cell
p5044
(dp5045
g4
I00
sg372
I01
sg5
(I01
I01
I00
tp5046
sba(iModules.cell
Cell
p5047
(dp5048
g4
I00
sg372
I01
sg5
(I01
I01
I00
tp5049
sba(iModules.cell
Cell
p5050
(dp5051
g4
I00
sg372
I01
sg5
(I01
I01
I00
tp5052
sba(iModules.cell
Cell
p5053
(dp5054
g4
I00
sg372
I01
sg5
(I01
I01
I00
tp5055
sba(iModules.cell
Cell
p5056
(dp5057
g4
I00
sg372
I01
sg5
(I01
I01
I00
tp5058
sba(iModules.cell
Cell
p5059
(dp5060
g4
I00
sg372
I01
sg5
(I01
I01
I00
tp5061
sba(iModules.cell
Cell
p5062
(dp5063
g4
I00
sg372
I01
sg5
(I01
I01
I00
tp5064
sba(iModules.cell
Cell
p5065
(dp5066
g4
I00
sg372
I01
sg5
(I01
I01
I00
tp5067
sba(iModules.cell
Cell
p5068
(dp5069
g4
I00
sg372
I01
sg5
(I01
I01
I00
tp5070
sba(iModules.cell
Cell
p5071
(dp5072
g4
I00
sg372
I01
sg5
(I01
I01
I00
tp5073
sba(iModules.cell
Cell
p5074
(dp5075
g4
I00
sg372
I01
sg5
(I01
I01
I00
tp5076
sba(iModules.cell
Cell
p5077
(dp5078
g4
I00
sg372
I01
sg5
(I01
I01
I00
tp5079
sba(iModules.cell
Cell
p5080
(dp5081
g4
I00
sg372
I01
sg5
(I01
I01
I00
tp5082
sba(iModules.cell
Cell
p5083
(dp5084
g4
I00
sg372
I01
sg5
(I00
I00
I00
tp5085
sba(iModules.cell
Cell
p5086
(dp5087
g4
I00
sg5
(I00
I00
I00
tp5088
sba(iModules.cell
Cell
p5089
(dp5090
g4
I00
sg5
(I00
I00
I00
tp5091
sba(iModules.cell
Cell
p5092
(dp5093
g4
I00
sg5
(I00
I00
I00
tp5094
sba(iModules.cell
Cell
p5095
(dp5096
g4
I00
sg5
(I00
I00
I00
tp5097
sba(iModules.cell
Cell
p5098
(dp5099
g4
I00
sg5
(I00
I00
I00
tp5100
sba(iModules.cell
Cell
p5101
(dp5102
g4
I00
sg5
(I00
I00
I00
tp5103
sba(iModules.cell
Cell
p5104
(dp5105
g4
I00
sg5
(I00
I00
I00
tp5106
sba(iModules.cell
Cell
p5107
(dp5108
g4
I00
sg5
(I00
I00
I00
tp5109
sba(iModules.cell
Cell
p5110
(dp5111
g4
I00
sg5
(I00
I00
I00
tp5112
sba(iModules.cell
Cell
p5113
(dp5114
g4
I00
sg5
(I00
I00
I00
tp5115
sba(iModules.cell
Cell
p5116
(dp5117
g4
I00
sg5
(I00
I00
I00
tp5118
sba(iModules.cell
Cell
p5119
(dp5120
g4
I00
sg5
(I00
I00
I00
tp5121
sba(iModules.cell
Cell
p5122
(dp5123
g4
I00
sg5
(I00
I00
I00
tp5124
sba(iModules.cell
Cell
p5125
(dp5126
g4
I00
sg5
(I00
I00
I00
tp5127
sba(iModules.cell
Cell
p5128
(dp5129
g4
I00
sg5
(I00
I00
I00
tp5130
sba(iModules.cell
Cell
p5131
(dp5132
g4
I00
sg5
(I00
I00
I00
tp5133
sba(iModules.cell
Cell
p5134
(dp5135
g4
I00
sg5
(I00
I00
I00
tp5136
sba(iModules.cell
Cell
p5137
(dp5138
g4
I00
sg5
(I00
I00
I00
tp5139
sba(iModules.cell
Cell
p5140
(dp5141
g5
(I00
I00
I00
tp5142
sbaa(lp5143
(iModules.cell
Cell
p5144
(dp5145
g4
I00
sg5
(I00
I00
I00
tp5146
sba(iModules.cell
Cell
p5147
(dp5148
g4
I00
sg372
I01
sg5
(I00
I00
I00
tp5149
sba(iModules.cell
Cell
p5150
(dp5151
g4
I00
sg372
I01
sg5
(I01
I01
I00
tp5152
sba(iModules.cell
Cell
p5153
(dp5154
g4
I00
sg372
I01
sg5
(I01
I01
I00
tp5155
sba(iModules.cell
Cell
p5156
(dp5157
g4
I00
sg372
I01
sg5
(I01
I01
I00
tp5158
sba(iModules.cell
Cell
p5159
(dp5160
g4
I00
sg372
I01
sg5
(I01
I01
I00
tp5161
sba(iModules.cell
Cell
p5162
(dp5163
g4
I00
sg372
I01
sg5
(I01
I01
I00
tp5164
sba(iModules.cell
Cell
p5165
(dp5166
g4
I00
sg372
I01
sg5
(I01
I01
I00
tp5167
sba(iModules.cell
Cell
p5168
(dp5169
g4
I00
sg372
I01
sg5
(I01
I01
I00
tp5170
sba(iModules.cell
Cell
p5171
(dp5172
g4
I00
sg372
I01
sg5
(I01
I01
I00
tp5173
sba(iModules.cell
Cell
p5174
(dp5175
g4
I00
sg372
I01
sg5
(I01
I01
I00
tp5176
sba(iModules.cell
Cell
p5177
(dp5178
g4
I00
sg372
I01
sg5
(I01
I01
I00
tp5179
sba(iModules.cell
Cell
p5180
(dp5181
g4
I00
sg372
I01
sg5
(I01
I01
I00
tp5182
sba(iModules.cell
Cell
p5183
(dp5184
g4
I00
sg372
I01
sg5
(I01
I01
I00
tp5185
sba(iModules.cell
Cell
p5186
(dp5187
g4
I00
sg372
I01
sg5
(I01
I01
I00
tp5188
sba(iModules.cell
Cell
p5189
(dp5190
g4
I00
sg2981
I01
sg5
(I01
I01
I00
tp5191
sba(iModules.cell
Cell
p5192
(dp5193
g4
I00
sg2981
I01
sg5
(I01
I01
I00
tp5194
sba(iModules.cell
Cell
p5195
(dp5196
g4
I00
sg2981
I01
sg5
(I01
I01
I00
tp5197
sba(iModules.cell
Cell
p5198
(dp5199
g4
I00
sg4223
I01
sg5
(I01
I01
I00
tp5200
sba(iModules.cell
Cell
p5201
(dp5202
g4
I00
sg4223
I01
sg5
(I01
I01
I00
tp5203
sba(iModules.cell
Cell
p5204
(dp5205
g4
I00
sg4223
I01
sg5
(I01
I01
I00
tp5206
sba(iModules.cell
Cell
p5207
(dp5208
g4
I00
sg4223
I01
sg5
(I01
I01
I00
tp5209
sba(iModules.cell
Cell
p5210
(dp5211
g4
I00
sg4223
I01
sg5
(I01
I01
I00
tp5212
sba(iModules.cell
Cell
p5213
(dp5214
g4
I00
sg2499
I01
sg5
(I01
I01
I00
tp5215
sba(iModules.cell
Cell
p5216
(dp5217
g4
I00
sg2499
I01
sg5
(I01
I01
I00
tp5218
sba(iModules.cell
Cell
p5219
(dp5220
g4
I00
sg2499
I01
sg5
(I01
I01
I00
tp5221
sba(iModules.cell
Cell
p5222
(dp5223
g4
I00
sg2499
I01
sg5
(I01
I01
I00
tp5224
sba(iModules.cell
Cell
p5225
(dp5226
g4
I00
sg2499
I01
sg5
(I01
I01
I00
tp5227
sba(iModules.cell
Cell
p5228
(dp5229
g4
I00
sg2499
I01
sg5
(I01
I01
I00
tp5230
sba(iModules.cell
Cell
p5231
(dp5232
g4
I00
sg2499
I01
sg5
(I01
I01
I00
tp5233
sba(iModules.cell
Cell
p5234
(dp5235
g4
I00
sg2499
I01
sg5
(I01
I01
I00
tp5236
sba(iModules.cell
Cell
p5237
(dp5238
g4
I00
sg2499
I01
sg5
(I01
I01
I00
tp5239
sba(iModules.cell
Cell
p5240
(dp5241
g4
I00
sg2499
I01
sg5
(I01
I01
I00
tp5242
sba(iModules.cell
Cell
p5243
(dp5244
g4
I00
sg2499
I01
sg5
(I01
I01
I00
tp5245
sba(iModules.cell
Cell
p5246
(dp5247
g4
I00
sg2499
I01
sg5
(I01
I01
I00
tp5248
sba(iModules.cell
Cell
p5249
(dp5250
g4
I00
sg2499
I01
sg5
(I01
I01
I00
tp5251
sba(iModules.cell
Cell
p5252
(dp5253
g4
I00
sg2554
I01
sg5
(I01
I01
I00
tp5254
sba(iModules.cell
Cell
p5255
(dp5256
g4
I00
sg2554
I01
sg5
(I01
I01
I00
tp5257
sba(iModules.cell
Cell
p5258
(dp5259
g4
I00
sg2554
I01
sg5
(I01
I01
I00
tp5260
sba(iModules.cell
Cell
p5261
(dp5262
g4
I00
sg2554
I01
sg5
(I01
I01
I00
tp5263
sba(iModules.cell
Cell
p5264
(dp5265
g4
I00
sg2554
I01
sg5
(I01
I01
I00
tp5266
sba(iModules.cell
Cell
p5267
(dp5268
g4
I00
sg372
I01
sg5
(I01
I01
I00
tp5269
sba(iModules.cell
Cell
p5270
(dp5271
g4
I00
sg372
I01
sg5
(I01
I01
I00
tp5272
sba(iModules.cell
Cell
p5273
(dp5274
g4
I00
sg372
I01
sg5
(I01
I01
I00
tp5275
sba(iModules.cell
Cell
p5276
(dp5277
g4
I00
sg372
I01
sg5
(I01
I01
I00
tp5278
sba(iModules.cell
Cell
p5279
(dp5280
g4
I00
sg372
I01
sg5
(I01
I01
I00
tp5281
sba(iModules.cell
Cell
p5282
(dp5283
g4
I00
sg372
I01
sg5
(I01
I01
I00
tp5284
sba(iModules.cell
Cell
p5285
(dp5286
g4
I00
sg372
I01
sg5
(I01
I01
I00
tp5287
sba(iModules.cell
Cell
p5288
(dp5289
g4
I00
sg372
I01
sg5
(I01
I01
I00
tp5290
sba(iModules.cell
Cell
p5291
(dp5292
g4
I00
sg372
I01
sg5
(I01
I01
I00
tp5293
sba(iModules.cell
Cell
p5294
(dp5295
g4
I00
sg372
I01
sg5
(I01
I01
I00
tp5296
sba(iModules.cell
Cell
p5297
(dp5298
g4
I00
sg372
I01
sg5
(I01
I01
I00
tp5299
sba(iModules.cell
Cell
p5300
(dp5301
g4
I00
sg372
I01
sg5
(I01
I01
I00
tp5302
sba(iModules.cell
Cell
p5303
(dp5304
g4
I00
sg372
I01
sg5
(I01
I01
I00
tp5305
sba(iModules.cell
Cell
p5306
(dp5307
g4
I00
sg372
I01
sg5
(I01
I01
I00
tp5308
sba(iModules.cell
Cell
p5309
(dp5310
g4
I00
sg372
I01
sg5
(I01
I01
I00
tp5311
sba(iModules.cell
Cell
p5312
(dp5313
g4
I00
sg372
I01
sg5
(I01
I01
I00
tp5314
sba(iModules.cell
Cell
p5315
(dp5316
g4
I00
sg372
I01
sg5
(I01
I01
I00
tp5317
sba(iModules.cell
Cell
p5318
(dp5319
g4
I00
sg372
I01
sg5
(I01
I01
I00
tp5320
sba(iModules.cell
Cell
p5321
(dp5322
g4
I00
sg372
I01
sg5
(I01
I01
I00
tp5323
sba(iModules.cell
Cell
p5324
(dp5325
g4
I00
sg372
I01
sg5
(I01
I01
I00
tp5326
sba(iModules.cell
Cell
p5327
(dp5328
g4
I00
sg372
I01
sg5
(I00
I00
I00
tp5329
sba(iModules.cell
Cell
p5330
(dp5331
g4
I00
sg5
(I01
I01
I00
tp5332
sba(iModules.cell
Cell
p5333
(dp5334
g4
I00
sg5
(I00
I00
I00
tp5335
sba(iModules.cell
Cell
p5336
(dp5337
g4
I00
sg5
(I00
I00
I00
tp5338
sba(iModules.cell
Cell
p5339
(dp5340
g4
I00
sg5
(I00
I00
I00
tp5341
sba(iModules.cell
Cell
p5342
(dp5343
g4
I00
sg5
(I00
I00
I00
tp5344
sba(iModules.cell
Cell
p5345
(dp5346
g4
I00
sg5
(I00
I00
I00
tp5347
sba(iModules.cell
Cell
p5348
(dp5349
g4
I00
sg5
(I00
I00
I00
tp5350
sba(iModules.cell
Cell
p5351
(dp5352
g4
I00
sg5
(I00
I00
I00
tp5353
sba(iModules.cell
Cell
p5354
(dp5355
g4
I00
sg5
(I00
I00
I00
tp5356
sba(iModules.cell
Cell
p5357
(dp5358
g4
I00
sg5
(I00
I00
I00
tp5359
sba(iModules.cell
Cell
p5360
(dp5361
g4
I00
sg5
(I00
I00
I00
tp5362
sba(iModules.cell
Cell
p5363
(dp5364
g4
I00
sg5
(I00
I00
I00
tp5365
sba(iModules.cell
Cell
p5366
(dp5367
g4
I00
sg5
(I00
I00
I00
tp5368
sba(iModules.cell
Cell
p5369
(dp5370
g4
I00
sg5
(I00
I00
I00
tp5371
sba(iModules.cell
Cell
p5372
(dp5373
g4
I00
sg5
(I00
I00
I00
tp5374
sba(iModules.cell
Cell
p5375
(dp5376
g4
I00
sg5
(I00
I00
I00
tp5377
sba(iModules.cell
Cell
p5378
(dp5379
g4
I00
sg5
(I00
I00
I00
tp5380
sba(iModules.cell
Cell
p5381
(dp5382
g4
I00
sg5
(I00
I00
I00
tp5383
sba(iModules.cell
Cell
p5384
(dp5385
g5
(I00
I00
I00
tp5386
sbaa(lp5387
(iModules.cell
Cell
p5388
(dp5389
g4
I00
sg5
(I00
I00
I00
tp5390
sba(iModules.cell
Cell
p5391
(dp5392
g4
I00
sg372
I01
sg5
(I00
I00
I00
tp5393
sba(iModules.cell
Cell
p5394
(dp5395
g4
I00
sg372
I01
sg5
(I00
I00
I00
tp5396
sba(iModules.cell
Cell
p5397
(dp5398
g4
I00
sg372
I01
sg5
(I00
I00
I00
tp5399
sba(iModules.cell
Cell
p5400
(dp5401
g4
I00
sg372
I01
sg5
(I00
I00
I00
tp5402
sba(iModules.cell
Cell
p5403
(dp5404
g4
I00
sg372
I01
sg5
(I00
I00
I00
tp5405
sba(iModules.cell
Cell
p5406
(dp5407
g4
I00
sg372
I01
sg5
(I00
I00
I00
tp5408
sba(iModules.cell
Cell
p5409
(dp5410
g4
I00
sg372
I01
sg5
(I00
I00
I00
tp5411
sba(iModules.cell
Cell
p5412
(dp5413
g4
I00
sg372
I01
sg5
(I00
I00
I00
tp5414
sba(iModules.cell
Cell
p5415
(dp5416
g4
I00
sg372
I01
sg5
(I00
I00
I00
tp5417
sba(iModules.cell
Cell
p5418
(dp5419
g4
I00
sg372
I01
sg5
(I00
I00
I00
tp5420
sba(iModules.cell
Cell
p5421
(dp5422
g4
I00
sg372
I01
sg5
(I00
I00
I00
tp5423
sba(iModules.cell
Cell
p5424
(dp5425
g4
I00
sg372
I01
sg5
(I00
I00
I00
tp5426
sba(iModules.cell
Cell
p5427
(dp5428
g4
I00
sg372
I01
sg5
(I00
I00
I00
tp5429
sba(iModules.cell
Cell
p5430
(dp5431
g4
I00
sg372
I01
sg5
(I00
I00
I00
tp5432
sba(iModules.cell
Cell
p5433
(dp5434
g4
I00
sg372
I01
sg5
(I00
I00
I00
tp5435
sba(iModules.cell
Cell
p5436
(dp5437
g4
I00
sg2981
I01
sg5
(I00
I00
I00
tp5438
sba(iModules.cell
Cell
p5439
(dp5440
g4
I00
sg2981
I01
sg5
(I00
I00
I00
tp5441
sba(iModules.cell
Cell
p5442
(dp5443
g4
I00
sg4223
I01
sg5
(I00
I00
I00
tp5444
sba(iModules.cell
Cell
p5445
(dp5446
g4
I00
sg4223
I01
sg5
(I00
I00
I00
tp5447
sba(iModules.cell
Cell
p5448
(dp5449
g4
I00
sg4223
I01
sg5
(I00
I00
I00
tp5450
sba(iModules.cell
Cell
p5451
(dp5452
g4
I00
sg4223
I01
sg5
(I00
I00
I00
tp5453
sba(iModules.cell
Cell
p5454
(dp5455
g4
I00
sg4223
I01
sg5
(I00
I00
I00
tp5456
sba(iModules.cell
Cell
p5457
(dp5458
g4
I00
sg4223
I01
sg5
(I00
I00
I00
tp5459
sba(iModules.cell
Cell
p5460
(dp5461
g4
I00
sg2499
I01
sg5
(I00
I00
I00
tp5462
sba(iModules.cell
Cell
p5463
(dp5464
g4
I00
sg2499
I01
sg5
(I00
I00
I00
tp5465
sba(iModules.cell
Cell
p5466
(dp5467
g4
I00
sg2499
I01
sg5
(I00
I00
I00
tp5468
sba(iModules.cell
Cell
p5469
(dp5470
g4
I00
sg2499
I01
sg5
(I00
I00
I00
tp5471
sba(iModules.cell
Cell
p5472
(dp5473
g4
I00
sg2499
I01
sg5
(I00
I00
I00
tp5474
sba(iModules.cell
Cell
p5475
(dp5476
g4
I00
sg2499
I01
sg5
(I00
I00
I00
tp5477
sba(iModules.cell
Cell
p5478
(dp5479
g4
I00
sg2499
I01
sg5
(I00
I00
I00
tp5480
sba(iModules.cell
Cell
p5481
(dp5482
g4
I00
sg2499
I01
sg5
(I00
I00
I00
tp5483
sba(iModules.cell
Cell
p5484
(dp5485
g4
I00
sg2499
I01
sg5
(I00
I00
I00
tp5486
sba(iModules.cell
Cell
p5487
(dp5488
g4
I00
sg2499
I01
sg5
(I00
I00
I00
tp5489
sba(iModules.cell
Cell
p5490
(dp5491
g4
I00
sg2499
I01
sg5
(I00
I00
I00
tp5492
sba(iModules.cell
Cell
p5493
(dp5494
g4
I00
sg2499
I01
sg5
(I00
I00
I00
tp5495
sba(iModules.cell
Cell
p5496
(dp5497
g4
I00
sg2554
I01
sg5
(I00
I00
I00
tp5498
sba(iModules.cell
Cell
p5499
(dp5500
g4
I00
sg2554
I01
sg5
(I00
I00
I00
tp5501
sba(iModules.cell
Cell
p5502
(dp5503
g4
I00
sg2554
I01
sg5
(I00
I00
I00
tp5504
sba(iModules.cell
Cell
p5505
(dp5506
g4
I00
sg2554
I01
sg5
(I00
I00
I00
tp5507
sba(iModules.cell
Cell
p5508
(dp5509
g4
I00
sg2554
I01
sg5
(I00
I00
I00
tp5510
sba(iModules.cell
Cell
p5511
(dp5512
g4
I00
sg372
I01
sg5
(I00
I00
I00
tp5513
sba(iModules.cell
Cell
p5514
(dp5515
g4
I00
sg372
I01
sg5
(I00
I00
I00
tp5516
sba(iModules.cell
Cell
p5517
(dp5518
g4
I00
sg372
I01
sg5
(I00
I00
I00
tp5519
sba(iModules.cell
Cell
p5520
(dp5521
g4
I00
sg372
I01
sg5
(I00
I00
I00
tp5522
sba(iModules.cell
Cell
p5523
(dp5524
g4
I00
sg372
I01
sg5
(I00
I00
I00
tp5525
sba(iModules.cell
Cell
p5526
(dp5527
g4
I00
sg372
I01
sg5
(I00
I00
I00
tp5528
sba(iModules.cell
Cell
p5529
(dp5530
g4
I00
sg372
I01
sg5
(I00
I00
I00
tp5531
sba(iModules.cell
Cell
p5532
(dp5533
g4
I00
sg372
I01
sg5
(I00
I00
I00
tp5534
sba(iModules.cell
Cell
p5535
(dp5536
g4
I00
sg372
I01
sg5
(I00
I00
I00
tp5537
sba(iModules.cell
Cell
p5538
(dp5539
g4
I00
sg372
I01
sg5
(I00
I00
I00
tp5540
sba(iModules.cell
Cell
p5541
(dp5542
g4
I00
sg372
I01
sg5
(I00
I00
I00
tp5543
sba(iModules.cell
Cell
p5544
(dp5545
g4
I00
sg372
I01
sg5
(I00
I00
I00
tp5546
sba(iModules.cell
Cell
p5547
(dp5548
g4
I00
sg372
I01
sg5
(I00
I00
I00
tp5549
sba(iModules.cell
Cell
p5550
(dp5551
g4
I00
sg372
I01
sg5
(I00
I00
I00
tp5552
sba(iModules.cell
Cell
p5553
(dp5554
g4
I00
sg372
I01
sg5
(I00
I00
I00
tp5555
sba(iModules.cell
Cell
p5556
(dp5557
g4
I00
sg372
I01
sg5
(I00
I00
I00
tp5558
sba(iModules.cell
Cell
p5559
(dp5560
g4
I00
sg372
I01
sg5
(I00
I00
I00
tp5561
sba(iModules.cell
Cell
p5562
(dp5563
g4
I00
sg372
I01
sg5
(I00
I00
I00
tp5564
sba(iModules.cell
Cell
p5565
(dp5566
g4
I00
sg372
I01
sg5
(I00
I00
I00
tp5567
sba(iModules.cell
Cell
p5568
(dp5569
g4
I00
sg372
I01
sg5
(I00
I00
I00
tp5570
sba(iModules.cell
Cell
p5571
(dp5572
g4
I00
sg372
I01
sg5
(I00
I00
I00
tp5573
sba(iModules.cell
Cell
p5574
(dp5575
g4
I00
sg5
(I00
I00
I00
tp5576
sba(iModules.cell
Cell
p5577
(dp5578
g4
I00
sg5
(I00
I00
I00
tp5579
sba(iModules.cell
Cell
p5580
(dp5581
g4
I00
sg5
(I00
I00
I00
tp5582
sba(iModules.cell
Cell
p5583
(dp5584
g4
I00
sg5
(I00
I00
I00
tp5585
sba(iModules.cell
Cell
p5586
(dp5587
g4
I00
sg5
(I00
I00
I00
tp5588
sba(iModules.cell
Cell
p5589
(dp5590
g4
I00
sg5
(I00
I00
I00
tp5591
sba(iModules.cell
Cell
p5592
(dp5593
g4
I00
sg5
(I00
I00
I00
tp5594
sba(iModules.cell
Cell
p5595
(dp5596
g4
I00
sg5
(I00
I00
I00
tp5597
sba(iModules.cell
Cell
p5598
(dp5599
g4
I00
sg5
(I00
I00
I00
tp5600
sba(iModules.cell
Cell
p5601
(dp5602
g4
I00
sg5
(I00
I00
I00
tp5603
sba(iModules.cell
Cell
p5604
(dp5605
g4
I00
sg5
(I00
I00
I00
tp5606
sba(iModules.cell
Cell
p5607
(dp5608
g4
I00
sg5
(I00
I00
I00
tp5609
sba(iModules.cell
Cell
p5610
(dp5611
g4
I00
sg5
(I00
I00
I00
tp5612
sba(iModules.cell
Cell
p5613
(dp5614
g4
I00
sg5
(I00
I00
I00
tp5615
sba(iModules.cell
Cell
p5616
(dp5617
g4
I00
sg5
(I00
I00
I00
tp5618
sba(iModules.cell
Cell
p5619
(dp5620
g4
I00
sg5
(I00
I00
I00
tp5621
sba(iModules.cell
Cell
p5622
(dp5623
g4
I00
sg5
(I00
I00
I00
tp5624
sba(iModules.cell
Cell
p5625
(dp5626
g4
I00
sg5
(I00
I00
I00
tp5627
sba(iModules.cell
Cell
p5628
(dp5629
g5
(I00
I00
I00
tp5630
sbaa(lp5631
(iModules.cell
Cell
p5632
(dp5633
g5
(I00
I00
I00
tp5634
sba(iModules.cell
Cell
p5635
(dp5636
g5
(I00
I00
I00
tp5637
sba(iModules.cell
Cell
p5638
(dp5639
g5
(I00
I00
I00
tp5640
sba(iModules.cell
Cell
p5641
(dp5642
g5
(I00
I00
I00
tp5643
sba(iModules.cell
Cell
p5644
(dp5645
g5
(I00
I00
I00
tp5646
sba(iModules.cell
Cell
p5647
(dp5648
g5
(I00
I00
I00
tp5649
sba(iModules.cell
Cell
p5650
(dp5651
g5
(I00
I00
I00
tp5652
sba(iModules.cell
Cell
p5653
(dp5654
g5
(I00
I00
I00
tp5655
sba(iModules.cell
Cell
p5656
(dp5657
g5
(I00
I00
I00
tp5658
sba(iModules.cell
Cell
p5659
(dp5660
g5
(I00
I00
I00
tp5661
sba(iModules.cell
Cell
p5662
(dp5663
g5
(I00
I00
I00
tp5664
sba(iModules.cell
Cell
p5665
(dp5666
g5
(I00
I00
I00
tp5667
sba(iModules.cell
Cell
p5668
(dp5669
g5
(I00
I00
I00
tp5670
sba(iModules.cell
Cell
p5671
(dp5672
g5
(I00
I00
I00
tp5673
sba(iModules.cell
Cell
p5674
(dp5675
g5
(I00
I00
I00
tp5676
sba(iModules.cell
Cell
p5677
(dp5678
g5
(I00
I00
I00
tp5679
sba(iModules.cell
Cell
p5680
(dp5681
g5
(I00
I00
I00
tp5682
sba(iModules.cell
Cell
p5683
(dp5684
g5
(I00
I00
I00
tp5685
sba(iModules.cell
Cell
p5686
(dp5687
g5
(I00
I00
I00
tp5688
sba(iModules.cell
Cell
p5689
(dp5690
g5
(I00
I00
I00
tp5691
sba(iModules.cell
Cell
p5692
(dp5693
g5
(I00
I00
I00
tp5694
sba(iModules.cell
Cell
p5695
(dp5696
g5
(I00
I00
I00
tp5697
sba(iModules.cell
Cell
p5698
(dp5699
g5
(I00
I00
I00
tp5700
sba(iModules.cell
Cell
p5701
(dp5702
g5
(I00
I00
I00
tp5703
sba(iModules.cell
Cell
p5704
(dp5705
g5
(I00
I00
I00
tp5706
sba(iModules.cell
Cell
p5707
(dp5708
g5
(I00
I00
I00
tp5709
sba(iModules.cell
Cell
p5710
(dp5711
g5
(I00
I00
I00
tp5712
sba(iModules.cell
Cell
p5713
(dp5714
g5
(I00
I00
I00
tp5715
sba(iModules.cell
Cell
p5716
(dp5717
g5
(I00
I00
I00
tp5718
sba(iModules.cell
Cell
p5719
(dp5720
g5
(I00
I00
I00
tp5721
sba(iModules.cell
Cell
p5722
(dp5723
g5
(I00
I00
I00
tp5724
sba(iModules.cell
Cell
p5725
(dp5726
g5
(I00
I00
I00
tp5727
sba(iModules.cell
Cell
p5728
(dp5729
g5
(I00
I00
I00
tp5730
sba(iModules.cell
Cell
p5731
(dp5732
g5
(I00
I00
I00
tp5733
sba(iModules.cell
Cell
p5734
(dp5735
g5
(I00
I00
I00
tp5736
sba(iModules.cell
Cell
p5737
(dp5738
g5
(I00
I00
I00
tp5739
sba(iModules.cell
Cell
p5740
(dp5741
g5
(I00
I00
I00
tp5742
sba(iModules.cell
Cell
p5743
(dp5744
g5
(I00
I00
I00
tp5745
sba(iModules.cell
Cell
p5746
(dp5747
g5
(I00
I00
I00
tp5748
sba(iModules.cell
Cell
p5749
(dp5750
g5
(I00
I00
I00
tp5751
sba(iModules.cell
Cell
p5752
(dp5753
g5
(I00
I00
I00
tp5754
sba(iModules.cell
Cell
p5755
(dp5756
g5
(I00
I00
I00
tp5757
sba(iModules.cell
Cell
p5758
(dp5759
g5
(I00
I00
I00
tp5760
sba(iModules.cell
Cell
p5761
(dp5762
g5
(I00
I00
I00
tp5763
sba(iModules.cell
Cell
p5764
(dp5765
g5
(I00
I00
I00
tp5766
sba(iModules.cell
Cell
p5767
(dp5768
S'visible'
p5769
I01
sg5
(I00
I00
I00
tp5770
sba(iModules.cell
Cell
p5771
(dp5772
g5769
I01
sg5
(I00
I00
I00
tp5773
sba(iModules.cell
Cell
p5774
(dp5775
g5769
I01
sg5
(I00
I00
I00
tp5776
sba(iModules.cell
Cell
p5777
(dp5778
g5769
I01
sg5
(I00
I00
I00
tp5779
sba(iModules.cell
Cell
p5780
(dp5781
g5
(I00
I00
I00
tp5782
sba(iModules.cell
Cell
p5783
(dp5784
g5
(I00
I00
I00
tp5785
sba(iModules.cell
Cell
p5786
(dp5787
g5
(I00
I00
I00
tp5788
sba(iModules.cell
Cell
p5789
(dp5790
g5
(I00
I00
I00
tp5791
sba(iModules.cell
Cell
p5792
(dp5793
g5
(I00
I00
I00
tp5794
sba(iModules.cell
Cell
p5795
(dp5796
g5
(I00
I00
I00
tp5797
sba(iModules.cell
Cell
p5798
(dp5799
g5
(I00
I00
I00
tp5800
sba(iModules.cell
Cell
p5801
(dp5802
g5
(I00
I00
I00
tp5803
sba(iModules.cell
Cell
p5804
(dp5805
g5
(I00
I00
I00
tp5806
sba(iModules.cell
Cell
p5807
(dp5808
S'visible'
p5809
I01
sg5
(I00
I00
I00
tp5810
sba(iModules.cell
Cell
p5811
(dp5812
g5809
I01
sg5
(I01
I01
I00
tp5813
sba(iModules.cell
Cell
p5814
(dp5815
g5809
I01
sg5
(I00
I00
I00
tp5816
sba(iModules.cell
Cell
p5817
(dp5818
S'visible'
p5819
I01
sg5
(I00
I00
I00
tp5820
sba(iModules.cell
Cell
p5821
(dp5822
g5
(I00
I00
I00
tp5823
sba(iModules.cell
Cell
p5824
(dp5825
g5
(I00
I00
I00
tp5826
sba(iModules.cell
Cell
p5827
(dp5828
g5
(I00
I00
I00
tp5829
sba(iModules.cell
Cell
p5830
(dp5831
g5
(I00
I00
I00
tp5832
sba(iModules.cell
Cell
p5833
(dp5834
g5
(I00
I00
I00
tp5835
sba(iModules.cell
Cell
p5836
(dp5837
g5
(I00
I00
I00
tp5838
sba(iModules.cell
Cell
p5839
(dp5840
g5
(I00
I00
I00
tp5841
sba(iModules.cell
Cell
p5842
(dp5843
g5
(I00
I00
I00
tp5844
sba(iModules.cell
Cell
p5845
(dp5846
g5
(I00
I00
I00
tp5847
sba(iModules.cell
Cell
p5848
(dp5849
g5
(I00
I00
I00
tp5850
sba(iModules.cell
Cell
p5851
(dp5852
g5
(I00
I00
I00
tp5853
sba(iModules.cell
Cell
p5854
(dp5855
g5
(I00
I00
I00
tp5856
sba(iModules.cell
Cell
p5857
(dp5858
g5
(I00
I00
I00
tp5859
sba(iModules.cell
Cell
p5860
(dp5861
g5
(I00
I00
I00
tp5862
sba(iModules.cell
Cell
p5863
(dp5864
g5
(I00
I00
I00
tp5865
sba(iModules.cell
Cell
p5866
(dp5867
g5
(I00
I00
I00
tp5868
sba(iModules.cell
Cell
p5869
(dp5870
g5
(I00
I00
I00
tp5871
sba(iModules.cell
Cell
p5872
(dp5873
g5
(I00
I00
I00
tp5874
sba(iModules.cell
Cell
p5875
(dp5876
g5
(I00
I00
I00
tp5877
sbaa(lp5878
(iModules.cell
Cell
p5879
(dp5880
g5
(I00
I00
I00
tp5881
sba(iModules.cell
Cell
p5882
(dp5883
g5
(I00
I00
I00
tp5884
sba(iModules.cell
Cell
p5885
(dp5886
g5
(I00
I00
I00
tp5887
sba(iModules.cell
Cell
p5888
(dp5889
g5
(I00
I00
I00
tp5890
sba(iModules.cell
Cell
p5891
(dp5892
g5
(I00
I00
I00
tp5893
sba(iModules.cell
Cell
p5894
(dp5895
g5
(I00
I00
I00
tp5896
sba(iModules.cell
Cell
p5897
(dp5898
g5
(I00
I00
I00
tp5899
sba(iModules.cell
Cell
p5900
(dp5901
g5
(I00
I00
I00
tp5902
sba(iModules.cell
Cell
p5903
(dp5904
g5
(I00
I00
I00
tp5905
sba(iModules.cell
Cell
p5906
(dp5907
g5
(I00
I00
I00
tp5908
sba(iModules.cell
Cell
p5909
(dp5910
g5
(I00
I00
I00
tp5911
sba(iModules.cell
Cell
p5912
(dp5913
g5
(I00
I00
I00
tp5914
sba(iModules.cell
Cell
p5915
(dp5916
g5
(I00
I00
I00
tp5917
sba(iModules.cell
Cell
p5918
(dp5919
g5
(I00
I00
I00
tp5920
sba(iModules.cell
Cell
p5921
(dp5922
g5
(I00
I00
I00
tp5923
sba(iModules.cell
Cell
p5924
(dp5925
g5
(I00
I00
I00
tp5926
sba(iModules.cell
Cell
p5927
(dp5928
g5
(I00
I00
I00
tp5929
sba(iModules.cell
Cell
p5930
(dp5931
g5
(I00
I00
I00
tp5932
sba(iModules.cell
Cell
p5933
(dp5934
g5
(I00
I00
I00
tp5935
sba(iModules.cell
Cell
p5936
(dp5937
g5
(I00
I00
I00
tp5938
sba(iModules.cell
Cell
p5939
(dp5940
g5
(I00
I00
I00
tp5941
sba(iModules.cell
Cell
p5942
(dp5943
g5
(I00
I00
I00
tp5944
sba(iModules.cell
Cell
p5945
(dp5946
g5
(I00
I00
I00
tp5947
sba(iModules.cell
Cell
p5948
(dp5949
g5
(I00
I00
I00
tp5950
sba(iModules.cell
Cell
p5951
(dp5952
g5
(I00
I00
I00
tp5953
sba(iModules.cell
Cell
p5954
(dp5955
g5
(I00
I00
I00
tp5956
sba(iModules.cell
Cell
p5957
(dp5958
g5
(I00
I00
I00
tp5959
sba(iModules.cell
Cell
p5960
(dp5961
g5
(I00
I00
I00
tp5962
sba(iModules.cell
Cell
p5963
(dp5964
g5
(I00
I00
I00
tp5965
sba(iModules.cell
Cell
p5966
(dp5967
g5
(I00
I00
I00
tp5968
sba(iModules.cell
Cell
p5969
(dp5970
g5
(I00
I00
I00
tp5971
sba(iModules.cell
Cell
p5972
(dp5973
g5
(I00
I00
I00
tp5974
sba(iModules.cell
Cell
p5975
(dp5976
g5
(I00
I00
I00
tp5977
sba(iModules.cell
Cell
p5978
(dp5979
g5
(I00
I00
I00
tp5980
sba(iModules.cell
Cell
p5981
(dp5982
g5
(I00
I00
I00
tp5983
sba(iModules.cell
Cell
p5984
(dp5985
g5
(I00
I00
I00
tp5986
sba(iModules.cell
Cell
p5987
(dp5988
g5
(I00
I00
I00
tp5989
sba(iModules.cell
Cell
p5990
(dp5991
g5
(I00
I00
I00
tp5992
sba(iModules.cell
Cell
p5993
(dp5994
g5
(I00
I00
I00
tp5995
sba(iModules.cell
Cell
p5996
(dp5997
g5
(I00
I00
I00
tp5998
sba(iModules.cell
Cell
p5999
(dp6000
g5
(I00
I00
I00
tp6001
sba(iModules.cell
Cell
p6002
(dp6003
g5
(I00
I00
I00
tp6004
sba(iModules.cell
Cell
p6005
(dp6006
g5
(I00
I00
I00
tp6007
sba(iModules.cell
Cell
p6008
(dp6009
g5
(I00
I00
I00
tp6010
sba(iModules.cell
Cell
p6011
(dp6012
g5
(I00
I00
I00
tp6013
sba(iModules.cell
Cell
p6014
(dp6015
g5
(I00
I00
I00
tp6016
sba(iModules.cell
Cell
p6017
(dp6018
g5
(I00
I00
I00
tp6019
sba(iModules.cell
Cell
p6020
(dp6021
g5
(I00
I00
I00
tp6022
sba(iModules.cell
Cell
p6023
(dp6024
g5
(I00
I00
I00
tp6025
sba(iModules.cell
Cell
p6026
(dp6027
g5
(I00
I00
I00
tp6028
sba(iModules.cell
Cell
p6029
(dp6030
g5
(I00
I00
I00
tp6031
sba(iModules.cell
Cell
p6032
(dp6033
g5
(I00
I00
I00
tp6034
sba(iModules.cell
Cell
p6035
(dp6036
g5
(I00
I00
I00
tp6037
sba(iModules.cell
Cell
p6038
(dp6039
g5
(I00
I00
I00
tp6040
sba(iModules.cell
Cell
p6041
(dp6042
g5
(I00
I00
I00
tp6043
sba(iModules.cell
Cell
p6044
(dp6045
g5
(I00
I00
I00
tp6046
sba(iModules.cell
Cell
p6047
(dp6048
g5
(I00
I00
I00
tp6049
sba(iModules.cell
Cell
p6050
(dp6051
g5
(I00
I00
I00
tp6052
sba(iModules.cell
Cell
p6053
(dp6054
g5
(I00
I00
I00
tp6055
sba(iModules.cell
Cell
p6056
(dp6057
g5
(I01
I01
I00
tp6058
sba(iModules.cell
Cell
p6059
(dp6060
g5
(I00
I00
I00
tp6061
sba(iModules.cell
Cell
p6062
(dp6063
g5
(I00
I00
I00
tp6064
sba(iModules.cell
Cell
p6065
(dp6066
g5
(I00
I00
I00
tp6067
sba(iModules.cell
Cell
p6068
(dp6069
g5
(I00
I00
I00
tp6070
sba(iModules.cell
Cell
p6071
(dp6072
g5
(I00
I00
I00
tp6073
sba(iModules.cell
Cell
p6074
(dp6075
g5
(I00
I00
I00
tp6076
sba(iModules.cell
Cell
p6077
(dp6078
g5
(I00
I00
I00
tp6079
sba(iModules.cell
Cell
p6080
(dp6081
g5
(I00
I00
I00
tp6082
sba(iModules.cell
Cell
p6083
(dp6084
g5
(I00
I00
I00
tp6085
sba(iModules.cell
Cell
p6086
(dp6087
g5
(I00
I00
I00
tp6088
sba(iModules.cell
Cell
p6089
(dp6090
g5
(I00
I00
I00
tp6091
sba(iModules.cell
Cell
p6092
(dp6093
g5
(I00
I00
I00
tp6094
sba(iModules.cell
Cell
p6095
(dp6096
g5
(I00
I00
I00
tp6097
sba(iModules.cell
Cell
p6098
(dp6099
g5
(I00
I00
I00
tp6100
sba(iModules.cell
Cell
p6101
(dp6102
g5
(I00
I00
I00
tp6103
sba(iModules.cell
Cell
p6104
(dp6105
g5
(I00
I00
I00
tp6106
sba(iModules.cell
Cell
p6107
(dp6108
g5
(I00
I00
I00
tp6109
sba(iModules.cell
Cell
p6110
(dp6111
g5
(I00
I00
I00
tp6112
sba(iModules.cell
Cell
p6113
(dp6114
g5
(I00
I00
I00
tp6115
sba(iModules.cell
Cell
p6116
(dp6117
g5
(I00
I00
I00
tp6118
sba(iModules.cell
Cell
p6119
(dp6120
g5
(I00
I00
I00
tp6121
sbaa.