(lp0
(lp1
(iModules.cell
Cell
p2
(dp3
S'fov'
p4
I00
sS'visible'
p5
I00
sS'turns'
p6
I81
sS'hp'
p7
I30
sS'pc'
p8
(lp9
I8
aI8
asS'sc'
p10
(lp11
I5
aI21
asS'type'
p12
(I00
I00
tp13
sba(iModules.cell
Cell
p14
(dp15
g5
I00
sg12
(I00
I00
tp16
sba(iModules.cell
Cell
p17
(dp18
g5
I00
sg12
(I00
I00
tp19
sba(iModules.cell
Cell
p20
(dp21
g5
I00
sg12
(I00
I00
tp22
sba(iModules.cell
Cell
p23
(dp24
g5
I00
sg12
(I00
I00
tp25
sba(iModules.cell
Cell
p26
(dp27
g5
I00
sg12
(I00
I00
tp28
sba(iModules.cell
Cell
p29
(dp30
g5
I00
sg12
(I00
I00
tp31
sba(iModules.cell
Cell
p32
(dp33
g5
I00
sg12
(I00
I00
tp34
sba(iModules.cell
Cell
p35
(dp36
g5
I00
sg12
(I00
I00
tp37
sba(iModules.cell
Cell
p38
(dp39
g5
I00
sg12
(I00
I00
tp40
sba(iModules.cell
Cell
p41
(dp42
g5
I00
sg12
(I00
I00
tp43
sba(iModules.cell
Cell
p44
(dp45
g5
I00
sg12
(I00
I00
tp46
sba(iModules.cell
Cell
p47
(dp48
g5
I00
sg12
(I00
I00
tp49
sba(iModules.cell
Cell
p50
(dp51
g5
I00
sg12
(I00
I00
tp52
sba(iModules.cell
Cell
p53
(dp54
g5
I00
sg12
(I00
I00
tp55
sba(iModules.cell
Cell
p56
(dp57
g5
I00
sg12
(I00
I00
tp58
sba(iModules.cell
Cell
p59
(dp60
g5
I00
sg12
(I00
I00
tp61
sba(iModules.cell
Cell
p62
(dp63
g5
I00
sg12
(I00
I00
tp64
sba(iModules.cell
Cell
p65
(dp66
g5
I00
sg12
(I00
I00
tp67
sba(iModules.cell
Cell
p68
(dp69
g5
I00
sg12
(I00
I00
tp70
sba(iModules.cell
Cell
p71
(dp72
g5
I00
sg12
(I00
I00
tp73
sba(iModules.cell
Cell
p74
(dp75
g5
I00
sg12
(I00
I00
tp76
sba(iModules.cell
Cell
p77
(dp78
g5
I00
sg12
(I00
I00
tp79
sba(iModules.cell
Cell
p80
(dp81
g5
I00
sg12
(I00
I00
tp82
sba(iModules.cell
Cell
p83
(dp84
g5
I00
sg12
(I00
I00
tp85
sba(iModules.cell
Cell
p86
(dp87
g5
I00
sg12
(I00
I00
tp88
sba(iModules.cell
Cell
p89
(dp90
g5
I00
sg12
(I00
I00
tp91
sba(iModules.cell
Cell
p92
(dp93
g5
I00
sg12
(I00
I00
tp94
sba(iModules.cell
Cell
p95
(dp96
g5
I00
sg12
(I00
I00
tp97
sba(iModules.cell
Cell
p98
(dp99
g5
I00
sg12
(I00
I00
tp100
sba(iModules.cell
Cell
p101
(dp102
g5
I00
sg12
(I00
I00
tp103
sba(iModules.cell
Cell
p104
(dp105
g5
I00
sg12
(I00
I00
tp106
sba(iModules.cell
Cell
p107
(dp108
g5
I00
sg12
(I00
I00
tp109
sba(iModules.cell
Cell
p110
(dp111
g5
I00
sg12
(I00
I00
tp112
sba(iModules.cell
Cell
p113
(dp114
g5
I00
sg12
(I00
I00
tp115
sba(iModules.cell
Cell
p116
(dp117
g5
I00
sg12
(I00
I00
tp118
sba(iModules.cell
Cell
p119
(dp120
g5
I00
sg12
(I00
I00
tp121
sba(iModules.cell
Cell
p122
(dp123
g5
I00
sg12
(I00
I00
tp124
sba(iModules.cell
Cell
p125
(dp126
g5
I00
sg12
(I00
I00
tp127
sba(iModules.cell
Cell
p128
(dp129
g5
I00
sg12
(I00
I00
tp130
sba(iModules.cell
Cell
p131
(dp132
g5
I00
sg12
(I00
I00
tp133
sba(iModules.cell
Cell
p134
(dp135
g5
I00
sg12
(I00
I00
tp136
sba(iModules.cell
Cell
p137
(dp138
g5
I00
sg12
(I00
I00
tp139
sba(iModules.cell
Cell
p140
(dp141
g5
I00
sg12
(I00
I00
tp142
sba(iModules.cell
Cell
p143
(dp144
g5
I00
sg12
(I00
I00
tp145
sba(iModules.cell
Cell
p146
(dp147
g5
I00
sg12
(I00
I00
tp148
sba(iModules.cell
Cell
p149
(dp150
g5
I00
sg12
(I00
I00
tp151
sba(iModules.cell
Cell
p152
(dp153
g5
I00
sg12
(I00
I00
tp154
sba(iModules.cell
Cell
p155
(dp156
g5
I00
sg12
(I00
I00
tp157
sba(iModules.cell
Cell
p158
(dp159
g5
I00
sg12
(I00
I00
tp160
sba(iModules.cell
Cell
p161
(dp162
g5
I00
sg12
(I00
I00
tp163
sba(iModules.cell
Cell
p164
(dp165
g5
I00
sg12
(I00
I00
tp166
sba(iModules.cell
Cell
p167
(dp168
g5
I00
sg12
(I00
I00
tp169
sba(iModules.cell
Cell
p170
(dp171
g5
I00
sg12
(I00
I00
tp172
sba(iModules.cell
Cell
p173
(dp174
g5
I00
sg12
(I00
I00
tp175
sba(iModules.cell
Cell
p176
(dp177
g5
I00
sg12
(I00
I00
tp178
sba(iModules.cell
Cell
p179
(dp180
g5
I00
sg12
(I00
I00
tp181
sba(iModules.cell
Cell
p182
(dp183
g5
I00
sg12
(I00
I00
tp184
sba(iModules.cell
Cell
p185
(dp186
g5
I00
sg12
(I00
I00
tp187
sba(iModules.cell
Cell
p188
(dp189
g5
I00
sg12
(I00
I00
tp190
sba(iModules.cell
Cell
p191
(dp192
g5
I00
sg12
(I00
I00
tp193
sba(iModules.cell
Cell
p194
(dp195
g5
I00
sg12
(I00
I00
tp196
sba(iModules.cell
Cell
p197
(dp198
g5
I00
sg12
(I00
I00
tp199
sba(iModules.cell
Cell
p200
(dp201
g5
I00
sg12
(I00
I00
tp202
sba(iModules.cell
Cell
p203
(dp204
g5
I00
sg12
(I00
I00
tp205
sba(iModules.cell
Cell
p206
(dp207
g5
I00
sg12
(I00
I00
tp208
sba(iModules.cell
Cell
p209
(dp210
g5
I00
sg12
(I00
I00
tp211
sba(iModules.cell
Cell
p212
(dp213
g5
I00
sg12
(I00
I00
tp214
sba(iModules.cell
Cell
p215
(dp216
g5
I00
sg12
(I00
I00
tp217
sba(iModules.cell
Cell
p218
(dp219
g5
I00
sg12
(I00
I00
tp220
sba(iModules.cell
Cell
p221
(dp222
g5
I00
sg12
(I00
I00
tp223
sba(iModules.cell
Cell
p224
(dp225
g5
I00
sg12
(I00
I00
tp226
sba(iModules.cell
Cell
p227
(dp228
g5
I00
sg12
(I00
I00
tp229
sba(iModules.cell
Cell
p230
(dp231
g5
I00
sg12
(I00
I00
tp232
sba(iModules.cell
Cell
p233
(dp234
g5
I00
sg12
(I00
I00
tp235
sba(iModules.cell
Cell
p236
(dp237
g5
I00
sg12
(I00
I00
tp238
sba(iModules.cell
Cell
p239
(dp240
g5
I00
sg12
(I00
I00
tp241
sba(iModules.cell
Cell
p242
(dp243
g5
I00
sg12
(I00
I00
tp244
sba(iModules.cell
Cell
p245
(dp246
g5
I00
sg12
(I00
I00
tp247
sba(iModules.cell
Cell
p248
(dp249
g5
I00
sg12
(I00
I00
tp250
sba(iModules.cell
Cell
p251
(dp252
g12
(I00
I00
tp253
sbaa(lp254
(iModules.cell
Cell
p255
(dp256
g5
I00
sg12
(I00
I00
tp257
sba(iModules.cell
Cell
p258
(dp259
g5
I00
sS'explored'
p260
I01
sg12
(I00
I00
tp261
sba(iModules.cell
Cell
p262
(dp263
g5
I00
sg260
I01
sg12
(I00
I00
tp264
sba(iModules.cell
Cell
p265
(dp266
g5
I00
sg260
I01
sg12
(I00
I00
tp267
sba(iModules.cell
Cell
p268
(dp269
g5
I00
sg260
I01
sg12
(I00
I00
tp270
sba(iModules.cell
Cell
p271
(dp272
g5
I00
sg260
I01
sg12
(I00
I00
tp273
sba(iModules.cell
Cell
p274
(dp275
g5
I01
sg260
I01
sg12
(I00
I00
tp276
sba(iModules.cell
Cell
p277
(dp278
g5
I01
sg260
I01
sg12
(I00
I00
tp279
sba(iModules.cell
Cell
p280
(dp281
g5
I01
sg260
I01
sg12
(I00
I00
tp282
sba(iModules.cell
Cell
p283
(dp284
g5
I01
sg260
I01
sg12
(I00
I00
tp285
sba(iModules.cell
Cell
p286
(dp287
g5
I01
sg260
I01
sg12
(I00
I00
tp288
sba(iModules.cell
Cell
p289
(dp290
g5
I01
sg260
I01
sg12
(I00
I00
tp291
sba(iModules.cell
Cell
p292
(dp293
g5
I01
sg260
I01
sg12
(I00
I00
tp294
sba(iModules.cell
Cell
p295
(dp296
g5
I01
sg260
I01
sg12
(I00
I00
tp297
sba(iModules.cell
Cell
p298
(dp299
g5
I00
sg260
I01
sg12
(I00
I00
tp300
sba(iModules.cell
Cell
p301
(dp302
g5
I00
sg260
I01
sg12
(I00
I00
tp303
sba(iModules.cell
Cell
p304
(dp305
g5
I00
sg260
I01
sg12
(I00
I00
tp306
sba(iModules.cell
Cell
p307
(dp308
g5
I00
sg260
I01
sg12
(I00
I00
tp309
sba(iModules.cell
Cell
p310
(dp311
g5
I00
sg260
I01
sg12
(I00
I00
tp312
sba(iModules.cell
Cell
p313
(dp314
g5
I00
sg260
I01
sg12
(I00
I00
tp315
sba(iModules.cell
Cell
p316
(dp317
g5
I00
sg260
I01
sg12
(I00
I00
tp318
sba(iModules.cell
Cell
p319
(dp320
g5
I00
sg260
I01
sg12
(I00
I00
tp321
sba(iModules.cell
Cell
p322
(dp323
g5
I00
sg260
I01
sg12
(I00
I00
tp324
sba(iModules.cell
Cell
p325
(dp326
g5
I00
sg260
I01
sg12
(I00
I00
tp327
sba(iModules.cell
Cell
p328
(dp329
g5
I00
sg260
I01
sg12
(I00
I00
tp330
sba(iModules.cell
Cell
p331
(dp332
g5
I00
sg260
I01
sg12
(I00
I00
tp333
sba(iModules.cell
Cell
p334
(dp335
g5
I00
sg260
I01
sg12
(I00
I00
tp336
sba(iModules.cell
Cell
p337
(dp338
g5
I00
sg260
I01
sg12
(I00
I00
tp339
sba(iModules.cell
Cell
p340
(dp341
g5
I00
sg260
I01
sg12
(I00
I00
tp342
sba(iModules.cell
Cell
p343
(dp344
g5
I00
sg260
I01
sg12
(I00
I00
tp345
sba(iModules.cell
Cell
p346
(dp347
g5
I00
sg12
(I00
I00
tp348
sba(iModules.cell
Cell
p349
(dp350
g5
I00
sg12
(I00
I00
tp351
sba(iModules.cell
Cell
p352
(dp353
g5
I00
sg12
(I00
I00
tp354
sba(iModules.cell
Cell
p355
(dp356
g5
I00
sg12
(I00
I00
tp357
sba(iModules.cell
Cell
p358
(dp359
g5
I00
sg12
(I00
I00
tp360
sba(iModules.cell
Cell
p361
(dp362
g5
I00
sg12
(I00
I00
tp363
sba(iModules.cell
Cell
p364
(dp365
g5
I00
sg12
(I00
I00
tp366
sba(iModules.cell
Cell
p367
(dp368
g5
I00
sg12
(I00
I00
tp369
sba(iModules.cell
Cell
p370
(dp371
g5
I00
sg12
(I00
I00
tp372
sba(iModules.cell
Cell
p373
(dp374
g5
I00
sg12
(I00
I00
tp375
sba(iModules.cell
Cell
p376
(dp377
g5
I00
sg12
(I00
I00
tp378
sba(iModules.cell
Cell
p379
(dp380
g5
I00
sg12
(I00
I00
tp381
sba(iModules.cell
Cell
p382
(dp383
g5
I00
sg12
(I00
I00
tp384
sba(iModules.cell
Cell
p385
(dp386
g5
I00
sg12
(I00
I00
tp387
sba(iModules.cell
Cell
p388
(dp389
g5
I00
sg12
(I00
I00
tp390
sba(iModules.cell
Cell
p391
(dp392
g5
I00
sg12
(I00
I00
tp393
sba(iModules.cell
Cell
p394
(dp395
g5
I00
sg12
(I00
I00
tp396
sba(iModules.cell
Cell
p397
(dp398
g5
I00
sg12
(I00
I00
tp399
sba(iModules.cell
Cell
p400
(dp401
g5
I00
sg12
(I00
I00
tp402
sba(iModules.cell
Cell
p403
(dp404
g5
I00
sg12
(I00
I00
tp405
sba(iModules.cell
Cell
p406
(dp407
g5
I00
sg12
(I00
I00
tp408
sba(iModules.cell
Cell
p409
(dp410
g5
I00
sg12
(I00
I00
tp411
sba(iModules.cell
Cell
p412
(dp413
g5
I00
sg12
(I00
I00
tp414
sba(iModules.cell
Cell
p415
(dp416
g5
I00
sg12
(I00
I00
tp417
sba(iModules.cell
Cell
p418
(dp419
g5
I00
sg12
(I00
I00
tp420
sba(iModules.cell
Cell
p421
(dp422
g5
I00
sg12
(I00
I00
tp423
sba(iModules.cell
Cell
p424
(dp425
g5
I00
sg12
(I00
I00
tp426
sba(iModules.cell
Cell
p427
(dp428
g5
I00
sg12
(I00
I00
tp429
sba(iModules.cell
Cell
p430
(dp431
g5
I00
sg12
(I00
I00
tp432
sba(iModules.cell
Cell
p433
(dp434
g5
I00
sg12
(I00
I00
tp435
sba(iModules.cell
Cell
p436
(dp437
g5
I00
sg12
(I00
I00
tp438
sba(iModules.cell
Cell
p439
(dp440
g5
I00
sg12
(I00
I00
tp441
sba(iModules.cell
Cell
p442
(dp443
g5
I00
sg12
(I00
I00
tp444
sba(iModules.cell
Cell
p445
(dp446
g5
I00
sg12
(I00
I00
tp447
sba(iModules.cell
Cell
p448
(dp449
g5
I00
sg12
(I00
I00
tp450
sba(iModules.cell
Cell
p451
(dp452
g5
I00
sg12
(I00
I00
tp453
sba(iModules.cell
Cell
p454
(dp455
g5
I00
sg12
(I00
I00
tp456
sba(iModules.cell
Cell
p457
(dp458
g5
I00
sg12
(I00
I00
tp459
sba(iModules.cell
Cell
p460
(dp461
g5
I00
sg12
(I00
I00
tp462
sba(iModules.cell
Cell
p463
(dp464
g5
I00
sg12
(I00
I00
tp465
sba(iModules.cell
Cell
p466
(dp467
g5
I00
sg12
(I00
I00
tp468
sba(iModules.cell
Cell
p469
(dp470
g5
I00
sg12
(I00
I00
tp471
sba(iModules.cell
Cell
p472
(dp473
g5
I00
sg12
(I00
I00
tp474
sba(iModules.cell
Cell
p475
(dp476
g5
I00
sg12
(I00
I00
tp477
sba(iModules.cell
Cell
p478
(dp479
g5
I00
sg12
(I00
I00
tp480
sba(iModules.cell
Cell
p481
(dp482
g5
I00
sg12
(I00
I00
tp483
sba(iModules.cell
Cell
p484
(dp485
g5
I00
sg12
(I00
I00
tp486
sba(iModules.cell
Cell
p487
(dp488
g5
I00
sg12
(I00
I00
tp489
sba(iModules.cell
Cell
p490
(dp491
g5
I00
sg12
(I00
I00
tp492
sba(iModules.cell
Cell
p493
(dp494
g5
I00
sg12
(I00
I00
tp495
sba(iModules.cell
Cell
p496
(dp497
g12
(I00
I00
tp498
sbaa(lp499
(iModules.cell
Cell
p500
(dp501
g5
I00
sg12
(I00
I00
tp502
sba(iModules.cell
Cell
p503
(dp504
g5
I00
sg260
I01
sg12
(I00
I00
tp505
sba(iModules.cell
Cell
p506
(dp507
g5
I00
sg260
I01
sg12
(I01
I01
tp508
sba(iModules.cell
Cell
p509
(dp510
g5
I00
sg260
I01
sg12
(I01
I01
tp511
sba(iModules.cell
Cell
p512
(dp513
g5
I00
sg260
I01
sg12
(I01
I01
tp514
sba(iModules.cell
Cell
p515
(dp516
g5
I00
sg260
I01
sg12
(I01
I01
tp517
sba(iModules.cell
Cell
p518
(dp519
g5
I01
sg260
I01
sg12
(I01
I01
tp520
sba(iModules.cell
Cell
p521
(dp522
g5
I01
sg260
I01
sg12
(I01
I01
tp523
sba(iModules.cell
Cell
p524
(dp525
g5
I01
sg260
I01
sg12
(I01
I01
tp526
sba(iModules.cell
Cell
p527
(dp528
g5
I01
sg260
I01
sg12
(I01
I01
tp529
sba(iModules.cell
Cell
p530
(dp531
g5
I01
sg260
I01
sg12
(I01
I01
tp532
sba(iModules.cell
Cell
p533
(dp534
g5
I01
sg260
I01
sg12
(I01
I01
tp535
sba(iModules.cell
Cell
p536
(dp537
g5
I01
sg260
I01
sg12
(I01
I01
tp538
sba(iModules.cell
Cell
p539
(dp540
g5
I01
sg260
I01
sg12
(I01
I01
tp541
sba(iModules.cell
Cell
p542
(dp543
g5
I00
sg260
I01
sg12
(I01
I01
tp544
sba(iModules.cell
Cell
p545
(dp546
g5
I00
sg260
I01
sg12
(I01
I01
tp547
sba(iModules.cell
Cell
p548
(dp549
g5
I00
sg260
I01
sg12
(I01
I01
tp550
sba(iModules.cell
Cell
p551
(dp552
g5
I00
sg260
I01
sg12
(I01
I01
tp553
sba(iModules.cell
Cell
p554
(dp555
g5
I00
sg260
I01
sg12
(I01
I01
tp556
sba(iModules.cell
Cell
p557
(dp558
g5
I00
sg260
I01
sg12
(I01
I01
tp559
sba(iModules.cell
Cell
p560
(dp561
g5
I00
sg260
I01
sg12
(I01
I01
tp562
sba(iModules.cell
Cell
p563
(dp564
g5
I00
sg260
I01
sg12
(I01
I01
tp565
sba(iModules.cell
Cell
p566
(dp567
g5
I00
sg260
I01
sg12
(I01
I01
tp568
sba(iModules.cell
Cell
p569
(dp570
g5
I00
sg260
I01
sg12
(I01
I01
tp571
sba(iModules.cell
Cell
p572
(dp573
g5
I00
sg260
I01
sg12
(I01
I01
tp574
sba(iModules.cell
Cell
p575
(dp576
g5
I00
sg260
I01
sg12
(I01
I01
tp577
sba(iModules.cell
Cell
p578
(dp579
g5
I00
sg260
I01
sg12
(I01
I01
tp580
sba(iModules.cell
Cell
p581
(dp582
g5
I00
sg260
I01
sg12
(I01
I01
tp583
sba(iModules.cell
Cell
p584
(dp585
g5
I00
sg260
I01
sg12
(I01
I01
tp586
sba(iModules.cell
Cell
p587
(dp588
g5
I00
sg260
I01
sg12
(I01
I01
tp589
sba(iModules.cell
Cell
p590
(dp591
g5
I00
sg12
(I01
I01
tp592
sba(iModules.cell
Cell
p593
(dp594
g5
I00
sg12
(I01
I01
tp595
sba(iModules.cell
Cell
p596
(dp597
g5
I00
sg12
(I01
I01
tp598
sba(iModules.cell
Cell
p599
(dp600
g5
I00
sg12
(I01
I01
tp601
sba(iModules.cell
Cell
p602
(dp603
g5
I00
sg12
(I01
I01
tp604
sba(iModules.cell
Cell
p605
(dp606
g5
I00
sg12
(I01
I01
tp607
sba(iModules.cell
Cell
p608
(dp609
g5
I00
sg12
(I01
I01
tp610
sba(iModules.cell
Cell
p611
(dp612
g5
I00
sg12
(I01
I01
tp613
sba(iModules.cell
Cell
p614
(dp615
g5
I00
sg12
(I01
I01
tp616
sba(iModules.cell
Cell
p617
(dp618
g5
I00
sg12
(I01
I01
tp619
sba(iModules.cell
Cell
p620
(dp621
g5
I00
sg12
(I01
I01
tp622
sba(iModules.cell
Cell
p623
(dp624
g5
I00
sg12
(I01
I01
tp625
sba(iModules.cell
Cell
p626
(dp627
g5
I00
sg12
(I01
I01
tp628
sba(iModules.cell
Cell
p629
(dp630
g5
I00
sg12
(I01
I01
tp631
sba(iModules.cell
Cell
p632
(dp633
g5
I00
sg12
(I01
I01
tp634
sba(iModules.cell
Cell
p635
(dp636
g5
I00
sg12
(I01
I01
tp637
sba(iModules.cell
Cell
p638
(dp639
g5
I00
sg12
(I01
I01
tp640
sba(iModules.cell
Cell
p641
(dp642
g5
I00
sg12
(I01
I01
tp643
sba(iModules.cell
Cell
p644
(dp645
g5
I00
sg12
(I01
I01
tp646
sba(iModules.cell
Cell
p647
(dp648
g5
I00
sg12
(I01
I01
tp649
sba(iModules.cell
Cell
p650
(dp651
g5
I00
sg12
(I01
I01
tp652
sba(iModules.cell
Cell
p653
(dp654
g5
I00
sg12
(I01
I01
tp655
sba(iModules.cell
Cell
p656
(dp657
g5
I00
sg12
(I01
I01
tp658
sba(iModules.cell
Cell
p659
(dp660
g5
I00
sg12
(I01
I01
tp661
sba(iModules.cell
Cell
p662
(dp663
g5
I00
sg12
(I01
I01
tp664
sba(iModules.cell
Cell
p665
(dp666
g5
I00
sg12
(I01
I01
tp667
sba(iModules.cell
Cell
p668
(dp669
g5
I00
sg12
(I01
I01
tp670
sba(iModules.cell
Cell
p671
(dp672
g5
I00
sg12
(I01
I01
tp673
sba(iModules.cell
Cell
p674
(dp675
g5
I00
sg12
(I01
I01
tp676
sba(iModules.cell
Cell
p677
(dp678
g5
I00
sg12
(I01
I01
tp679
sba(iModules.cell
Cell
p680
(dp681
g5
I00
sg12
(I01
I01
tp682
sba(iModules.cell
Cell
p683
(dp684
g5
I00
sg12
(I00
I00
tp685
sba(iModules.cell
Cell
p686
(dp687
g5
I00
sg12
(I00
I00
tp688
sba(iModules.cell
Cell
p689
(dp690
g5
I00
sg12
(I00
I00
tp691
sba(iModules.cell
Cell
p692
(dp693
g5
I00
sg12
(I00
I00
tp694
sba(iModules.cell
Cell
p695
(dp696
g5
I00
sg12
(I00
I00
tp697
sba(iModules.cell
Cell
p698
(dp699
g5
I00
sg12
(I00
I00
tp700
sba(iModules.cell
Cell
p701
(dp702
g5
I00
sg12
(I00
I00
tp703
sba(iModules.cell
Cell
p704
(dp705
g5
I00
sg12
(I00
I00
tp706
sba(iModules.cell
Cell
p707
(dp708
g5
I00
sg12
(I00
I00
tp709
sba(iModules.cell
Cell
p710
(dp711
g5
I00
sg12
(I00
I00
tp712
sba(iModules.cell
Cell
p713
(dp714
g5
I00
sg12
(I00
I00
tp715
sba(iModules.cell
Cell
p716
(dp717
g5
I00
sg12
(I00
I00
tp718
sba(iModules.cell
Cell
p719
(dp720
g5
I00
sg12
(I00
I00
tp721
sba(iModules.cell
Cell
p722
(dp723
g5
I00
sg12
(I00
I00
tp724
sba(iModules.cell
Cell
p725
(dp726
g5
I00
sg12
(I00
I00
tp727
sba(iModules.cell
Cell
p728
(dp729
g5
I00
sg12
(I00
I00
tp730
sba(iModules.cell
Cell
p731
(dp732
g5
I00
sg12
(I00
I00
tp733
sba(iModules.cell
Cell
p734
(dp735
g5
I00
sg12
(I00
I00
tp736
sba(iModules.cell
Cell
p737
(dp738
g5
I00
sg12
(I00
I00
tp739
sba(iModules.cell
Cell
p740
(dp741
g12
(I00
I00
tp742
sbaa(lp743
(iModules.cell
Cell
p744
(dp745
g5
I00
sg12
(I00
I00
tp746
sba(iModules.cell
Cell
p747
(dp748
g5
I00
sg260
I01
sg12
(I00
I00
tp749
sba(iModules.cell
Cell
p750
(dp751
g5
I00
sg260
I01
sg12
(I01
I01
tp752
sba(iModules.cell
Cell
p753
(dp754
g5
I00
sg260
I01
sg12
(I01
I01
tp755
sba(iModules.cell
Cell
p756
(dp757
g5
I00
sg260
I01
sg12
(I01
I01
tp758
sba(iModules.cell
Cell
p759
(dp760
g5
I00
sg260
I01
sg12
(I01
I01
tp761
sba(iModules.cell
Cell
p762
(dp763
g5
I01
sg260
I01
sg12
(I01
I01
tp764
sba(iModules.cell
Cell
p765
(dp766
g5
I01
sg260
I01
sg12
(I01
I01
tp767
sba(iModules.cell
Cell
p768
(dp769
g5
I01
sg260
I01
sg12
(I01
I01
tp770
sba(iModules.cell
Cell
p771
(dp772
g5
I01
sg260
I01
sg12
(I01
I01
tp773
sba(iModules.cell
Cell
p774
(dp775
g5
I01
sg260
I01
sg12
(I01
I01
tp776
sba(iModules.cell
Cell
p777
(dp778
g5
I01
sg260
I01
sg12
(I01
I01
tp779
sba(iModules.cell
Cell
p780
(dp781
g5
I01
sg260
I01
sg12
(I01
I01
tp782
sba(iModules.cell
Cell
p783
(dp784
g5
I00
sg260
I01
sg12
(I01
I01
tp785
sba(iModules.cell
Cell
p786
(dp787
g5
I00
sg260
I01
sg12
(I01
I01
tp788
sba(iModules.cell
Cell
p789
(dp790
g5
I00
sg260
I01
sg12
(I01
I01
tp791
sba(iModules.cell
Cell
p792
(dp793
g5
I00
sg260
I01
sg12
(I01
I01
tp794
sba(iModules.cell
Cell
p795
(dp796
g5
I00
sg260
I01
sg12
(I01
I01
tp797
sba(iModules.cell
Cell
p798
(dp799
g5
I00
sg260
I01
sg12
(I01
I01
tp800
sba(iModules.cell
Cell
p801
(dp802
g5
I00
sg260
I01
sg12
(I01
I01
tp803
sba(iModules.cell
Cell
p804
(dp805
g5
I00
sg260
I01
sg12
(I01
I01
tp806
sba(iModules.cell
Cell
p807
(dp808
g5
I00
sg260
I01
sg12
(I01
I01
tp809
sba(iModules.cell
Cell
p810
(dp811
g5
I00
sg260
I01
sg12
(I01
I01
tp812
sba(iModules.cell
Cell
p813
(dp814
g5
I00
sg260
I01
sg12
(I01
I01
tp815
sba(iModules.cell
Cell
p816
(dp817
g5
I00
sg260
I01
sg12
(I01
I01
tp818
sba(iModules.cell
Cell
p819
(dp820
g5
I00
sg260
I01
sg12
(I01
I01
tp821
sba(iModules.cell
Cell
p822
(dp823
g5
I00
sg260
I01
sg12
(I01
I01
tp824
sba(iModules.cell
Cell
p825
(dp826
g5
I00
sg260
I01
sg12
(I01
I01
tp827
sba(iModules.cell
Cell
p828
(dp829
g5
I00
sg260
I01
sg12
(I01
I01
tp830
sba(iModules.cell
Cell
p831
(dp832
g5
I00
sg260
I01
sg12
(I01
I01
tp833
sba(iModules.cell
Cell
p834
(dp835
g5
I00
sg12
(I01
I01
tp836
sba(iModules.cell
Cell
p837
(dp838
g5
I00
sg12
(I01
I01
tp839
sba(iModules.cell
Cell
p840
(dp841
g5
I00
sg12
(I01
I01
tp842
sba(iModules.cell
Cell
p843
(dp844
g5
I00
sg12
(I01
I01
tp845
sba(iModules.cell
Cell
p846
(dp847
g5
I00
sg12
(I01
I01
tp848
sba(iModules.cell
Cell
p849
(dp850
g5
I00
sg12
(I01
I01
tp851
sba(iModules.cell
Cell
p852
(dp853
g5
I00
sg12
(I01
I01
tp854
sba(iModules.cell
Cell
p855
(dp856
g5
I00
sg12
(I01
I01
tp857
sba(iModules.cell
Cell
p858
(dp859
g5
I00
sg12
(I01
I01
tp860
sba(iModules.cell
Cell
p861
(dp862
g5
I00
sg12
(I01
I01
tp863
sba(iModules.cell
Cell
p864
(dp865
g5
I00
sg12
(I01
I01
tp866
sba(iModules.cell
Cell
p867
(dp868
g5
I00
sg12
(I01
I01
tp869
sba(iModules.cell
Cell
p870
(dp871
g5
I00
sg12
(I01
I01
tp872
sba(iModules.cell
Cell
p873
(dp874
g5
I00
sg12
(I01
I01
tp875
sba(iModules.cell
Cell
p876
(dp877
g5
I00
sg12
(I01
I01
tp878
sba(iModules.cell
Cell
p879
(dp880
g5
I00
sg12
(I01
I01
tp881
sba(iModules.cell
Cell
p882
(dp883
g5
I00
sg12
(I01
I01
tp884
sba(iModules.cell
Cell
p885
(dp886
g5
I00
sg12
(I01
I01
tp887
sba(iModules.cell
Cell
p888
(dp889
g5
I00
sg12
(I01
I01
tp890
sba(iModules.cell
Cell
p891
(dp892
g5
I00
sg12
(I01
I01
tp893
sba(iModules.cell
Cell
p894
(dp895
g5
I00
sg12
(I01
I01
tp896
sba(iModules.cell
Cell
p897
(dp898
g5
I00
sg12
(I01
I01
tp899
sba(iModules.cell
Cell
p900
(dp901
g5
I00
sg12
(I01
I01
tp902
sba(iModules.cell
Cell
p903
(dp904
g5
I00
sg12
(I01
I01
tp905
sba(iModules.cell
Cell
p906
(dp907
g5
I00
sg12
(I01
I01
tp908
sba(iModules.cell
Cell
p909
(dp910
g5
I00
sg12
(I01
I01
tp911
sba(iModules.cell
Cell
p912
(dp913
g5
I00
sg12
(I01
I01
tp914
sba(iModules.cell
Cell
p915
(dp916
g5
I00
sg12
(I01
I01
tp917
sba(iModules.cell
Cell
p918
(dp919
g5
I00
sg12
(I01
I01
tp920
sba(iModules.cell
Cell
p921
(dp922
g5
I00
sg12
(I01
I01
tp923
sba(iModules.cell
Cell
p924
(dp925
g5
I00
sg12
(I01
I01
tp926
sba(iModules.cell
Cell
p927
(dp928
g5
I00
sg12
(I00
I00
tp929
sba(iModules.cell
Cell
p930
(dp931
g5
I00
sg12
(I00
I00
tp932
sba(iModules.cell
Cell
p933
(dp934
g5
I00
sg12
(I00
I00
tp935
sba(iModules.cell
Cell
p936
(dp937
g5
I00
sg12
(I00
I00
tp938
sba(iModules.cell
Cell
p939
(dp940
g5
I00
sg12
(I00
I00
tp941
sba(iModules.cell
Cell
p942
(dp943
g5
I00
sg12
(I00
I00
tp944
sba(iModules.cell
Cell
p945
(dp946
g5
I00
sg12
(I00
I00
tp947
sba(iModules.cell
Cell
p948
(dp949
g5
I00
sg12
(I00
I00
tp950
sba(iModules.cell
Cell
p951
(dp952
g5
I00
sg12
(I00
I00
tp953
sba(iModules.cell
Cell
p954
(dp955
g5
I00
sg12
(I00
I00
tp956
sba(iModules.cell
Cell
p957
(dp958
g5
I00
sg12
(I00
I00
tp959
sba(iModules.cell
Cell
p960
(dp961
g5
I00
sg12
(I00
I00
tp962
sba(iModules.cell
Cell
p963
(dp964
g5
I00
sg12
(I00
I00
tp965
sba(iModules.cell
Cell
p966
(dp967
g5
I00
sg12
(I00
I00
tp968
sba(iModules.cell
Cell
p969
(dp970
g5
I00
sg12
(I00
I00
tp971
sba(iModules.cell
Cell
p972
(dp973
g5
I00
sg12
(I00
I00
tp974
sba(iModules.cell
Cell
p975
(dp976
g5
I00
sg12
(I00
I00
tp977
sba(iModules.cell
Cell
p978
(dp979
g5
I00
sg12
(I00
I00
tp980
sba(iModules.cell
Cell
p981
(dp982
g5
I00
sg12
(I00
I00
tp983
sba(iModules.cell
Cell
p984
(dp985
g12
(I00
I00
tp986
sbaa(lp987
(iModules.cell
Cell
p988
(dp989
g5
I00
sg12
(I00
I00
tp990
sba(iModules.cell
Cell
p991
(dp992
g5
I00
sg260
I01
sg12
(I00
I00
tp993
sba(iModules.cell
Cell
p994
(dp995
g5
I00
sg260
I01
sg12
(I01
I01
tp996
sba(iModules.cell
Cell
p997
(dp998
g5
I00
sg260
I01
sg12
(I01
I01
tp999
sba(iModules.cell
Cell
p1000
(dp1001
g5
I00
sg260
I01
sg12
(I00
I00
I00
tp1002
sba(iModules.cell
Cell
p1003
(dp1004
g5
I00
sg260
I01
sg12
(I00
I00
I00
tp1005
sba(iModules.cell
Cell
p1006
(dp1007
g5
I01
sg260
I01
sg12
(I00
I00
I00
tp1008
sba(iModules.cell
Cell
p1009
(dp1010
g5
I01
sg260
I01
sg12
(I01
I01
tp1011
sba(iModules.cell
Cell
p1012
(dp1013
g5
I01
sg260
I01
sg12
(I01
I01
tp1014
sba(iModules.cell
Cell
p1015
(dp1016
g5
I01
sg260
I01
sg12
(I01
I01
tp1017
sba(iModules.cell
Cell
p1018
(dp1019
g5
I01
sg260
I01
sg12
(I01
I01
tp1020
sba(iModules.cell
Cell
p1021
(dp1022
g5
I01
sg260
I01
sg12
(I01
I01
tp1023
sba(iModules.cell
Cell
p1024
(dp1025
g5
I01
sg260
I01
sg12
(I00
I00
I00
tp1026
sba(iModules.cell
Cell
p1027
(dp1028
g5
I01
sg260
I01
sg12
(I00
I00
I00
tp1029
sba(iModules.cell
Cell
p1030
(dp1031
g5
I00
sg260
I01
sg12
(I00
I00
I00
tp1032
sba(iModules.cell
Cell
p1033
(dp1034
g5
I00
sg260
I01
sg12
(I01
I01
tp1035
sba(iModules.cell
Cell
p1036
(dp1037
g5
I00
sg260
I01
sg12
(I01
I01
tp1038
sba(iModules.cell
Cell
p1039
(dp1040
g5
I00
sg260
I01
sg12
(I01
I01
tp1041
sba(iModules.cell
Cell
p1042
(dp1043
g5
I00
sg260
I01
sg12
(I01
I01
tp1044
sba(iModules.cell
Cell
p1045
(dp1046
g5
I00
sg260
I01
sg12
(I01
I01
tp1047
sba(iModules.cell
Cell
p1048
(dp1049
g5
I00
sg260
I01
sg12
(I01
I01
tp1050
sba(iModules.cell
Cell
p1051
(dp1052
g5
I00
sg260
I01
sg12
(I01
I01
tp1053
sba(iModules.cell
Cell
p1054
(dp1055
g5
I00
sg260
I01
sg12
(I01
I01
tp1056
sba(iModules.cell
Cell
p1057
(dp1058
g5
I00
sg260
I01
sg12
(I01
I01
tp1059
sba(iModules.cell
Cell
p1060
(dp1061
g5
I00
sg260
I01
sg12
(I01
I01
tp1062
sba(iModules.cell
Cell
p1063
(dp1064
g5
I00
sg260
I01
sg12
(I01
I01
tp1065
sba(iModules.cell
Cell
p1066
(dp1067
g5
I00
sg260
I01
sg12
(I01
I01
tp1068
sba(iModules.cell
Cell
p1069
(dp1070
g5
I00
sg260
I01
sg12
(I01
I01
tp1071
sba(iModules.cell
Cell
p1072
(dp1073
g5
I00
sg260
I01
sg12
(I01
I01
tp1074
sba(iModules.cell
Cell
p1075
(dp1076
g5
I00
sg260
I01
sg12
(I01
I01
tp1077
sba(iModules.cell
Cell
p1078
(dp1079
g5
I00
sg12
(I01
I01
tp1080
sba(iModules.cell
Cell
p1081
(dp1082
g5
I00
sg12
(I01
I01
tp1083
sba(iModules.cell
Cell
p1084
(dp1085
g5
I00
sg12
(I01
I01
tp1086
sba(iModules.cell
Cell
p1087
(dp1088
g5
I00
sg12
(I01
I01
tp1089
sba(iModules.cell
Cell
p1090
(dp1091
g5
I00
sg12
(I01
I01
tp1092
sba(iModules.cell
Cell
p1093
(dp1094
g5
I00
sg12
(I01
I01
tp1095
sba(iModules.cell
Cell
p1096
(dp1097
g5
I00
sg12
(I01
I01
tp1098
sba(iModules.cell
Cell
p1099
(dp1100
g5
I00
sg12
(I01
I01
tp1101
sba(iModules.cell
Cell
p1102
(dp1103
g5
I00
sg12
(I01
I01
tp1104
sba(iModules.cell
Cell
p1105
(dp1106
g5
I00
sg12
(I01
I01
tp1107
sba(iModules.cell
Cell
p1108
(dp1109
g5
I00
sg12
(I01
I01
tp1110
sba(iModules.cell
Cell
p1111
(dp1112
g5
I00
sg12
(I01
I01
tp1113
sba(iModules.cell
Cell
p1114
(dp1115
g5
I00
sg12
(I01
I01
tp1116
sba(iModules.cell
Cell
p1117
(dp1118
g5
I00
sg12
(I01
I01
tp1119
sba(iModules.cell
Cell
p1120
(dp1121
g5
I00
sg12
(I01
I01
tp1122
sba(iModules.cell
Cell
p1123
(dp1124
g5
I00
sg12
(I01
I01
tp1125
sba(iModules.cell
Cell
p1126
(dp1127
g5
I00
sg12
(I01
I01
tp1128
sba(iModules.cell
Cell
p1129
(dp1130
g5
I00
sg12
(I01
I01
tp1131
sba(iModules.cell
Cell
p1132
(dp1133
g5
I00
sg12
(I01
I01
tp1134
sba(iModules.cell
Cell
p1135
(dp1136
g5
I00
sg12
(I01
I01
tp1137
sba(iModules.cell
Cell
p1138
(dp1139
g5
I00
sg12
(I01
I01
tp1140
sba(iModules.cell
Cell
p1141
(dp1142
g5
I00
sg12
(I01
I01
tp1143
sba(iModules.cell
Cell
p1144
(dp1145
g5
I00
sg12
(I01
I01
tp1146
sba(iModules.cell
Cell
p1147
(dp1148
g5
I00
sg12
(I01
I01
tp1149
sba(iModules.cell
Cell
p1150
(dp1151
g5
I00
sg12
(I01
I01
tp1152
sba(iModules.cell
Cell
p1153
(dp1154
g5
I00
sg12
(I01
I01
tp1155
sba(iModules.cell
Cell
p1156
(dp1157
g5
I00
sg12
(I01
I01
tp1158
sba(iModules.cell
Cell
p1159
(dp1160
g5
I00
sg12
(I01
I01
tp1161
sba(iModules.cell
Cell
p1162
(dp1163
g5
I00
sg12
(I01
I01
tp1164
sba(iModules.cell
Cell
p1165
(dp1166
g5
I00
sg12
(I01
I01
tp1167
sba(iModules.cell
Cell
p1168
(dp1169
g5
I00
sg12
(I01
I01
tp1170
sba(iModules.cell
Cell
p1171
(dp1172
g5
I00
sg12
(I00
I00
tp1173
sba(iModules.cell
Cell
p1174
(dp1175
g5
I00
sg12
(I00
I00
tp1176
sba(iModules.cell
Cell
p1177
(dp1178
g5
I00
sg12
(I00
I00
tp1179
sba(iModules.cell
Cell
p1180
(dp1181
g5
I00
sg12
(I00
I00
tp1182
sba(iModules.cell
Cell
p1183
(dp1184
g5
I00
sg12
(I00
I00
tp1185
sba(iModules.cell
Cell
p1186
(dp1187
g5
I00
sg12
(I00
I00
tp1188
sba(iModules.cell
Cell
p1189
(dp1190
g5
I00
sg12
(I00
I00
tp1191
sba(iModules.cell
Cell
p1192
(dp1193
g5
I00
sg12
(I00
I00
tp1194
sba(iModules.cell
Cell
p1195
(dp1196
g5
I00
sg12
(I00
I00
tp1197
sba(iModules.cell
Cell
p1198
(dp1199
g5
I00
sg12
(I00
I00
tp1200
sba(iModules.cell
Cell
p1201
(dp1202
g5
I00
sg12
(I00
I00
tp1203
sba(iModules.cell
Cell
p1204
(dp1205
g5
I00
sg12
(I00
I00
tp1206
sba(iModules.cell
Cell
p1207
(dp1208
g5
I00
sg12
(I00
I00
tp1209
sba(iModules.cell
Cell
p1210
(dp1211
g5
I00
sg12
(I00
I00
tp1212
sba(iModules.cell
Cell
p1213
(dp1214
g5
I00
sg12
(I00
I00
tp1215
sba(iModules.cell
Cell
p1216
(dp1217
g5
I00
sg12
(I00
I00
tp1218
sba(iModules.cell
Cell
p1219
(dp1220
g5
I00
sg12
(I00
I00
tp1221
sba(iModules.cell
Cell
p1222
(dp1223
g5
I00
sg12
(I00
I00
tp1224
sba(iModules.cell
Cell
p1225
(dp1226
g5
I00
sg12
(I00
I00
tp1227
sba(iModules.cell
Cell
p1228
(dp1229
g12
(I00
I00
tp1230
sbaa(lp1231
(iModules.cell
Cell
p1232
(dp1233
g5
I00
sg12
(I00
I00
tp1234
sba(iModules.cell
Cell
p1235
(dp1236
g5
I00
sg260
I01
sg12
(I00
I00
tp1237
sba(iModules.cell
Cell
p1238
(dp1239
g5
I00
sg260
I01
sg12
(I01
I01
tp1240
sba(iModules.cell
Cell
p1241
(dp1242
g5
I00
sg260
I01
sg12
(I01
I01
tp1243
sba(iModules.cell
Cell
p1244
(dp1245
g5
I00
sg260
I01
sg12
(I00
I00
I00
tp1246
sba(iModules.cell
Cell
p1247
(dp1248
g5
I00
sg260
I01
sg12
(I01
I01
tp1249
sba(iModules.cell
Cell
p1250
(dp1251
g5
I01
sg260
I01
sg12
(I00
I00
I00
tp1252
sba(iModules.cell
Cell
p1253
(dp1254
g5
I01
sg260
I01
sg12
(I01
I01
tp1255
sba(iModules.cell
Cell
p1256
(dp1257
g5
I01
sg260
I01
sg12
(I01
I01
tp1258
sba(iModules.cell
Cell
p1259
(dp1260
g5
I01
sg260
I01
sg12
(I01
I01
tp1261
sba(iModules.cell
Cell
p1262
(dp1263
g5
I01
sg260
I01
sg12
(I01
I01
tp1264
sba(iModules.cell
Cell
p1265
(dp1266
g5
I01
sg260
I01
sg12
(I01
I01
tp1267
sba(iModules.cell
Door
p1268
(dp1269
g5
I01
sg260
I01
sg12
(I01
I01
tp1270
sS'opened'
p1271
I01
sba(iModules.cell
Cell
p1272
(dp1273
g5
I01
sg260
I01
sg12
(I01
I01
tp1274
sba(iModules.cell
Cell
p1275
(dp1276
g5
I00
sg260
I01
sg12
(I00
I00
I00
tp1277
sba(iModules.cell
Cell
p1278
(dp1279
g5
I00
sg260
I01
sg12
(I01
I01
tp1280
sba(iModules.cell
Cell
p1281
(dp1282
g5
I00
sg260
I01
sg12
(I01
I01
tp1283
sba(iModules.cell
Cell
p1284
(dp1285
g5
I00
sg260
I01
sg12
(I01
I01
tp1286
sba(iModules.cell
Cell
p1287
(dp1288
g5
I00
sg260
I01
sg12
(I01
I01
tp1289
sba(iModules.cell
Cell
p1290
(dp1291
g5
I00
sg260
I01
sg12
(I01
I01
tp1292
sba(iModules.cell
Cell
p1293
(dp1294
g5
I00
sg260
I01
sg12
(I01
I01
tp1295
sba(iModules.cell
Cell
p1296
(dp1297
g5
I00
sg260
I01
sg12
(I01
I01
tp1298
sba(iModules.cell
Cell
p1299
(dp1300
g5
I00
sg260
I01
sg12
(I01
I01
tp1301
sba(iModules.cell
Cell
p1302
(dp1303
g5
I00
sg260
I01
sg12
(I01
I01
tp1304
sba(iModules.cell
Cell
p1305
(dp1306
g5
I00
sg260
I01
sg12
(I01
I01
tp1307
sba(iModules.cell
Cell
p1308
(dp1309
g5
I00
sg260
I01
sg12
(I01
I01
tp1310
sba(iModules.cell
Cell
p1311
(dp1312
g5
I00
sg260
I01
sg12
(I01
I01
tp1313
sba(iModules.cell
Cell
p1314
(dp1315
g5
I00
sg260
I01
sg12
(I01
I01
tp1316
sba(iModules.cell
Cell
p1317
(dp1318
g5
I00
sg260
I01
sg12
(I01
I01
tp1319
sba(iModules.cell
Cell
p1320
(dp1321
g5
I00
sg260
I01
sg12
(I01
I01
tp1322
sba(iModules.cell
Cell
p1323
(dp1324
g5
I00
sg12
(I01
I01
tp1325
sba(iModules.cell
Cell
p1326
(dp1327
g5
I00
sg12
(I01
I01
tp1328
sba(iModules.cell
Cell
p1329
(dp1330
g5
I00
sg12
(I01
I01
tp1331
sba(iModules.cell
Cell
p1332
(dp1333
g5
I00
sg12
(I01
I01
tp1334
sba(iModules.cell
Cell
p1335
(dp1336
g5
I00
sg12
(I01
I01
tp1337
sba(iModules.cell
Cell
p1338
(dp1339
g5
I00
sg12
(I01
I01
tp1340
sba(iModules.cell
Cell
p1341
(dp1342
g5
I00
sg12
(I01
I01
tp1343
sba(iModules.cell
Cell
p1344
(dp1345
g5
I00
sg12
(I01
I01
tp1346
sba(iModules.cell
Cell
p1347
(dp1348
g5
I00
sg12
(I01
I01
tp1349
sba(iModules.cell
Cell
p1350
(dp1351
g5
I00
sg12
(I01
I01
tp1352
sba(iModules.cell
Cell
p1353
(dp1354
g5
I00
sg12
(I01
I01
tp1355
sba(iModules.cell
Cell
p1356
(dp1357
g5
I00
sg12
(I01
I01
tp1358
sba(iModules.cell
Cell
p1359
(dp1360
g5
I00
sg12
(I01
I01
tp1361
sba(iModules.cell
Cell
p1362
(dp1363
g5
I00
sg12
(I01
I01
tp1364
sba(iModules.cell
Cell
p1365
(dp1366
g5
I00
sg12
(I01
I01
tp1367
sba(iModules.cell
Cell
p1368
(dp1369
g5
I00
sg12
(I01
I01
tp1370
sba(iModules.cell
Cell
p1371
(dp1372
g5
I00
sg12
(I01
I01
tp1373
sba(iModules.cell
Cell
p1374
(dp1375
g5
I00
sg12
(I01
I01
tp1376
sba(iModules.cell
Cell
p1377
(dp1378
g5
I00
sg12
(I01
I01
tp1379
sba(iModules.cell
Cell
p1380
(dp1381
g5
I00
sg12
(I01
I01
tp1382
sba(iModules.cell
Cell
p1383
(dp1384
g5
I00
sg12
(I01
I01
tp1385
sba(iModules.cell
Cell
p1386
(dp1387
g5
I00
sg12
(I01
I01
tp1388
sba(iModules.cell
Cell
p1389
(dp1390
g5
I00
sg12
(I01
I01
tp1391
sba(iModules.cell
Cell
p1392
(dp1393
g5
I00
sg12
(I01
I01
tp1394
sba(iModules.cell
Cell
p1395
(dp1396
g5
I00
sg12
(I01
I01
tp1397
sba(iModules.cell
Cell
p1398
(dp1399
g5
I00
sg12
(I01
I01
tp1400
sba(iModules.cell
Cell
p1401
(dp1402
g5
I00
sg12
(I01
I01
tp1403
sba(iModules.cell
Cell
p1404
(dp1405
g5
I00
sg12
(I01
I01
tp1406
sba(iModules.cell
Cell
p1407
(dp1408
g5
I00
sg12
(I01
I01
tp1409
sba(iModules.cell
Cell
p1410
(dp1411
g5
I00
sg12
(I01
I01
tp1412
sba(iModules.cell
Cell
p1413
(dp1414
g5
I00
sg12
(I01
I01
tp1415
sba(iModules.cell
Cell
p1416
(dp1417
g5
I00
sg12
(I00
I00
tp1418
sba(iModules.cell
Cell
p1419
(dp1420
g5
I00
sg12
(I00
I00
tp1421
sba(iModules.cell
Cell
p1422
(dp1423
g5
I00
sg12
(I00
I00
tp1424
sba(iModules.cell
Cell
p1425
(dp1426
g5
I00
sg12
(I00
I00
tp1427
sba(iModules.cell
Cell
p1428
(dp1429
g5
I00
sg12
(I00
I00
tp1430
sba(iModules.cell
Cell
p1431
(dp1432
g5
I00
sg12
(I00
I00
tp1433
sba(iModules.cell
Cell
p1434
(dp1435
g5
I00
sg12
(I00
I00
tp1436
sba(iModules.cell
Cell
p1437
(dp1438
g5
I00
sg12
(I00
I00
tp1439
sba(iModules.cell
Cell
p1440
(dp1441
g5
I00
sg12
(I00
I00
tp1442
sba(iModules.cell
Cell
p1443
(dp1444
g5
I00
sg12
(I00
I00
tp1445
sba(iModules.cell
Cell
p1446
(dp1447
g5
I00
sg12
(I00
I00
tp1448
sba(iModules.cell
Cell
p1449
(dp1450
g5
I00
sg12
(I00
I00
tp1451
sba(iModules.cell
Cell
p1452
(dp1453
g5
I00
sg12
(I00
I00
tp1454
sba(iModules.cell
Cell
p1455
(dp1456
g5
I00
sg12
(I00
I00
tp1457
sba(iModules.cell
Cell
p1458
(dp1459
g5
I00
sg12
(I00
I00
tp1460
sba(iModules.cell
Cell
p1461
(dp1462
g5
I00
sg12
(I00
I00
tp1463
sba(iModules.cell
Cell
p1464
(dp1465
g5
I00
sg12
(I00
I00
tp1466
sba(iModules.cell
Cell
p1467
(dp1468
g5
I00
sg12
(I00
I00
tp1469
sba(iModules.cell
Cell
p1470
(dp1471
g5
I00
sg12
(I00
I00
tp1472
sba(iModules.cell
Cell
p1473
(dp1474
g12
(I00
I00
tp1475
sbaa(lp1476
(iModules.cell
Cell
p1477
(dp1478
g5
I00
sg12
(I00
I00
tp1479
sba(iModules.cell
Cell
p1480
(dp1481
g5
I01
sg260
I01
sg12
(I00
I00
tp1482
sba(iModules.cell
Cell
p1483
(dp1484
g5
I01
sg260
I01
sg12
(I01
I01
tp1485
sba(iModules.cell
Cell
p1486
(dp1487
g5
I01
sg260
I01
sg12
(I01
I01
tp1488
sba(iModules.cell
Cell
p1489
(dp1490
g5
I01
sg260
I01
sg12
(I00
I00
I00
tp1491
sba(iModules.cell
Door
p1492
(dp1493
g5
I01
sg260
I01
sg12
(I01
I01
tp1494
sg1271
I01
sba(iModules.cell
Cell
p1495
(dp1496
g5
I01
sg260
I01
sg12
(I00
I00
I00
tp1497
sba(iModules.cell
Cell
p1498
(dp1499
g5
I01
sg260
I01
sg12
(I01
I01
tp1500
sba(iModules.cell
Cell
p1501
(dp1502
g5
I01
sg260
I01
sg12
(I01
I01
tp1503
sba(iModules.cell
Cell
p1504
(dp1505
g5
I01
sg260
I01
sg12
(I01
I01
tp1506
sba(iModules.cell
Cell
p1507
(dp1508
g5
I01
sg260
I01
sg12
(I01
I01
tp1509
sba(iModules.cell
Cell
p1510
(dp1511
g5
I01
sg260
I01
sg12
(I01
I01
tp1512
sba(iModules.cell
Cell
p1513
(dp1514
g5
I01
sg260
I01
sg12
(I00
I00
I00
tp1515
sba(iModules.cell
Cell
p1516
(dp1517
g5
I01
sg260
I01
sg12
(I00
I00
I00
tp1518
sba(iModules.cell
Cell
p1519
(dp1520
g5
I01
sg260
I01
sg12
(I00
I00
I00
tp1521
sba(iModules.cell
Cell
p1522
(dp1523
g5
I01
sg260
I01
sg12
(I01
I01
tp1524
sba(iModules.cell
Cell
p1525
(dp1526
g5
I01
sg260
I01
sg12
(I01
I01
tp1527
sba(iModules.cell
Cell
p1528
(dp1529
g5
I01
sg260
I01
sg12
(I01
I01
tp1530
sba(iModules.cell
Cell
p1531
(dp1532
g5
I00
sg260
I01
sg12
(I01
I01
tp1533
sba(iModules.cell
Cell
p1534
(dp1535
g5
I00
sg260
I01
sg12
(I01
I01
tp1536
sba(iModules.cell
Cell
p1537
(dp1538
g5
I00
sg260
I01
sg12
(I01
I01
tp1539
sba(iModules.cell
Cell
p1540
(dp1541
g5
I00
sg260
I01
sg12
(I01
I01
tp1542
sba(iModules.cell
Cell
p1543
(dp1544
g5
I00
sg260
I01
sg12
(I01
I01
tp1545
sba(iModules.cell
Cell
p1546
(dp1547
g5
I00
sg260
I01
sg12
(I01
I01
tp1548
sba(iModules.cell
Cell
p1549
(dp1550
g5
I00
sg260
I01
sg12
(I01
I01
tp1551
sba(iModules.cell
Cell
p1552
(dp1553
g5
I00
sg260
I01
sg12
(I01
I01
tp1554
sba(iModules.cell
Cell
p1555
(dp1556
g5
I00
sg260
I01
sg12
(I01
I01
tp1557
sba(iModules.cell
Cell
p1558
(dp1559
g5
I00
sg260
I01
sg12
(I01
I01
tp1560
sba(iModules.cell
Cell
p1561
(dp1562
g5
I00
sg260
I01
sg12
(I01
I01
tp1563
sba(iModules.cell
Cell
p1564
(dp1565
g5
I00
sg260
I01
sg12
(I01
I01
tp1566
sba(iModules.cell
Cell
p1567
(dp1568
g5
I00
sg12
(I01
I01
tp1569
sba(iModules.cell
Cell
p1570
(dp1571
g5
I00
sg12
(I01
I01
tp1572
sba(iModules.cell
Cell
p1573
(dp1574
g5
I00
sg12
(I01
I01
tp1575
sba(iModules.cell
Cell
p1576
(dp1577
g5
I00
sg12
(I01
I01
tp1578
sba(iModules.cell
Cell
p1579
(dp1580
g5
I00
sg12
(I01
I01
tp1581
sba(iModules.cell
Cell
p1582
(dp1583
g5
I00
sg12
(I01
I01
tp1584
sba(iModules.cell
Cell
p1585
(dp1586
g5
I00
sg12
(I01
I01
tp1587
sba(iModules.cell
Cell
p1588
(dp1589
g5
I00
sg12
(I01
I01
tp1590
sba(iModules.cell
Cell
p1591
(dp1592
g5
I00
sg12
(I01
I01
tp1593
sba(iModules.cell
Cell
p1594
(dp1595
g5
I00
sg12
(I01
I01
tp1596
sba(iModules.cell
Cell
p1597
(dp1598
g5
I00
sg12
(I01
I01
tp1599
sba(iModules.cell
Cell
p1600
(dp1601
g5
I00
sg12
(I01
I01
tp1602
sba(iModules.cell
Cell
p1603
(dp1604
g5
I00
sg12
(I01
I01
tp1605
sba(iModules.cell
Cell
p1606
(dp1607
g5
I00
sg12
(I01
I01
tp1608
sba(iModules.cell
Cell
p1609
(dp1610
g5
I00
sg12
(I01
I01
tp1611
sba(iModules.cell
Cell
p1612
(dp1613
g5
I00
sg12
(I01
I01
tp1614
sba(iModules.cell
Cell
p1615
(dp1616
g5
I00
sg12
(I01
I01
tp1617
sba(iModules.cell
Cell
p1618
(dp1619
g5
I00
sg12
(I01
I01
tp1620
sba(iModules.cell
Cell
p1621
(dp1622
g5
I00
sg12
(I01
I01
tp1623
sba(iModules.cell
Cell
p1624
(dp1625
g5
I00
sg12
(I01
I01
tp1626
sba(iModules.cell
Cell
p1627
(dp1628
g5
I00
sg12
(I01
I01
tp1629
sba(iModules.cell
Cell
p1630
(dp1631
g5
I00
sg12
(I01
I01
tp1632
sba(iModules.cell
Cell
p1633
(dp1634
g5
I00
sg12
(I01
I01
tp1635
sba(iModules.cell
Cell
p1636
(dp1637
g5
I00
sg12
(I01
I01
tp1638
sba(iModules.cell
Cell
p1639
(dp1640
g5
I00
sg12
(I01
I01
tp1641
sba(iModules.cell
Cell
p1642
(dp1643
g5
I00
sg12
(I01
I01
tp1644
sba(iModules.cell
Cell
p1645
(dp1646
g5
I00
sg12
(I01
I01
tp1647
sba(iModules.cell
Cell
p1648
(dp1649
g5
I00
sg12
(I01
I01
tp1650
sba(iModules.cell
Cell
p1651
(dp1652
g5
I00
sg12
(I01
I01
tp1653
sba(iModules.cell
Cell
p1654
(dp1655
g5
I00
sg12
(I01
I01
tp1656
sba(iModules.cell
Cell
p1657
(dp1658
g5
I00
sg12
(I01
I01
tp1659
sba(iModules.cell
Cell
p1660
(dp1661
g5
I00
sg12
(I00
I00
tp1662
sba(iModules.cell
Cell
p1663
(dp1664
g5
I00
sg12
(I00
I00
tp1665
sba(iModules.cell
Cell
p1666
(dp1667
g5
I00
sg12
(I00
I00
tp1668
sba(iModules.cell
Cell
p1669
(dp1670
g5
I00
sg12
(I00
I00
tp1671
sba(iModules.cell
Cell
p1672
(dp1673
g5
I00
sg12
(I00
I00
tp1674
sba(iModules.cell
Cell
p1675
(dp1676
g5
I00
sg12
(I00
I00
tp1677
sba(iModules.cell
Cell
p1678
(dp1679
g5
I00
sg12
(I00
I00
tp1680
sba(iModules.cell
Cell
p1681
(dp1682
g5
I00
sg12
(I00
I00
tp1683
sba(iModules.cell
Cell
p1684
(dp1685
g5
I00
sg12
(I00
I00
tp1686
sba(iModules.cell
Cell
p1687
(dp1688
g5
I00
sg12
(I00
I00
tp1689
sba(iModules.cell
Cell
p1690
(dp1691
g5
I00
sg12
(I00
I00
tp1692
sba(iModules.cell
Cell
p1693
(dp1694
g5
I00
sg12
(I00
I00
tp1695
sba(iModules.cell
Cell
p1696
(dp1697
g5
I00
sg12
(I00
I00
tp1698
sba(iModules.cell
Cell
p1699
(dp1700
g5
I00
sg12
(I00
I00
tp1701
sba(iModules.cell
Cell
p1702
(dp1703
g5
I00
sg12
(I00
I00
tp1704
sba(iModules.cell
Cell
p1705
(dp1706
g5
I00
sg12
(I00
I00
tp1707
sba(iModules.cell
Cell
p1708
(dp1709
g5
I00
sg12
(I00
I00
tp1710
sba(iModules.cell
Cell
p1711
(dp1712
g5
I00
sg12
(I00
I00
tp1713
sba(iModules.cell
Cell
p1714
(dp1715
g5
I00
sg12
(I00
I00
tp1716
sba(iModules.cell
Cell
p1717
(dp1718
g12
(I00
I00
tp1719
sbaa(lp1720
(iModules.cell
Cell
p1721
(dp1722
g5
I00
sg12
(I00
I00
tp1723
sba(iModules.cell
Cell
p1724
(dp1725
g5
I01
sg260
I01
sg12
(I00
I00
tp1726
sba(iModules.cell
Cell
p1727
(dp1728
g5
I01
sg260
I01
sg12
(I01
I01
tp1729
sba(iModules.cell
Cell
p1730
(dp1731
g5
I01
sg260
I01
sg12
(I01
I01
tp1732
sba(iModules.cell
Cell
p1733
(dp1734
g5
I01
sg260
I01
sg12
(I01
I01
tp1735
sba(iModules.cell
Cell
p1736
(dp1737
g5
I01
sg260
I01
sg12
(I01
I01
tp1738
sba(iModules.cell
Cell
p1739
(dp1740
g5
I01
sg260
I01
sg12
(I01
I01
tp1741
sba(iModules.cell
Cell
p1742
(dp1743
g5
I01
sg260
I01
sg12
(I01
I01
tp1744
sba(iModules.cell
Cell
p1745
(dp1746
g5
I01
sg260
I01
sg12
(I01
I01
tp1747
sba(iModules.cell
Cell
p1748
(dp1749
g5
I01
sg260
I01
sg12
(I01
I01
tp1750
sba(iModules.cell
Cell
p1751
(dp1752
g5
I01
sg260
I01
sg12
(I01
I01
tp1753
sba(iModules.cell
Cell
p1754
(dp1755
g5
I01
sg260
I01
sg12
(I01
I01
tp1756
sba(iModules.cell
Cell
p1757
(dp1758
g5
I01
sg260
I01
sg12
(I01
I01
tp1759
sba(iModules.cell
Cell
p1760
(dp1761
g5
I01
sg260
I01
sg12
(I01
I01
tp1762
sba(iModules.cell
Cell
p1763
(dp1764
g5
I01
sg260
I01
sg12
(I01
I01
tp1765
sba(iModules.cell
Cell
p1766
(dp1767
g5
I01
sg260
I01
sg12
(I01
I01
tp1768
sba(iModules.cell
Cell
p1769
(dp1770
g5
I01
sg260
I01
sg12
(I01
I01
tp1771
sba(iModules.cell
Cell
p1772
(dp1773
g5
I01
sg260
I01
sg12
(I01
I01
tp1774
sba(iModules.cell
Cell
p1775
(dp1776
g5
I00
sg260
I01
sg12
(I01
I01
tp1777
sba(iModules.cell
Cell
p1778
(dp1779
g5
I00
sg260
I01
sg12
(I01
I01
tp1780
sba(iModules.cell
Cell
p1781
(dp1782
g5
I00
sg260
I01
sg12
(I01
I01
tp1783
sba(iModules.cell
Cell
p1784
(dp1785
g5
I00
sg260
I01
sg12
(I01
I01
tp1786
sba(iModules.cell
Cell
p1787
(dp1788
g5
I00
sg260
I01
sg12
(I01
I01
tp1789
sba(iModules.cell
Cell
p1790
(dp1791
g5
I00
sg260
I01
sg12
(I01
I01
tp1792
sba(iModules.cell
Cell
p1793
(dp1794
g5
I00
sg260
I01
sg12
(I01
I01
tp1795
sba(iModules.cell
Cell
p1796
(dp1797
g5
I00
sg260
I01
sg12
(I01
I01
tp1798
sba(iModules.cell
Cell
p1799
(dp1800
g5
I00
sg260
I01
sg12
(I01
I01
tp1801
sba(iModules.cell
Cell
p1802
(dp1803
g5
I00
sg260
I01
sg12
(I01
I01
tp1804
sba(iModules.cell
Cell
p1805
(dp1806
g5
I00
sg260
I01
sg12
(I01
I01
tp1807
sba(iModules.cell
Cell
p1808
(dp1809
g5
I00
sg260
I01
sg12
(I01
I01
tp1810
sba(iModules.cell
Cell
p1811
(dp1812
g5
I00
sg12
(I01
I01
tp1813
sba(iModules.cell
Cell
p1814
(dp1815
g5
I00
sg12
(I01
I01
tp1816
sba(iModules.cell
Cell
p1817
(dp1818
g5
I00
sg12
(I01
I01
tp1819
sba(iModules.cell
Cell
p1820
(dp1821
g5
I00
sg12
(I01
I01
tp1822
sba(iModules.cell
Cell
p1823
(dp1824
g5
I00
sg12
(I01
I01
tp1825
sba(iModules.cell
Cell
p1826
(dp1827
g5
I00
sg12
(I01
I01
tp1828
sba(iModules.cell
Cell
p1829
(dp1830
g5
I00
sg12
(I01
I01
tp1831
sba(iModules.cell
Cell
p1832
(dp1833
g5
I00
sg12
(I01
I01
tp1834
sba(iModules.cell
Cell
p1835
(dp1836
g5
I00
sg12
(I01
I01
tp1837
sba(iModules.cell
Cell
p1838
(dp1839
g5
I00
sg12
(I01
I01
tp1840
sba(iModules.cell
Cell
p1841
(dp1842
g5
I00
sg12
(I01
I01
tp1843
sba(iModules.cell
Cell
p1844
(dp1845
g5
I00
sg12
(I01
I01
tp1846
sba(iModules.cell
Cell
p1847
(dp1848
g5
I00
sg12
(I01
I01
tp1849
sba(iModules.cell
Cell
p1850
(dp1851
g5
I00
sg12
(I01
I01
tp1852
sba(iModules.cell
Cell
p1853
(dp1854
g5
I00
sg12
(I01
I01
tp1855
sba(iModules.cell
Cell
p1856
(dp1857
g5
I00
sg12
(I01
I01
tp1858
sba(iModules.cell
Cell
p1859
(dp1860
g5
I00
sg12
(I01
I01
tp1861
sba(iModules.cell
Cell
p1862
(dp1863
g5
I00
sg12
(I01
I01
tp1864
sba(iModules.cell
Cell
p1865
(dp1866
g5
I00
sg12
(I01
I01
tp1867
sba(iModules.cell
Cell
p1868
(dp1869
g5
I00
sg12
(I01
I01
tp1870
sba(iModules.cell
Cell
p1871
(dp1872
g5
I00
sg12
(I01
I01
tp1873
sba(iModules.cell
Cell
p1874
(dp1875
g5
I00
sg12
(I01
I01
tp1876
sba(iModules.cell
Cell
p1877
(dp1878
g5
I00
sg12
(I01
I01
tp1879
sba(iModules.cell
Cell
p1880
(dp1881
g5
I00
sg12
(I01
I01
tp1882
sba(iModules.cell
Cell
p1883
(dp1884
g5
I00
sg12
(I01
I01
tp1885
sba(iModules.cell
Cell
p1886
(dp1887
g5
I00
sg12
(I01
I01
tp1888
sba(iModules.cell
Cell
p1889
(dp1890
g5
I00
sg12
(I01
I01
tp1891
sba(iModules.cell
Cell
p1892
(dp1893
g5
I00
sg12
(I01
I01
tp1894
sba(iModules.cell
Cell
p1895
(dp1896
g5
I00
sg12
(I01
I01
tp1897
sba(iModules.cell
Cell
p1898
(dp1899
g5
I00
sg12
(I01
I01
tp1900
sba(iModules.cell
Cell
p1901
(dp1902
g5
I00
sg12
(I01
I01
tp1903
sba(iModules.cell
Cell
p1904
(dp1905
g5
I00
sg12
(I00
I00
tp1906
sba(iModules.cell
Cell
p1907
(dp1908
g5
I00
sg12
(I00
I00
tp1909
sba(iModules.cell
Cell
p1910
(dp1911
g5
I00
sg12
(I00
I00
tp1912
sba(iModules.cell
Cell
p1913
(dp1914
g5
I00
sg12
(I00
I00
tp1915
sba(iModules.cell
Cell
p1916
(dp1917
g5
I00
sg12
(I00
I00
tp1918
sba(iModules.cell
Cell
p1919
(dp1920
g5
I00
sg12
(I00
I00
tp1921
sba(iModules.cell
Cell
p1922
(dp1923
g5
I00
sg12
(I00
I00
tp1924
sba(iModules.cell
Cell
p1925
(dp1926
g5
I00
sg12
(I00
I00
tp1927
sba(iModules.cell
Cell
p1928
(dp1929
g5
I00
sg12
(I00
I00
tp1930
sba(iModules.cell
Cell
p1931
(dp1932
g5
I00
sg12
(I00
I00
tp1933
sba(iModules.cell
Cell
p1934
(dp1935
g5
I00
sg12
(I00
I00
tp1936
sba(iModules.cell
Cell
p1937
(dp1938
g5
I00
sg12
(I00
I00
tp1939
sba(iModules.cell
Cell
p1940
(dp1941
g5
I00
sg12
(I00
I00
tp1942
sba(iModules.cell
Cell
p1943
(dp1944
g5
I00
sg12
(I00
I00
tp1945
sba(iModules.cell
Cell
p1946
(dp1947
g5
I00
sg12
(I00
I00
tp1948
sba(iModules.cell
Cell
p1949
(dp1950
g5
I00
sg12
(I00
I00
tp1951
sba(iModules.cell
Cell
p1952
(dp1953
g5
I00
sg12
(I00
I00
tp1954
sba(iModules.cell
Cell
p1955
(dp1956
g5
I00
sg12
(I00
I00
tp1957
sba(iModules.cell
Cell
p1958
(dp1959
g5
I00
sg12
(I00
I00
tp1960
sba(iModules.cell
Cell
p1961
(dp1962
g12
(I00
I00
tp1963
sbaa(lp1964
(iModules.cell
Cell
p1965
(dp1966
g5
I00
sg12
(I00
I00
tp1967
sba(iModules.cell
Cell
p1968
(dp1969
g5
I01
sg260
I01
sg12
(I00
I00
tp1970
sba(iModules.cell
Cell
p1971
(dp1972
g5
I01
sg260
I01
sg12
(I01
I01
tp1973
sba(iModules.cell
Cell
p1974
(dp1975
g5
I01
sg260
I01
sg12
(I01
I01
tp1976
sba(iModules.cell
Cell
p1977
(dp1978
g5
I01
sg260
I01
sg12
(I01
I01
tp1979
sba(iModules.cell
Cell
p1980
(dp1981
g5
I01
sg260
I01
sg12
(I01
I01
tp1982
sba(iModules.cell
Cell
p1983
(dp1984
g5
I01
sg260
I01
sg12
(I01
I01
tp1985
sba(iModules.cell
Cell
p1986
(dp1987
g5
I01
sg260
I01
sg12
(I01
I01
tp1988
sba(iModules.cell
Cell
p1989
(dp1990
g5
I01
sg260
I01
sg12
(I01
I01
tp1991
sba(iModules.cell
Cell
p1992
(dp1993
g5
I01
sg260
I01
sg12
(I01
I01
tp1994
sba(iModules.cell
Cell
p1995
(dp1996
g5
I01
sg260
I01
sg12
(I01
I01
tp1997
sba(iModules.cell
Cell
p1998
(dp1999
g5
I01
sg260
I01
sg12
(I01
I01
tp2000
sba(iModules.cell
Cell
p2001
(dp2002
g5
I01
sg260
I01
sg12
(I01
I01
tp2003
sba(iModules.cell
Cell
p2004
(dp2005
g5
I01
sg260
I01
sg12
(I01
I01
tp2006
sba(iModules.cell
Cell
p2007
(dp2008
g5
I01
sg260
I01
sg12
(I01
I01
tp2009
sba(iModules.cell
Cell
p2010
(dp2011
g5
I01
sg260
I01
sg12
(I01
I01
tp2012
sba(iModules.cell
Cell
p2013
(dp2014
g5
I01
sg260
I01
sg12
(I01
I01
tp2015
sba(iModules.cell
Cell
p2016
(dp2017
g5
I01
sg260
I01
sg12
(I01
I01
tp2018
sba(iModules.cell
Cell
p2019
(dp2020
g5
I00
sg260
I01
sg12
(I01
I01
tp2021
sba(iModules.cell
Cell
p2022
(dp2023
g5
I00
sg260
I01
sg12
(I01
I01
tp2024
sba(iModules.cell
Cell
p2025
(dp2026
g5
I00
sg260
I01
sg12
(I01
I01
tp2027
sba(iModules.cell
Cell
p2028
(dp2029
g5
I00
sg260
I01
sg12
(I01
I01
tp2030
sba(iModules.cell
Cell
p2031
(dp2032
g5
I00
sg260
I01
sg12
(I01
I01
tp2033
sba(iModules.cell
Cell
p2034
(dp2035
g5
I00
sg260
I01
sg12
(I01
I01
tp2036
sba(iModules.cell
Cell
p2037
(dp2038
g5
I00
sg260
I01
sg12
(I01
I01
tp2039
sba(iModules.cell
Cell
p2040
(dp2041
g5
I00
sg260
I01
sg12
(I01
I01
tp2042
sba(iModules.cell
Cell
p2043
(dp2044
g5
I00
sg260
I01
sg12
(I01
I01
tp2045
sba(iModules.cell
Cell
p2046
(dp2047
g5
I00
sg260
I01
sg12
(I01
I01
tp2048
sba(iModules.cell
Cell
p2049
(dp2050
g5
I00
sg260
I01
sg12
(I01
I01
tp2051
sba(iModules.cell
Cell
p2052
(dp2053
g5
I00
sg260
I01
sg12
(I01
I01
tp2054
sba(iModules.cell
Cell
p2055
(dp2056
g5
I00
sg12
(I01
I01
tp2057
sba(iModules.cell
Cell
p2058
(dp2059
g5
I00
sg12
(I01
I01
tp2060
sba(iModules.cell
Cell
p2061
(dp2062
g5
I00
sg12
(I01
I01
tp2063
sba(iModules.cell
Cell
p2064
(dp2065
g5
I00
sg12
(I01
I01
tp2066
sba(iModules.cell
Cell
p2067
(dp2068
g5
I00
sg12
(I01
I01
tp2069
sba(iModules.cell
Cell
p2070
(dp2071
g5
I00
sg12
(I01
I01
tp2072
sba(iModules.cell
Cell
p2073
(dp2074
g5
I00
sg12
(I01
I01
tp2075
sba(iModules.cell
Cell
p2076
(dp2077
g5
I00
sg12
(I01
I01
tp2078
sba(iModules.cell
Cell
p2079
(dp2080
g5
I00
sg12
(I01
I01
tp2081
sba(iModules.cell
Cell
p2082
(dp2083
g5
I00
sg12
(I01
I01
tp2084
sba(iModules.cell
Cell
p2085
(dp2086
g5
I00
sg12
(I01
I01
tp2087
sba(iModules.cell
Cell
p2088
(dp2089
g5
I00
sg12
(I01
I01
tp2090
sba(iModules.cell
Cell
p2091
(dp2092
g5
I00
sg12
(I01
I01
tp2093
sba(iModules.cell
Cell
p2094
(dp2095
g5
I00
sg12
(I01
I01
tp2096
sba(iModules.cell
Cell
p2097
(dp2098
g5
I00
sg12
(I01
I01
tp2099
sba(iModules.cell
Cell
p2100
(dp2101
g5
I00
sg12
(I01
I01
tp2102
sba(iModules.cell
Cell
p2103
(dp2104
g5
I00
sg12
(I01
I01
tp2105
sba(iModules.cell
Cell
p2106
(dp2107
g5
I00
sg12
(I01
I01
tp2108
sba(iModules.cell
Cell
p2109
(dp2110
g5
I00
sg12
(I01
I01
tp2111
sba(iModules.cell
Cell
p2112
(dp2113
g5
I00
sg12
(I01
I01
tp2114
sba(iModules.cell
Cell
p2115
(dp2116
g5
I00
sg12
(I01
I01
tp2117
sba(iModules.cell
Cell
p2118
(dp2119
g5
I00
sg12
(I01
I01
tp2120
sba(iModules.cell
Cell
p2121
(dp2122
g5
I00
sg12
(I01
I01
tp2123
sba(iModules.cell
Cell
p2124
(dp2125
g5
I00
sg12
(I01
I01
tp2126
sba(iModules.cell
Cell
p2127
(dp2128
g5
I00
sg12
(I01
I01
tp2129
sba(iModules.cell
Cell
p2130
(dp2131
g5
I00
sg12
(I01
I01
tp2132
sba(iModules.cell
Cell
p2133
(dp2134
g5
I00
sg12
(I01
I01
tp2135
sba(iModules.cell
Cell
p2136
(dp2137
g5
I00
sg12
(I01
I01
tp2138
sba(iModules.cell
Cell
p2139
(dp2140
g5
I00
sg12
(I01
I01
tp2141
sba(iModules.cell
Cell
p2142
(dp2143
g5
I00
sg12
(I01
I01
tp2144
sba(iModules.cell
Cell
p2145
(dp2146
g5
I00
sg12
(I01
I01
tp2147
sba(iModules.cell
Cell
p2148
(dp2149
g5
I00
sg12
(I00
I00
tp2150
sba(iModules.cell
Cell
p2151
(dp2152
g5
I00
sg12
(I00
I00
tp2153
sba(iModules.cell
Cell
p2154
(dp2155
g5
I00
sg12
(I00
I00
tp2156
sba(iModules.cell
Cell
p2157
(dp2158
g5
I00
sg12
(I00
I00
tp2159
sba(iModules.cell
Cell
p2160
(dp2161
g5
I00
sg12
(I00
I00
tp2162
sba(iModules.cell
Cell
p2163
(dp2164
g5
I00
sg12
(I00
I00
tp2165
sba(iModules.cell
Cell
p2166
(dp2167
g5
I00
sg12
(I00
I00
tp2168
sba(iModules.cell
Cell
p2169
(dp2170
g5
I00
sg12
(I00
I00
tp2171
sba(iModules.cell
Cell
p2172
(dp2173
g5
I00
sg12
(I00
I00
tp2174
sba(iModules.cell
Cell
p2175
(dp2176
g5
I00
sg12
(I00
I00
tp2177
sba(iModules.cell
Cell
p2178
(dp2179
g5
I00
sg12
(I00
I00
tp2180
sba(iModules.cell
Cell
p2181
(dp2182
g5
I00
sg12
(I00
I00
tp2183
sba(iModules.cell
Cell
p2184
(dp2185
g5
I00
sg12
(I00
I00
tp2186
sba(iModules.cell
Cell
p2187
(dp2188
g5
I00
sg12
(I00
I00
tp2189
sba(iModules.cell
Cell
p2190
(dp2191
g5
I00
sg12
(I00
I00
tp2192
sba(iModules.cell
Cell
p2193
(dp2194
g5
I00
sg12
(I00
I00
tp2195
sba(iModules.cell
Cell
p2196
(dp2197
g5
I00
sg12
(I00
I00
tp2198
sba(iModules.cell
Cell
p2199
(dp2200
g5
I00
sg12
(I00
I00
tp2201
sba(iModules.cell
Cell
p2202
(dp2203
g5
I00
sg12
(I00
I00
tp2204
sba(iModules.cell
Cell
p2205
(dp2206
g12
(I00
I00
tp2207
sbaa(lp2208
(iModules.cell
Cell
p2209
(dp2210
g5
I00
sg12
(I00
I00
tp2211
sba(iModules.cell
Cell
p2212
(dp2213
g5
I01
sg260
I01
sg12
(I00
I00
tp2214
sba(iModules.cell
Cell
p2215
(dp2216
g5
I01
sg260
I01
sg12
(I01
I01
tp2217
sba(iModules.cell
Cell
p2218
(dp2219
g5
I01
sg260
I01
sg12
(I01
I01
tp2220
sba(iModules.cell
Cell
p2221
(dp2222
g5
I01
sg260
I01
sg12
(I01
I01
tp2223
sba(iModules.cell
Cell
p2224
(dp2225
g5
I01
sg260
I01
sg12
(I01
I01
tp2226
sba(iModules.cell
Cell
p2227
(dp2228
g5
I01
sg260
I01
sg12
(I01
I01
tp2229
sba(iModules.cell
Cell
p2230
(dp2231
g5
I01
sg260
I01
sg12
(I01
I01
tp2232
sba(iModules.cell
Cell
p2233
(dp2234
g5
I01
sg260
I01
sg12
(I01
I01
tp2235
sba(iModules.cell
Cell
p2236
(dp2237
g5
I01
sg260
I01
sg12
(I01
I01
tp2238
sba(iModules.cell
Cell
p2239
(dp2240
g5
I01
sg260
I01
sg12
(I01
I01
tp2241
sba(iModules.cell
Cell
p2242
(dp2243
g5
I01
sg260
I01
sg12
(I01
I01
tp2244
sba(iModules.cell
Cell
p2245
(dp2246
g5
I01
sg260
I01
sg12
(I01
I01
tp2247
sba(iModules.cell
Cell
p2248
(dp2249
g5
I01
sg260
I01
sg12
(I01
I01
tp2250
sba(iModules.cell
Cell
p2251
(dp2252
g5
I01
sg260
I01
sg12
(I01
I01
tp2253
sba(iModules.cell
Cell
p2254
(dp2255
g5
I01
sg260
I01
sg12
(I01
I01
tp2256
sba(iModules.cell
Cell
p2257
(dp2258
g5
I01
sg260
I01
sg12
(I01
I01
tp2259
sba(iModules.cell
Cell
p2260
(dp2261
g5
I01
sg260
I01
sg12
(I01
I01
tp2262
sba(iModules.cell
Cell
p2263
(dp2264
g5
I00
sg260
I01
sg12
(I01
I01
tp2265
sba(iModules.cell
Cell
p2266
(dp2267
g5
I00
sg260
I01
sg12
(I01
I01
tp2268
sba(iModules.cell
Cell
p2269
(dp2270
g5
I00
sg260
I01
sg12
(I01
I01
tp2271
sba(iModules.cell
Cell
p2272
(dp2273
g5
I00
sg260
I01
sg12
(I01
I01
tp2274
sba(iModules.cell
Cell
p2275
(dp2276
g5
I00
sg260
I01
sg12
(I01
I01
tp2277
sba(iModules.cell
Cell
p2278
(dp2279
g5
I00
sg260
I01
sg12
(I01
I01
tp2280
sba(iModules.cell
Cell
p2281
(dp2282
g5
I00
sg260
I01
sg12
(I01
I01
tp2283
sba(iModules.cell
Cell
p2284
(dp2285
g5
I00
sg260
I01
sg12
(I01
I01
tp2286
sba(iModules.cell
Cell
p2287
(dp2288
g5
I00
sg260
I01
sg12
(I01
I01
tp2289
sba(iModules.cell
Cell
p2290
(dp2291
g5
I00
sg260
I01
sg12
(I01
I01
tp2292
sba(iModules.cell
Cell
p2293
(dp2294
g5
I00
sg260
I01
sg12
(I01
I01
tp2295
sba(iModules.cell
Cell
p2296
(dp2297
g5
I00
sg260
I01
sg12
(I01
I01
tp2298
sba(iModules.cell
Cell
p2299
(dp2300
g5
I00
sg12
(I01
I01
tp2301
sba(iModules.cell
Cell
p2302
(dp2303
g5
I00
sg12
(I01
I01
tp2304
sba(iModules.cell
Cell
p2305
(dp2306
g5
I00
sg12
(I01
I01
tp2307
sba(iModules.cell
Cell
p2308
(dp2309
g5
I00
sg12
(I01
I01
tp2310
sba(iModules.cell
Cell
p2311
(dp2312
g5
I00
sg12
(I01
I01
tp2313
sba(iModules.cell
Cell
p2314
(dp2315
g5
I00
sg12
(I01
I01
tp2316
sba(iModules.cell
Cell
p2317
(dp2318
g5
I00
sg12
(I01
I01
tp2319
sba(iModules.cell
Cell
p2320
(dp2321
g5
I00
sg12
(I01
I01
tp2322
sba(iModules.cell
Cell
p2323
(dp2324
g5
I00
sg12
(I01
I01
tp2325
sba(iModules.cell
Cell
p2326
(dp2327
g5
I00
sg12
(I01
I01
tp2328
sba(iModules.cell
Cell
p2329
(dp2330
g5
I00
sg12
(I01
I01
tp2331
sba(iModules.cell
Cell
p2332
(dp2333
g5
I00
sg12
(I01
I01
tp2334
sba(iModules.cell
Cell
p2335
(dp2336
g5
I00
sg12
(I01
I01
tp2337
sba(iModules.cell
Cell
p2338
(dp2339
g5
I00
sg12
(I01
I01
tp2340
sba(iModules.cell
Cell
p2341
(dp2342
g5
I00
sg12
(I01
I01
tp2343
sba(iModules.cell
Cell
p2344
(dp2345
g5
I00
sg12
(I01
I01
tp2346
sba(iModules.cell
Cell
p2347
(dp2348
g5
I00
sg12
(I01
I01
tp2349
sba(iModules.cell
Cell
p2350
(dp2351
g5
I00
sg12
(I01
I01
tp2352
sba(iModules.cell
Cell
p2353
(dp2354
g5
I00
sg12
(I01
I01
tp2355
sba(iModules.cell
Cell
p2356
(dp2357
g5
I00
sg12
(I01
I01
tp2358
sba(iModules.cell
Cell
p2359
(dp2360
g5
I00
sg12
(I01
I01
tp2361
sba(iModules.cell
Cell
p2362
(dp2363
g5
I00
sg12
(I01
I01
tp2364
sba(iModules.cell
Cell
p2365
(dp2366
g5
I00
sg12
(I01
I01
tp2367
sba(iModules.cell
Cell
p2368
(dp2369
g5
I00
sg12
(I01
I01
tp2370
sba(iModules.cell
Cell
p2371
(dp2372
g5
I00
sg12
(I01
I01
tp2373
sba(iModules.cell
Cell
p2374
(dp2375
g5
I00
sg12
(I01
I01
tp2376
sba(iModules.cell
Cell
p2377
(dp2378
g5
I00
sg12
(I01
I01
tp2379
sba(iModules.cell
Cell
p2380
(dp2381
g5
I00
sg12
(I01
I01
tp2382
sba(iModules.cell
Cell
p2383
(dp2384
g5
I00
sg12
(I01
I01
tp2385
sba(iModules.cell
Cell
p2386
(dp2387
g5
I00
sg12
(I01
I01
tp2388
sba(iModules.cell
Cell
p2389
(dp2390
g5
I00
sg12
(I01
I01
tp2391
sba(iModules.cell
Cell
p2392
(dp2393
g5
I00
sg12
(I00
I00
tp2394
sba(iModules.cell
Cell
p2395
(dp2396
g5
I00
sg12
(I00
I00
tp2397
sba(iModules.cell
Cell
p2398
(dp2399
g5
I00
sg12
(I00
I00
tp2400
sba(iModules.cell
Cell
p2401
(dp2402
g5
I00
sg12
(I00
I00
tp2403
sba(iModules.cell
Cell
p2404
(dp2405
g5
I00
sg12
(I00
I00
tp2406
sba(iModules.cell
Cell
p2407
(dp2408
g5
I00
sg12
(I00
I00
tp2409
sba(iModules.cell
Cell
p2410
(dp2411
g5
I00
sg12
(I00
I00
tp2412
sba(iModules.cell
Cell
p2413
(dp2414
g5
I00
sg12
(I00
I00
tp2415
sba(iModules.cell
Cell
p2416
(dp2417
g5
I00
sg12
(I00
I00
tp2418
sba(iModules.cell
Cell
p2419
(dp2420
g5
I00
sg12
(I00
I00
tp2421
sba(iModules.cell
Cell
p2422
(dp2423
g5
I00
sg12
(I00
I00
tp2424
sba(iModules.cell
Cell
p2425
(dp2426
g5
I00
sg12
(I00
I00
tp2427
sba(iModules.cell
Cell
p2428
(dp2429
g5
I00
sg12
(I00
I00
tp2430
sba(iModules.cell
Cell
p2431
(dp2432
g5
I00
sg12
(I00
I00
tp2433
sba(iModules.cell
Cell
p2434
(dp2435
g5
I00
sg12
(I00
I00
tp2436
sba(iModules.cell
Cell
p2437
(dp2438
g5
I00
sg12
(I00
I00
tp2439
sba(iModules.cell
Cell
p2440
(dp2441
g5
I00
sg12
(I00
I00
tp2442
sba(iModules.cell
Cell
p2443
(dp2444
g5
I00
sg12
(I00
I00
tp2445
sba(iModules.cell
Cell
p2446
(dp2447
g5
I00
sg12
(I00
I00
tp2448
sba(iModules.cell
Cell
p2449
(dp2450
g12
(I00
I00
tp2451
sbaa(lp2452
(iModules.cell
Cell
p2453
(dp2454
g5
I00
sg12
(I00
I00
tp2455
sba(iModules.cell
Cell
p2456
(dp2457
g5
I01
sg260
I01
sg12
(I00
I00
tp2458
sba(iModules.cell
Cell
p2459
(dp2460
g5
I01
sg260
I01
sg12
(I01
I01
tp2461
sba(iModules.cell
Cell
p2462
(dp2463
g5
I01
sg260
I01
sg12
(I01
I01
tp2464
sba(iModules.cell
Cell
p2465
(dp2466
g5
I01
sg260
I01
sg12
(I01
I01
tp2467
sba(iModules.cell
Cell
p2468
(dp2469
g5
I01
sg260
I01
sg12
(I01
I01
tp2470
sba(iModules.cell
Cell
p2471
(dp2472
g5
I01
sg260
I01
sg12
(I01
I01
tp2473
sba(iModules.cell
Cell
p2474
(dp2475
g5
I01
sg260
I01
sg12
(I01
I01
tp2476
sba(iModules.cell
Cell
p2477
(dp2478
g5
I01
sg260
I01
sg12
(I01
I01
tp2479
sba(iModules.cell
Cell
p2480
(dp2481
g5
I01
sg260
I01
sg12
(I01
I01
tp2482
sba(iModules.cell
Cell
p2483
(dp2484
g5
I01
sg260
I01
sg12
(I01
I01
tp2485
sba(iModules.cell
Cell
p2486
(dp2487
g5
I01
sg260
I01
sg12
(I01
I01
tp2488
sba(iModules.cell
Cell
p2489
(dp2490
g5
I01
sg260
I01
sg12
(I01
I01
tp2491
sba(iModules.cell
Cell
p2492
(dp2493
g5
I01
sg260
I01
sg12
(I01
I01
tp2494
sba(iModules.cell
Cell
p2495
(dp2496
g5
I01
sg260
I01
sg12
(I01
I01
tp2497
sba(iModules.cell
Cell
p2498
(dp2499
g5
I01
sg260
I01
sg12
(I01
I01
tp2500
sba(iModules.cell
Cell
p2501
(dp2502
g5
I01
sg260
I01
sg12
(I01
I01
tp2503
sba(iModules.cell
Cell
p2504
(dp2505
g5
I01
sg260
I01
sg12
(I01
I01
tp2506
sba(iModules.cell
Cell
p2507
(dp2508
g5
I00
sg260
I01
sg12
(I01
I01
tp2509
sba(iModules.cell
Cell
p2510
(dp2511
g5
I00
sg260
I01
sg12
(I01
I01
tp2512
sba(iModules.cell
Cell
p2513
(dp2514
g5
I00
sg260
I01
sg12
(I01
I01
tp2515
sba(iModules.cell
Cell
p2516
(dp2517
g5
I00
sg260
I01
sg12
(I01
I01
tp2518
sba(iModules.cell
Cell
p2519
(dp2520
g5
I00
sg260
I01
sg12
(I01
I01
tp2521
sba(iModules.cell
Cell
p2522
(dp2523
g5
I00
sg260
I01
sg12
(I01
I01
tp2524
sba(iModules.cell
Cell
p2525
(dp2526
g5
I00
sg260
I01
sg12
(I01
I01
tp2527
sba(iModules.cell
Cell
p2528
(dp2529
g5
I00
sg260
I01
sg12
(I01
I01
tp2530
sba(iModules.cell
Cell
p2531
(dp2532
g5
I00
sg260
I01
sg12
(I01
I01
tp2533
sba(iModules.cell
Cell
p2534
(dp2535
g5
I00
sg260
I01
sg12
(I01
I01
tp2536
sba(iModules.cell
Cell
p2537
(dp2538
g5
I00
sg260
I01
sg12
(I01
I01
tp2539
sba(iModules.cell
Cell
p2540
(dp2541
g5
I00
sg260
I01
sg12
(I01
I01
tp2542
sba(iModules.cell
Cell
p2543
(dp2544
g5
I00
sg12
(I01
I01
tp2545
sba(iModules.cell
Cell
p2546
(dp2547
g5
I00
sg12
(I01
I01
tp2548
sba(iModules.cell
Cell
p2549
(dp2550
g5
I00
sg12
(I01
I01
tp2551
sba(iModules.cell
Cell
p2552
(dp2553
g5
I00
sg12
(I01
I01
tp2554
sba(iModules.cell
Cell
p2555
(dp2556
g5
I00
sg12
(I01
I01
tp2557
sba(iModules.cell
Cell
p2558
(dp2559
g5
I00
sg12
(I01
I01
tp2560
sba(iModules.cell
Cell
p2561
(dp2562
g5
I00
sg12
(I01
I01
tp2563
sba(iModules.cell
Cell
p2564
(dp2565
g5
I00
sg12
(I01
I01
tp2566
sba(iModules.cell
Cell
p2567
(dp2568
g5
I00
sg12
(I01
I01
tp2569
sba(iModules.cell
Cell
p2570
(dp2571
g5
I00
sg12
(I01
I01
tp2572
sba(iModules.cell
Cell
p2573
(dp2574
g5
I00
sg12
(I01
I01
tp2575
sba(iModules.cell
Cell
p2576
(dp2577
g5
I00
sg12
(I01
I01
tp2578
sba(iModules.cell
Cell
p2579
(dp2580
g5
I00
sg12
(I01
I01
tp2581
sba(iModules.cell
Cell
p2582
(dp2583
g5
I00
sg12
(I01
I01
tp2584
sba(iModules.cell
Cell
p2585
(dp2586
g5
I00
sg12
(I01
I01
tp2587
sba(iModules.cell
Cell
p2588
(dp2589
g5
I00
sg12
(I01
I01
tp2590
sba(iModules.cell
Cell
p2591
(dp2592
g5
I00
sg12
(I01
I01
tp2593
sba(iModules.cell
Cell
p2594
(dp2595
g5
I00
sg12
(I01
I01
tp2596
sba(iModules.cell
Cell
p2597
(dp2598
g5
I00
sg12
(I01
I01
tp2599
sba(iModules.cell
Cell
p2600
(dp2601
g5
I00
sg12
(I01
I01
tp2602
sba(iModules.cell
Cell
p2603
(dp2604
g5
I00
sg12
(I01
I01
tp2605
sba(iModules.cell
Cell
p2606
(dp2607
g5
I00
sg12
(I01
I01
tp2608
sba(iModules.cell
Cell
p2609
(dp2610
g5
I00
sg12
(I01
I01
tp2611
sba(iModules.cell
Cell
p2612
(dp2613
g5
I00
sg12
(I01
I01
tp2614
sba(iModules.cell
Cell
p2615
(dp2616
g5
I00
sg12
(I01
I01
tp2617
sba(iModules.cell
Cell
p2618
(dp2619
g5
I00
sg12
(I01
I01
tp2620
sba(iModules.cell
Cell
p2621
(dp2622
g5
I00
sg12
(I01
I01
tp2623
sba(iModules.cell
Cell
p2624
(dp2625
g5
I00
sg12
(I01
I01
tp2626
sba(iModules.cell
Cell
p2627
(dp2628
g5
I00
sg12
(I01
I01
tp2629
sba(iModules.cell
Cell
p2630
(dp2631
g5
I00
sg12
(I01
I01
tp2632
sba(iModules.cell
Cell
p2633
(dp2634
g5
I00
sg12
(I01
I01
tp2635
sba(iModules.cell
Cell
p2636
(dp2637
g5
I00
sg12
(I00
I00
tp2638
sba(iModules.cell
Cell
p2639
(dp2640
g5
I00
sg12
(I00
I00
tp2641
sba(iModules.cell
Cell
p2642
(dp2643
g5
I00
sg12
(I00
I00
tp2644
sba(iModules.cell
Cell
p2645
(dp2646
g5
I00
sg12
(I00
I00
tp2647
sba(iModules.cell
Cell
p2648
(dp2649
g5
I00
sg12
(I00
I00
tp2650
sba(iModules.cell
Cell
p2651
(dp2652
g5
I00
sg12
(I00
I00
tp2653
sba(iModules.cell
Cell
p2654
(dp2655
g5
I00
sg12
(I00
I00
tp2656
sba(iModules.cell
Cell
p2657
(dp2658
g5
I00
sg12
(I00
I00
tp2659
sba(iModules.cell
Cell
p2660
(dp2661
g5
I00
sg12
(I00
I00
tp2662
sba(iModules.cell
Cell
p2663
(dp2664
g5
I00
sg12
(I00
I00
tp2665
sba(iModules.cell
Cell
p2666
(dp2667
g5
I00
sg12
(I00
I00
tp2668
sba(iModules.cell
Cell
p2669
(dp2670
g5
I00
sg12
(I00
I00
tp2671
sba(iModules.cell
Cell
p2672
(dp2673
g5
I00
sg12
(I00
I00
tp2674
sba(iModules.cell
Cell
p2675
(dp2676
g5
I00
sg12
(I00
I00
tp2677
sba(iModules.cell
Cell
p2678
(dp2679
g5
I00
sg12
(I00
I00
tp2680
sba(iModules.cell
Cell
p2681
(dp2682
g5
I00
sg12
(I00
I00
tp2683
sba(iModules.cell
Cell
p2684
(dp2685
g5
I00
sg12
(I00
I00
tp2686
sba(iModules.cell
Cell
p2687
(dp2688
g5
I00
sg12
(I00
I00
tp2689
sba(iModules.cell
Cell
p2690
(dp2691
g5
I00
sg12
(I00
I00
tp2692
sba(iModules.cell
Cell
p2693
(dp2694
g12
(I00
I00
tp2695
sbaa(lp2696
(iModules.cell
Cell
p2697
(dp2698
g5
I00
sg12
(I00
I00
tp2699
sba(iModules.cell
Cell
p2700
(dp2701
g5
I01
sg260
I01
sg12
(I00
I00
tp2702
sba(iModules.cell
Cell
p2703
(dp2704
g5
I01
sg260
I01
sg12
(I01
I01
tp2705
sba(iModules.cell
Cell
p2706
(dp2707
g5
I01
sg260
I01
sg12
(I01
I01
tp2708
sba(iModules.cell
Cell
p2709
(dp2710
g5
I01
sg260
I01
sg12
(I01
I01
tp2711
sba(iModules.cell
Cell
p2712
(dp2713
g5
I01
sg260
I01
sg12
(I01
I01
tp2714
sba(iModules.cell
Cell
p2715
(dp2716
g5
I01
sg260
I01
sg12
(I01
I01
tp2717
sba(iModules.cell
Cell
p2718
(dp2719
g5
I01
sg260
I01
sg12
(I01
I01
tp2720
sba(iModules.cell
Cell
p2721
(dp2722
g5
I01
sg260
I01
sg12
(I01
I01
tp2723
sba(iModules.cell
Cell
p2724
(dp2725
g5
I01
sg260
I01
sg12
(I01
I01
tp2726
sba(iModules.cell
Cell
p2727
(dp2728
g5
I01
sg260
I01
sg12
(I01
I01
tp2729
sba(iModules.cell
Cell
p2730
(dp2731
g5
I01
sg260
I01
sg12
(I01
I01
tp2732
sba(iModules.cell
Cell
p2733
(dp2734
g5
I01
sg260
I01
sg12
(I01
I01
tp2735
sba(iModules.cell
Cell
p2736
(dp2737
g5
I01
sg260
I01
sg12
(I01
I01
tp2738
sba(iModules.cell
Cell
p2739
(dp2740
g5
I01
sg260
I01
sg12
(I01
I01
tp2741
sba(iModules.cell
Cell
p2742
(dp2743
g5
I01
sg260
I01
sg12
(I01
I01
tp2744
sba(iModules.cell
Cell
p2745
(dp2746
g5
I01
sg260
I01
sg12
(I01
I01
tp2747
sba(iModules.cell
Cell
p2748
(dp2749
g5
I01
sg260
I01
sg12
(I01
I01
tp2750
sba(iModules.cell
Cell
p2751
(dp2752
g5
I00
sg260
I01
sg12
(I01
I01
tp2753
sba(iModules.cell
Cell
p2754
(dp2755
g5
I00
sg260
I01
sg12
(I01
I01
tp2756
sba(iModules.cell
Cell
p2757
(dp2758
g5
I00
sg260
I01
sg12
(I01
I01
tp2759
sba(iModules.cell
Cell
p2760
(dp2761
g5
I00
sg260
I01
sg12
(I01
I01
tp2762
sba(iModules.cell
Cell
p2763
(dp2764
g5
I00
sg260
I01
sg12
(I01
I01
tp2765
sba(iModules.cell
Cell
p2766
(dp2767
g5
I00
sg260
I01
sg12
(I01
I01
tp2768
sba(iModules.cell
Cell
p2769
(dp2770
g5
I00
sg260
I01
sg12
(I01
I01
tp2771
sba(iModules.cell
Cell
p2772
(dp2773
g5
I00
sg260
I01
sg12
(I01
I01
tp2774
sba(iModules.cell
Cell
p2775
(dp2776
g5
I00
sg260
I01
sg12
(I01
I01
tp2777
sba(iModules.cell
Cell
p2778
(dp2779
g5
I00
sg260
I01
sg12
(I01
I01
tp2780
sba(iModules.cell
Cell
p2781
(dp2782
g5
I00
sg260
I01
sg12
(I01
I01
tp2783
sba(iModules.cell
Cell
p2784
(dp2785
g5
I00
sg260
I01
sg12
(I01
I01
tp2786
sba(iModules.cell
Cell
p2787
(dp2788
g5
I00
sg12
(I01
I01
tp2789
sba(iModules.cell
Cell
p2790
(dp2791
g5
I00
sg12
(I01
I01
tp2792
sba(iModules.cell
Cell
p2793
(dp2794
g5
I00
sg12
(I01
I01
tp2795
sba(iModules.cell
Cell
p2796
(dp2797
g5
I00
sg12
(I01
I01
tp2798
sba(iModules.cell
Cell
p2799
(dp2800
g5
I00
sg12
(I01
I01
tp2801
sba(iModules.cell
Cell
p2802
(dp2803
g5
I00
sg12
(I01
I01
tp2804
sba(iModules.cell
Cell
p2805
(dp2806
g5
I00
sg12
(I01
I01
tp2807
sba(iModules.cell
Cell
p2808
(dp2809
g5
I00
sg12
(I01
I01
tp2810
sba(iModules.cell
Cell
p2811
(dp2812
g5
I00
sg12
(I01
I01
tp2813
sba(iModules.cell
Cell
p2814
(dp2815
g5
I00
sg12
(I01
I01
tp2816
sba(iModules.cell
Cell
p2817
(dp2818
g5
I00
sg12
(I01
I01
tp2819
sba(iModules.cell
Cell
p2820
(dp2821
g5
I00
sg12
(I01
I01
tp2822
sba(iModules.cell
Cell
p2823
(dp2824
g5
I00
sg12
(I01
I01
tp2825
sba(iModules.cell
Cell
p2826
(dp2827
g5
I00
sg12
(I01
I01
tp2828
sba(iModules.cell
Cell
p2829
(dp2830
g5
I00
sg12
(I01
I01
tp2831
sba(iModules.cell
Cell
p2832
(dp2833
g5
I00
sg12
(I01
I01
tp2834
sba(iModules.cell
Cell
p2835
(dp2836
g5
I00
sg12
(I01
I01
tp2837
sba(iModules.cell
Cell
p2838
(dp2839
g5
I00
sg12
(I01
I01
tp2840
sba(iModules.cell
Cell
p2841
(dp2842
g5
I00
sg12
(I01
I01
tp2843
sba(iModules.cell
Cell
p2844
(dp2845
g5
I00
sg12
(I01
I01
tp2846
sba(iModules.cell
Cell
p2847
(dp2848
g5
I00
sg12
(I01
I01
tp2849
sba(iModules.cell
Cell
p2850
(dp2851
g5
I00
sg12
(I01
I01
tp2852
sba(iModules.cell
Cell
p2853
(dp2854
g5
I00
sg12
(I01
I01
tp2855
sba(iModules.cell
Cell
p2856
(dp2857
g5
I00
sg12
(I01
I01
tp2858
sba(iModules.cell
Cell
p2859
(dp2860
g5
I00
sg12
(I01
I01
tp2861
sba(iModules.cell
Cell
p2862
(dp2863
g5
I00
sg12
(I01
I01
tp2864
sba(iModules.cell
Cell
p2865
(dp2866
g5
I00
sg12
(I01
I01
tp2867
sba(iModules.cell
Cell
p2868
(dp2869
g5
I00
sg12
(I01
I01
tp2870
sba(iModules.cell
Cell
p2871
(dp2872
g5
I00
sg12
(I01
I01
tp2873
sba(iModules.cell
Cell
p2874
(dp2875
g5
I00
sg12
(I01
I01
tp2876
sba(iModules.cell
Cell
p2877
(dp2878
g5
I00
sg12
(I01
I01
tp2879
sba(iModules.cell
Cell
p2880
(dp2881
g5
I00
sg12
(I00
I00
tp2882
sba(iModules.cell
Cell
p2883
(dp2884
g5
I00
sg12
(I00
I00
tp2885
sba(iModules.cell
Cell
p2886
(dp2887
g5
I00
sg12
(I00
I00
tp2888
sba(iModules.cell
Cell
p2889
(dp2890
g5
I00
sg12
(I00
I00
tp2891
sba(iModules.cell
Cell
p2892
(dp2893
g5
I00
sg12
(I00
I00
tp2894
sba(iModules.cell
Cell
p2895
(dp2896
g5
I00
sg12
(I00
I00
tp2897
sba(iModules.cell
Cell
p2898
(dp2899
g5
I00
sg12
(I00
I00
tp2900
sba(iModules.cell
Cell
p2901
(dp2902
g5
I00
sg12
(I00
I00
tp2903
sba(iModules.cell
Cell
p2904
(dp2905
g5
I00
sg12
(I00
I00
tp2906
sba(iModules.cell
Cell
p2907
(dp2908
g5
I00
sg12
(I00
I00
tp2909
sba(iModules.cell
Cell
p2910
(dp2911
g5
I00
sg12
(I00
I00
tp2912
sba(iModules.cell
Cell
p2913
(dp2914
g5
I00
sg12
(I00
I00
tp2915
sba(iModules.cell
Cell
p2916
(dp2917
g5
I00
sg12
(I00
I00
tp2918
sba(iModules.cell
Cell
p2919
(dp2920
g5
I00
sg12
(I00
I00
tp2921
sba(iModules.cell
Cell
p2922
(dp2923
g5
I00
sg12
(I00
I00
tp2924
sba(iModules.cell
Cell
p2925
(dp2926
g5
I00
sg12
(I00
I00
tp2927
sba(iModules.cell
Cell
p2928
(dp2929
g5
I00
sg12
(I00
I00
tp2930
sba(iModules.cell
Cell
p2931
(dp2932
g5
I00
sg12
(I00
I00
tp2933
sba(iModules.cell
Cell
p2934
(dp2935
g5
I00
sg12
(I00
I00
tp2936
sba(iModules.cell
Cell
p2937
(dp2938
g12
(I00
I00
tp2939
sbaa(lp2940
(iModules.cell
Cell
p2941
(dp2942
g5
I00
sg12
(I00
I00
tp2943
sba(iModules.cell
Cell
p2944
(dp2945
g5
I01
sg260
I01
sg12
(I00
I00
tp2946
sba(iModules.cell
Cell
p2947
(dp2948
g5
I01
sg260
I01
sg12
(I01
I01
tp2949
sba(iModules.cell
Cell
p2950
(dp2951
g5
I01
sg260
I01
sg12
(I01
I01
tp2952
sba(iModules.cell
Cell
p2953
(dp2954
g5
I01
sg260
I01
sg12
(I01
I01
tp2955
sba(iModules.cell
Cell
p2956
(dp2957
g5
I01
sg260
I01
sg12
(I01
I01
tp2958
sba(iModules.cell
Cell
p2959
(dp2960
g5
I01
sg260
I01
sg12
(I01
I01
tp2961
sba(iModules.cell
Cell
p2962
(dp2963
g5
I01
sg260
I01
sg12
(I01
I01
tp2964
sba(iModules.cell
Cell
p2965
(dp2966
g5
I01
sg260
I01
sg12
(I01
I01
tp2967
sba(iModules.cell
Cell
p2968
(dp2969
g5
I01
sg260
I01
sg12
(I01
I01
tp2970
sba(iModules.cell
Cell
p2971
(dp2972
g5
I01
sg260
I01
sg12
(I01
I01
tp2973
sba(iModules.cell
Cell
p2974
(dp2975
g5
I01
sg260
I01
sg12
(I01
I01
tp2976
sba(iModules.cell
Cell
p2977
(dp2978
g5
I01
sg260
I01
sg12
(I01
I01
tp2979
sba(iModules.cell
Cell
p2980
(dp2981
g5
I01
sg260
I01
sg12
(I01
I01
tp2982
sba(iModules.cell
Cell
p2983
(dp2984
g5
I01
sg260
I01
sg12
(I01
I01
tp2985
sba(iModules.cell
Cell
p2986
(dp2987
g5
I01
sg260
I01
sg12
(I01
I01
tp2988
sba(iModules.cell
Cell
p2989
(dp2990
g5
I01
sg260
I01
sg12
(I01
I01
tp2991
sba(iModules.cell
Cell
p2992
(dp2993
g5
I01
sg260
I01
sg12
(I01
I01
tp2994
sba(iModules.cell
Cell
p2995
(dp2996
g5
I00
sg260
I01
sg12
(I01
I01
tp2997
sba(iModules.cell
Cell
p2998
(dp2999
g5
I00
sg260
I01
sg12
(I01
I01
tp3000
sba(iModules.cell
Cell
p3001
(dp3002
g5
I00
sg260
I01
sg12
(I01
I01
tp3003
sba(iModules.cell
Cell
p3004
(dp3005
g5
I00
sg260
I01
sg12
(I01
I01
tp3006
sba(iModules.cell
Cell
p3007
(dp3008
g5
I00
sg260
I01
sg12
(I01
I01
tp3009
sba(iModules.cell
Cell
p3010
(dp3011
g5
I00
sg260
I01
sg12
(I01
I01
tp3012
sba(iModules.cell
Cell
p3013
(dp3014
g5
I00
sg260
I01
sg12
(I01
I01
tp3015
sba(iModules.cell
Cell
p3016
(dp3017
g5
I00
sg260
I01
sg12
(I01
I01
tp3018
sba(iModules.cell
Cell
p3019
(dp3020
g5
I00
sg260
I01
sg12
(I01
I01
tp3021
sba(iModules.cell
Cell
p3022
(dp3023
g5
I00
sg260
I01
sg12
(I01
I01
tp3024
sba(iModules.cell
Cell
p3025
(dp3026
g5
I00
sg260
I01
sg12
(I01
I01
tp3027
sba(iModules.cell
Cell
p3028
(dp3029
g5
I00
sg260
I01
sg12
(I01
I01
tp3030
sba(iModules.cell
Cell
p3031
(dp3032
g5
I00
sg12
(I01
I01
tp3033
sba(iModules.cell
Cell
p3034
(dp3035
g5
I00
sg12
(I01
I01
tp3036
sba(iModules.cell
Cell
p3037
(dp3038
g5
I00
sg12
(I01
I01
tp3039
sba(iModules.cell
Cell
p3040
(dp3041
g5
I00
sg12
(I01
I01
tp3042
sba(iModules.cell
Cell
p3043
(dp3044
g5
I00
sg12
(I01
I01
tp3045
sba(iModules.cell
Cell
p3046
(dp3047
g5
I00
sg12
(I01
I01
tp3048
sba(iModules.cell
Cell
p3049
(dp3050
g5
I00
sg12
(I01
I01
tp3051
sba(iModules.cell
Cell
p3052
(dp3053
g5
I00
sg12
(I01
I01
tp3054
sba(iModules.cell
Cell
p3055
(dp3056
g5
I00
sg12
(I01
I01
tp3057
sba(iModules.cell
Cell
p3058
(dp3059
g5
I00
sg12
(I01
I01
tp3060
sba(iModules.cell
Cell
p3061
(dp3062
g5
I00
sg12
(I01
I01
tp3063
sba(iModules.cell
Cell
p3064
(dp3065
g5
I00
sg12
(I01
I01
tp3066
sba(iModules.cell
Cell
p3067
(dp3068
g5
I00
sg12
(I01
I01
tp3069
sba(iModules.cell
Cell
p3070
(dp3071
g5
I00
sg12
(I01
I01
tp3072
sba(iModules.cell
Cell
p3073
(dp3074
g5
I00
sg12
(I01
I01
tp3075
sba(iModules.cell
Cell
p3076
(dp3077
g5
I00
sg12
(I01
I01
tp3078
sba(iModules.cell
Cell
p3079
(dp3080
g5
I00
sg12
(I01
I01
tp3081
sba(iModules.cell
Cell
p3082
(dp3083
g5
I00
sg12
(I01
I01
tp3084
sba(iModules.cell
Cell
p3085
(dp3086
g5
I00
sg12
(I01
I01
tp3087
sba(iModules.cell
Cell
p3088
(dp3089
g5
I00
sg12
(I01
I01
tp3090
sba(iModules.cell
Cell
p3091
(dp3092
g5
I00
sg12
(I01
I01
tp3093
sba(iModules.cell
Cell
p3094
(dp3095
g5
I00
sg12
(I01
I01
tp3096
sba(iModules.cell
Cell
p3097
(dp3098
g5
I00
sg12
(I01
I01
tp3099
sba(iModules.cell
Cell
p3100
(dp3101
g5
I00
sg12
(I01
I01
tp3102
sba(iModules.cell
Cell
p3103
(dp3104
g5
I00
sg12
(I01
I01
tp3105
sba(iModules.cell
Cell
p3106
(dp3107
g5
I00
sg12
(I01
I01
tp3108
sba(iModules.cell
Cell
p3109
(dp3110
g5
I00
sg12
(I01
I01
tp3111
sba(iModules.cell
Cell
p3112
(dp3113
g5
I00
sg12
(I01
I01
tp3114
sba(iModules.cell
Cell
p3115
(dp3116
g5
I00
sg12
(I01
I01
tp3117
sba(iModules.cell
Cell
p3118
(dp3119
g5
I00
sg12
(I01
I01
tp3120
sba(iModules.cell
Cell
p3121
(dp3122
g5
I00
sg12
(I01
I01
tp3123
sba(iModules.cell
Cell
p3124
(dp3125
g5
I00
sg12
(I00
I00
tp3126
sba(iModules.cell
Cell
p3127
(dp3128
g5
I00
sg12
(I00
I00
tp3129
sba(iModules.cell
Cell
p3130
(dp3131
g5
I00
sg12
(I00
I00
tp3132
sba(iModules.cell
Cell
p3133
(dp3134
g5
I00
sg12
(I00
I00
tp3135
sba(iModules.cell
Cell
p3136
(dp3137
g5
I00
sg12
(I00
I00
tp3138
sba(iModules.cell
Cell
p3139
(dp3140
g5
I00
sg12
(I00
I00
tp3141
sba(iModules.cell
Cell
p3142
(dp3143
g5
I00
sg12
(I00
I00
tp3144
sba(iModules.cell
Cell
p3145
(dp3146
g5
I00
sg12
(I00
I00
tp3147
sba(iModules.cell
Cell
p3148
(dp3149
g5
I00
sg12
(I00
I00
tp3150
sba(iModules.cell
Cell
p3151
(dp3152
g5
I00
sg12
(I00
I00
tp3153
sba(iModules.cell
Cell
p3154
(dp3155
g5
I00
sg12
(I00
I00
tp3156
sba(iModules.cell
Cell
p3157
(dp3158
g5
I00
sg12
(I00
I00
tp3159
sba(iModules.cell
Cell
p3160
(dp3161
g5
I00
sg12
(I00
I00
tp3162
sba(iModules.cell
Cell
p3163
(dp3164
g5
I00
sg12
(I00
I00
tp3165
sba(iModules.cell
Cell
p3166
(dp3167
g5
I00
sg12
(I00
I00
tp3168
sba(iModules.cell
Cell
p3169
(dp3170
g5
I00
sg12
(I00
I00
tp3171
sba(iModules.cell
Cell
p3172
(dp3173
g5
I00
sg12
(I00
I00
tp3174
sba(iModules.cell
Cell
p3175
(dp3176
g5
I00
sg12
(I00
I00
tp3177
sba(iModules.cell
Cell
p3178
(dp3179
g5
I00
sg12
(I00
I00
tp3180
sba(iModules.cell
Cell
p3181
(dp3182
g12
(I00
I00
tp3183
sbaa(lp3184
(iModules.cell
Cell
p3185
(dp3186
g5
I00
sg12
(I00
I00
tp3187
sba(iModules.cell
Cell
p3188
(dp3189
g5
I01
sg260
I01
sg12
(I00
I00
tp3190
sba(iModules.cell
Cell
p3191
(dp3192
g5
I01
sg260
I01
sg12
(I01
I01
tp3193
sba(iModules.cell
Cell
p3194
(dp3195
g5
I01
sg260
I01
sg12
(I01
I01
tp3196
sba(iModules.cell
Cell
p3197
(dp3198
g5
I01
sg260
I01
sg12
(I01
I01
tp3199
sba(iModules.cell
Cell
p3200
(dp3201
g5
I01
sg260
I01
sg12
(I01
I01
tp3202
sba(iModules.cell
Cell
p3203
(dp3204
g5
I01
sg260
I01
sg12
(I01
I01
tp3205
sba(iModules.cell
Cell
p3206
(dp3207
g5
I01
sg260
I01
sg12
(I01
I01
tp3208
sba(iModules.cell
Cell
p3209
(dp3210
g5
I01
sg260
I01
sg12
(I01
I01
tp3211
sba(iModules.cell
Cell
p3212
(dp3213
g5
I01
sg260
I01
sg12
(I01
I01
tp3214
sba(iModules.cell
Cell
p3215
(dp3216
g5
I01
sg260
I01
sg12
(I01
I01
tp3217
sba(iModules.cell
Cell
p3218
(dp3219
g5
I01
sg260
I01
sg12
(I01
I01
tp3220
sba(iModules.cell
Cell
p3221
(dp3222
g5
I01
sg260
I01
sg12
(I01
I01
tp3223
sba(iModules.cell
Cell
p3224
(dp3225
g5
I01
sg260
I01
sg12
(I01
I01
tp3226
sba(iModules.cell
Cell
p3227
(dp3228
g5
I01
sg260
I01
sg12
(I01
I01
tp3229
sba(iModules.cell
Cell
p3230
(dp3231
g5
I01
sg260
I01
sg12
(I01
I01
tp3232
sba(iModules.cell
Cell
p3233
(dp3234
g5
I01
sg260
I01
sg12
(I01
I01
tp3235
sba(iModules.cell
Cell
p3236
(dp3237
g5
I01
sg260
I01
sg12
(I01
I01
tp3238
sba(iModules.cell
Cell
p3239
(dp3240
g5
I00
sg260
I01
sg12
(I01
I01
tp3241
sba(iModules.cell
Cell
p3242
(dp3243
g5
I00
sg260
I01
sg12
(I01
I01
tp3244
sba(iModules.cell
Cell
p3245
(dp3246
g5
I00
sg260
I01
sg12
(I01
I01
tp3247
sba(iModules.cell
Cell
p3248
(dp3249
g5
I00
sg260
I01
sg12
(I01
I01
tp3250
sba(iModules.cell
Cell
p3251
(dp3252
g5
I00
sg260
I01
sg12
(I01
I01
tp3253
sba(iModules.cell
Cell
p3254
(dp3255
g5
I00
sg260
I01
sg12
(I01
I01
tp3256
sba(iModules.cell
Cell
p3257
(dp3258
g5
I00
sg260
I01
sg12
(I01
I01
tp3259
sba(iModules.cell
Cell
p3260
(dp3261
g5
I00
sg260
I01
sg12
(I01
I01
tp3262
sba(iModules.cell
Cell
p3263
(dp3264
g5
I00
sg260
I01
sg12
(I01
I01
tp3265
sba(iModules.cell
Cell
p3266
(dp3267
g5
I00
sg260
I01
sg12
(I01
I01
tp3268
sba(iModules.cell
Cell
p3269
(dp3270
g5
I00
sg260
I01
sg12
(I01
I01
tp3271
sba(iModules.cell
Cell
p3272
(dp3273
g5
I00
sg260
I01
sg12
(I01
I01
tp3274
sba(iModules.cell
Cell
p3275
(dp3276
g5
I00
sg12
(I01
I01
tp3277
sba(iModules.cell
Cell
p3278
(dp3279
g5
I00
sg12
(I01
I01
tp3280
sba(iModules.cell
Cell
p3281
(dp3282
g5
I00
sg12
(I01
I01
tp3283
sba(iModules.cell
Cell
p3284
(dp3285
g5
I00
sg12
(I01
I01
tp3286
sba(iModules.cell
Cell
p3287
(dp3288
g5
I00
sg12
(I01
I01
tp3289
sba(iModules.cell
Cell
p3290
(dp3291
g5
I00
sg12
(I01
I01
tp3292
sba(iModules.cell
Cell
p3293
(dp3294
g5
I00
sg12
(I01
I01
tp3295
sba(iModules.cell
Cell
p3296
(dp3297
g5
I00
sg12
(I01
I01
tp3298
sba(iModules.cell
Cell
p3299
(dp3300
g5
I00
sg12
(I01
I01
tp3301
sba(iModules.cell
Cell
p3302
(dp3303
g5
I00
sg12
(I01
I01
tp3304
sba(iModules.cell
Cell
p3305
(dp3306
g5
I00
sg12
(I01
I01
tp3307
sba(iModules.cell
Cell
p3308
(dp3309
g5
I00
sg12
(I01
I01
tp3310
sba(iModules.cell
Cell
p3311
(dp3312
g5
I00
sg12
(I01
I01
tp3313
sba(iModules.cell
Cell
p3314
(dp3315
g5
I00
sg12
(I01
I01
tp3316
sba(iModules.cell
Cell
p3317
(dp3318
g5
I00
sg12
(I01
I01
tp3319
sba(iModules.cell
Cell
p3320
(dp3321
g5
I00
sg12
(I01
I01
tp3322
sba(iModules.cell
Cell
p3323
(dp3324
g5
I00
sg12
(I01
I01
tp3325
sba(iModules.cell
Cell
p3326
(dp3327
g5
I00
sg12
(I01
I01
tp3328
sba(iModules.cell
Cell
p3329
(dp3330
g5
I00
sg12
(I01
I01
tp3331
sba(iModules.cell
Cell
p3332
(dp3333
g5
I00
sg12
(I01
I01
tp3334
sba(iModules.cell
Cell
p3335
(dp3336
g5
I00
sg12
(I01
I01
tp3337
sba(iModules.cell
Cell
p3338
(dp3339
g5
I00
sg12
(I01
I01
tp3340
sba(iModules.cell
Cell
p3341
(dp3342
g5
I00
sg12
(I01
I01
tp3343
sba(iModules.cell
Cell
p3344
(dp3345
g5
I00
sg12
(I01
I01
tp3346
sba(iModules.cell
Cell
p3347
(dp3348
g5
I00
sg12
(I01
I01
tp3349
sba(iModules.cell
Cell
p3350
(dp3351
g5
I00
sg12
(I01
I01
tp3352
sba(iModules.cell
Cell
p3353
(dp3354
g5
I00
sg12
(I01
I01
tp3355
sba(iModules.cell
Cell
p3356
(dp3357
g5
I00
sg12
(I01
I01
tp3358
sba(iModules.cell
Cell
p3359
(dp3360
g5
I00
sg12
(I01
I01
tp3361
sba(iModules.cell
Cell
p3362
(dp3363
g5
I00
sg12
(I01
I01
tp3364
sba(iModules.cell
Cell
p3365
(dp3366
g5
I00
sg12
(I01
I01
tp3367
sba(iModules.cell
Cell
p3368
(dp3369
g5
I00
sg12
(I00
I00
tp3370
sba(iModules.cell
Cell
p3371
(dp3372
g5
I00
sg12
(I00
I00
tp3373
sba(iModules.cell
Cell
p3374
(dp3375
g5
I00
sg12
(I00
I00
tp3376
sba(iModules.cell
Cell
p3377
(dp3378
g5
I00
sg12
(I00
I00
tp3379
sba(iModules.cell
Cell
p3380
(dp3381
g5
I00
sg12
(I00
I00
tp3382
sba(iModules.cell
Cell
p3383
(dp3384
g5
I00
sg12
(I00
I00
tp3385
sba(iModules.cell
Cell
p3386
(dp3387
g5
I00
sg12
(I00
I00
tp3388
sba(iModules.cell
Cell
p3389
(dp3390
g5
I00
sg12
(I00
I00
tp3391
sba(iModules.cell
Cell
p3392
(dp3393
g5
I00
sg12
(I00
I00
tp3394
sba(iModules.cell
Cell
p3395
(dp3396
g5
I00
sg12
(I00
I00
tp3397
sba(iModules.cell
Cell
p3398
(dp3399
g5
I00
sg12
(I00
I00
tp3400
sba(iModules.cell
Cell
p3401
(dp3402
g5
I00
sg12
(I00
I00
tp3403
sba(iModules.cell
Cell
p3404
(dp3405
g5
I00
sg12
(I00
I00
tp3406
sba(iModules.cell
Cell
p3407
(dp3408
g5
I00
sg12
(I00
I00
tp3409
sba(iModules.cell
Cell
p3410
(dp3411
g5
I00
sg12
(I00
I00
tp3412
sba(iModules.cell
Cell
p3413
(dp3414
g5
I00
sg12
(I00
I00
tp3415
sba(iModules.cell
Cell
p3416
(dp3417
g5
I00
sg12
(I00
I00
tp3418
sba(iModules.cell
Cell
p3419
(dp3420
g5
I00
sg12
(I00
I00
tp3421
sba(iModules.cell
Cell
p3422
(dp3423
g5
I00
sg12
(I00
I00
tp3424
sba(iModules.cell
Cell
p3425
(dp3426
g12
(I00
I00
tp3427
sbaa(lp3428
(iModules.cell
Cell
p3429
(dp3430
g5
I00
sg12
(I00
I00
tp3431
sba(iModules.cell
Cell
p3432
(dp3433
g5
I01
sg260
I01
sg12
(I00
I00
tp3434
sba(iModules.cell
Cell
p3435
(dp3436
g5
I01
sg260
I01
sg12
(I01
I01
tp3437
sba(iModules.cell
Cell
p3438
(dp3439
g5
I01
sg260
I01
sg12
(I01
I01
tp3440
sba(iModules.cell
Cell
p3441
(dp3442
g5
I01
sg260
I01
sg12
(I01
I01
tp3443
sba(iModules.cell
Cell
p3444
(dp3445
g5
I01
sg260
I01
sg12
(I01
I01
tp3446
sba(iModules.cell
Cell
p3447
(dp3448
g5
I01
sg260
I01
sg12
(I01
I01
tp3449
sba(iModules.cell
Cell
p3450
(dp3451
g5
I01
sg260
I01
sg12
(I01
I01
tp3452
sba(iModules.cell
Cell
p3453
(dp3454
g5
I01
sg260
I01
sg12
(I01
I01
tp3455
sba(iModules.cell
Cell
p3456
(dp3457
g5
I01
sg260
I01
sg12
(I01
I01
tp3458
sba(iModules.cell
Cell
p3459
(dp3460
g5
I01
sg260
I01
sg12
(I01
I01
tp3461
sba(iModules.cell
Cell
p3462
(dp3463
g5
I01
sg260
I01
sg12
(I01
I01
tp3464
sba(iModules.cell
Cell
p3465
(dp3466
g5
I01
sg260
I01
sg12
(I01
I01
tp3467
sba(iModules.cell
Cell
p3468
(dp3469
g5
I01
sg260
I01
sg12
(I01
I01
tp3470
sba(iModules.cell
Cell
p3471
(dp3472
g5
I01
sg260
I01
sg12
(I01
I01
tp3473
sba(iModules.cell
Cell
p3474
(dp3475
g5
I01
sg260
I01
sg12
(I01
I01
tp3476
sba(iModules.cell
Cell
p3477
(dp3478
g5
I01
sg260
I01
sg12
(I01
I01
tp3479
sba(iModules.cell
Cell
p3480
(dp3481
g5
I01
sg260
I01
sg12
(I01
I01
tp3482
sba(iModules.cell
Cell
p3483
(dp3484
g5
I00
sg260
I01
sg12
(I01
I01
tp3485
sba(iModules.cell
Cell
p3486
(dp3487
g5
I00
sg260
I01
sg12
(I01
I01
tp3488
sba(iModules.cell
Cell
p3489
(dp3490
g5
I00
sg260
I01
sg12
(I01
I01
tp3491
sba(iModules.cell
Cell
p3492
(dp3493
g5
I00
sg260
I01
sg12
(I01
I01
tp3494
sba(iModules.cell
Cell
p3495
(dp3496
g5
I00
sg260
I01
sg12
(I01
I01
tp3497
sba(iModules.cell
Cell
p3498
(dp3499
g5
I00
sg260
I01
sg12
(I01
I01
tp3500
sba(iModules.cell
Cell
p3501
(dp3502
g5
I00
sg260
I01
sg12
(I01
I01
tp3503
sba(iModules.cell
Cell
p3504
(dp3505
g5
I00
sg260
I01
sg12
(I01
I01
tp3506
sba(iModules.cell
Cell
p3507
(dp3508
g5
I00
sg260
I01
sg12
(I01
I01
tp3509
sba(iModules.cell
Cell
p3510
(dp3511
g5
I00
sg260
I01
sg12
(I01
I01
tp3512
sba(iModules.cell
Cell
p3513
(dp3514
g5
I00
sg260
I01
sg12
(I01
I01
tp3515
sba(iModules.cell
Cell
p3516
(dp3517
g5
I00
sg260
I01
sg12
(I01
I01
tp3518
sba(iModules.cell
Cell
p3519
(dp3520
g5
I00
sg12
(I01
I01
tp3521
sba(iModules.cell
Cell
p3522
(dp3523
g5
I00
sg12
(I01
I01
tp3524
sba(iModules.cell
Cell
p3525
(dp3526
g5
I00
sg12
(I01
I01
tp3527
sba(iModules.cell
Cell
p3528
(dp3529
g5
I00
sg12
(I01
I01
tp3530
sba(iModules.cell
Cell
p3531
(dp3532
g5
I00
sg12
(I01
I01
tp3533
sba(iModules.cell
Cell
p3534
(dp3535
g5
I00
sg12
(I01
I01
tp3536
sba(iModules.cell
Cell
p3537
(dp3538
g5
I00
sg12
(I01
I01
tp3539
sba(iModules.cell
Cell
p3540
(dp3541
g5
I00
sg12
(I01
I01
tp3542
sba(iModules.cell
Cell
p3543
(dp3544
g5
I00
sg12
(I01
I01
tp3545
sba(iModules.cell
Cell
p3546
(dp3547
g5
I00
sg12
(I01
I01
tp3548
sba(iModules.cell
Cell
p3549
(dp3550
g5
I00
sg12
(I01
I01
tp3551
sba(iModules.cell
Cell
p3552
(dp3553
g5
I00
sg12
(I01
I01
tp3554
sba(iModules.cell
Cell
p3555
(dp3556
g5
I00
sg12
(I01
I01
tp3557
sba(iModules.cell
Cell
p3558
(dp3559
g5
I00
sg12
(I01
I01
tp3560
sba(iModules.cell
Cell
p3561
(dp3562
g5
I00
sg12
(I01
I01
tp3563
sba(iModules.cell
Cell
p3564
(dp3565
g5
I00
sg12
(I01
I01
tp3566
sba(iModules.cell
Cell
p3567
(dp3568
g5
I00
sg12
(I01
I01
tp3569
sba(iModules.cell
Cell
p3570
(dp3571
g5
I00
sg12
(I01
I01
tp3572
sba(iModules.cell
Cell
p3573
(dp3574
g5
I00
sg12
(I01
I01
tp3575
sba(iModules.cell
Cell
p3576
(dp3577
g5
I00
sg12
(I01
I01
tp3578
sba(iModules.cell
Cell
p3579
(dp3580
g5
I00
sg12
(I01
I01
tp3581
sba(iModules.cell
Cell
p3582
(dp3583
g5
I00
sg12
(I01
I01
tp3584
sba(iModules.cell
Cell
p3585
(dp3586
g5
I00
sg12
(I01
I01
tp3587
sba(iModules.cell
Cell
p3588
(dp3589
g5
I00
sg12
(I01
I01
tp3590
sba(iModules.cell
Cell
p3591
(dp3592
g5
I00
sg12
(I01
I01
tp3593
sba(iModules.cell
Cell
p3594
(dp3595
g5
I00
sg12
(I01
I01
tp3596
sba(iModules.cell
Cell
p3597
(dp3598
g5
I00
sg12
(I01
I01
tp3599
sba(iModules.cell
Cell
p3600
(dp3601
g5
I00
sg12
(I01
I01
tp3602
sba(iModules.cell
Cell
p3603
(dp3604
g5
I00
sg12
(I01
I01
tp3605
sba(iModules.cell
Cell
p3606
(dp3607
g5
I00
sg12
(I01
I01
tp3608
sba(iModules.cell
Cell
p3609
(dp3610
g5
I00
sg12
(I01
I01
tp3611
sba(iModules.cell
Cell
p3612
(dp3613
g5
I00
sg12
(I00
I00
tp3614
sba(iModules.cell
Cell
p3615
(dp3616
g5
I00
sg12
(I00
I00
tp3617
sba(iModules.cell
Cell
p3618
(dp3619
g5
I00
sg12
(I00
I00
tp3620
sba(iModules.cell
Cell
p3621
(dp3622
g5
I00
sg12
(I00
I00
tp3623
sba(iModules.cell
Cell
p3624
(dp3625
g5
I00
sg12
(I00
I00
tp3626
sba(iModules.cell
Cell
p3627
(dp3628
g5
I00
sg12
(I00
I00
tp3629
sba(iModules.cell
Cell
p3630
(dp3631
g5
I00
sg12
(I00
I00
tp3632
sba(iModules.cell
Cell
p3633
(dp3634
g5
I00
sg12
(I00
I00
tp3635
sba(iModules.cell
Cell
p3636
(dp3637
g5
I00
sg12
(I00
I00
tp3638
sba(iModules.cell
Cell
p3639
(dp3640
g5
I00
sg12
(I00
I00
tp3641
sba(iModules.cell
Cell
p3642
(dp3643
g5
I00
sg12
(I00
I00
tp3644
sba(iModules.cell
Cell
p3645
(dp3646
g5
I00
sg12
(I00
I00
tp3647
sba(iModules.cell
Cell
p3648
(dp3649
g5
I00
sg12
(I00
I00
tp3650
sba(iModules.cell
Cell
p3651
(dp3652
g5
I00
sg12
(I00
I00
tp3653
sba(iModules.cell
Cell
p3654
(dp3655
g5
I00
sg12
(I00
I00
tp3656
sba(iModules.cell
Cell
p3657
(dp3658
g5
I00
sg12
(I00
I00
tp3659
sba(iModules.cell
Cell
p3660
(dp3661
g5
I00
sg12
(I00
I00
tp3662
sba(iModules.cell
Cell
p3663
(dp3664
g5
I00
sg12
(I00
I00
tp3665
sba(iModules.cell
Cell
p3666
(dp3667
g5
I00
sg12
(I00
I00
tp3668
sba(iModules.cell
Cell
p3669
(dp3670
g12
(I00
I00
tp3671
sbaa(lp3672
(iModules.cell
Cell
p3673
(dp3674
g5
I00
sg12
(I00
I00
tp3675
sba(iModules.cell
Cell
p3676
(dp3677
g5
I01
sg260
I01
sg12
(I00
I00
tp3678
sba(iModules.cell
Cell
p3679
(dp3680
g5
I01
sg260
I01
sg12
(I01
I01
tp3681
sba(iModules.cell
Cell
p3682
(dp3683
g5
I01
sg260
I01
sg12
(I01
I01
tp3684
sba(iModules.cell
Cell
p3685
(dp3686
g5
I01
sg260
I01
sg12
(I01
I01
tp3687
sba(iModules.cell
Cell
p3688
(dp3689
g5
I01
sg260
I01
sg12
(I01
I01
tp3690
sba(iModules.cell
Cell
p3691
(dp3692
g5
I01
sg260
I01
sg12
(I01
I01
tp3693
sba(iModules.cell
Cell
p3694
(dp3695
g5
I01
sg260
I01
sg12
(I01
I01
tp3696
sba(iModules.cell
Cell
p3697
(dp3698
g5
I01
sg260
I01
sg12
(I01
I01
tp3699
sba(iModules.cell
Cell
p3700
(dp3701
g5
I01
sg260
I01
sg12
(I01
I01
tp3702
sba(iModules.cell
Cell
p3703
(dp3704
g5
I01
sg260
I01
sg12
(I01
I01
tp3705
sba(iModules.cell
Cell
p3706
(dp3707
g5
I01
sg260
I01
sg12
(I01
I01
tp3708
sba(iModules.cell
Cell
p3709
(dp3710
g5
I01
sg260
I01
sg12
(I01
I01
tp3711
sba(iModules.cell
Cell
p3712
(dp3713
g5
I01
sg260
I01
sg12
(I01
I01
tp3714
sba(iModules.cell
Cell
p3715
(dp3716
g5
I01
sg260
I01
sg12
(I01
I01
tp3717
sba(iModules.cell
Cell
p3718
(dp3719
g5
I01
sg260
I01
sg12
(I01
I01
tp3720
sba(iModules.cell
Cell
p3721
(dp3722
g5
I01
sg260
I01
sg12
(I01
I01
tp3723
sba(iModules.cell
Cell
p3724
(dp3725
g5
I01
sg260
I01
sg12
(I01
I01
tp3726
sba(iModules.cell
Cell
p3727
(dp3728
g5
I00
sg260
I01
sg12
(I01
I01
tp3729
sba(iModules.cell
Cell
p3730
(dp3731
g5
I00
sg260
I01
sg12
(I01
I01
tp3732
sba(iModules.cell
Cell
p3733
(dp3734
g5
I00
sg260
I01
sg12
(I01
I01
tp3735
sba(iModules.cell
Cell
p3736
(dp3737
g5
I00
sg260
I01
sg12
(I01
I01
tp3738
sba(iModules.cell
Cell
p3739
(dp3740
g5
I00
sg260
I01
sg12
(I01
I01
tp3741
sba(iModules.cell
Cell
p3742
(dp3743
g5
I00
sg260
I01
sg12
(I01
I01
tp3744
sba(iModules.cell
Cell
p3745
(dp3746
g5
I00
sg12
(I01
I01
tp3747
sba(iModules.cell
Cell
p3748
(dp3749
g5
I00
sg12
(I01
I01
tp3750
sba(iModules.cell
Cell
p3751
(dp3752
g5
I00
sg12
(I01
I01
tp3753
sba(iModules.cell
Cell
p3754
(dp3755
g5
I00
sg12
(I01
I01
tp3756
sba(iModules.cell
Cell
p3757
(dp3758
g5
I00
sg12
(I01
I01
tp3759
sba(iModules.cell
Cell
p3760
(dp3761
g5
I00
sg12
(I01
I01
tp3762
sba(iModules.cell
Cell
p3763
(dp3764
g5
I00
sg12
(I01
I01
tp3765
sba(iModules.cell
Cell
p3766
(dp3767
g5
I00
sg12
(I01
I01
tp3768
sba(iModules.cell
Cell
p3769
(dp3770
g5
I00
sg12
(I01
I01
tp3771
sba(iModules.cell
Cell
p3772
(dp3773
g5
I00
sg12
(I01
I01
tp3774
sba(iModules.cell
Cell
p3775
(dp3776
g5
I00
sg12
(I01
I01
tp3777
sba(iModules.cell
Cell
p3778
(dp3779
g5
I00
sg12
(I01
I01
tp3780
sba(iModules.cell
Cell
p3781
(dp3782
g5
I00
sg12
(I01
I01
tp3783
sba(iModules.cell
Cell
p3784
(dp3785
g5
I00
sg12
(I01
I01
tp3786
sba(iModules.cell
Cell
p3787
(dp3788
g5
I00
sg12
(I01
I01
tp3789
sba(iModules.cell
Cell
p3790
(dp3791
g5
I00
sg12
(I01
I01
tp3792
sba(iModules.cell
Cell
p3793
(dp3794
g5
I00
sg12
(I01
I01
tp3795
sba(iModules.cell
Cell
p3796
(dp3797
g5
I00
sg12
(I01
I01
tp3798
sba(iModules.cell
Cell
p3799
(dp3800
g5
I00
sg12
(I01
I01
tp3801
sba(iModules.cell
Cell
p3802
(dp3803
g5
I00
sg12
(I01
I01
tp3804
sba(iModules.cell
Cell
p3805
(dp3806
g5
I00
sg12
(I01
I01
tp3807
sba(iModules.cell
Cell
p3808
(dp3809
g5
I00
sg12
(I01
I01
tp3810
sba(iModules.cell
Cell
p3811
(dp3812
g5
I00
sg12
(I01
I01
tp3813
sba(iModules.cell
Cell
p3814
(dp3815
g5
I00
sg12
(I01
I01
tp3816
sba(iModules.cell
Cell
p3817
(dp3818
g5
I00
sg12
(I01
I01
tp3819
sba(iModules.cell
Cell
p3820
(dp3821
g5
I00
sg12
(I01
I01
tp3822
sba(iModules.cell
Cell
p3823
(dp3824
g5
I00
sg12
(I01
I01
tp3825
sba(iModules.cell
Cell
p3826
(dp3827
g5
I00
sg12
(I01
I01
tp3828
sba(iModules.cell
Cell
p3829
(dp3830
g5
I00
sg12
(I01
I01
tp3831
sba(iModules.cell
Cell
p3832
(dp3833
g5
I00
sg12
(I01
I01
tp3834
sba(iModules.cell
Cell
p3835
(dp3836
g5
I00
sg12
(I01
I01
tp3837
sba(iModules.cell
Cell
p3838
(dp3839
g5
I00
sg12
(I01
I01
tp3840
sba(iModules.cell
Cell
p3841
(dp3842
g5
I00
sg12
(I01
I01
tp3843
sba(iModules.cell
Cell
p3844
(dp3845
g5
I00
sg12
(I01
I01
tp3846
sba(iModules.cell
Cell
p3847
(dp3848
g5
I00
sg12
(I01
I01
tp3849
sba(iModules.cell
Cell
p3850
(dp3851
g5
I00
sg12
(I01
I01
tp3852
sba(iModules.cell
Cell
p3853
(dp3854
g5
I00
sg12
(I01
I01
tp3855
sba(iModules.cell
Cell
p3856
(dp3857
g5
I00
sg12
(I00
I00
tp3858
sba(iModules.cell
Cell
p3859
(dp3860
g5
I00
sg12
(I00
I00
tp3861
sba(iModules.cell
Cell
p3862
(dp3863
g5
I00
sg12
(I00
I00
tp3864
sba(iModules.cell
Cell
p3865
(dp3866
g5
I00
sg12
(I00
I00
tp3867
sba(iModules.cell
Cell
p3868
(dp3869
g5
I00
sg12
(I00
I00
tp3870
sba(iModules.cell
Cell
p3871
(dp3872
g5
I00
sg12
(I00
I00
tp3873
sba(iModules.cell
Cell
p3874
(dp3875
g5
I00
sg12
(I00
I00
tp3876
sba(iModules.cell
Cell
p3877
(dp3878
g5
I00
sg12
(I00
I00
tp3879
sba(iModules.cell
Cell
p3880
(dp3881
g5
I00
sg12
(I00
I00
tp3882
sba(iModules.cell
Cell
p3883
(dp3884
g5
I00
sg12
(I00
I00
tp3885
sba(iModules.cell
Cell
p3886
(dp3887
g5
I00
sg12
(I00
I00
tp3888
sba(iModules.cell
Cell
p3889
(dp3890
g5
I00
sg12
(I00
I00
tp3891
sba(iModules.cell
Cell
p3892
(dp3893
g5
I00
sg12
(I00
I00
tp3894
sba(iModules.cell
Cell
p3895
(dp3896
g5
I00
sg12
(I00
I00
tp3897
sba(iModules.cell
Cell
p3898
(dp3899
g5
I00
sg12
(I00
I00
tp3900
sba(iModules.cell
Cell
p3901
(dp3902
g5
I00
sg12
(I00
I00
tp3903
sba(iModules.cell
Cell
p3904
(dp3905
g5
I00
sg12
(I00
I00
tp3906
sba(iModules.cell
Cell
p3907
(dp3908
g5
I00
sg12
(I00
I00
tp3909
sba(iModules.cell
Cell
p3910
(dp3911
g5
I00
sg12
(I00
I00
tp3912
sba(iModules.cell
Cell
p3913
(dp3914
g12
(I00
I00
tp3915
sbaa(lp3916
(iModules.cell
Cell
p3917
(dp3918
g5
I00
sg12
(I00
I00
tp3919
sba(iModules.cell
Cell
p3920
(dp3921
g5
I01
sg260
I01
sg12
(I00
I00
tp3922
sba(iModules.cell
Cell
p3923
(dp3924
g5
I01
sg260
I01
sg12
(I01
I01
tp3925
sba(iModules.cell
Cell
p3926
(dp3927
g5
I01
sg260
I01
sg12
(I01
I01
tp3928
sba(iModules.cell
Cell
p3929
(dp3930
g5
I01
sg260
I01
sg12
(I01
I01
tp3931
sba(iModules.cell
Cell
p3932
(dp3933
g5
I01
sg260
I01
sg12
(I01
I01
tp3934
sba(iModules.cell
Cell
p3935
(dp3936
g5
I01
sg260
I01
sg12
(I01
I01
tp3937
sba(iModules.cell
Cell
p3938
(dp3939
g5
I01
sg260
I01
sg12
(I01
I01
tp3940
sba(iModules.cell
Cell
p3941
(dp3942
g5
I01
sg260
I01
sg12
(I01
I01
tp3943
sba(iModules.cell
Cell
p3944
(dp3945
g5
I01
sg260
I01
sg12
(I01
I01
tp3946
sba(iModules.cell
Cell
p3947
(dp3948
g5
I01
sg260
I01
sg12
(I01
I01
tp3949
sba(iModules.cell
Cell
p3950
(dp3951
g5
I01
sg260
I01
sg12
(I01
I01
tp3952
sba(iModules.cell
Cell
p3953
(dp3954
g5
I01
sg260
I01
sg12
(I01
I01
tp3955
sba(iModules.cell
Cell
p3956
(dp3957
g5
I01
sg260
I01
sg12
(I01
I01
tp3958
sba(iModules.cell
Cell
p3959
(dp3960
g5
I01
sg260
I01
sg12
(I01
I01
tp3961
sba(iModules.cell
Cell
p3962
(dp3963
g5
I01
sg260
I01
sg12
(I01
I01
tp3964
sba(iModules.cell
Cell
p3965
(dp3966
g5
I01
sg260
I01
sg12
(I01
I01
tp3967
sba(iModules.cell
Cell
p3968
(dp3969
g5
I01
sg260
I01
sg12
(I01
I01
tp3970
sba(iModules.cell
Cell
p3971
(dp3972
g5
I00
sg12
(I01
I01
tp3973
sba(iModules.cell
Cell
p3974
(dp3975
g5
I00
sg12
(I01
I01
tp3976
sba(iModules.cell
Cell
p3977
(dp3978
g5
I00
sg12
(I01
I01
tp3979
sba(iModules.cell
Cell
p3980
(dp3981
g5
I00
sg12
(I01
I01
tp3982
sba(iModules.cell
Cell
p3983
(dp3984
g5
I00
sg12
(I01
I01
tp3985
sba(iModules.cell
Cell
p3986
(dp3987
g5
I00
sg12
(I01
I01
tp3988
sba(iModules.cell
Cell
p3989
(dp3990
g5
I00
sg12
(I01
I01
tp3991
sba(iModules.cell
Cell
p3992
(dp3993
g5
I00
sg12
(I01
I01
tp3994
sba(iModules.cell
Cell
p3995
(dp3996
g5
I00
sg12
(I01
I01
tp3997
sba(iModules.cell
Cell
p3998
(dp3999
g5
I00
sg12
(I01
I01
tp4000
sba(iModules.cell
Cell
p4001
(dp4002
g5
I00
sg12
(I01
I01
tp4003
sba(iModules.cell
Cell
p4004
(dp4005
g5
I00
sg12
(I01
I01
tp4006
sba(iModules.cell
Cell
p4007
(dp4008
g5
I00
sg12
(I01
I01
tp4009
sba(iModules.cell
Cell
p4010
(dp4011
g5
I00
sg12
(I01
I01
tp4012
sba(iModules.cell
Cell
p4013
(dp4014
g5
I00
sg12
(I01
I01
tp4015
sba(iModules.cell
Cell
p4016
(dp4017
g5
I00
sg12
(I01
I01
tp4018
sba(iModules.cell
Cell
p4019
(dp4020
g5
I00
sg12
(I01
I01
tp4021
sba(iModules.cell
Cell
p4022
(dp4023
g5
I00
sg12
(I01
I01
tp4024
sba(iModules.cell
Cell
p4025
(dp4026
g5
I00
sg12
(I01
I01
tp4027
sba(iModules.cell
Cell
p4028
(dp4029
g5
I00
sg12
(I01
I01
tp4030
sba(iModules.cell
Cell
p4031
(dp4032
g5
I00
sg12
(I01
I01
tp4033
sba(iModules.cell
Cell
p4034
(dp4035
g5
I00
sg12
(I01
I01
tp4036
sba(iModules.cell
Cell
p4037
(dp4038
g5
I00
sg12
(I01
I01
tp4039
sba(iModules.cell
Cell
p4040
(dp4041
g5
I00
sg12
(I01
I01
tp4042
sba(iModules.cell
Cell
p4043
(dp4044
g5
I00
sg12
(I01
I01
tp4045
sba(iModules.cell
Cell
p4046
(dp4047
g5
I00
sg12
(I01
I01
tp4048
sba(iModules.cell
Cell
p4049
(dp4050
g5
I00
sg12
(I01
I01
tp4051
sba(iModules.cell
Cell
p4052
(dp4053
g5
I00
sg12
(I01
I01
tp4054
sba(iModules.cell
Cell
p4055
(dp4056
g5
I00
sg12
(I01
I01
tp4057
sba(iModules.cell
Cell
p4058
(dp4059
g5
I00
sg12
(I01
I01
tp4060
sba(iModules.cell
Cell
p4061
(dp4062
g5
I00
sg12
(I01
I01
tp4063
sba(iModules.cell
Cell
p4064
(dp4065
g5
I00
sg12
(I01
I01
tp4066
sba(iModules.cell
Cell
p4067
(dp4068
g5
I00
sg12
(I01
I01
tp4069
sba(iModules.cell
Cell
p4070
(dp4071
g5
I00
sg12
(I01
I01
tp4072
sba(iModules.cell
Cell
p4073
(dp4074
g5
I00
sg12
(I01
I01
tp4075
sba(iModules.cell
Cell
p4076
(dp4077
g5
I00
sg12
(I01
I01
tp4078
sba(iModules.cell
Cell
p4079
(dp4080
g5
I00
sg12
(I01
I01
tp4081
sba(iModules.cell
Cell
p4082
(dp4083
g5
I00
sg12
(I01
I01
tp4084
sba(iModules.cell
Cell
p4085
(dp4086
g5
I00
sg12
(I01
I01
tp4087
sba(iModules.cell
Cell
p4088
(dp4089
g5
I00
sg12
(I01
I01
tp4090
sba(iModules.cell
Cell
p4091
(dp4092
g5
I00
sg12
(I01
I01
tp4093
sba(iModules.cell
Cell
p4094
(dp4095
g5
I00
sg12
(I01
I01
tp4096
sba(iModules.cell
Cell
p4097
(dp4098
g5
I00
sg12
(I01
I01
tp4099
sba(iModules.cell
Cell
p4100
(dp4101
g5
I00
sg12
(I00
I00
tp4102
sba(iModules.cell
Cell
p4103
(dp4104
g5
I00
sg12
(I00
I00
tp4105
sba(iModules.cell
Cell
p4106
(dp4107
g5
I00
sg12
(I00
I00
tp4108
sba(iModules.cell
Cell
p4109
(dp4110
g5
I00
sg12
(I00
I00
tp4111
sba(iModules.cell
Cell
p4112
(dp4113
g5
I00
sg12
(I00
I00
tp4114
sba(iModules.cell
Cell
p4115
(dp4116
g5
I00
sg12
(I00
I00
tp4117
sba(iModules.cell
Cell
p4118
(dp4119
g5
I00
sg12
(I00
I00
tp4120
sba(iModules.cell
Cell
p4121
(dp4122
g5
I00
sg12
(I00
I00
tp4123
sba(iModules.cell
Cell
p4124
(dp4125
g5
I00
sg12
(I00
I00
tp4126
sba(iModules.cell
Cell
p4127
(dp4128
g5
I00
sg12
(I00
I00
tp4129
sba(iModules.cell
Cell
p4130
(dp4131
g5
I00
sg12
(I00
I00
tp4132
sba(iModules.cell
Cell
p4133
(dp4134
g5
I00
sg12
(I00
I00
tp4135
sba(iModules.cell
Cell
p4136
(dp4137
g5
I00
sg12
(I00
I00
tp4138
sba(iModules.cell
Cell
p4139
(dp4140
g5
I00
sg12
(I00
I00
tp4141
sba(iModules.cell
Cell
p4142
(dp4143
g5
I00
sg12
(I00
I00
tp4144
sba(iModules.cell
Cell
p4145
(dp4146
g5
I00
sg12
(I00
I00
tp4147
sba(iModules.cell
Cell
p4148
(dp4149
g5
I00
sg12
(I00
I00
tp4150
sba(iModules.cell
Cell
p4151
(dp4152
g5
I00
sg12
(I00
I00
tp4153
sba(iModules.cell
Cell
p4154
(dp4155
g5
I00
sg12
(I00
I00
tp4156
sba(iModules.cell
Cell
p4157
(dp4158
g12
(I00
I00
tp4159
sbaa(lp4160
(iModules.cell
Cell
p4161
(dp4162
g5
I00
sg12
(I00
I00
tp4163
sba(iModules.cell
Cell
p4164
(dp4165
g5
I01
sg260
I01
sg12
(I00
I00
tp4166
sba(iModules.cell
Cell
p4167
(dp4168
g5
I01
sg260
I01
sg12
(I01
I01
tp4169
sba(iModules.cell
Cell
p4170
(dp4171
g5
I01
sg260
I01
sg12
(I01
I01
tp4172
sba(iModules.cell
Cell
p4173
(dp4174
g5
I01
sg260
I01
sg12
(I01
I01
tp4175
sba(iModules.cell
Cell
p4176
(dp4177
g5
I01
sg260
I01
sg12
(I01
I01
tp4178
sba(iModules.cell
Cell
p4179
(dp4180
g5
I01
sg260
I01
sg12
(I01
I01
tp4181
sba(iModules.cell
Cell
p4182
(dp4183
g5
I01
sg260
I01
sg12
(I01
I01
tp4184
sba(iModules.cell
Cell
p4185
(dp4186
g5
I01
sg260
I01
sg12
(I01
I01
tp4187
sba(iModules.cell
Cell
p4188
(dp4189
g5
I01
sg260
I01
sg12
(I01
I01
tp4190
sba(iModules.cell
Cell
p4191
(dp4192
g5
I01
sg260
I01
sg12
(I01
I01
tp4193
sba(iModules.cell
Cell
p4194
(dp4195
g5
I01
sg260
I01
sg12
(I01
I01
tp4196
sba(iModules.cell
Cell
p4197
(dp4198
g5
I01
sg260
I01
sg12
(I01
I01
tp4199
sba(iModules.cell
Cell
p4200
(dp4201
g5
I01
sg260
I01
sg12
(I01
I01
tp4202
sba(iModules.cell
Cell
p4203
(dp4204
g5
I01
sg260
I01
sg12
(I01
I01
tp4205
sba(iModules.cell
Cell
p4206
(dp4207
g5
I01
sg260
I01
sg12
(I01
I01
tp4208
sba(iModules.cell
Cell
p4209
(dp4210
g5
I01
sg260
I01
sg12
(I01
I01
tp4211
sba(iModules.cell
Cell
p4212
(dp4213
g5
I01
sg260
I01
sg12
(I01
I01
tp4214
sba(iModules.cell
Cell
p4215
(dp4216
g5
I00
sg12
(I01
I01
tp4217
sba(iModules.cell
Cell
p4218
(dp4219
g5
I00
sg12
(I01
I01
tp4220
sba(iModules.cell
Cell
p4221
(dp4222
g5
I00
sg12
(I01
I01
tp4223
sba(iModules.cell
Cell
p4224
(dp4225
g5
I00
sg12
(I01
I01
tp4226
sba(iModules.cell
Cell
p4227
(dp4228
g5
I00
sg12
(I01
I01
tp4229
sba(iModules.cell
Cell
p4230
(dp4231
g5
I00
sg12
(I01
I01
tp4232
sba(iModules.cell
Cell
p4233
(dp4234
g5
I00
sg12
(I01
I01
tp4235
sba(iModules.cell
Cell
p4236
(dp4237
g5
I00
sg12
(I01
I01
tp4238
sba(iModules.cell
Cell
p4239
(dp4240
g5
I00
sg12
(I01
I01
tp4241
sba(iModules.cell
Cell
p4242
(dp4243
g5
I00
sg12
(I01
I01
tp4244
sba(iModules.cell
Cell
p4245
(dp4246
g5
I00
sg12
(I01
I01
tp4247
sba(iModules.cell
Cell
p4248
(dp4249
g5
I00
sg12
(I01
I01
tp4250
sba(iModules.cell
Cell
p4251
(dp4252
g5
I00
sg12
(I01
I01
tp4253
sba(iModules.cell
Cell
p4254
(dp4255
g5
I00
sg12
(I01
I01
tp4256
sba(iModules.cell
Cell
p4257
(dp4258
g5
I00
sg12
(I01
I01
tp4259
sba(iModules.cell
Cell
p4260
(dp4261
g5
I00
sg12
(I01
I01
tp4262
sba(iModules.cell
Cell
p4263
(dp4264
g5
I00
sg12
(I01
I01
tp4265
sba(iModules.cell
Cell
p4266
(dp4267
g5
I00
sg12
(I01
I01
tp4268
sba(iModules.cell
Cell
p4269
(dp4270
g5
I00
sg12
(I01
I01
tp4271
sba(iModules.cell
Cell
p4272
(dp4273
g5
I00
sg12
(I01
I01
tp4274
sba(iModules.cell
Cell
p4275
(dp4276
g5
I00
sg12
(I01
I01
tp4277
sba(iModules.cell
Cell
p4278
(dp4279
g5
I00
sg12
(I01
I01
tp4280
sba(iModules.cell
Cell
p4281
(dp4282
g5
I00
sg12
(I01
I01
tp4283
sba(iModules.cell
Cell
p4284
(dp4285
g5
I00
sg12
(I01
I01
tp4286
sba(iModules.cell
Cell
p4287
(dp4288
g5
I00
sg12
(I01
I01
tp4289
sba(iModules.cell
Cell
p4290
(dp4291
g5
I00
sg12
(I01
I01
tp4292
sba(iModules.cell
Cell
p4293
(dp4294
g5
I00
sg12
(I01
I01
tp4295
sba(iModules.cell
Cell
p4296
(dp4297
g5
I00
sg12
(I01
I01
tp4298
sba(iModules.cell
Cell
p4299
(dp4300
g5
I00
sg12
(I01
I01
tp4301
sba(iModules.cell
Cell
p4302
(dp4303
g5
I00
sg12
(I01
I01
tp4304
sba(iModules.cell
Cell
p4305
(dp4306
g5
I00
sg12
(I01
I01
tp4307
sba(iModules.cell
Cell
p4308
(dp4309
g5
I00
sg12
(I01
I01
tp4310
sba(iModules.cell
Cell
p4311
(dp4312
g5
I00
sg12
(I01
I01
tp4313
sba(iModules.cell
Cell
p4314
(dp4315
g5
I00
sg12
(I01
I01
tp4316
sba(iModules.cell
Cell
p4317
(dp4318
g5
I00
sg12
(I01
I01
tp4319
sba(iModules.cell
Cell
p4320
(dp4321
g5
I00
sg12
(I01
I01
tp4322
sba(iModules.cell
Cell
p4323
(dp4324
g5
I00
sg12
(I01
I01
tp4325
sba(iModules.cell
Cell
p4326
(dp4327
g5
I00
sg12
(I01
I01
tp4328
sba(iModules.cell
Cell
p4329
(dp4330
g5
I00
sg12
(I01
I01
tp4331
sba(iModules.cell
Cell
p4332
(dp4333
g5
I00
sg12
(I01
I01
tp4334
sba(iModules.cell
Cell
p4335
(dp4336
g5
I00
sg12
(I01
I01
tp4337
sba(iModules.cell
Cell
p4338
(dp4339
g5
I00
sg12
(I01
I01
tp4340
sba(iModules.cell
Cell
p4341
(dp4342
g5
I00
sg12
(I01
I01
tp4343
sba(iModules.cell
Cell
p4344
(dp4345
g5
I00
sg12
(I00
I00
tp4346
sba(iModules.cell
Cell
p4347
(dp4348
g5
I00
sg12
(I00
I00
tp4349
sba(iModules.cell
Cell
p4350
(dp4351
g5
I00
sg12
(I00
I00
tp4352
sba(iModules.cell
Cell
p4353
(dp4354
g5
I00
sg12
(I00
I00
tp4355
sba(iModules.cell
Cell
p4356
(dp4357
g5
I00
sg12
(I00
I00
tp4358
sba(iModules.cell
Cell
p4359
(dp4360
g5
I00
sg12
(I00
I00
tp4361
sba(iModules.cell
Cell
p4362
(dp4363
g5
I00
sg12
(I00
I00
tp4364
sba(iModules.cell
Cell
p4365
(dp4366
g5
I00
sg12
(I00
I00
tp4367
sba(iModules.cell
Cell
p4368
(dp4369
g5
I00
sg12
(I00
I00
tp4370
sba(iModules.cell
Cell
p4371
(dp4372
g5
I00
sg12
(I00
I00
tp4373
sba(iModules.cell
Cell
p4374
(dp4375
g5
I00
sg12
(I00
I00
tp4376
sba(iModules.cell
Cell
p4377
(dp4378
g5
I00
sg12
(I00
I00
tp4379
sba(iModules.cell
Cell
p4380
(dp4381
g5
I00
sg12
(I00
I00
tp4382
sba(iModules.cell
Cell
p4383
(dp4384
g5
I00
sg12
(I00
I00
tp4385
sba(iModules.cell
Cell
p4386
(dp4387
g5
I00
sg12
(I00
I00
tp4388
sba(iModules.cell
Cell
p4389
(dp4390
g5
I00
sg12
(I00
I00
tp4391
sba(iModules.cell
Cell
p4392
(dp4393
g5
I00
sg12
(I00
I00
tp4394
sba(iModules.cell
Cell
p4395
(dp4396
g5
I00
sg12
(I00
I00
tp4397
sba(iModules.cell
Cell
p4398
(dp4399
g5
I00
sg12
(I00
I00
tp4400
sba(iModules.cell
Cell
p4401
(dp4402
g12
(I00
I00
tp4403
sbaa(lp4404
(iModules.cell
Cell
p4405
(dp4406
g5
I00
sg12
(I00
I00
tp4407
sba(iModules.cell
Cell
p4408
(dp4409
g5
I00
sg12
(I00
I00
tp4410
sba(iModules.cell
Cell
p4411
(dp4412
g5
I00
sg12
(I01
I01
tp4413
sba(iModules.cell
Cell
p4414
(dp4415
g5
I00
sg12
(I01
I01
tp4416
sba(iModules.cell
Cell
p4417
(dp4418
g5
I00
sg12
(I01
I01
tp4419
sba(iModules.cell
Cell
p4420
(dp4421
g5
I00
sg12
(I01
I01
tp4422
sba(iModules.cell
Cell
p4423
(dp4424
g5
I00
sg12
(I01
I01
tp4425
sba(iModules.cell
Cell
p4426
(dp4427
g5
I00
sg12
(I01
I01
tp4428
sba(iModules.cell
Cell
p4429
(dp4430
g5
I00
sg12
(I01
I01
tp4431
sba(iModules.cell
Cell
p4432
(dp4433
g5
I00
sg12
(I01
I01
tp4434
sba(iModules.cell
Cell
p4435
(dp4436
g5
I00
sg12
(I01
I01
tp4437
sba(iModules.cell
Cell
p4438
(dp4439
g5
I00
sg12
(I01
I01
tp4440
sba(iModules.cell
Cell
p4441
(dp4442
g5
I00
sg12
(I01
I01
tp4443
sba(iModules.cell
Cell
p4444
(dp4445
g5
I00
sg12
(I01
I01
tp4446
sba(iModules.cell
Cell
p4447
(dp4448
g5
I00
sg12
(I01
I01
tp4449
sba(iModules.cell
Cell
p4450
(dp4451
g5
I00
sg12
(I01
I01
tp4452
sba(iModules.cell
Cell
p4453
(dp4454
g5
I00
sg12
(I01
I01
tp4455
sba(iModules.cell
Cell
p4456
(dp4457
g5
I00
sg12
(I01
I01
tp4458
sba(iModules.cell
Cell
p4459
(dp4460
g5
I00
sg12
(I01
I01
tp4461
sba(iModules.cell
Cell
p4462
(dp4463
g5
I00
sg12
(I01
I01
tp4464
sba(iModules.cell
Cell
p4465
(dp4466
g5
I00
sg12
(I01
I01
tp4467
sba(iModules.cell
Cell
p4468
(dp4469
g5
I00
sg12
(I01
I01
tp4470
sba(iModules.cell
Cell
p4471
(dp4472
g5
I00
sg12
(I01
I01
tp4473
sba(iModules.cell
Cell
p4474
(dp4475
g5
I00
sg12
(I01
I01
tp4476
sba(iModules.cell
Cell
p4477
(dp4478
g5
I00
sg12
(I01
I01
tp4479
sba(iModules.cell
Cell
p4480
(dp4481
g5
I00
sg12
(I01
I01
tp4482
sba(iModules.cell
Cell
p4483
(dp4484
g5
I00
sg12
(I01
I01
tp4485
sba(iModules.cell
Cell
p4486
(dp4487
g5
I00
sg12
(I01
I01
tp4488
sba(iModules.cell
Cell
p4489
(dp4490
g5
I00
sg12
(I01
I01
tp4491
sba(iModules.cell
Cell
p4492
(dp4493
g5
I00
sg12
(I01
I01
tp4494
sba(iModules.cell
Cell
p4495
(dp4496
g5
I00
sg12
(I01
I01
tp4497
sba(iModules.cell
Cell
p4498
(dp4499
g5
I00
sg12
(I01
I01
tp4500
sba(iModules.cell
Cell
p4501
(dp4502
g5
I00
sg12
(I01
I01
tp4503
sba(iModules.cell
Cell
p4504
(dp4505
g5
I00
sg12
(I01
I01
tp4506
sba(iModules.cell
Cell
p4507
(dp4508
g5
I00
sg12
(I01
I01
tp4509
sba(iModules.cell
Cell
p4510
(dp4511
g5
I00
sg12
(I01
I01
tp4512
sba(iModules.cell
Cell
p4513
(dp4514
g5
I00
sg12
(I01
I01
tp4515
sba(iModules.cell
Cell
p4516
(dp4517
g5
I00
sg12
(I01
I01
tp4518
sba(iModules.cell
Cell
p4519
(dp4520
g5
I00
sg12
(I01
I01
tp4521
sba(iModules.cell
Cell
p4522
(dp4523
g5
I00
sg12
(I01
I01
tp4524
sba(iModules.cell
Cell
p4525
(dp4526
g5
I00
sg12
(I01
I01
tp4527
sba(iModules.cell
Cell
p4528
(dp4529
g5
I00
sg12
(I01
I01
tp4530
sba(iModules.cell
Cell
p4531
(dp4532
g5
I00
sg12
(I01
I01
tp4533
sba(iModules.cell
Cell
p4534
(dp4535
g5
I00
sg12
(I01
I01
tp4536
sba(iModules.cell
Cell
p4537
(dp4538
g5
I00
sg12
(I01
I01
tp4539
sba(iModules.cell
Cell
p4540
(dp4541
g5
I00
sg12
(I01
I01
tp4542
sba(iModules.cell
Cell
p4543
(dp4544
g5
I00
sg12
(I01
I01
tp4545
sba(iModules.cell
Cell
p4546
(dp4547
g5
I00
sg12
(I01
I01
tp4548
sba(iModules.cell
Cell
p4549
(dp4550
g5
I00
sg12
(I01
I01
tp4551
sba(iModules.cell
Cell
p4552
(dp4553
g5
I00
sg12
(I01
I01
tp4554
sba(iModules.cell
Cell
p4555
(dp4556
g5
I00
sg12
(I01
I01
tp4557
sba(iModules.cell
Cell
p4558
(dp4559
g5
I00
sg12
(I01
I01
tp4560
sba(iModules.cell
Cell
p4561
(dp4562
g5
I00
sg12
(I01
I01
tp4563
sba(iModules.cell
Cell
p4564
(dp4565
g5
I00
sg12
(I01
I01
tp4566
sba(iModules.cell
Cell
p4567
(dp4568
g5
I00
sg12
(I01
I01
tp4569
sba(iModules.cell
Cell
p4570
(dp4571
g5
I00
sg12
(I01
I01
tp4572
sba(iModules.cell
Cell
p4573
(dp4574
g5
I00
sg12
(I01
I01
tp4575
sba(iModules.cell
Cell
p4576
(dp4577
g5
I00
sg12
(I01
I01
tp4578
sba(iModules.cell
Cell
p4579
(dp4580
g5
I00
sg12
(I01
I01
tp4581
sba(iModules.cell
Cell
p4582
(dp4583
g5
I00
sg12
(I01
I01
tp4584
sba(iModules.cell
Cell
p4585
(dp4586
g5
I00
sg12
(I01
I01
tp4587
sba(iModules.cell
Cell
p4588
(dp4589
g5
I00
sg12
(I00
I00
tp4590
sba(iModules.cell
Cell
p4591
(dp4592
g5
I00
sg12
(I00
I00
tp4593
sba(iModules.cell
Cell
p4594
(dp4595
g5
I00
sg12
(I00
I00
tp4596
sba(iModules.cell
Cell
p4597
(dp4598
g5
I00
sg12
(I00
I00
tp4599
sba(iModules.cell
Cell
p4600
(dp4601
g5
I00
sg12
(I00
I00
tp4602
sba(iModules.cell
Cell
p4603
(dp4604
g5
I00
sg12
(I00
I00
tp4605
sba(iModules.cell
Cell
p4606
(dp4607
g5
I00
sg12
(I00
I00
tp4608
sba(iModules.cell
Cell
p4609
(dp4610
g5
I00
sg12
(I00
I00
tp4611
sba(iModules.cell
Cell
p4612
(dp4613
g5
I00
sg12
(I00
I00
tp4614
sba(iModules.cell
Cell
p4615
(dp4616
g5
I00
sg12
(I00
I00
tp4617
sba(iModules.cell
Cell
p4618
(dp4619
g5
I00
sg12
(I00
I00
tp4620
sba(iModules.cell
Cell
p4621
(dp4622
g5
I00
sg12
(I00
I00
tp4623
sba(iModules.cell
Cell
p4624
(dp4625
g5
I00
sg12
(I00
I00
tp4626
sba(iModules.cell
Cell
p4627
(dp4628
g5
I00
sg12
(I00
I00
tp4629
sba(iModules.cell
Cell
p4630
(dp4631
g5
I00
sg12
(I00
I00
tp4632
sba(iModules.cell
Cell
p4633
(dp4634
g5
I00
sg12
(I00
I00
tp4635
sba(iModules.cell
Cell
p4636
(dp4637
g5
I00
sg12
(I00
I00
tp4638
sba(iModules.cell
Cell
p4639
(dp4640
g5
I00
sg12
(I00
I00
tp4641
sba(iModules.cell
Cell
p4642
(dp4643
g5
I00
sg12
(I00
I00
tp4644
sba(iModules.cell
Cell
p4645
(dp4646
g12
(I00
I00
tp4647
sbaa(lp4648
(iModules.cell
Cell
p4649
(dp4650
g5
I00
sg12
(I00
I00
tp4651
sba(iModules.cell
Cell
p4652
(dp4653
g5
I00
sg12
(I00
I00
tp4654
sba(iModules.cell
Cell
p4655
(dp4656
g5
I00
sg12
(I01
I01
tp4657
sba(iModules.cell
Cell
p4658
(dp4659
g5
I00
sg12
(I01
I01
tp4660
sba(iModules.cell
Cell
p4661
(dp4662
g5
I00
sg12
(I01
I01
tp4663
sba(iModules.cell
Cell
p4664
(dp4665
g5
I00
sg12
(I01
I01
tp4666
sba(iModules.cell
Cell
p4667
(dp4668
g5
I00
sg12
(I01
I01
tp4669
sba(iModules.cell
Cell
p4670
(dp4671
g5
I00
sg12
(I01
I01
tp4672
sba(iModules.cell
Cell
p4673
(dp4674
g5
I00
sg12
(I01
I01
tp4675
sba(iModules.cell
Cell
p4676
(dp4677
g5
I00
sg12
(I01
I01
tp4678
sba(iModules.cell
Cell
p4679
(dp4680
g5
I00
sg12
(I01
I01
tp4681
sba(iModules.cell
Cell
p4682
(dp4683
g5
I00
sg12
(I01
I01
tp4684
sba(iModules.cell
Cell
p4685
(dp4686
g5
I00
sg12
(I01
I01
tp4687
sba(iModules.cell
Cell
p4688
(dp4689
g5
I00
sg12
(I01
I01
tp4690
sba(iModules.cell
Cell
p4691
(dp4692
g5
I00
sg12
(I01
I01
tp4693
sba(iModules.cell
Cell
p4694
(dp4695
g5
I00
sg12
(I01
I01
tp4696
sba(iModules.cell
Cell
p4697
(dp4698
g5
I00
sg12
(I01
I01
tp4699
sba(iModules.cell
Cell
p4700
(dp4701
g5
I00
sg12
(I01
I01
tp4702
sba(iModules.cell
Cell
p4703
(dp4704
g5
I00
sg12
(I01
I01
tp4705
sba(iModules.cell
Cell
p4706
(dp4707
g5
I00
sg12
(I01
I01
tp4708
sba(iModules.cell
Cell
p4709
(dp4710
g5
I00
sg12
(I01
I01
tp4711
sba(iModules.cell
Cell
p4712
(dp4713
g5
I00
sg12
(I01
I01
tp4714
sba(iModules.cell
Cell
p4715
(dp4716
g5
I00
sg12
(I01
I01
tp4717
sba(iModules.cell
Cell
p4718
(dp4719
g5
I00
sg12
(I01
I01
tp4720
sba(iModules.cell
Cell
p4721
(dp4722
g5
I00
sg12
(I01
I01
tp4723
sba(iModules.cell
Cell
p4724
(dp4725
g5
I00
sg12
(I01
I01
tp4726
sba(iModules.cell
Cell
p4727
(dp4728
g5
I00
sg12
(I01
I01
tp4729
sba(iModules.cell
Cell
p4730
(dp4731
g5
I00
sg12
(I01
I01
tp4732
sba(iModules.cell
Cell
p4733
(dp4734
g5
I00
sg12
(I01
I01
tp4735
sba(iModules.cell
Cell
p4736
(dp4737
g5
I00
sg12
(I01
I01
tp4738
sba(iModules.cell
Cell
p4739
(dp4740
g5
I00
sg12
(I01
I01
tp4741
sba(iModules.cell
Cell
p4742
(dp4743
g5
I00
sg12
(I01
I01
tp4744
sba(iModules.cell
Cell
p4745
(dp4746
g5
I00
sg12
(I01
I01
tp4747
sba(iModules.cell
Cell
p4748
(dp4749
g5
I00
sg12
(I01
I01
tp4750
sba(iModules.cell
Cell
p4751
(dp4752
g5
I00
sg12
(I01
I01
tp4753
sba(iModules.cell
Cell
p4754
(dp4755
g5
I00
sg12
(I01
I01
tp4756
sba(iModules.cell
Cell
p4757
(dp4758
g5
I00
sg12
(I01
I01
tp4759
sba(iModules.cell
Cell
p4760
(dp4761
g5
I00
sg12
(I01
I01
tp4762
sba(iModules.cell
Cell
p4763
(dp4764
g5
I00
sg12
(I01
I01
tp4765
sba(iModules.cell
Cell
p4766
(dp4767
g5
I00
sg12
(I01
I01
tp4768
sba(iModules.cell
Cell
p4769
(dp4770
g5
I00
sg12
(I01
I01
tp4771
sba(iModules.cell
Cell
p4772
(dp4773
g5
I00
sg12
(I01
I01
tp4774
sba(iModules.cell
Cell
p4775
(dp4776
g5
I00
sg12
(I01
I01
tp4777
sba(iModules.cell
Cell
p4778
(dp4779
g5
I00
sg12
(I01
I01
tp4780
sba(iModules.cell
Cell
p4781
(dp4782
g5
I00
sg12
(I01
I01
tp4783
sba(iModules.cell
Cell
p4784
(dp4785
g5
I00
sg12
(I01
I01
tp4786
sba(iModules.cell
Cell
p4787
(dp4788
g5
I00
sg12
(I01
I01
tp4789
sba(iModules.cell
Cell
p4790
(dp4791
g5
I00
sg12
(I01
I01
tp4792
sba(iModules.cell
Cell
p4793
(dp4794
g5
I00
sg12
(I01
I01
tp4795
sba(iModules.cell
Cell
p4796
(dp4797
g5
I00
sg12
(I01
I01
tp4798
sba(iModules.cell
Cell
p4799
(dp4800
g5
I00
sg12
(I01
I01
tp4801
sba(iModules.cell
Cell
p4802
(dp4803
g5
I00
sg12
(I01
I01
tp4804
sba(iModules.cell
Cell
p4805
(dp4806
g5
I00
sg12
(I01
I01
tp4807
sba(iModules.cell
Cell
p4808
(dp4809
g5
I00
sg12
(I01
I01
tp4810
sba(iModules.cell
Cell
p4811
(dp4812
g5
I00
sg12
(I01
I01
tp4813
sba(iModules.cell
Cell
p4814
(dp4815
g5
I00
sg12
(I01
I01
tp4816
sba(iModules.cell
Cell
p4817
(dp4818
g5
I00
sg12
(I01
I01
tp4819
sba(iModules.cell
Cell
p4820
(dp4821
g5
I00
sg12
(I01
I01
tp4822
sba(iModules.cell
Cell
p4823
(dp4824
g5
I00
sg12
(I01
I01
tp4825
sba(iModules.cell
Cell
p4826
(dp4827
g5
I00
sg12
(I01
I01
tp4828
sba(iModules.cell
Cell
p4829
(dp4830
g5
I00
sg12
(I01
I01
tp4831
sba(iModules.cell
Cell
p4832
(dp4833
g5
I00
sg12
(I00
I00
tp4834
sba(iModules.cell
Cell
p4835
(dp4836
g5
I00
sg12
(I00
I00
tp4837
sba(iModules.cell
Cell
p4838
(dp4839
g5
I00
sg12
(I00
I00
tp4840
sba(iModules.cell
Cell
p4841
(dp4842
g5
I00
sg12
(I00
I00
tp4843
sba(iModules.cell
Cell
p4844
(dp4845
g5
I00
sg12
(I00
I00
tp4846
sba(iModules.cell
Cell
p4847
(dp4848
g5
I00
sg12
(I00
I00
tp4849
sba(iModules.cell
Cell
p4850
(dp4851
g5
I00
sg12
(I00
I00
tp4852
sba(iModules.cell
Cell
p4853
(dp4854
g5
I00
sg12
(I00
I00
tp4855
sba(iModules.cell
Cell
p4856
(dp4857
g5
I00
sg12
(I00
I00
tp4858
sba(iModules.cell
Cell
p4859
(dp4860
g5
I00
sg12
(I00
I00
tp4861
sba(iModules.cell
Cell
p4862
(dp4863
g5
I00
sg12
(I00
I00
tp4864
sba(iModules.cell
Cell
p4865
(dp4866
g5
I00
sg12
(I00
I00
tp4867
sba(iModules.cell
Cell
p4868
(dp4869
g5
I00
sg12
(I00
I00
tp4870
sba(iModules.cell
Cell
p4871
(dp4872
g5
I00
sg12
(I00
I00
tp4873
sba(iModules.cell
Cell
p4874
(dp4875
g5
I00
sg12
(I00
I00
tp4876
sba(iModules.cell
Cell
p4877
(dp4878
g5
I00
sg12
(I00
I00
tp4879
sba(iModules.cell
Cell
p4880
(dp4881
g5
I00
sg12
(I00
I00
tp4882
sba(iModules.cell
Cell
p4883
(dp4884
g5
I00
sg12
(I00
I00
tp4885
sba(iModules.cell
Cell
p4886
(dp4887
g5
I00
sg12
(I00
I00
tp4888
sba(iModules.cell
Cell
p4889
(dp4890
g12
(I00
I00
tp4891
sbaa(lp4892
(iModules.cell
Cell
p4893
(dp4894
g5
I00
sg12
(I00
I00
tp4895
sba(iModules.cell
Cell
p4896
(dp4897
g5
I00
sg12
(I00
I00
tp4898
sba(iModules.cell
Cell
p4899
(dp4900
g5
I00
sg12
(I01
I01
tp4901
sba(iModules.cell
Cell
p4902
(dp4903
g5
I00
sg12
(I01
I01
tp4904
sba(iModules.cell
Cell
p4905
(dp4906
g5
I00
sg12
(I01
I01
tp4907
sba(iModules.cell
Cell
p4908
(dp4909
g5
I00
sg12
(I01
I01
tp4910
sba(iModules.cell
Cell
p4911
(dp4912
g5
I00
sg12
(I01
I01
tp4913
sba(iModules.cell
Cell
p4914
(dp4915
g5
I00
sg12
(I01
I01
tp4916
sba(iModules.cell
Cell
p4917
(dp4918
g5
I00
sg12
(I01
I01
tp4919
sba(iModules.cell
Cell
p4920
(dp4921
g5
I00
sg12
(I01
I01
tp4922
sba(iModules.cell
Cell
p4923
(dp4924
g5
I00
sg12
(I01
I01
tp4925
sba(iModules.cell
Cell
p4926
(dp4927
g5
I00
sg12
(I01
I01
tp4928
sba(iModules.cell
Cell
p4929
(dp4930
g5
I00
sg12
(I01
I01
tp4931
sba(iModules.cell
Cell
p4932
(dp4933
g5
I00
sg12
(I01
I01
tp4934
sba(iModules.cell
Cell
p4935
(dp4936
g5
I00
sg12
(I01
I01
tp4937
sba(iModules.cell
Cell
p4938
(dp4939
g5
I00
sg12
(I01
I01
tp4940
sba(iModules.cell
Cell
p4941
(dp4942
g5
I00
sg12
(I01
I01
tp4943
sba(iModules.cell
Cell
p4944
(dp4945
g5
I00
sg12
(I01
I01
tp4946
sba(iModules.cell
Cell
p4947
(dp4948
g5
I00
sg12
(I01
I01
tp4949
sba(iModules.cell
Cell
p4950
(dp4951
g5
I00
sg12
(I01
I01
tp4952
sba(iModules.cell
Cell
p4953
(dp4954
g5
I00
sg12
(I01
I01
tp4955
sba(iModules.cell
Cell
p4956
(dp4957
g5
I00
sg12
(I01
I01
tp4958
sba(iModules.cell
Cell
p4959
(dp4960
g5
I00
sg12
(I01
I01
tp4961
sba(iModules.cell
Cell
p4962
(dp4963
g5
I00
sg12
(I01
I01
tp4964
sba(iModules.cell
Cell
p4965
(dp4966
g5
I00
sg12
(I01
I01
tp4967
sba(iModules.cell
Cell
p4968
(dp4969
g5
I00
sg12
(I01
I01
tp4970
sba(iModules.cell
Cell
p4971
(dp4972
g5
I00
sg12
(I01
I01
tp4973
sba(iModules.cell
Cell
p4974
(dp4975
g5
I00
sg12
(I01
I01
tp4976
sba(iModules.cell
Cell
p4977
(dp4978
g5
I00
sg12
(I01
I01
tp4979
sba(iModules.cell
Cell
p4980
(dp4981
g5
I00
sg12
(I01
I01
tp4982
sba(iModules.cell
Cell
p4983
(dp4984
g5
I00
sg12
(I01
I01
tp4985
sba(iModules.cell
Cell
p4986
(dp4987
g5
I00
sg12
(I01
I01
tp4988
sba(iModules.cell
Cell
p4989
(dp4990
g5
I00
sg12
(I01
I01
tp4991
sba(iModules.cell
Cell
p4992
(dp4993
g5
I00
sg12
(I01
I01
tp4994
sba(iModules.cell
Cell
p4995
(dp4996
g5
I00
sg12
(I01
I01
tp4997
sba(iModules.cell
Cell
p4998
(dp4999
g5
I00
sg12
(I01
I01
tp5000
sba(iModules.cell
Cell
p5001
(dp5002
g5
I00
sg12
(I01
I01
tp5003
sba(iModules.cell
Cell
p5004
(dp5005
g5
I00
sg12
(I01
I01
tp5006
sba(iModules.cell
Cell
p5007
(dp5008
g5
I00
sg12
(I01
I01
tp5009
sba(iModules.cell
Cell
p5010
(dp5011
g5
I00
sg12
(I01
I01
tp5012
sba(iModules.cell
Cell
p5013
(dp5014
g5
I00
sg12
(I01
I01
tp5015
sba(iModules.cell
Cell
p5016
(dp5017
g5
I00
sg12
(I01
I01
tp5018
sba(iModules.cell
Cell
p5019
(dp5020
g5
I00
sg12
(I01
I01
tp5021
sba(iModules.cell
Cell
p5022
(dp5023
g5
I00
sg12
(I01
I01
tp5024
sba(iModules.cell
Cell
p5025
(dp5026
g5
I00
sg12
(I01
I01
tp5027
sba(iModules.cell
Cell
p5028
(dp5029
g5
I00
sg12
(I01
I01
tp5030
sba(iModules.cell
Cell
p5031
(dp5032
g5
I00
sg12
(I01
I01
tp5033
sba(iModules.cell
Cell
p5034
(dp5035
g5
I00
sg12
(I01
I01
tp5036
sba(iModules.cell
Cell
p5037
(dp5038
g5
I00
sg12
(I01
I01
tp5039
sba(iModules.cell
Cell
p5040
(dp5041
g5
I00
sg12
(I01
I01
tp5042
sba(iModules.cell
Cell
p5043
(dp5044
g5
I00
sg12
(I01
I01
tp5045
sba(iModules.cell
Cell
p5046
(dp5047
g5
I00
sg12
(I01
I01
tp5048
sba(iModules.cell
Cell
p5049
(dp5050
g5
I00
sg12
(I01
I01
tp5051
sba(iModules.cell
Cell
p5052
(dp5053
g5
I00
sg12
(I01
I01
tp5054
sba(iModules.cell
Cell
p5055
(dp5056
g5
I00
sg12
(I01
I01
tp5057
sba(iModules.cell
Cell
p5058
(dp5059
g5
I00
sg12
(I01
I01
tp5060
sba(iModules.cell
Cell
p5061
(dp5062
g5
I00
sg12
(I01
I01
tp5063
sba(iModules.cell
Cell
p5064
(dp5065
g5
I00
sg12
(I01
I01
tp5066
sba(iModules.cell
Cell
p5067
(dp5068
g5
I00
sg12
(I01
I01
tp5069
sba(iModules.cell
Cell
p5070
(dp5071
g5
I00
sg12
(I01
I01
tp5072
sba(iModules.cell
Cell
p5073
(dp5074
g5
I00
sg12
(I01
I01
tp5075
sba(iModules.cell
Cell
p5076
(dp5077
g5
I00
sg12
(I00
I00
tp5078
sba(iModules.cell
Cell
p5079
(dp5080
g5
I00
sg12
(I00
I00
tp5081
sba(iModules.cell
Cell
p5082
(dp5083
g5
I00
sg12
(I00
I00
tp5084
sba(iModules.cell
Cell
p5085
(dp5086
g5
I00
sg12
(I00
I00
tp5087
sba(iModules.cell
Cell
p5088
(dp5089
g5
I00
sg12
(I00
I00
tp5090
sba(iModules.cell
Cell
p5091
(dp5092
g5
I00
sg12
(I00
I00
tp5093
sba(iModules.cell
Cell
p5094
(dp5095
g5
I00
sg12
(I00
I00
tp5096
sba(iModules.cell
Cell
p5097
(dp5098
g5
I00
sg12
(I00
I00
tp5099
sba(iModules.cell
Cell
p5100
(dp5101
g5
I00
sg12
(I00
I00
tp5102
sba(iModules.cell
Cell
p5103
(dp5104
g5
I00
sg12
(I00
I00
tp5105
sba(iModules.cell
Cell
p5106
(dp5107
g5
I00
sg12
(I00
I00
tp5108
sba(iModules.cell
Cell
p5109
(dp5110
g5
I00
sg12
(I00
I00
tp5111
sba(iModules.cell
Cell
p5112
(dp5113
g5
I00
sg12
(I00
I00
tp5114
sba(iModules.cell
Cell
p5115
(dp5116
g5
I00
sg12
(I00
I00
tp5117
sba(iModules.cell
Cell
p5118
(dp5119
g5
I00
sg12
(I00
I00
tp5120
sba(iModules.cell
Cell
p5121
(dp5122
g5
I00
sg12
(I00
I00
tp5123
sba(iModules.cell
Cell
p5124
(dp5125
g5
I00
sg12
(I00
I00
tp5126
sba(iModules.cell
Cell
p5127
(dp5128
g5
I00
sg12
(I00
I00
tp5129
sba(iModules.cell
Cell
p5130
(dp5131
g5
I00
sg12
(I00
I00
tp5132
sba(iModules.cell
Cell
p5133
(dp5134
g12
(I00
I00
tp5135
sbaa(lp5136
(iModules.cell
Cell
p5137
(dp5138
g5
I00
sg12
(I00
I00
tp5139
sba(iModules.cell
Cell
p5140
(dp5141
g5
I00
sg12
(I00
I00
tp5142
sba(iModules.cell
Cell
p5143
(dp5144
g5
I00
sg12
(I01
I01
tp5145
sba(iModules.cell
Cell
p5146
(dp5147
g5
I00
sg12
(I01
I01
tp5148
sba(iModules.cell
Cell
p5149
(dp5150
g5
I00
sg12
(I01
I01
tp5151
sba(iModules.cell
Cell
p5152
(dp5153
g5
I00
sg12
(I01
I01
tp5154
sba(iModules.cell
Cell
p5155
(dp5156
g5
I00
sg12
(I01
I01
tp5157
sba(iModules.cell
Cell
p5158
(dp5159
g5
I00
sg12
(I01
I01
tp5160
sba(iModules.cell
Cell
p5161
(dp5162
g5
I00
sg12
(I01
I01
tp5163
sba(iModules.cell
Cell
p5164
(dp5165
g5
I00
sg12
(I01
I01
tp5166
sba(iModules.cell
Cell
p5167
(dp5168
g5
I00
sg12
(I01
I01
tp5169
sba(iModules.cell
Cell
p5170
(dp5171
g5
I00
sg12
(I01
I01
tp5172
sba(iModules.cell
Cell
p5173
(dp5174
g5
I00
sg12
(I01
I01
tp5175
sba(iModules.cell
Cell
p5176
(dp5177
g5
I00
sg12
(I01
I01
tp5178
sba(iModules.cell
Cell
p5179
(dp5180
g5
I00
sg12
(I01
I01
tp5181
sba(iModules.cell
Cell
p5182
(dp5183
g5
I00
sg12
(I01
I01
tp5184
sba(iModules.cell
Cell
p5185
(dp5186
g5
I00
sg12
(I01
I01
tp5187
sba(iModules.cell
Cell
p5188
(dp5189
g5
I00
sg12
(I01
I01
tp5190
sba(iModules.cell
Cell
p5191
(dp5192
g5
I00
sg12
(I01
I01
tp5193
sba(iModules.cell
Cell
p5194
(dp5195
g5
I00
sg12
(I01
I01
tp5196
sba(iModules.cell
Cell
p5197
(dp5198
g5
I00
sg12
(I01
I01
tp5199
sba(iModules.cell
Cell
p5200
(dp5201
g5
I00
sg12
(I01
I01
tp5202
sba(iModules.cell
Cell
p5203
(dp5204
g5
I00
sg12
(I01
I01
tp5205
sba(iModules.cell
Cell
p5206
(dp5207
g5
I00
sg12
(I01
I01
tp5208
sba(iModules.cell
Cell
p5209
(dp5210
g5
I00
sg12
(I01
I01
tp5211
sba(iModules.cell
Cell
p5212
(dp5213
g5
I00
sg12
(I01
I01
tp5214
sba(iModules.cell
Cell
p5215
(dp5216
g5
I00
sg12
(I01
I01
tp5217
sba(iModules.cell
Cell
p5218
(dp5219
g5
I00
sg12
(I01
I01
tp5220
sba(iModules.cell
Cell
p5221
(dp5222
g5
I00
sg12
(I01
I01
tp5223
sba(iModules.cell
Cell
p5224
(dp5225
g5
I00
sg12
(I01
I01
tp5226
sba(iModules.cell
Cell
p5227
(dp5228
g5
I00
sg12
(I01
I01
tp5229
sba(iModules.cell
Cell
p5230
(dp5231
g5
I00
sg12
(I01
I01
tp5232
sba(iModules.cell
Cell
p5233
(dp5234
g5
I00
sg12
(I01
I01
tp5235
sba(iModules.cell
Cell
p5236
(dp5237
g5
I00
sg12
(I01
I01
tp5238
sba(iModules.cell
Cell
p5239
(dp5240
g5
I00
sg12
(I01
I01
tp5241
sba(iModules.cell
Cell
p5242
(dp5243
g5
I00
sg12
(I01
I01
tp5244
sba(iModules.cell
Cell
p5245
(dp5246
g5
I00
sg12
(I01
I01
tp5247
sba(iModules.cell
Cell
p5248
(dp5249
g5
I00
sg12
(I01
I01
tp5250
sba(iModules.cell
Cell
p5251
(dp5252
g5
I00
sg12
(I01
I01
tp5253
sba(iModules.cell
Cell
p5254
(dp5255
g5
I00
sg12
(I01
I01
tp5256
sba(iModules.cell
Cell
p5257
(dp5258
g5
I00
sg12
(I01
I01
tp5259
sba(iModules.cell
Cell
p5260
(dp5261
g5
I00
sg12
(I01
I01
tp5262
sba(iModules.cell
Cell
p5263
(dp5264
g5
I00
sg12
(I01
I01
tp5265
sba(iModules.cell
Cell
p5266
(dp5267
g5
I00
sg12
(I01
I01
tp5268
sba(iModules.cell
Cell
p5269
(dp5270
g5
I00
sg12
(I01
I01
tp5271
sba(iModules.cell
Cell
p5272
(dp5273
g5
I00
sg12
(I01
I01
tp5274
sba(iModules.cell
Cell
p5275
(dp5276
g5
I00
sg12
(I01
I01
tp5277
sba(iModules.cell
Cell
p5278
(dp5279
g5
I00
sg12
(I01
I01
tp5280
sba(iModules.cell
Cell
p5281
(dp5282
g5
I00
sg12
(I01
I01
tp5283
sba(iModules.cell
Cell
p5284
(dp5285
g5
I00
sg12
(I01
I01
tp5286
sba(iModules.cell
Cell
p5287
(dp5288
g5
I00
sg12
(I01
I01
tp5289
sba(iModules.cell
Cell
p5290
(dp5291
g5
I00
sg12
(I01
I01
tp5292
sba(iModules.cell
Cell
p5293
(dp5294
g5
I00
sg12
(I01
I01
tp5295
sba(iModules.cell
Cell
p5296
(dp5297
g5
I00
sg12
(I01
I01
tp5298
sba(iModules.cell
Cell
p5299
(dp5300
g5
I00
sg12
(I01
I01
tp5301
sba(iModules.cell
Cell
p5302
(dp5303
g5
I00
sg12
(I01
I01
tp5304
sba(iModules.cell
Cell
p5305
(dp5306
g5
I00
sg12
(I01
I01
tp5307
sba(iModules.cell
Cell
p5308
(dp5309
g5
I00
sg12
(I01
I01
tp5310
sba(iModules.cell
Cell
p5311
(dp5312
g5
I00
sg12
(I01
I01
tp5313
sba(iModules.cell
Cell
p5314
(dp5315
g5
I00
sg12
(I01
I01
tp5316
sba(iModules.cell
Cell
p5317
(dp5318
g5
I00
sg12
(I01
I01
tp5319
sba(iModules.cell
Cell
p5320
(dp5321
g5
I00
sg12
(I00
I00
tp5322
sba(iModules.cell
Cell
p5323
(dp5324
g5
I00
sg12
(I00
I00
tp5325
sba(iModules.cell
Cell
p5326
(dp5327
g5
I00
sg12
(I00
I00
tp5328
sba(iModules.cell
Cell
p5329
(dp5330
g5
I00
sg12
(I00
I00
tp5331
sba(iModules.cell
Cell
p5332
(dp5333
g5
I00
sg12
(I00
I00
tp5334
sba(iModules.cell
Cell
p5335
(dp5336
g5
I00
sg12
(I00
I00
tp5337
sba(iModules.cell
Cell
p5338
(dp5339
g5
I00
sg12
(I00
I00
tp5340
sba(iModules.cell
Cell
p5341
(dp5342
g5
I00
sg12
(I00
I00
tp5343
sba(iModules.cell
Cell
p5344
(dp5345
g5
I00
sg12
(I00
I00
tp5346
sba(iModules.cell
Cell
p5347
(dp5348
g5
I00
sg12
(I00
I00
tp5349
sba(iModules.cell
Cell
p5350
(dp5351
g5
I00
sg12
(I00
I00
tp5352
sba(iModules.cell
Cell
p5353
(dp5354
g5
I00
sg12
(I00
I00
tp5355
sba(iModules.cell
Cell
p5356
(dp5357
g5
I00
sg12
(I00
I00
tp5358
sba(iModules.cell
Cell
p5359
(dp5360
g5
I00
sg12
(I00
I00
tp5361
sba(iModules.cell
Cell
p5362
(dp5363
g5
I00
sg12
(I00
I00
tp5364
sba(iModules.cell
Cell
p5365
(dp5366
g5
I00
sg12
(I00
I00
tp5367
sba(iModules.cell
Cell
p5368
(dp5369
g5
I00
sg12
(I00
I00
tp5370
sba(iModules.cell
Cell
p5371
(dp5372
g5
I00
sg12
(I00
I00
tp5373
sba(iModules.cell
Cell
p5374
(dp5375
g5
I00
sg12
(I00
I00
tp5376
sba(iModules.cell
Cell
p5377
(dp5378
g12
(I00
I00
tp5379
sbaa(lp5380
(iModules.cell
Cell
p5381
(dp5382
g5
I00
sg12
(I00
I00
tp5383
sba(iModules.cell
Cell
p5384
(dp5385
g5
I00
sg12
(I00
I00
tp5386
sba(iModules.cell
Cell
p5387
(dp5388
g5
I00
sg12
(I00
I00
tp5389
sba(iModules.cell
Cell
p5390
(dp5391
g5
I00
sg12
(I00
I00
tp5392
sba(iModules.cell
Cell
p5393
(dp5394
g5
I00
sg12
(I00
I00
tp5395
sba(iModules.cell
Cell
p5396
(dp5397
g5
I00
sg12
(I00
I00
tp5398
sba(iModules.cell
Cell
p5399
(dp5400
g5
I00
sg12
(I00
I00
tp5401
sba(iModules.cell
Cell
p5402
(dp5403
g5
I00
sg12
(I00
I00
tp5404
sba(iModules.cell
Cell
p5405
(dp5406
g5
I00
sg12
(I00
I00
tp5407
sba(iModules.cell
Cell
p5408
(dp5409
g5
I00
sg12
(I00
I00
tp5410
sba(iModules.cell
Cell
p5411
(dp5412
g5
I00
sg12
(I00
I00
tp5413
sba(iModules.cell
Cell
p5414
(dp5415
g5
I00
sg12
(I00
I00
tp5416
sba(iModules.cell
Cell
p5417
(dp5418
g5
I00
sg12
(I00
I00
tp5419
sba(iModules.cell
Cell
p5420
(dp5421
g5
I00
sg12
(I00
I00
tp5422
sba(iModules.cell
Cell
p5423
(dp5424
g5
I00
sg12
(I00
I00
tp5425
sba(iModules.cell
Cell
p5426
(dp5427
g5
I00
sg12
(I00
I00
tp5428
sba(iModules.cell
Cell
p5429
(dp5430
g5
I00
sg12
(I00
I00
tp5431
sba(iModules.cell
Cell
p5432
(dp5433
g5
I00
sg12
(I00
I00
tp5434
sba(iModules.cell
Cell
p5435
(dp5436
g5
I00
sg12
(I00
I00
tp5437
sba(iModules.cell
Cell
p5438
(dp5439
g5
I00
sg12
(I00
I00
tp5440
sba(iModules.cell
Cell
p5441
(dp5442
g5
I00
sg12
(I00
I00
tp5443
sba(iModules.cell
Cell
p5444
(dp5445
g5
I00
sg12
(I00
I00
tp5446
sba(iModules.cell
Cell
p5447
(dp5448
g5
I00
sg12
(I00
I00
tp5449
sba(iModules.cell
Cell
p5450
(dp5451
g5
I00
sg12
(I00
I00
tp5452
sba(iModules.cell
Cell
p5453
(dp5454
g5
I00
sg12
(I00
I00
tp5455
sba(iModules.cell
Cell
p5456
(dp5457
g5
I00
sg12
(I00
I00
tp5458
sba(iModules.cell
Cell
p5459
(dp5460
g5
I00
sg12
(I00
I00
tp5461
sba(iModules.cell
Cell
p5462
(dp5463
g5
I00
sg12
(I00
I00
tp5464
sba(iModules.cell
Cell
p5465
(dp5466
g5
I00
sg12
(I00
I00
tp5467
sba(iModules.cell
Cell
p5468
(dp5469
g5
I00
sg12
(I00
I00
tp5470
sba(iModules.cell
Cell
p5471
(dp5472
g5
I00
sg12
(I00
I00
tp5473
sba(iModules.cell
Cell
p5474
(dp5475
g5
I00
sg12
(I00
I00
tp5476
sba(iModules.cell
Cell
p5477
(dp5478
g5
I00
sg12
(I00
I00
tp5479
sba(iModules.cell
Cell
p5480
(dp5481
g5
I00
sg12
(I00
I00
tp5482
sba(iModules.cell
Cell
p5483
(dp5484
g5
I00
sg12
(I00
I00
tp5485
sba(iModules.cell
Cell
p5486
(dp5487
g5
I00
sg12
(I00
I00
tp5488
sba(iModules.cell
Cell
p5489
(dp5490
g5
I00
sg12
(I00
I00
tp5491
sba(iModules.cell
Cell
p5492
(dp5493
g5
I00
sg12
(I00
I00
tp5494
sba(iModules.cell
Cell
p5495
(dp5496
g5
I00
sg12
(I00
I00
tp5497
sba(iModules.cell
Cell
p5498
(dp5499
g5
I00
sg12
(I00
I00
tp5500
sba(iModules.cell
Cell
p5501
(dp5502
g5
I00
sg12
(I00
I00
tp5503
sba(iModules.cell
Cell
p5504
(dp5505
g5
I00
sg12
(I00
I00
tp5506
sba(iModules.cell
Cell
p5507
(dp5508
g5
I00
sg12
(I00
I00
tp5509
sba(iModules.cell
Cell
p5510
(dp5511
g5
I00
sg12
(I00
I00
tp5512
sba(iModules.cell
Cell
p5513
(dp5514
g5
I00
sg12
(I00
I00
tp5515
sba(iModules.cell
Cell
p5516
(dp5517
g5
I00
sg12
(I00
I00
tp5518
sba(iModules.cell
Cell
p5519
(dp5520
g5
I00
sg12
(I00
I00
tp5521
sba(iModules.cell
Cell
p5522
(dp5523
g5
I00
sg12
(I00
I00
tp5524
sba(iModules.cell
Cell
p5525
(dp5526
g5
I00
sg12
(I00
I00
tp5527
sba(iModules.cell
Cell
p5528
(dp5529
g5
I00
sg12
(I00
I00
tp5530
sba(iModules.cell
Cell
p5531
(dp5532
g5
I00
sg12
(I00
I00
tp5533
sba(iModules.cell
Cell
p5534
(dp5535
g5
I00
sg12
(I00
I00
tp5536
sba(iModules.cell
Cell
p5537
(dp5538
g5
I00
sg12
(I00
I00
tp5539
sba(iModules.cell
Cell
p5540
(dp5541
g5
I00
sg12
(I00
I00
tp5542
sba(iModules.cell
Cell
p5543
(dp5544
g5
I00
sg12
(I00
I00
tp5545
sba(iModules.cell
Cell
p5546
(dp5547
g5
I00
sg12
(I00
I00
tp5548
sba(iModules.cell
Cell
p5549
(dp5550
g5
I00
sg12
(I00
I00
tp5551
sba(iModules.cell
Cell
p5552
(dp5553
g5
I00
sg12
(I00
I00
tp5554
sba(iModules.cell
Cell
p5555
(dp5556
g5
I00
sg12
(I00
I00
tp5557
sba(iModules.cell
Cell
p5558
(dp5559
g5
I00
sg12
(I00
I00
tp5560
sba(iModules.cell
Cell
p5561
(dp5562
g5
I00
sg12
(I00
I00
tp5563
sba(iModules.cell
Cell
p5564
(dp5565
g5
I00
sg12
(I00
I00
tp5566
sba(iModules.cell
Cell
p5567
(dp5568
g5
I00
sg12
(I00
I00
tp5569
sba(iModules.cell
Cell
p5570
(dp5571
g5
I00
sg12
(I00
I00
tp5572
sba(iModules.cell
Cell
p5573
(dp5574
g5
I00
sg12
(I00
I00
tp5575
sba(iModules.cell
Cell
p5576
(dp5577
g5
I00
sg12
(I00
I00
tp5578
sba(iModules.cell
Cell
p5579
(dp5580
g5
I00
sg12
(I00
I00
tp5581
sba(iModules.cell
Cell
p5582
(dp5583
g5
I00
sg12
(I00
I00
tp5584
sba(iModules.cell
Cell
p5585
(dp5586
g5
I00
sg12
(I00
I00
tp5587
sba(iModules.cell
Cell
p5588
(dp5589
g5
I00
sg12
(I00
I00
tp5590
sba(iModules.cell
Cell
p5591
(dp5592
g5
I00
sg12
(I00
I00
tp5593
sba(iModules.cell
Cell
p5594
(dp5595
g5
I00
sg12
(I00
I00
tp5596
sba(iModules.cell
Cell
p5597
(dp5598
g5
I00
sg12
(I00
I00
tp5599
sba(iModules.cell
Cell
p5600
(dp5601
g5
I00
sg12
(I00
I00
tp5602
sba(iModules.cell
Cell
p5603
(dp5604
g5
I00
sg12
(I00
I00
tp5605
sba(iModules.cell
Cell
p5606
(dp5607
g5
I00
sg12
(I00
I00
tp5608
sba(iModules.cell
Cell
p5609
(dp5610
g5
I00
sg12
(I00
I00
tp5611
sba(iModules.cell
Cell
p5612
(dp5613
g5
I00
sg12
(I00
I00
tp5614
sba(iModules.cell
Cell
p5615
(dp5616
g5
I00
sg12
(I00
I00
tp5617
sba(iModules.cell
Cell
p5618
(dp5619
g5
I00
sg12
(I00
I00
tp5620
sba(iModules.cell
Cell
p5621
(dp5622
g12
(I00
I00
tp5623
sbaa(lp5624
(iModules.cell
Cell
p5625
(dp5626
g12
(I00
I00
tp5627
sba(iModules.cell
Cell
p5628
(dp5629
g12
(I00
I00
tp5630
sba(iModules.cell
Cell
p5631
(dp5632
g12
(I00
I00
tp5633
sba(iModules.cell
Cell
p5634
(dp5635
g12
(I00
I00
tp5636
sba(iModules.cell
Cell
p5637
(dp5638
g12
(I00
I00
tp5639
sba(iModules.cell
Cell
p5640
(dp5641
g12
(I00
I00
tp5642
sba(iModules.cell
Cell
p5643
(dp5644
g12
(I00
I00
tp5645
sba(iModules.cell
Cell
p5646
(dp5647
g12
(I00
I00
tp5648
sba(iModules.cell
Cell
p5649
(dp5650
g12
(I00
I00
tp5651
sba(iModules.cell
Cell
p5652
(dp5653
g12
(I00
I00
tp5654
sba(iModules.cell
Cell
p5655
(dp5656
g12
(I00
I00
tp5657
sba(iModules.cell
Cell
p5658
(dp5659
g12
(I00
I00
tp5660
sba(iModules.cell
Cell
p5661
(dp5662
g12
(I00
I00
tp5663
sba(iModules.cell
Cell
p5664
(dp5665
g12
(I00
I00
tp5666
sba(iModules.cell
Cell
p5667
(dp5668
g12
(I00
I00
tp5669
sba(iModules.cell
Cell
p5670
(dp5671
g12
(I00
I00
tp5672
sba(iModules.cell
Cell
p5673
(dp5674
g12
(I00
I00
tp5675
sba(iModules.cell
Cell
p5676
(dp5677
g12
(I00
I00
tp5678
sba(iModules.cell
Cell
p5679
(dp5680
g12
(I00
I00
tp5681
sba(iModules.cell
Cell
p5682
(dp5683
g12
(I00
I00
tp5684
sba(iModules.cell
Cell
p5685
(dp5686
g12
(I00
I00
tp5687
sba(iModules.cell
Cell
p5688
(dp5689
g12
(I00
I00
tp5690
sba(iModules.cell
Cell
p5691
(dp5692
g12
(I00
I00
tp5693
sba(iModules.cell
Cell
p5694
(dp5695
g12
(I00
I00
tp5696
sba(iModules.cell
Cell
p5697
(dp5698
g12
(I00
I00
tp5699
sba(iModules.cell
Cell
p5700
(dp5701
g12
(I00
I00
tp5702
sba(iModules.cell
Cell
p5703
(dp5704
g12
(I00
I00
tp5705
sba(iModules.cell
Cell
p5706
(dp5707
g12
(I00
I00
tp5708
sba(iModules.cell
Cell
p5709
(dp5710
g12
(I00
I00
tp5711
sba(iModules.cell
Cell
p5712
(dp5713
g12
(I00
I00
tp5714
sba(iModules.cell
Cell
p5715
(dp5716
g12
(I00
I00
tp5717
sba(iModules.cell
Cell
p5718
(dp5719
g12
(I00
I00
tp5720
sba(iModules.cell
Cell
p5721
(dp5722
g12
(I00
I00
tp5723
sba(iModules.cell
Cell
p5724
(dp5725
g12
(I00
I00
tp5726
sba(iModules.cell
Cell
p5727
(dp5728
g12
(I00
I00
tp5729
sba(iModules.cell
Cell
p5730
(dp5731
g12
(I00
I00
tp5732
sba(iModules.cell
Cell
p5733
(dp5734
g12
(I00
I00
tp5735
sba(iModules.cell
Cell
p5736
(dp5737
g12
(I00
I00
tp5738
sba(iModules.cell
Cell
p5739
(dp5740
g12
(I00
I00
tp5741
sba(iModules.cell
Cell
p5742
(dp5743
g12
(I00
I00
tp5744
sba(iModules.cell
Cell
p5745
(dp5746
g12
(I00
I00
tp5747
sba(iModules.cell
Cell
p5748
(dp5749
g12
(I00
I00
tp5750
sba(iModules.cell
Cell
p5751
(dp5752
g12
(I00
I00
tp5753
sba(iModules.cell
Cell
p5754
(dp5755
g12
(I00
I00
tp5756
sba(iModules.cell
Cell
p5757
(dp5758
g12
(I00
I00
tp5759
sba(iModules.cell
Cell
p5760
(dp5761
g12
(I00
I00
tp5762
sba(iModules.cell
Cell
p5763
(dp5764
g12
(I00
I00
tp5765
sba(iModules.cell
Cell
p5766
(dp5767
g12
(I00
I00
tp5768
sba(iModules.cell
Cell
p5769
(dp5770
g12
(I00
I00
tp5771
sba(iModules.cell
Cell
p5772
(dp5773
g12
(I00
I00
tp5774
sba(iModules.cell
Cell
p5775
(dp5776
g12
(I00
I00
tp5777
sba(iModules.cell
Cell
p5778
(dp5779
g12
(I00
I00
tp5780
sba(iModules.cell
Cell
p5781
(dp5782
g12
(I00
I00
tp5783
sba(iModules.cell
Cell
p5784
(dp5785
g12
(I00
I00
tp5786
sba(iModules.cell
Cell
p5787
(dp5788
g12
(I00
I00
tp5789
sba(iModules.cell
Cell
p5790
(dp5791
g12
(I00
I00
tp5792
sba(iModules.cell
Cell
p5793
(dp5794
g12
(I00
I00
tp5795
sba(iModules.cell
Cell
p5796
(dp5797
g12
(I00
I00
tp5798
sba(iModules.cell
Cell
p5799
(dp5800
g12
(I00
I00
tp5801
sba(iModules.cell
Cell
p5802
(dp5803
g12
(I00
I00
tp5804
sba(iModules.cell
Cell
p5805
(dp5806
g12
(I00
I00
tp5807
sba(iModules.cell
Cell
p5808
(dp5809
g12
(I00
I00
tp5810
sba(iModules.cell
Cell
p5811
(dp5812
g12
(I00
I00
tp5813
sba(iModules.cell
Cell
p5814
(dp5815
g12
(I00
I00
tp5816
sba(iModules.cell
Cell
p5817
(dp5818
g12
(I00
I00
tp5819
sba(iModules.cell
Cell
p5820
(dp5821
g12
(I00
I00
tp5822
sba(iModules.cell
Cell
p5823
(dp5824
g12
(I00
I00
tp5825
sba(iModules.cell
Cell
p5826
(dp5827
g12
(I00
I00
tp5828
sba(iModules.cell
Cell
p5829
(dp5830
g12
(I00
I00
tp5831
sba(iModules.cell
Cell
p5832
(dp5833
g12
(I00
I00
tp5834
sba(iModules.cell
Cell
p5835
(dp5836
g12
(I00
I00
tp5837
sba(iModules.cell
Cell
p5838
(dp5839
g12
(I00
I00
tp5840
sba(iModules.cell
Cell
p5841
(dp5842
g12
(I00
I00
tp5843
sba(iModules.cell
Cell
p5844
(dp5845
g12
(I00
I00
tp5846
sba(iModules.cell
Cell
p5847
(dp5848
g12
(I00
I00
tp5849
sba(iModules.cell
Cell
p5850
(dp5851
g12
(I00
I00
tp5852
sba(iModules.cell
Cell
p5853
(dp5854
g12
(I00
I00
tp5855
sba(iModules.cell
Cell
p5856
(dp5857
g12
(I00
I00
tp5858
sba(iModules.cell
Cell
p5859
(dp5860
g12
(I00
I00
tp5861
sba(iModules.cell
Cell
p5862
(dp5863
g12
(I00
I00
tp5864
sba(iModules.cell
Cell
p5865
(dp5866
g12
(I00
I00
tp5867
sbaa(lp5868
(iModules.cell
Cell
p5869
(dp5870
g12
(I00
I00
tp5871
sba(iModules.cell
Cell
p5872
(dp5873
g12
(I00
I00
tp5874
sba(iModules.cell
Cell
p5875
(dp5876
g12
(I00
I00
tp5877
sba(iModules.cell
Cell
p5878
(dp5879
g12
(I00
I00
tp5880
sba(iModules.cell
Cell
p5881
(dp5882
g12
(I00
I00
tp5883
sba(iModules.cell
Cell
p5884
(dp5885
g12
(I00
I00
tp5886
sba(iModules.cell
Cell
p5887
(dp5888
g12
(I00
I00
tp5889
sba(iModules.cell
Cell
p5890
(dp5891
g12
(I00
I00
tp5892
sba(iModules.cell
Cell
p5893
(dp5894
g12
(I00
I00
tp5895
sba(iModules.cell
Cell
p5896
(dp5897
g12
(I00
I00
tp5898
sba(iModules.cell
Cell
p5899
(dp5900
g12
(I00
I00
tp5901
sba(iModules.cell
Cell
p5902
(dp5903
g12
(I00
I00
tp5904
sba(iModules.cell
Cell
p5905
(dp5906
g12
(I00
I00
tp5907
sba(iModules.cell
Cell
p5908
(dp5909
g12
(I00
I00
tp5910
sba(iModules.cell
Cell
p5911
(dp5912
g12
(I00
I00
tp5913
sba(iModules.cell
Cell
p5914
(dp5915
g12
(I00
I00
tp5916
sba(iModules.cell
Cell
p5917
(dp5918
g12
(I00
I00
tp5919
sba(iModules.cell
Cell
p5920
(dp5921
g12
(I00
I00
tp5922
sba(iModules.cell
Cell
p5923
(dp5924
g12
(I00
I00
tp5925
sba(iModules.cell
Cell
p5926
(dp5927
g12
(I00
I00
tp5928
sba(iModules.cell
Cell
p5929
(dp5930
g12
(I00
I00
tp5931
sba(iModules.cell
Cell
p5932
(dp5933
g12
(I00
I00
tp5934
sba(iModules.cell
Cell
p5935
(dp5936
g12
(I00
I00
tp5937
sba(iModules.cell
Cell
p5938
(dp5939
g12
(I00
I00
tp5940
sba(iModules.cell
Cell
p5941
(dp5942
g12
(I00
I00
tp5943
sba(iModules.cell
Cell
p5944
(dp5945
g12
(I00
I00
tp5946
sba(iModules.cell
Cell
p5947
(dp5948
g12
(I00
I00
tp5949
sba(iModules.cell
Cell
p5950
(dp5951
g12
(I00
I00
tp5952
sba(iModules.cell
Cell
p5953
(dp5954
g12
(I00
I00
tp5955
sba(iModules.cell
Cell
p5956
(dp5957
g12
(I00
I00
tp5958
sba(iModules.cell
Cell
p5959
(dp5960
g12
(I00
I00
tp5961
sba(iModules.cell
Cell
p5962
(dp5963
g12
(I00
I00
tp5964
sba(iModules.cell
Cell
p5965
(dp5966
g12
(I00
I00
tp5967
sba(iModules.cell
Cell
p5968
(dp5969
g12
(I00
I00
tp5970
sba(iModules.cell
Cell
p5971
(dp5972
g12
(I00
I00
tp5973
sba(iModules.cell
Cell
p5974
(dp5975
g12
(I00
I00
tp5976
sba(iModules.cell
Cell
p5977
(dp5978
g12
(I00
I00
tp5979
sba(iModules.cell
Cell
p5980
(dp5981
g12
(I00
I00
tp5982
sba(iModules.cell
Cell
p5983
(dp5984
g12
(I00
I00
tp5985
sba(iModules.cell
Cell
p5986
(dp5987
g12
(I00
I00
tp5988
sba(iModules.cell
Cell
p5989
(dp5990
g12
(I00
I00
tp5991
sba(iModules.cell
Cell
p5992
(dp5993
g12
(I00
I00
tp5994
sba(iModules.cell
Cell
p5995
(dp5996
g12
(I00
I00
tp5997
sba(iModules.cell
Cell
p5998
(dp5999
g12
(I00
I00
tp6000
sba(iModules.cell
Cell
p6001
(dp6002
g12
(I00
I00
tp6003
sba(iModules.cell
Cell
p6004
(dp6005
g12
(I00
I00
tp6006
sba(iModules.cell
Cell
p6007
(dp6008
g12
(I00
I00
tp6009
sba(iModules.cell
Cell
p6010
(dp6011
g12
(I00
I00
tp6012
sba(iModules.cell
Cell
p6013
(dp6014
g12
(I00
I00
tp6015
sba(iModules.cell
Cell
p6016
(dp6017
g12
(I00
I00
tp6018
sba(iModules.cell
Cell
p6019
(dp6020
g12
(I00
I00
tp6021
sba(iModules.cell
Cell
p6022
(dp6023
g12
(I00
I00
tp6024
sba(iModules.cell
Cell
p6025
(dp6026
g12
(I00
I00
tp6027
sba(iModules.cell
Cell
p6028
(dp6029
g12
(I00
I00
tp6030
sba(iModules.cell
Cell
p6031
(dp6032
g12
(I00
I00
tp6033
sba(iModules.cell
Cell
p6034
(dp6035
g12
(I00
I00
tp6036
sba(iModules.cell
Cell
p6037
(dp6038
g12
(I00
I00
tp6039
sba(iModules.cell
Cell
p6040
(dp6041
g12
(I00
I00
tp6042
sba(iModules.cell
Cell
p6043
(dp6044
g12
(I00
I00
tp6045
sba(iModules.cell
Cell
p6046
(dp6047
g12
(I00
I00
tp6048
sba(iModules.cell
Cell
p6049
(dp6050
g12
(I00
I00
tp6051
sba(iModules.cell
Cell
p6052
(dp6053
g12
(I00
I00
tp6054
sba(iModules.cell
Cell
p6055
(dp6056
g12
(I00
I00
tp6057
sba(iModules.cell
Cell
p6058
(dp6059
g12
(I00
I00
tp6060
sba(iModules.cell
Cell
p6061
(dp6062
g12
(I00
I00
tp6063
sba(iModules.cell
Cell
p6064
(dp6065
g12
(I00
I00
tp6066
sba(iModules.cell
Cell
p6067
(dp6068
g12
(I00
I00
tp6069
sba(iModules.cell
Cell
p6070
(dp6071
g12
(I00
I00
tp6072
sba(iModules.cell
Cell
p6073
(dp6074
g12
(I00
I00
tp6075
sba(iModules.cell
Cell
p6076
(dp6077
g12
(I00
I00
tp6078
sba(iModules.cell
Cell
p6079
(dp6080
g12
(I00
I00
tp6081
sba(iModules.cell
Cell
p6082
(dp6083
g12
(I00
I00
tp6084
sba(iModules.cell
Cell
p6085
(dp6086
g12
(I00
I00
tp6087
sba(iModules.cell
Cell
p6088
(dp6089
g12
(I00
I00
tp6090
sba(iModules.cell
Cell
p6091
(dp6092
g12
(I00
I00
tp6093
sba(iModules.cell
Cell
p6094
(dp6095
g12
(I00
I00
tp6096
sba(iModules.cell
Cell
p6097
(dp6098
g12
(I00
I00
tp6099
sba(iModules.cell
Cell
p6100
(dp6101
g12
(I00
I00
tp6102
sba(iModules.cell
Cell
p6103
(dp6104
g12
(I00
I00
tp6105
sba(iModules.cell
Cell
p6106
(dp6107
g12
(I00
I00
tp6108
sba(iModules.cell
Cell
p6109
(dp6110
g12
(I00
I00
tp6111
sbaa.