(lp0
(lp1
(iModules.cell
Cell
p2
(dp3
S'visible'
p4
I00
sS'fov'
p5
I00
sS'explored'
p6
I00
sS'type'
p7
(I00
I00
tp8
sS'pc'
p9
(lp10
I9
aI19
asba(iModules.cell
Cell
p11
(dp12
g4
I00
sg6
I00
sg7
(I00
I00
tp13
sba(iModules.cell
Cell
p14
(dp15
g4
I00
sg6
I00
sg7
(I00
I00
tp16
sba(iModules.cell
Cell
p17
(dp18
g4
I00
sg6
I00
sg7
(I00
I00
tp19
sba(iModules.cell
Cell
p20
(dp21
g4
I00
sg6
I00
sg7
(I00
I00
tp22
sba(iModules.cell
Cell
p23
(dp24
g4
I00
sg6
I00
sg7
(I00
I00
tp25
sba(iModules.cell
Cell
p26
(dp27
g4
I00
sg6
I00
sg7
(I00
I00
tp28
sba(iModules.cell
Cell
p29
(dp30
g4
I00
sg6
I00
sg7
(I00
I00
tp31
sba(iModules.cell
Cell
p32
(dp33
g4
I00
sg6
I00
sg7
(I00
I00
tp34
sba(iModules.cell
Cell
p35
(dp36
g4
I00
sg6
I00
sg7
(I00
I00
tp37
sba(iModules.cell
Cell
p38
(dp39
g4
I00
sg6
I00
sg7
(I00
I00
tp40
sba(iModules.cell
Cell
p41
(dp42
g4
I00
sg6
I00
sg7
(I00
I00
tp43
sba(iModules.cell
Cell
p44
(dp45
g4
I00
sg6
I00
sg7
(I00
I00
tp46
sba(iModules.cell
Cell
p47
(dp48
g4
I00
sg6
I00
sg7
(I00
I00
tp49
sba(iModules.cell
Cell
p50
(dp51
g4
I00
sg6
I00
sg7
(I00
I00
tp52
sba(iModules.cell
Cell
p53
(dp54
g4
I00
sg6
I00
sg7
(I00
I00
tp55
sba(iModules.cell
Cell
p56
(dp57
g4
I00
sg6
I00
sg7
(I00
I00
tp58
sba(iModules.cell
Cell
p59
(dp60
g4
I00
sg6
I00
sg7
(I00
I00
tp61
sba(iModules.cell
Cell
p62
(dp63
g4
I00
sg6
I00
sg7
(I00
I00
tp64
sba(iModules.cell
Cell
p65
(dp66
g4
I00
sg6
I00
sg7
(I00
I00
tp67
sba(iModules.cell
Cell
p68
(dp69
g4
I00
sg6
I00
sg7
(I00
I00
tp70
sba(iModules.cell
Cell
p71
(dp72
g4
I00
sg6
I00
sg7
(I00
I00
tp73
sba(iModules.cell
Cell
p74
(dp75
g4
I00
sg6
I00
sg7
(I00
I00
tp76
sba(iModules.cell
Cell
p77
(dp78
g4
I00
sg6
I00
sg7
(I00
I00
tp79
sba(iModules.cell
Cell
p80
(dp81
g4
I00
sg6
I00
sg7
(I00
I00
tp82
sba(iModules.cell
Cell
p83
(dp84
g4
I00
sg6
I00
sg7
(I00
I00
tp85
sba(iModules.cell
Cell
p86
(dp87
g4
I00
sg6
I00
sg7
(I00
I00
tp88
sba(iModules.cell
Cell
p89
(dp90
g4
I00
sg6
I00
sg7
(I00
I00
tp91
sba(iModules.cell
Cell
p92
(dp93
g4
I00
sg6
I00
sg7
(I00
I00
tp94
sba(iModules.cell
Cell
p95
(dp96
g4
I00
sg6
I00
sg7
(I00
I00
tp97
sba(iModules.cell
Cell
p98
(dp99
g4
I00
sg6
I00
sg7
(I00
I00
tp100
sba(iModules.cell
Cell
p101
(dp102
g4
I00
sg6
I00
sg7
(I00
I00
tp103
sba(iModules.cell
Cell
p104
(dp105
g4
I00
sg6
I00
sg7
(I00
I00
tp106
sba(iModules.cell
Cell
p107
(dp108
g4
I00
sg6
I00
sg7
(I00
I00
tp109
sba(iModules.cell
Cell
p110
(dp111
g4
I00
sg6
I00
sg7
(I00
I00
tp112
sba(iModules.cell
Cell
p113
(dp114
g4
I00
sg6
I00
sg7
(I00
I00
tp115
sba(iModules.cell
Cell
p116
(dp117
g4
I00
sg6
I00
sg7
(I00
I00
tp118
sba(iModules.cell
Cell
p119
(dp120
g4
I00
sg6
I00
sg7
(I00
I00
tp121
sba(iModules.cell
Cell
p122
(dp123
g4
I00
sg6
I00
sg7
(I00
I00
tp124
sba(iModules.cell
Cell
p125
(dp126
g4
I00
sg6
I00
sg7
(I00
I00
tp127
sba(iModules.cell
Cell
p128
(dp129
g4
I00
sg6
I00
sg7
(I00
I00
tp130
sba(iModules.cell
Cell
p131
(dp132
g4
I00
sg6
I00
sg7
(I00
I00
tp133
sba(iModules.cell
Cell
p134
(dp135
g4
I00
sg6
I00
sg7
(I00
I00
tp136
sba(iModules.cell
Cell
p137
(dp138
g4
I00
sg6
I00
sg7
(I00
I00
tp139
sba(iModules.cell
Cell
p140
(dp141
g4
I00
sg6
I00
sg7
(I00
I00
tp142
sba(iModules.cell
Cell
p143
(dp144
g4
I00
sg6
I00
sg7
(I00
I00
tp145
sba(iModules.cell
Cell
p146
(dp147
g4
I00
sg6
I00
sg7
(I00
I00
tp148
sba(iModules.cell
Cell
p149
(dp150
g4
I00
sg6
I00
sg7
(I00
I00
tp151
sba(iModules.cell
Cell
p152
(dp153
g4
I00
sg6
I00
sg7
(I00
I00
tp154
sba(iModules.cell
Cell
p155
(dp156
g4
I00
sg6
I00
sg7
(I00
I00
tp157
sba(iModules.cell
Cell
p158
(dp159
g4
I00
sg6
I00
sg7
(I00
I00
tp160
sba(iModules.cell
Cell
p161
(dp162
g4
I00
sg6
I00
sg7
(I00
I00
tp163
sba(iModules.cell
Cell
p164
(dp165
g4
I00
sg6
I00
sg7
(I00
I00
tp166
sba(iModules.cell
Cell
p167
(dp168
g4
I00
sg6
I00
sg7
(I00
I00
tp169
sba(iModules.cell
Cell
p170
(dp171
g4
I00
sg6
I00
sg7
(I00
I00
tp172
sba(iModules.cell
Cell
p173
(dp174
g4
I00
sg6
I00
sg7
(I00
I00
tp175
sba(iModules.cell
Cell
p176
(dp177
g4
I00
sg6
I00
sg7
(I00
I00
tp178
sba(iModules.cell
Cell
p179
(dp180
g4
I00
sg6
I00
sg7
(I00
I00
tp181
sba(iModules.cell
Cell
p182
(dp183
g4
I00
sg6
I00
sg7
(I00
I00
tp184
sba(iModules.cell
Cell
p185
(dp186
g4
I00
sg6
I00
sg7
(I00
I00
tp187
sba(iModules.cell
Cell
p188
(dp189
g4
I00
sg6
I00
sg7
(I00
I00
tp190
sba(iModules.cell
Cell
p191
(dp192
g4
I00
sg6
I00
sg7
(I00
I00
tp193
sba(iModules.cell
Cell
p194
(dp195
g4
I00
sg6
I00
sg7
(I00
I00
tp196
sba(iModules.cell
Cell
p197
(dp198
g4
I00
sg6
I00
sg7
(I00
I00
tp199
sba(iModules.cell
Cell
p200
(dp201
g4
I00
sg6
I00
sg7
(I00
I00
tp202
sba(iModules.cell
Cell
p203
(dp204
g4
I00
sg6
I00
sg7
(I00
I00
tp205
sba(iModules.cell
Cell
p206
(dp207
g4
I00
sg6
I00
sg7
(I00
I00
tp208
sba(iModules.cell
Cell
p209
(dp210
g4
I00
sg6
I00
sg7
(I00
I00
tp211
sba(iModules.cell
Cell
p212
(dp213
g4
I00
sg6
I00
sg7
(I00
I00
tp214
sba(iModules.cell
Cell
p215
(dp216
g4
I00
sg6
I00
sg7
(I00
I00
tp217
sba(iModules.cell
Cell
p218
(dp219
g4
I00
sg6
I00
sg7
(I00
I00
tp220
sba(iModules.cell
Cell
p221
(dp222
g4
I00
sg6
I00
sg7
(I00
I00
tp223
sba(iModules.cell
Cell
p224
(dp225
g4
I00
sg6
I00
sg7
(I00
I00
tp226
sba(iModules.cell
Cell
p227
(dp228
g4
I00
sg6
I00
sg7
(I00
I00
tp229
sba(iModules.cell
Cell
p230
(dp231
g4
I00
sg6
I00
sg7
(I00
I00
tp232
sba(iModules.cell
Cell
p233
(dp234
g4
I00
sg6
I00
sg7
(I00
I00
tp235
sba(iModules.cell
Cell
p236
(dp237
g4
I00
sg6
I00
sg7
(I00
I00
tp238
sba(iModules.cell
Cell
p239
(dp240
g4
I00
sg6
I00
sg7
(I00
I00
tp241
sba(iModules.cell
Cell
p242
(dp243
g4
I00
sg6
I00
sg7
(I00
I00
tp244
sba(iModules.cell
Cell
p245
(dp246
g4
I00
sg6
I00
sg7
(I00
I00
tp247
sba(iModules.cell
Cell
p248
(dp249
g7
(I00
I00
tp250
sbaa(lp251
(iModules.cell
Cell
p252
(dp253
g4
I00
sg6
I00
sg7
(I00
I00
tp254
sba(iModules.cell
Cell
p255
(dp256
g4
I00
sS'explored'
p257
I00
sg7
(I00
I00
tp258
sba(iModules.cell
Cell
p259
(dp260
g4
I00
sg257
I00
sg7
(I00
I00
tp261
sba(iModules.cell
Cell
p262
(dp263
g4
I00
sg257
I00
sg7
(I00
I00
tp264
sba(iModules.cell
Cell
p265
(dp266
g4
I00
sg257
I00
sg7
(I00
I00
tp267
sba(iModules.cell
Cell
p268
(dp269
g4
I00
sg257
I00
sg7
(I00
I00
tp270
sba(iModules.cell
Cell
p271
(dp272
g4
I00
sg257
I00
sg7
(I00
I00
tp273
sba(iModules.cell
Cell
p274
(dp275
g4
I00
sg257
I00
sg7
(I00
I00
tp276
sba(iModules.cell
Cell
p277
(dp278
g4
I00
sg257
I00
sg7
(I00
I00
tp279
sba(iModules.cell
Cell
p280
(dp281
g4
I00
sg257
I00
sg7
(I00
I00
tp282
sba(iModules.cell
Cell
p283
(dp284
g4
I00
sg257
I00
sg7
(I00
I00
tp285
sba(iModules.cell
Cell
p286
(dp287
g4
I00
sg257
I00
sg7
(I00
I00
tp288
sba(iModules.cell
Cell
p289
(dp290
g4
I00
sg257
I00
sg7
(I00
I00
tp291
sba(iModules.cell
Cell
p292
(dp293
g4
I00
sg257
I00
sg7
(I00
I00
tp294
sba(iModules.cell
Cell
p295
(dp296
g4
I00
sg257
I00
sg7
(I00
I00
tp297
sba(iModules.cell
Cell
p298
(dp299
g4
I00
sS'explored'
p300
I00
sg7
(I00
I00
tp301
sba(iModules.cell
Cell
p302
(dp303
g4
I00
sg300
I00
sg7
(I00
I00
tp304
sba(iModules.cell
Cell
p305
(dp306
g4
I00
sg300
I00
sg7
(I00
I00
tp307
sba(iModules.cell
Cell
p308
(dp309
g4
I00
sg300
I00
sg7
(I00
I00
tp310
sba(iModules.cell
Cell
p311
(dp312
g4
I00
sg300
I00
sg7
(I00
I00
tp313
sba(iModules.cell
Cell
p314
(dp315
g4
I00
sg300
I00
sg7
(I00
I00
tp316
sba(iModules.cell
Cell
p317
(dp318
g4
I00
sg300
I00
sg7
(I00
I00
tp319
sba(iModules.cell
Cell
p320
(dp321
g4
I00
sg300
I00
sg7
(I00
I00
tp322
sba(iModules.cell
Cell
p323
(dp324
g4
I00
sg300
I00
sg7
(I00
I00
tp325
sba(iModules.cell
Cell
p326
(dp327
g4
I00
sg300
I00
sg7
(I00
I00
tp328
sba(iModules.cell
Cell
p329
(dp330
g4
I00
sg300
I00
sg7
(I00
I00
tp331
sba(iModules.cell
Cell
p332
(dp333
g4
I00
sg300
I00
sg7
(I00
I00
tp334
sba(iModules.cell
Cell
p335
(dp336
g4
I00
sg300
I00
sg7
(I00
I00
tp337
sba(iModules.cell
Cell
p338
(dp339
g4
I00
sg300
I00
sg7
(I00
I00
tp340
sba(iModules.cell
Cell
p341
(dp342
g4
I00
sS'explored'
p343
I00
sg7
(I00
I00
tp344
sba(iModules.cell
Cell
p345
(dp346
g4
I00
sg343
I00
sg7
(I00
I00
tp347
sba(iModules.cell
Cell
p348
(dp349
g4
I00
sg343
I00
sg7
(I00
I00
tp350
sba(iModules.cell
Cell
p351
(dp352
g4
I00
sg343
I00
sg7
(I00
I00
tp353
sba(iModules.cell
Cell
p354
(dp355
g4
I00
sg343
I00
sg7
(I00
I00
tp356
sba(iModules.cell
Cell
p357
(dp358
g4
I00
sg343
I00
sg7
(I00
I00
tp359
sba(iModules.cell
Cell
p360
(dp361
g4
I00
sg343
I00
sg7
(I00
I00
tp362
sba(iModules.cell
Cell
p363
(dp364
g4
I00
sg343
I00
sg7
(I00
I00
tp365
sba(iModules.cell
Cell
p366
(dp367
g4
I00
sg343
I00
sg7
(I00
I00
tp368
sba(iModules.cell
Cell
p369
(dp370
g4
I00
sg343
I00
sg7
(I00
I00
tp371
sba(iModules.cell
Cell
p372
(dp373
g4
I00
sg343
I00
sg7
(I00
I00
tp374
sba(iModules.cell
Cell
p375
(dp376
g4
I00
sg343
I00
sg7
(I00
I00
tp377
sba(iModules.cell
Cell
p378
(dp379
g4
I00
sg343
I00
sg7
(I00
I00
tp380
sba(iModules.cell
Cell
p381
(dp382
g4
I00
sg343
I00
sg7
(I00
I00
tp383
sba(iModules.cell
Cell
p384
(dp385
g4
I00
sg343
I00
sg7
(I00
I00
tp386
sba(iModules.cell
Cell
p387
(dp388
g4
I00
sg343
I00
sg7
(I00
I00
tp389
sba(iModules.cell
Cell
p390
(dp391
g4
I00
sg343
I00
sg7
(I00
I00
tp392
sba(iModules.cell
Cell
p393
(dp394
g4
I00
sg343
I00
sg7
(I00
I00
tp395
sba(iModules.cell
Cell
p396
(dp397
g4
I00
sg343
I00
sg7
(I00
I00
tp398
sba(iModules.cell
Cell
p399
(dp400
g4
I00
sg343
I00
sg7
(I00
I00
tp401
sba(iModules.cell
Cell
p402
(dp403
g4
I00
sg343
I00
sg7
(I00
I00
tp404
sba(iModules.cell
Cell
p405
(dp406
g4
I00
sS'explored'
p407
I00
sg7
(I00
I00
tp408
sba(iModules.cell
Cell
p409
(dp410
g4
I00
sg407
I00
sg7
(I00
I00
tp411
sba(iModules.cell
Cell
p412
(dp413
g4
I00
sg407
I00
sg7
(I00
I00
tp414
sba(iModules.cell
Cell
p415
(dp416
g4
I00
sg407
I00
sg7
(I00
I00
tp417
sba(iModules.cell
Cell
p418
(dp419
g4
I00
sg407
I00
sg7
(I00
I00
tp420
sba(iModules.cell
Cell
p421
(dp422
g4
I00
sg407
I00
sg7
(I00
I00
tp423
sba(iModules.cell
Cell
p424
(dp425
g4
I00
sg407
I00
sg7
(I00
I00
tp426
sba(iModules.cell
Cell
p427
(dp428
g4
I00
sg407
I00
sg7
(I00
I00
tp429
sba(iModules.cell
Cell
p430
(dp431
g4
I00
sg407
I00
sg7
(I00
I00
tp432
sba(iModules.cell
Cell
p433
(dp434
g4
I00
sg407
I00
sg7
(I00
I00
tp435
sba(iModules.cell
Cell
p436
(dp437
g4
I00
sg407
I00
sg7
(I00
I00
tp438
sba(iModules.cell
Cell
p439
(dp440
g4
I00
sg407
I00
sg7
(I00
I00
tp441
sba(iModules.cell
Cell
p442
(dp443
g4
I00
sg6
I00
sg7
(I00
I00
tp444
sba(iModules.cell
Cell
p445
(dp446
g4
I00
sg6
I00
sg7
(I00
I00
tp447
sba(iModules.cell
Cell
p448
(dp449
g4
I00
sg6
I00
sg7
(I00
I00
tp450
sba(iModules.cell
Cell
p451
(dp452
g4
I00
sg6
I00
sg7
(I00
I00
tp453
sba(iModules.cell
Cell
p454
(dp455
g4
I00
sg6
I00
sg7
(I00
I00
tp456
sba(iModules.cell
Cell
p457
(dp458
g4
I00
sg6
I00
sg7
(I00
I00
tp459
sba(iModules.cell
Cell
p460
(dp461
g4
I00
sg6
I00
sg7
(I00
I00
tp462
sba(iModules.cell
Cell
p463
(dp464
g4
I00
sg6
I00
sg7
(I00
I00
tp465
sba(iModules.cell
Cell
p466
(dp467
g4
I00
sg6
I00
sg7
(I00
I00
tp468
sba(iModules.cell
Cell
p469
(dp470
g4
I00
sg6
I00
sg7
(I00
I00
tp471
sba(iModules.cell
Cell
p472
(dp473
g4
I00
sg6
I00
sg7
(I00
I00
tp474
sba(iModules.cell
Cell
p475
(dp476
g4
I00
sg6
I00
sg7
(I00
I00
tp477
sba(iModules.cell
Cell
p478
(dp479
g4
I00
sg6
I00
sg7
(I00
I00
tp480
sba(iModules.cell
Cell
p481
(dp482
g4
I00
sg6
I00
sg7
(I00
I00
tp483
sba(iModules.cell
Cell
p484
(dp485
g4
I00
sg6
I00
sg7
(I00
I00
tp486
sba(iModules.cell
Cell
p487
(dp488
g4
I00
sg6
I00
sg7
(I00
I00
tp489
sba(iModules.cell
Cell
p490
(dp491
g4
I00
sg6
I00
sg7
(I00
I00
tp492
sba(iModules.cell
Cell
p493
(dp494
g4
I00
sg6
I00
sg7
(I00
I00
tp495
sba(iModules.cell
Cell
p496
(dp497
g7
(I00
I00
tp498
sbaa(lp499
(iModules.cell
Cell
p500
(dp501
g4
I00
sg6
I00
sg7
(I00
I00
tp502
sba(iModules.cell
Cell
p503
(dp504
g4
I00
sg257
I00
sg7
(I00
I00
tp505
sba(iModules.cell
Cell
p506
(dp507
g4
I00
sg257
I00
sg7
(I01
I01
tp508
sba(iModules.cell
Cell
p509
(dp510
g4
I00
sg257
I00
sg7
(I01
I01
tp511
sba(iModules.cell
Cell
p512
(dp513
g4
I00
sg257
I00
sg7
(I01
I01
tp514
sba(iModules.cell
Cell
p515
(dp516
g4
I00
sg257
I00
sg7
(I01
I01
tp517
sba(iModules.cell
Cell
p518
(dp519
g4
I00
sg257
I00
sg7
(I01
I01
tp520
sba(iModules.cell
Cell
p521
(dp522
g4
I00
sg257
I00
sg7
(I01
I01
tp523
sba(iModules.cell
Cell
p524
(dp525
g4
I00
sg257
I00
sg7
(I01
I01
tp526
sba(iModules.cell
Cell
p527
(dp528
g4
I00
sg257
I00
sg7
(I01
I01
tp529
sba(iModules.cell
Cell
p530
(dp531
g4
I00
sg257
I00
sg7
(I01
I01
tp532
sba(iModules.cell
Cell
p533
(dp534
g4
I00
sg257
I00
sg7
(I01
I01
tp535
sba(iModules.cell
Cell
p536
(dp537
g4
I00
sg257
I00
sg7
(I01
I01
tp538
sba(iModules.cell
Cell
p539
(dp540
g4
I00
sg257
I00
sg7
(I01
I01
tp541
sba(iModules.cell
Cell
p542
(dp543
g4
I00
sg257
I00
sg7
(I01
I01
tp544
sba(iModules.cell
Cell
p545
(dp546
g4
I00
sg300
I00
sg7
(I01
I01
tp547
sba(iModules.cell
Cell
p548
(dp549
g4
I00
sg300
I00
sg7
(I01
I01
tp550
sba(iModules.cell
Cell
p551
(dp552
g4
I00
sg300
I00
sg7
(I01
I01
tp553
sba(iModules.cell
Cell
p554
(dp555
g4
I00
sg300
I00
sg7
(I01
I01
tp556
sba(iModules.cell
Cell
p557
(dp558
g4
I00
sg300
I00
sg7
(I01
I01
tp559
sba(iModules.cell
Cell
p560
(dp561
g4
I00
sg300
I00
sg7
(I01
I01
tp562
sba(iModules.cell
Cell
p563
(dp564
g4
I00
sg300
I00
sg7
(I01
I01
tp565
sba(iModules.cell
Cell
p566
(dp567
g4
I00
sg300
I00
sg7
(I01
I01
tp568
sba(iModules.cell
Cell
p569
(dp570
g4
I00
sg300
I00
sg7
(I01
I01
tp571
sba(iModules.cell
Cell
p572
(dp573
g4
I00
sg300
I00
sg7
(I01
I01
tp574
sba(iModules.cell
Cell
p575
(dp576
g4
I00
sg300
I00
sg7
(I01
I01
tp577
sba(iModules.cell
Cell
p578
(dp579
g4
I00
sg300
I00
sg7
(I01
I01
tp580
sba(iModules.cell
Cell
p581
(dp582
g4
I00
sg300
I00
sg7
(I01
I01
tp583
sba(iModules.cell
Cell
p584
(dp585
g4
I00
sg300
I00
sg7
(I01
I01
tp586
sba(iModules.cell
Cell
p587
(dp588
g4
I00
sg343
I00
sg7
(I01
I01
tp589
sba(iModules.cell
Cell
p590
(dp591
g4
I00
sg343
I00
sg7
(I01
I01
tp592
sba(iModules.cell
Cell
p593
(dp594
g4
I00
sg343
I00
sg7
(I01
I01
tp595
sba(iModules.cell
Cell
p596
(dp597
g4
I00
sg343
I00
sg7
(I01
I01
tp598
sba(iModules.cell
Cell
p599
(dp600
g4
I00
sg343
I00
sg7
(I01
I01
tp601
sba(iModules.cell
Cell
p602
(dp603
g4
I00
sg343
I00
sg7
(I01
I01
tp604
sba(iModules.cell
Cell
p605
(dp606
g4
I00
sg343
I00
sg7
(I01
I01
tp607
sba(iModules.cell
Cell
p608
(dp609
g4
I00
sg343
I00
sg7
(I01
I01
tp610
sba(iModules.cell
Cell
p611
(dp612
g4
I00
sg343
I00
sg7
(I01
I01
tp613
sba(iModules.cell
Cell
p614
(dp615
g4
I00
sg343
I00
sg7
(I01
I01
tp616
sba(iModules.cell
Cell
p617
(dp618
g4
I00
sg343
I00
sg7
(I01
I01
tp619
sba(iModules.cell
Cell
p620
(dp621
g4
I00
sg343
I00
sg7
(I01
I01
tp622
sba(iModules.cell
Cell
p623
(dp624
g4
I00
sg343
I00
sg7
(I01
I01
tp625
sba(iModules.cell
Cell
p626
(dp627
g4
I00
sg343
I00
sg7
(I01
I01
tp628
sba(iModules.cell
Cell
p629
(dp630
g4
I00
sg343
I00
sg7
(I01
I01
tp631
sba(iModules.cell
Cell
p632
(dp633
g4
I00
sg343
I00
sg7
(I01
I01
tp634
sba(iModules.cell
Cell
p635
(dp636
g4
I00
sg343
I00
sg7
(I01
I01
tp637
sba(iModules.cell
Cell
p638
(dp639
g4
I00
sg343
I00
sg7
(I01
I01
tp640
sba(iModules.cell
Cell
p641
(dp642
g4
I00
sg343
I00
sg7
(I01
I01
tp643
sba(iModules.cell
Cell
p644
(dp645
g4
I00
sg343
I00
sg7
(I01
I01
tp646
sba(iModules.cell
Cell
p647
(dp648
g4
I00
sg343
I00
sg7
(I01
I01
tp649
sba(iModules.cell
Cell
p650
(dp651
g4
I00
sg407
I00
sg7
(I01
I01
tp652
sba(iModules.cell
Cell
p653
(dp654
g4
I00
sg407
I00
sg7
(I01
I01
tp655
sba(iModules.cell
Cell
p656
(dp657
g4
I00
sg407
I00
sg7
(I01
I01
tp658
sba(iModules.cell
Cell
p659
(dp660
g4
I00
sg407
I00
sg7
(I01
I01
tp661
sba(iModules.cell
Cell
p662
(dp663
g4
I00
sg407
I00
sg7
(I01
I01
tp664
sba(iModules.cell
Cell
p665
(dp666
g4
I00
sg407
I00
sg7
(I01
I01
tp667
sba(iModules.cell
Cell
p668
(dp669
g4
I00
sg407
I00
sg7
(I01
I01
tp670
sba(iModules.cell
Cell
p671
(dp672
g4
I00
sg407
I00
sg7
(I01
I01
tp673
sba(iModules.cell
Cell
p674
(dp675
g4
I00
sg407
I00
sg7
(I01
I01
tp676
sba(iModules.cell
Cell
p677
(dp678
g4
I00
sg407
I00
sg7
(I01
I01
tp679
sba(iModules.cell
Cell
p680
(dp681
g4
I00
sg407
I00
sg7
(I01
I01
tp682
sba(iModules.cell
Cell
p683
(dp684
g4
I00
sg407
I00
sg7
(I00
I00
tp685
sba(iModules.cell
Cell
p686
(dp687
g4
I00
sg6
I00
sg7
(I00
I00
tp688
sba(iModules.cell
Cell
p689
(dp690
g4
I00
sg6
I00
sg7
(I00
I00
tp691
sba(iModules.cell
Cell
p692
(dp693
g4
I00
sg6
I00
sg7
(I00
I00
tp694
sba(iModules.cell
Cell
p695
(dp696
g4
I00
sg6
I00
sg7
(I00
I00
tp697
sba(iModules.cell
Cell
p698
(dp699
g4
I00
sg6
I00
sg7
(I00
I00
tp700
sba(iModules.cell
Cell
p701
(dp702
g4
I00
sg6
I00
sg7
(I00
I00
tp703
sba(iModules.cell
Cell
p704
(dp705
g4
I00
sg6
I00
sg7
(I00
I00
tp706
sba(iModules.cell
Cell
p707
(dp708
g4
I00
sg6
I00
sg7
(I00
I00
tp709
sba(iModules.cell
Cell
p710
(dp711
g4
I00
sg6
I00
sg7
(I00
I00
tp712
sba(iModules.cell
Cell
p713
(dp714
g4
I00
sg6
I00
sg7
(I00
I00
tp715
sba(iModules.cell
Cell
p716
(dp717
g4
I00
sg6
I00
sg7
(I00
I00
tp718
sba(iModules.cell
Cell
p719
(dp720
g4
I00
sg6
I00
sg7
(I00
I00
tp721
sba(iModules.cell
Cell
p722
(dp723
g4
I00
sg6
I00
sg7
(I00
I00
tp724
sba(iModules.cell
Cell
p725
(dp726
g4
I00
sg6
I00
sg7
(I00
I00
tp727
sba(iModules.cell
Cell
p728
(dp729
g4
I00
sg6
I00
sg7
(I00
I00
tp730
sba(iModules.cell
Cell
p731
(dp732
g4
I00
sg6
I00
sg7
(I00
I00
tp733
sba(iModules.cell
Cell
p734
(dp735
g4
I00
sg6
I00
sg7
(I00
I00
tp736
sba(iModules.cell
Cell
p737
(dp738
g4
I00
sg6
I00
sg7
(I00
I00
tp739
sba(iModules.cell
Cell
p740
(dp741
g7
(I00
I00
tp742
sbaa(lp743
(iModules.cell
Cell
p744
(dp745
g4
I00
sg6
I00
sg7
(I00
I00
tp746
sba(iModules.cell
Cell
p747
(dp748
g4
I00
sg257
I00
sg7
(I00
I00
tp749
sba(iModules.cell
Cell
p750
(dp751
g4
I00
sg257
I00
sg7
(I01
I01
tp752
sba(iModules.cell
Cell
p753
(dp754
g4
I00
sg257
I00
sg7
(I01
I01
tp755
sba(iModules.cell
Cell
p756
(dp757
g4
I00
sg257
I00
sg7
(I01
I01
tp758
sba(iModules.cell
Cell
p759
(dp760
g4
I00
sg257
I00
sg7
(I01
I01
tp761
sba(iModules.cell
Cell
p762
(dp763
g4
I00
sg257
I00
sg7
(I01
I01
tp764
sba(iModules.cell
Cell
p765
(dp766
g4
I00
sg257
I00
sg7
(I01
I01
tp767
sba(iModules.cell
Cell
p768
(dp769
g4
I00
sg257
I00
sg7
(I01
I01
tp770
sba(iModules.cell
Cell
p771
(dp772
g4
I00
sg257
I00
sg7
(I01
I01
tp773
sba(iModules.cell
Cell
p774
(dp775
g4
I00
sg257
I00
sg7
(I01
I01
tp776
sba(iModules.cell
Cell
p777
(dp778
g4
I00
sg257
I00
sg7
(I01
I01
tp779
sba(iModules.cell
Cell
p780
(dp781
g4
I00
sg257
I00
sg7
(I01
I01
tp782
sba(iModules.cell
Cell
p783
(dp784
g4
I00
sg257
I00
sg7
(I01
I01
tp785
sba(iModules.cell
Cell
p786
(dp787
g4
I00
sg257
I00
sg7
(I01
I01
tp788
sba(iModules.cell
Cell
p789
(dp790
g4
I00
sg300
I00
sg7
(I01
I01
tp791
sba(iModules.cell
Cell
p792
(dp793
g4
I00
sg300
I00
sg7
(I01
I01
tp794
sba(iModules.cell
Cell
p795
(dp796
g4
I00
sg300
I00
sg7
(I01
I01
tp797
sba(iModules.cell
Cell
p798
(dp799
g4
I00
sg300
I00
sg7
(I01
I01
tp800
sba(iModules.cell
Cell
p801
(dp802
g4
I00
sg300
I00
sg7
(I01
I01
tp803
sba(iModules.cell
Cell
p804
(dp805
g4
I00
sg300
I00
sg7
(I01
I01
tp806
sba(iModules.cell
Cell
p807
(dp808
g4
I00
sg300
I00
sg7
(I01
I01
tp809
sba(iModules.cell
Cell
p810
(dp811
g4
I00
sg300
I00
sg7
(I01
I01
tp812
sba(iModules.cell
Cell
p813
(dp814
g4
I00
sg300
I00
sg7
(I01
I01
tp815
sba(iModules.cell
Cell
p816
(dp817
g4
I00
sg300
I00
sg7
(I01
I01
tp818
sba(iModules.cell
Cell
p819
(dp820
g4
I00
sg300
I00
sg7
(I01
I01
tp821
sba(iModules.cell
Cell
p822
(dp823
g4
I00
sg300
I00
sg7
(I01
I01
tp824
sba(iModules.cell
Cell
p825
(dp826
g4
I00
sg300
I00
sg7
(I01
I01
tp827
sba(iModules.cell
Cell
p828
(dp829
g4
I00
sg300
I00
sg7
(I01
I01
tp830
sba(iModules.cell
Cell
p831
(dp832
g4
I00
sg343
I00
sg7
(I01
I01
tp833
sba(iModules.cell
Cell
p834
(dp835
g4
I00
sg343
I00
sg7
(I01
I01
tp836
sba(iModules.cell
Cell
p837
(dp838
g4
I00
sg343
I00
sg7
(I01
I01
tp839
sba(iModules.cell
Cell
p840
(dp841
g4
I00
sg343
I00
sg7
(I01
I01
tp842
sba(iModules.cell
Cell
p843
(dp844
g4
I00
sg343
I00
sg7
(I01
I01
tp845
sba(iModules.cell
Cell
p846
(dp847
g4
I00
sg343
I00
sg7
(I01
I01
tp848
sba(iModules.cell
Cell
p849
(dp850
g4
I00
sg343
I00
sg7
(I01
I01
tp851
sba(iModules.cell
Cell
p852
(dp853
g4
I00
sg343
I00
sg7
(I01
I01
tp854
sba(iModules.cell
Cell
p855
(dp856
g4
I00
sg343
I00
sg7
(I01
I01
tp857
sba(iModules.cell
Cell
p858
(dp859
g4
I00
sg343
I00
sg7
(I01
I01
tp860
sba(iModules.cell
Cell
p861
(dp862
g4
I00
sg343
I00
sg7
(I01
I01
tp863
sba(iModules.cell
Cell
p864
(dp865
g4
I00
sg343
I00
sg7
(I01
I01
tp866
sba(iModules.cell
Cell
p867
(dp868
g4
I00
sg343
I00
sg7
(I01
I01
tp869
sba(iModules.cell
Cell
p870
(dp871
g4
I00
sg343
I00
sg7
(I01
I01
tp872
sba(iModules.cell
Cell
p873
(dp874
g4
I00
sg343
I00
sg7
(I01
I01
tp875
sba(iModules.cell
Cell
p876
(dp877
g4
I00
sg343
I00
sg7
(I01
I01
tp878
sba(iModules.cell
Cell
p879
(dp880
g4
I00
sg343
I00
sg7
(I01
I01
tp881
sba(iModules.cell
Cell
p882
(dp883
g4
I00
sg343
I00
sg7
(I01
I01
tp884
sba(iModules.cell
Cell
p885
(dp886
g4
I00
sg343
I00
sg7
(I01
I01
tp887
sba(iModules.cell
Cell
p888
(dp889
g4
I00
sg343
I00
sg7
(I01
I01
tp890
sba(iModules.cell
Cell
p891
(dp892
g4
I00
sg343
I00
sg7
(I01
I01
tp893
sba(iModules.cell
Cell
p894
(dp895
g4
I00
sg407
I00
sg7
(I01
I01
tp896
sba(iModules.cell
Cell
p897
(dp898
g4
I00
sg407
I00
sg7
(I01
I01
tp899
sba(iModules.cell
Cell
p900
(dp901
g4
I00
sg407
I00
sg7
(I01
I01
tp902
sba(iModules.cell
Cell
p903
(dp904
g4
I00
sg407
I00
sg7
(I01
I01
tp905
sba(iModules.cell
Cell
p906
(dp907
g4
I00
sg407
I00
sg7
(I01
I01
tp908
sba(iModules.cell
Cell
p909
(dp910
g4
I00
sg407
I00
sg7
(I01
I01
tp911
sba(iModules.cell
Cell
p912
(dp913
g4
I00
sg407
I00
sg7
(I01
I01
tp914
sba(iModules.cell
Cell
p915
(dp916
g4
I00
sg407
I00
sg7
(I01
I01
tp917
sba(iModules.cell
Cell
p918
(dp919
g4
I00
sg407
I00
sg7
(I01
I01
tp920
sba(iModules.cell
Cell
p921
(dp922
g4
I00
sg407
I00
sg7
(I01
I01
tp923
sba(iModules.cell
Cell
p924
(dp925
g4
I00
sg407
I00
sg7
(I01
I01
tp926
sba(iModules.cell
Cell
p927
(dp928
g4
I00
sg407
I00
sg7
(I00
I00
tp929
sba(iModules.cell
Cell
p930
(dp931
g4
I00
sg6
I00
sg7
(I00
I00
tp932
sba(iModules.cell
Cell
p933
(dp934
g4
I00
sg6
I00
sg7
(I00
I00
tp935
sba(iModules.cell
Cell
p936
(dp937
g4
I00
sg6
I00
sg7
(I00
I00
tp938
sba(iModules.cell
Cell
p939
(dp940
g4
I00
sg6
I00
sg7
(I00
I00
tp941
sba(iModules.cell
Cell
p942
(dp943
g4
I00
sg6
I00
sg7
(I00
I00
tp944
sba(iModules.cell
Cell
p945
(dp946
g4
I00
sg6
I00
sg7
(I00
I00
tp947
sba(iModules.cell
Cell
p948
(dp949
g4
I00
sg6
I00
sg7
(I00
I00
tp950
sba(iModules.cell
Cell
p951
(dp952
g4
I00
sg6
I00
sg7
(I00
I00
tp953
sba(iModules.cell
Cell
p954
(dp955
g4
I00
sg6
I00
sg7
(I00
I00
tp956
sba(iModules.cell
Cell
p957
(dp958
g4
I00
sg6
I00
sg7
(I00
I00
tp959
sba(iModules.cell
Cell
p960
(dp961
g4
I00
sg6
I00
sg7
(I00
I00
tp962
sba(iModules.cell
Cell
p963
(dp964
g4
I00
sg6
I00
sg7
(I00
I00
tp965
sba(iModules.cell
Cell
p966
(dp967
g4
I00
sg6
I00
sg7
(I00
I00
tp968
sba(iModules.cell
Cell
p969
(dp970
g4
I00
sg6
I00
sg7
(I00
I00
tp971
sba(iModules.cell
Cell
p972
(dp973
g4
I00
sg6
I00
sg7
(I00
I00
tp974
sba(iModules.cell
Cell
p975
(dp976
g4
I00
sg6
I00
sg7
(I00
I00
tp977
sba(iModules.cell
Cell
p978
(dp979
g4
I00
sg6
I00
sg7
(I00
I00
tp980
sba(iModules.cell
Cell
p981
(dp982
g4
I00
sg6
I00
sg7
(I00
I00
tp983
sba(iModules.cell
Cell
p984
(dp985
g7
(I00
I00
tp986
sbaa(lp987
(iModules.cell
Cell
p988
(dp989
g4
I00
sg6
I00
sg7
(I00
I00
tp990
sba(iModules.cell
Cell
p991
(dp992
g4
I00
sg257
I00
sg7
(I00
I00
tp993
sba(iModules.cell
Cell
p994
(dp995
g4
I00
sg257
I00
sg7
(I01
I01
tp996
sba(iModules.cell
Cell
p997
(dp998
g4
I00
sg257
I00
sg7
(I01
I01
tp999
sba(iModules.cell
Cell
p1000
(dp1001
g4
I00
sg257
I00
sg7
(I01
I01
tp1002
sba(iModules.cell
Cell
p1003
(dp1004
g4
I00
sg257
I00
sg7
(I01
I01
tp1005
sba(iModules.cell
Cell
p1006
(dp1007
g4
I00
sg257
I00
sg7
(I01
I01
tp1008
sba(iModules.cell
Cell
p1009
(dp1010
g4
I00
sg257
I00
sg7
(I01
I01
tp1011
sba(iModules.cell
Cell
p1012
(dp1013
g4
I00
sg257
I00
sg7
(I01
I01
tp1014
sba(iModules.cell
Cell
p1015
(dp1016
g4
I00
sg257
I00
sg7
(I01
I01
tp1017
sba(iModules.cell
Cell
p1018
(dp1019
g4
I00
sg257
I00
sg7
(I01
I01
tp1020
sba(iModules.cell
Cell
p1021
(dp1022
g4
I00
sg257
I00
sg7
(I01
I01
tp1023
sba(iModules.cell
Cell
p1024
(dp1025
g4
I00
sg257
I00
sg7
(I01
I01
tp1026
sba(iModules.cell
Cell
p1027
(dp1028
g4
I00
sg257
I00
sg7
(I01
I01
tp1029
sba(iModules.cell
Cell
p1030
(dp1031
g4
I00
sg257
I00
sg7
(I01
I01
tp1032
sba(iModules.cell
Cell
p1033
(dp1034
g4
I00
sg300
I00
sg7
(I01
I01
tp1035
sba(iModules.cell
Cell
p1036
(dp1037
g4
I00
sg300
I00
sg7
(I01
I01
tp1038
sba(iModules.cell
Cell
p1039
(dp1040
g4
I00
sg300
I00
sg7
(I01
I01
tp1041
sba(iModules.cell
Cell
p1042
(dp1043
g4
I00
sg300
I00
sg7
(I01
I01
tp1044
sba(iModules.cell
Cell
p1045
(dp1046
g4
I00
sg300
I00
sg7
(I01
I01
tp1047
sba(iModules.cell
Cell
p1048
(dp1049
g4
I00
sg300
I00
sg7
(I01
I01
tp1050
sba(iModules.cell
Cell
p1051
(dp1052
g4
I00
sg300
I00
sg7
(I01
I01
tp1053
sba(iModules.cell
Cell
p1054
(dp1055
g4
I00
sg300
I00
sg7
(I01
I01
tp1056
sba(iModules.cell
Cell
p1057
(dp1058
g4
I00
sg300
I00
sg7
(I01
I01
tp1059
sba(iModules.cell
Cell
p1060
(dp1061
g4
I00
sg300
I00
sg7
(I01
I01
tp1062
sba(iModules.cell
Cell
p1063
(dp1064
g4
I00
sg300
I00
sg7
(I01
I01
tp1065
sba(iModules.cell
Cell
p1066
(dp1067
g4
I00
sg300
I00
sg7
(I01
I01
tp1068
sba(iModules.cell
Cell
p1069
(dp1070
g4
I00
sg300
I00
sg7
(I01
I01
tp1071
sba(iModules.cell
Cell
p1072
(dp1073
g4
I00
sg300
I00
sg7
(I01
I01
tp1074
sba(iModules.cell
Cell
p1075
(dp1076
g4
I00
sg343
I00
sg7
(I01
I01
tp1077
sba(iModules.cell
Cell
p1078
(dp1079
g4
I00
sg343
I00
sg7
(I01
I01
tp1080
sba(iModules.cell
Cell
p1081
(dp1082
g4
I00
sg343
I00
sg7
(I01
I01
tp1083
sba(iModules.cell
Cell
p1084
(dp1085
g4
I00
sg343
I00
sg7
(I01
I01
tp1086
sba(iModules.cell
Cell
p1087
(dp1088
g4
I00
sg343
I00
sg7
(I01
I01
tp1089
sba(iModules.cell
Cell
p1090
(dp1091
g4
I00
sg343
I00
sg7
(I01
I01
tp1092
sba(iModules.cell
Cell
p1093
(dp1094
g4
I00
sg343
I00
sg7
(I01
I01
tp1095
sba(iModules.cell
Cell
p1096
(dp1097
g4
I00
sg343
I00
sg7
(I01
I01
tp1098
sba(iModules.cell
Cell
p1099
(dp1100
g4
I00
sg343
I00
sg7
(I01
I01
tp1101
sba(iModules.cell
Cell
p1102
(dp1103
g4
I00
sg343
I00
sg7
(I01
I01
tp1104
sba(iModules.cell
Cell
p1105
(dp1106
g4
I00
sg343
I00
sg7
(I01
I01
tp1107
sba(iModules.cell
Cell
p1108
(dp1109
g4
I00
sg343
I00
sg7
(I01
I01
tp1110
sba(iModules.cell
Cell
p1111
(dp1112
g4
I00
sg343
I00
sg7
(I01
I01
tp1113
sba(iModules.cell
Cell
p1114
(dp1115
g4
I00
sg343
I00
sg7
(I01
I01
tp1116
sba(iModules.cell
Cell
p1117
(dp1118
g4
I00
sg343
I00
sg7
(I01
I01
tp1119
sba(iModules.cell
Cell
p1120
(dp1121
g4
I00
sg343
I00
sg7
(I01
I01
tp1122
sba(iModules.cell
Cell
p1123
(dp1124
g4
I00
sg343
I00
sg7
(I01
I01
tp1125
sba(iModules.cell
Cell
p1126
(dp1127
g4
I00
sg343
I00
sg7
(I01
I01
tp1128
sba(iModules.cell
Cell
p1129
(dp1130
g4
I00
sg343
I00
sg7
(I01
I01
tp1131
sba(iModules.cell
Cell
p1132
(dp1133
g4
I00
sg343
I00
sg7
(I01
I01
tp1134
sba(iModules.cell
Cell
p1135
(dp1136
g4
I00
sg343
I00
sg7
(I01
I01
tp1137
sba(iModules.cell
Cell
p1138
(dp1139
g4
I00
sg407
I00
sg7
(I01
I01
tp1140
sba(iModules.cell
Cell
p1141
(dp1142
g4
I00
sg407
I00
sg7
(I01
I01
tp1143
sba(iModules.cell
Cell
p1144
(dp1145
g4
I00
sg407
I00
sg7
(I01
I01
tp1146
sba(iModules.cell
Cell
p1147
(dp1148
g4
I00
sg407
I00
sg7
(I01
I01
tp1149
sba(iModules.cell
Cell
p1150
(dp1151
g4
I00
sg407
I00
sg7
(I01
I01
tp1152
sba(iModules.cell
Cell
p1153
(dp1154
g4
I00
sg407
I00
sg7
(I01
I01
tp1155
sba(iModules.cell
Cell
p1156
(dp1157
g4
I00
sg407
I00
sg7
(I01
I01
tp1158
sba(iModules.cell
Cell
p1159
(dp1160
g4
I00
sg407
I00
sg7
(I01
I01
tp1161
sba(iModules.cell
Cell
p1162
(dp1163
g4
I00
sg407
I00
sg7
(I01
I01
tp1164
sba(iModules.cell
Cell
p1165
(dp1166
g4
I00
sg407
I00
sg7
(I01
I01
tp1167
sba(iModules.cell
Cell
p1168
(dp1169
g4
I00
sg407
I00
sg7
(I01
I01
tp1170
sba(iModules.cell
Cell
p1171
(dp1172
g4
I00
sg407
I00
sg7
(I00
I00
tp1173
sba(iModules.cell
Cell
p1174
(dp1175
g4
I00
sg6
I00
sg7
(I00
I00
tp1176
sba(iModules.cell
Cell
p1177
(dp1178
g4
I00
sg6
I00
sg7
(I00
I00
tp1179
sba(iModules.cell
Cell
p1180
(dp1181
g4
I00
sg6
I00
sg7
(I00
I00
tp1182
sba(iModules.cell
Cell
p1183
(dp1184
g4
I00
sg6
I00
sg7
(I00
I00
tp1185
sba(iModules.cell
Cell
p1186
(dp1187
g4
I00
sg6
I00
sg7
(I00
I00
tp1188
sba(iModules.cell
Cell
p1189
(dp1190
g4
I00
sg6
I00
sg7
(I00
I00
tp1191
sba(iModules.cell
Cell
p1192
(dp1193
g4
I00
sg6
I00
sg7
(I00
I00
tp1194
sba(iModules.cell
Cell
p1195
(dp1196
g4
I00
sg6
I00
sg7
(I00
I00
tp1197
sba(iModules.cell
Cell
p1198
(dp1199
g4
I00
sg6
I00
sg7
(I00
I00
tp1200
sba(iModules.cell
Cell
p1201
(dp1202
g4
I00
sg6
I00
sg7
(I00
I00
tp1203
sba(iModules.cell
Cell
p1204
(dp1205
g4
I00
sg6
I00
sg7
(I00
I00
tp1206
sba(iModules.cell
Cell
p1207
(dp1208
g4
I00
sg6
I00
sg7
(I00
I00
tp1209
sba(iModules.cell
Cell
p1210
(dp1211
g4
I00
sg6
I00
sg7
(I00
I00
tp1212
sba(iModules.cell
Cell
p1213
(dp1214
g4
I00
sg6
I00
sg7
(I00
I00
tp1215
sba(iModules.cell
Cell
p1216
(dp1217
g4
I00
sg6
I00
sg7
(I00
I00
tp1218
sba(iModules.cell
Cell
p1219
(dp1220
g4
I00
sg6
I00
sg7
(I00
I00
tp1221
sba(iModules.cell
Cell
p1222
(dp1223
g4
I00
sg6
I00
sg7
(I00
I00
tp1224
sba(iModules.cell
Cell
p1225
(dp1226
g4
I00
sg6
I00
sg7
(I00
I00
tp1227
sba(iModules.cell
Cell
p1228
(dp1229
g7
(I00
I00
tp1230
sbaa(lp1231
(iModules.cell
Cell
p1232
(dp1233
g4
I00
sg6
I00
sg7
(I00
I00
tp1234
sba(iModules.cell
Cell
p1235
(dp1236
g4
I00
sg257
I00
sg7
(I00
I00
tp1237
sba(iModules.cell
Cell
p1238
(dp1239
g4
I00
sg257
I00
sg7
(I01
I01
tp1240
sba(iModules.cell
Cell
p1241
(dp1242
g4
I00
sg257
I00
sg7
(I01
I01
tp1243
sba(iModules.cell
Cell
p1244
(dp1245
g4
I00
sg257
I00
sg7
(I01
I01
tp1246
sba(iModules.cell
Cell
p1247
(dp1248
g4
I00
sg257
I00
sg7
(I01
I01
tp1249
sba(iModules.cell
Cell
p1250
(dp1251
g4
I00
sg257
I00
sg7
(I01
I01
tp1252
sba(iModules.cell
Cell
p1253
(dp1254
g4
I00
sg257
I00
sg7
(I01
I01
tp1255
sba(iModules.cell
Cell
p1256
(dp1257
g4
I00
sg257
I00
sg7
(I01
I01
tp1258
sba(iModules.cell
Cell
p1259
(dp1260
g4
I00
sg257
I00
sg7
(I01
I01
tp1261
sba(iModules.cell
Cell
p1262
(dp1263
g4
I00
sg257
I00
sg7
(I01
I01
tp1264
sba(iModules.cell
Cell
p1265
(dp1266
g4
I00
sg257
I00
sg7
(I01
I01
tp1267
sba(iModules.cell
Cell
p1268
(dp1269
g4
I00
sg257
I00
sg7
(I01
I01
tp1270
sba(iModules.cell
Cell
p1271
(dp1272
g4
I00
sg257
I00
sg7
(I01
I01
tp1273
sba(iModules.cell
Cell
p1274
(dp1275
g4
I00
sg257
I00
sg7
(I01
I01
tp1276
sba(iModules.cell
Cell
p1277
(dp1278
g4
I00
sg300
I00
sg7
(I01
I01
tp1279
sba(iModules.cell
Cell
p1280
(dp1281
g4
I00
sg300
I00
sg7
(I01
I01
tp1282
sba(iModules.cell
Cell
p1283
(dp1284
g4
I00
sg300
I00
sg7
(I01
I01
tp1285
sba(iModules.cell
Cell
p1286
(dp1287
g4
I00
sg300
I00
sg7
(I01
I01
tp1288
sba(iModules.cell
Cell
p1289
(dp1290
g4
I00
sg300
I00
sg7
(I01
I01
tp1291
sba(iModules.cell
Cell
p1292
(dp1293
g4
I00
sg300
I00
sg7
(I01
I01
tp1294
sba(iModules.cell
Cell
p1295
(dp1296
g4
I00
sg300
I00
sg7
(I01
I01
tp1297
sba(iModules.cell
Cell
p1298
(dp1299
g4
I00
sg300
I00
sg7
(I01
I01
tp1300
sba(iModules.cell
Cell
p1301
(dp1302
g4
I00
sg300
I00
sg7
(I01
I01
tp1303
sba(iModules.cell
Cell
p1304
(dp1305
g4
I00
sg300
I00
sg7
(I01
I01
tp1306
sba(iModules.cell
Cell
p1307
(dp1308
g4
I00
sg300
I00
sg7
(I01
I01
tp1309
sba(iModules.cell
Cell
p1310
(dp1311
g4
I00
sg300
I00
sg7
(I01
I01
tp1312
sba(iModules.cell
Cell
p1313
(dp1314
g4
I00
sg300
I00
sg7
(I01
I01
tp1315
sba(iModules.cell
Cell
p1316
(dp1317
g4
I00
sg300
I00
sg7
(I01
I01
tp1318
sba(iModules.cell
Cell
p1319
(dp1320
g4
I00
sg343
I00
sg7
(I01
I01
tp1321
sba(iModules.cell
Cell
p1322
(dp1323
g4
I00
sg343
I00
sg7
(I01
I01
tp1324
sba(iModules.cell
Cell
p1325
(dp1326
g4
I00
sg343
I00
sg7
(I01
I01
tp1327
sba(iModules.cell
Cell
p1328
(dp1329
g4
I00
sg343
I00
sg7
(I01
I01
tp1330
sba(iModules.cell
Cell
p1331
(dp1332
g4
I00
sg343
I00
sg7
(I01
I01
tp1333
sba(iModules.cell
Cell
p1334
(dp1335
g4
I00
sg343
I00
sg7
(I01
I01
tp1336
sba(iModules.cell
Cell
p1337
(dp1338
g4
I00
sg343
I00
sg7
(I01
I01
tp1339
sba(iModules.cell
Cell
p1340
(dp1341
g4
I00
sg343
I00
sg7
(I01
I01
tp1342
sba(iModules.cell
Cell
p1343
(dp1344
g4
I00
sg343
I00
sg7
(I01
I01
tp1345
sba(iModules.cell
Cell
p1346
(dp1347
g4
I00
sg343
I00
sg7
(I01
I01
tp1348
sba(iModules.cell
Cell
p1349
(dp1350
g4
I00
sg343
I00
sg7
(I01
I01
tp1351
sba(iModules.cell
Cell
p1352
(dp1353
g4
I00
sg343
I00
sg7
(I01
I01
tp1354
sba(iModules.cell
Cell
p1355
(dp1356
g4
I00
sg343
I00
sg7
(I01
I01
tp1357
sba(iModules.cell
Cell
p1358
(dp1359
g4
I00
sg343
I00
sg7
(I01
I01
tp1360
sba(iModules.cell
Cell
p1361
(dp1362
g4
I00
sg343
I00
sg7
(I01
I01
tp1363
sba(iModules.cell
Cell
p1364
(dp1365
g4
I00
sg343
I00
sg7
(I01
I01
tp1366
sba(iModules.cell
Cell
p1367
(dp1368
g4
I00
sg343
I00
sg7
(I01
I01
tp1369
sba(iModules.cell
Cell
p1370
(dp1371
g4
I00
sg343
I00
sg7
(I01
I01
tp1372
sba(iModules.cell
Cell
p1373
(dp1374
g4
I00
sg343
I00
sg7
(I01
I01
tp1375
sba(iModules.cell
Cell
p1376
(dp1377
g4
I00
sg343
I00
sg7
(I01
I01
tp1378
sba(iModules.cell
Cell
p1379
(dp1380
g4
I00
sg343
I00
sg7
(I01
I01
tp1381
sba(iModules.cell
Cell
p1382
(dp1383
g4
I00
sg407
I00
sg7
(I01
I01
tp1384
sba(iModules.cell
Cell
p1385
(dp1386
g4
I00
sg407
I00
sg7
(I01
I01
tp1387
sba(iModules.cell
Cell
p1388
(dp1389
g4
I00
sg407
I00
sg7
(I01
I01
tp1390
sba(iModules.cell
Cell
p1391
(dp1392
g4
I00
sg407
I00
sg7
(I01
I01
tp1393
sba(iModules.cell
Cell
p1394
(dp1395
g4
I00
sg407
I00
sg7
(I01
I01
tp1396
sba(iModules.cell
Cell
p1397
(dp1398
g4
I00
sg407
I00
sg7
(I01
I01
tp1399
sba(iModules.cell
Cell
p1400
(dp1401
g4
I00
sg407
I00
sg7
(I01
I01
tp1402
sba(iModules.cell
Cell
p1403
(dp1404
g4
I00
sg407
I00
sg7
(I01
I01
tp1405
sba(iModules.cell
Cell
p1406
(dp1407
g4
I00
sg407
I00
sg7
(I01
I01
tp1408
sba(iModules.cell
Cell
p1409
(dp1410
g4
I00
sg407
I00
sg7
(I01
I01
tp1411
sba(iModules.cell
Cell
p1412
(dp1413
g4
I00
sg407
I00
sg7
(I01
I01
tp1414
sba(iModules.cell
Cell
p1415
(dp1416
g4
I00
sg407
I00
sg7
(I00
I00
tp1417
sba(iModules.cell
Cell
p1418
(dp1419
g4
I00
sg6
I00
sg7
(I00
I00
tp1420
sba(iModules.cell
Cell
p1421
(dp1422
g4
I00
sg6
I00
sg7
(I00
I00
tp1423
sba(iModules.cell
Cell
p1424
(dp1425
g4
I00
sg6
I00
sg7
(I00
I00
tp1426
sba(iModules.cell
Cell
p1427
(dp1428
g4
I00
sg6
I00
sg7
(I00
I00
tp1429
sba(iModules.cell
Cell
p1430
(dp1431
g4
I00
sg6
I00
sg7
(I00
I00
tp1432
sba(iModules.cell
Cell
p1433
(dp1434
g4
I00
sg6
I00
sg7
(I00
I00
tp1435
sba(iModules.cell
Cell
p1436
(dp1437
g4
I00
sg6
I00
sg7
(I00
I00
tp1438
sba(iModules.cell
Cell
p1439
(dp1440
g4
I00
sg6
I00
sg7
(I00
I00
tp1441
sba(iModules.cell
Cell
p1442
(dp1443
g4
I00
sg6
I00
sg7
(I00
I00
tp1444
sba(iModules.cell
Cell
p1445
(dp1446
g4
I00
sg6
I00
sg7
(I00
I00
tp1447
sba(iModules.cell
Cell
p1448
(dp1449
g4
I00
sg6
I00
sg7
(I00
I00
tp1450
sba(iModules.cell
Cell
p1451
(dp1452
g4
I00
sg6
I00
sg7
(I00
I00
tp1453
sba(iModules.cell
Cell
p1454
(dp1455
g4
I00
sg6
I00
sg7
(I00
I00
tp1456
sba(iModules.cell
Cell
p1457
(dp1458
g4
I00
sg6
I00
sg7
(I00
I00
tp1459
sba(iModules.cell
Cell
p1460
(dp1461
g4
I00
sg6
I00
sg7
(I00
I00
tp1462
sba(iModules.cell
Cell
p1463
(dp1464
g4
I00
sg6
I00
sg7
(I00
I00
tp1465
sba(iModules.cell
Cell
p1466
(dp1467
g4
I00
sg6
I00
sg7
(I00
I00
tp1468
sba(iModules.cell
Cell
p1469
(dp1470
g4
I00
sg6
I00
sg7
(I00
I00
tp1471
sba(iModules.cell
Cell
p1472
(dp1473
g7
(I00
I00
tp1474
sbaa(lp1475
(iModules.cell
Cell
p1476
(dp1477
g4
I00
sg6
I00
sg7
(I00
I00
tp1478
sba(iModules.cell
Cell
p1479
(dp1480
g4
I00
sg257
I00
sg7
(I00
I00
tp1481
sba(iModules.cell
Cell
p1482
(dp1483
g4
I00
sg257
I00
sg7
(I01
I01
tp1484
sba(iModules.cell
Cell
p1485
(dp1486
g4
I00
sg257
I00
sg7
(I01
I01
tp1487
sba(iModules.cell
Cell
p1488
(dp1489
g4
I00
sg257
I00
sg7
(I01
I01
tp1490
sba(iModules.cell
Cell
p1491
(dp1492
g4
I00
sg257
I00
sg7
(I01
I01
tp1493
sba(iModules.cell
Cell
p1494
(dp1495
g4
I00
sg257
I00
sg7
(I01
I01
tp1496
sba(iModules.cell
Cell
p1497
(dp1498
g4
I00
sg257
I00
sg7
(I01
I01
tp1499
sba(iModules.cell
Cell
p1500
(dp1501
g4
I00
sg257
I00
sg7
(I01
I01
tp1502
sba(iModules.cell
Cell
p1503
(dp1504
g4
I00
sg257
I00
sg7
(I01
I01
tp1505
sba(iModules.cell
Cell
p1506
(dp1507
g4
I00
sg257
I00
sg7
(I01
I01
tp1508
sba(iModules.cell
Cell
p1509
(dp1510
g4
I00
sg257
I00
sg7
(I01
I01
tp1511
sba(iModules.cell
Cell
p1512
(dp1513
g4
I00
sg257
I00
sg7
(I01
I01
tp1514
sba(iModules.cell
Cell
p1515
(dp1516
g4
I00
sg257
I00
sg7
(I01
I01
tp1517
sba(iModules.cell
Cell
p1518
(dp1519
g4
I00
sg257
I00
sg7
(I01
I01
tp1520
sba(iModules.cell
Cell
p1521
(dp1522
g4
I00
sg300
I00
sg7
(I01
I01
tp1523
sba(iModules.cell
Cell
p1524
(dp1525
g4
I00
sg300
I00
sg7
(I01
I01
tp1526
sba(iModules.cell
Cell
p1527
(dp1528
g4
I00
sg300
I00
sg7
(I01
I01
tp1529
sba(iModules.cell
Cell
p1530
(dp1531
g4
I00
sg300
I00
sg7
(I01
I01
tp1532
sba(iModules.cell
Cell
p1533
(dp1534
g4
I00
sg300
I00
sg7
(I01
I01
tp1535
sba(iModules.cell
Cell
p1536
(dp1537
g4
I00
sg300
I00
sg7
(I01
I01
tp1538
sba(iModules.cell
Cell
p1539
(dp1540
g4
I00
sg300
I00
sg7
(I01
I01
tp1541
sba(iModules.cell
Cell
p1542
(dp1543
g4
I00
sg300
I00
sg7
(I01
I01
tp1544
sba(iModules.cell
Cell
p1545
(dp1546
g4
I00
sg300
I00
sg7
(I01
I01
tp1547
sba(iModules.cell
Cell
p1548
(dp1549
g4
I00
sg300
I00
sg7
(I01
I01
tp1550
sba(iModules.cell
Cell
p1551
(dp1552
g4
I00
sg300
I00
sg7
(I01
I01
tp1553
sba(iModules.cell
Cell
p1554
(dp1555
g4
I00
sg300
I00
sg7
(I01
I01
tp1556
sba(iModules.cell
Cell
p1557
(dp1558
g4
I00
sg300
I00
sg7
(I01
I01
tp1559
sba(iModules.cell
Cell
p1560
(dp1561
g4
I00
sg300
I00
sg7
(I01
I01
tp1562
sba(iModules.cell
Cell
p1563
(dp1564
g4
I00
sg343
I00
sg7
(I01
I01
tp1565
sba(iModules.cell
Cell
p1566
(dp1567
g4
I00
sg343
I00
sg7
(I01
I01
tp1568
sba(iModules.cell
Cell
p1569
(dp1570
g4
I00
sg343
I00
sg7
(I01
I01
tp1571
sba(iModules.cell
Cell
p1572
(dp1573
g4
I00
sg343
I00
sg7
(I01
I01
tp1574
sba(iModules.cell
Cell
p1575
(dp1576
g4
I00
sg343
I00
sg7
(I01
I01
tp1577
sba(iModules.cell
Cell
p1578
(dp1579
g4
I00
sg343
I00
sg7
(I01
I01
tp1580
sba(iModules.cell
Cell
p1581
(dp1582
g4
I00
sg343
I00
sg7
(I01
I01
tp1583
sba(iModules.cell
Cell
p1584
(dp1585
g4
I00
sg343
I00
sg7
(I01
I01
tp1586
sba(iModules.cell
Cell
p1587
(dp1588
g4
I00
sg343
I00
sg7
(I01
I01
tp1589
sba(iModules.cell
Cell
p1590
(dp1591
g4
I00
sg343
I00
sg7
(I01
I01
tp1592
sba(iModules.cell
Cell
p1593
(dp1594
g4
I00
sg343
I00
sg7
(I01
I01
tp1595
sba(iModules.cell
Cell
p1596
(dp1597
g4
I00
sg343
I00
sg7
(I01
I01
tp1598
sba(iModules.cell
Cell
p1599
(dp1600
g4
I00
sg343
I00
sg7
(I01
I01
tp1601
sba(iModules.cell
Cell
p1602
(dp1603
g4
I00
sg343
I00
sg7
(I01
I01
tp1604
sba(iModules.cell
Cell
p1605
(dp1606
g4
I00
sg343
I00
sg7
(I01
I01
tp1607
sba(iModules.cell
Cell
p1608
(dp1609
g4
I00
sg343
I00
sg7
(I01
I01
tp1610
sba(iModules.cell
Cell
p1611
(dp1612
g4
I00
sg343
I00
sg7
(I01
I01
tp1613
sba(iModules.cell
Cell
p1614
(dp1615
g4
I00
sg343
I00
sg7
(I01
I01
tp1616
sba(iModules.cell
Cell
p1617
(dp1618
g4
I00
sg343
I00
sg7
(I01
I01
tp1619
sba(iModules.cell
Cell
p1620
(dp1621
g4
I00
sg343
I00
sg7
(I01
I01
tp1622
sba(iModules.cell
Cell
p1623
(dp1624
g4
I00
sg343
I00
sg7
(I01
I01
tp1625
sba(iModules.cell
Cell
p1626
(dp1627
g4
I00
sg407
I00
sg7
(I01
I01
tp1628
sba(iModules.cell
Cell
p1629
(dp1630
g4
I00
sg407
I00
sg7
(I01
I01
tp1631
sba(iModules.cell
Cell
p1632
(dp1633
g4
I00
sg407
I00
sg7
(I01
I01
tp1634
sba(iModules.cell
Cell
p1635
(dp1636
g4
I00
sg407
I00
sg7
(I01
I01
tp1637
sba(iModules.cell
Cell
p1638
(dp1639
g4
I00
sg407
I00
sg7
(I01
I01
tp1640
sba(iModules.cell
Cell
p1641
(dp1642
g4
I00
sg407
I00
sg7
(I01
I01
tp1643
sba(iModules.cell
Cell
p1644
(dp1645
g4
I00
sg407
I00
sg7
(I01
I01
tp1646
sba(iModules.cell
Cell
p1647
(dp1648
g4
I00
sg407
I00
sg7
(I01
I01
tp1649
sba(iModules.cell
Cell
p1650
(dp1651
g4
I00
sg407
I00
sg7
(I01
I01
tp1652
sba(iModules.cell
Cell
p1653
(dp1654
g4
I00
sg407
I00
sg7
(I01
I01
tp1655
sba(iModules.cell
Cell
p1656
(dp1657
g4
I00
sg407
I00
sg7
(I01
I01
tp1658
sba(iModules.cell
Cell
p1659
(dp1660
g4
I00
sg407
I00
sg7
(I00
I00
tp1661
sba(iModules.cell
Cell
p1662
(dp1663
g4
I00
sg6
I00
sg7
(I00
I00
tp1664
sba(iModules.cell
Cell
p1665
(dp1666
g4
I00
sg6
I00
sg7
(I00
I00
tp1667
sba(iModules.cell
Cell
p1668
(dp1669
g4
I00
sg6
I00
sg7
(I00
I00
tp1670
sba(iModules.cell
Cell
p1671
(dp1672
g4
I00
sg6
I00
sg7
(I00
I00
tp1673
sba(iModules.cell
Cell
p1674
(dp1675
g4
I00
sg6
I00
sg7
(I00
I00
tp1676
sba(iModules.cell
Cell
p1677
(dp1678
g4
I00
sg6
I00
sg7
(I00
I00
tp1679
sba(iModules.cell
Cell
p1680
(dp1681
g4
I00
sg6
I00
sg7
(I00
I00
tp1682
sba(iModules.cell
Cell
p1683
(dp1684
g4
I00
sg6
I00
sg7
(I00
I00
tp1685
sba(iModules.cell
Cell
p1686
(dp1687
g4
I00
sg6
I00
sg7
(I00
I00
tp1688
sba(iModules.cell
Cell
p1689
(dp1690
g4
I00
sg6
I00
sg7
(I00
I00
tp1691
sba(iModules.cell
Cell
p1692
(dp1693
g4
I00
sg6
I00
sg7
(I00
I00
tp1694
sba(iModules.cell
Cell
p1695
(dp1696
g4
I00
sg6
I00
sg7
(I00
I00
tp1697
sba(iModules.cell
Cell
p1698
(dp1699
g4
I00
sg6
I00
sg7
(I00
I00
tp1700
sba(iModules.cell
Cell
p1701
(dp1702
g4
I00
sg6
I00
sg7
(I00
I00
tp1703
sba(iModules.cell
Cell
p1704
(dp1705
g4
I00
sg6
I00
sg7
(I00
I00
tp1706
sba(iModules.cell
Cell
p1707
(dp1708
g4
I00
sg6
I00
sg7
(I00
I00
tp1709
sba(iModules.cell
Cell
p1710
(dp1711
g4
I00
sg6
I00
sg7
(I00
I00
tp1712
sba(iModules.cell
Cell
p1713
(dp1714
g4
I00
sg6
I00
sg7
(I00
I00
tp1715
sba(iModules.cell
Cell
p1716
(dp1717
g7
(I00
I00
tp1718
sbaa(lp1719
(iModules.cell
Cell
p1720
(dp1721
g4
I00
sg6
I00
sg7
(I00
I00
tp1722
sba(iModules.cell
Cell
p1723
(dp1724
g4
I00
sg257
I00
sg7
(I00
I00
tp1725
sba(iModules.cell
Cell
p1726
(dp1727
g4
I00
sg257
I00
sg7
(I01
I01
tp1728
sba(iModules.cell
Cell
p1729
(dp1730
g4
I00
sg257
I00
sg7
(I01
I01
tp1731
sba(iModules.cell
Cell
p1732
(dp1733
g4
I00
sg257
I00
sg7
(I01
I01
tp1734
sba(iModules.cell
Cell
p1735
(dp1736
g4
I00
sg257
I00
sg7
(I01
I01
tp1737
sba(iModules.cell
Cell
p1738
(dp1739
g4
I00
sg257
I00
sg7
(I01
I01
tp1740
sba(iModules.cell
Cell
p1741
(dp1742
g4
I00
sg257
I00
sg7
(I01
I01
tp1743
sba(iModules.cell
Cell
p1744
(dp1745
g4
I00
sg257
I00
sg7
(I01
I01
tp1746
sba(iModules.cell
Cell
p1747
(dp1748
g4
I00
sg257
I00
sg7
(I01
I01
tp1749
sba(iModules.cell
Cell
p1750
(dp1751
g4
I00
sg257
I00
sg7
(I01
I01
tp1752
sba(iModules.cell
Cell
p1753
(dp1754
g4
I00
sg257
I00
sg7
(I01
I01
tp1755
sba(iModules.cell
Cell
p1756
(dp1757
g4
I00
sg257
I00
sg7
(I01
I01
tp1758
sba(iModules.cell
Cell
p1759
(dp1760
g4
I00
sg257
I00
sg7
(I01
I01
tp1761
sba(iModules.cell
Cell
p1762
(dp1763
g4
I00
sg257
I00
sg7
(I01
I01
tp1764
sba(iModules.cell
Cell
p1765
(dp1766
g4
I00
sg300
I00
sg7
(I01
I01
tp1767
sba(iModules.cell
Cell
p1768
(dp1769
g4
I00
sg300
I00
sg7
(I01
I01
tp1770
sba(iModules.cell
Cell
p1771
(dp1772
g4
I01
sg300
I01
sg7
(I00
I00
I00
tp1773
sba(iModules.cell
Cell
p1774
(dp1775
g4
I01
sg300
I01
sg7
(I00
I00
I00
tp1776
sba(iModules.cell
Cell
p1777
(dp1778
g4
I01
sg300
I01
sg7
(I00
I00
I00
tp1779
sba(iModules.cell
Cell
p1780
(dp1781
g4
I01
sg300
I01
sg7
(I00
I00
I00
tp1782
sba(iModules.cell
Cell
p1783
(dp1784
g4
I01
sg300
I01
sg7
(I00
I00
I00
tp1785
sba(iModules.cell
Cell
p1786
(dp1787
g4
I00
sg300
I00
sg7
(I01
I01
tp1788
sba(iModules.cell
Cell
p1789
(dp1790
g4
I00
sg300
I00
sg7
(I01
I01
tp1791
sba(iModules.cell
Cell
p1792
(dp1793
g4
I00
sg300
I00
sg7
(I01
I01
tp1794
sba(iModules.cell
Cell
p1795
(dp1796
g4
I00
sg300
I00
sg7
(I01
I01
tp1797
sba(iModules.cell
Cell
p1798
(dp1799
g4
I00
sg300
I00
sg7
(I01
I01
tp1800
sba(iModules.cell
Cell
p1801
(dp1802
g4
I00
sg300
I00
sg7
(I01
I01
tp1803
sba(iModules.cell
Cell
p1804
(dp1805
g4
I00
sg300
I00
sg7
(I01
I01
tp1806
sba(iModules.cell
Cell
p1807
(dp1808
g4
I00
sg343
I00
sg7
(I01
I01
tp1809
sba(iModules.cell
Cell
p1810
(dp1811
g4
I00
sg343
I00
sg7
(I01
I01
tp1812
sba(iModules.cell
Cell
p1813
(dp1814
g4
I00
sg343
I00
sg7
(I01
I01
tp1815
sba(iModules.cell
Cell
p1816
(dp1817
g4
I00
sg343
I00
sg7
(I01
I01
tp1818
sba(iModules.cell
Cell
p1819
(dp1820
g4
I00
sg343
I00
sg7
(I01
I01
tp1821
sba(iModules.cell
Cell
p1822
(dp1823
g4
I00
sg343
I00
sg7
(I01
I01
tp1824
sba(iModules.cell
Cell
p1825
(dp1826
g4
I00
sg343
I00
sg7
(I01
I01
tp1827
sba(iModules.cell
Cell
p1828
(dp1829
g4
I00
sg343
I00
sg7
(I01
I01
tp1830
sba(iModules.cell
Cell
p1831
(dp1832
g4
I00
sg343
I00
sg7
(I01
I01
tp1833
sba(iModules.cell
Cell
p1834
(dp1835
g4
I00
sg343
I00
sg7
(I01
I01
tp1836
sba(iModules.cell
Cell
p1837
(dp1838
g4
I00
sg343
I00
sg7
(I01
I01
tp1839
sba(iModules.cell
Cell
p1840
(dp1841
g4
I00
sg343
I00
sg7
(I01
I01
tp1842
sba(iModules.cell
Cell
p1843
(dp1844
g4
I00
sg343
I00
sg7
(I01
I01
tp1845
sba(iModules.cell
Cell
p1846
(dp1847
g4
I00
sg343
I00
sg7
(I01
I01
tp1848
sba(iModules.cell
Cell
p1849
(dp1850
g4
I00
sg343
I00
sg7
(I01
I01
tp1851
sba(iModules.cell
Cell
p1852
(dp1853
g4
I00
sg343
I00
sg7
(I01
I01
tp1854
sba(iModules.cell
Cell
p1855
(dp1856
g4
I00
sg343
I00
sg7
(I01
I01
tp1857
sba(iModules.cell
Cell
p1858
(dp1859
g4
I00
sg343
I00
sg7
(I01
I01
tp1860
sba(iModules.cell
Cell
p1861
(dp1862
g4
I00
sg343
I00
sg7
(I01
I01
tp1863
sba(iModules.cell
Cell
p1864
(dp1865
g4
I00
sg343
I00
sg7
(I01
I01
tp1866
sba(iModules.cell
Cell
p1867
(dp1868
g4
I00
sg343
I00
sg7
(I01
I01
tp1869
sba(iModules.cell
Cell
p1870
(dp1871
g4
I00
sg407
I00
sg7
(I01
I01
tp1872
sba(iModules.cell
Cell
p1873
(dp1874
g4
I00
sg407
I00
sg7
(I01
I01
tp1875
sba(iModules.cell
Cell
p1876
(dp1877
g4
I00
sg407
I00
sg7
(I01
I01
tp1878
sba(iModules.cell
Cell
p1879
(dp1880
g4
I00
sg407
I00
sg7
(I01
I01
tp1881
sba(iModules.cell
Cell
p1882
(dp1883
g4
I00
sg407
I00
sg7
(I01
I01
tp1884
sba(iModules.cell
Cell
p1885
(dp1886
g4
I00
sg407
I00
sg7
(I01
I01
tp1887
sba(iModules.cell
Cell
p1888
(dp1889
g4
I00
sg407
I00
sg7
(I01
I01
tp1890
sba(iModules.cell
Cell
p1891
(dp1892
g4
I00
sg407
I00
sg7
(I01
I01
tp1893
sba(iModules.cell
Cell
p1894
(dp1895
g4
I00
sg407
I00
sg7
(I01
I01
tp1896
sba(iModules.cell
Cell
p1897
(dp1898
g4
I00
sg407
I00
sg7
(I01
I01
tp1899
sba(iModules.cell
Cell
p1900
(dp1901
g4
I00
sg407
I00
sg7
(I01
I01
tp1902
sba(iModules.cell
Cell
p1903
(dp1904
g4
I00
sg407
I00
sg7
(I00
I00
tp1905
sba(iModules.cell
Cell
p1906
(dp1907
g4
I00
sg6
I00
sg7
(I00
I00
tp1908
sba(iModules.cell
Cell
p1909
(dp1910
g4
I00
sg6
I00
sg7
(I00
I00
tp1911
sba(iModules.cell
Cell
p1912
(dp1913
g4
I00
sg6
I00
sg7
(I00
I00
tp1914
sba(iModules.cell
Cell
p1915
(dp1916
g4
I00
sg6
I00
sg7
(I00
I00
tp1917
sba(iModules.cell
Cell
p1918
(dp1919
g4
I00
sg6
I00
sg7
(I00
I00
tp1920
sba(iModules.cell
Cell
p1921
(dp1922
g4
I00
sg6
I00
sg7
(I00
I00
tp1923
sba(iModules.cell
Cell
p1924
(dp1925
g4
I00
sg6
I00
sg7
(I00
I00
tp1926
sba(iModules.cell
Cell
p1927
(dp1928
g4
I00
sg6
I00
sg7
(I00
I00
tp1929
sba(iModules.cell
Cell
p1930
(dp1931
g4
I00
sg6
I00
sg7
(I00
I00
tp1932
sba(iModules.cell
Cell
p1933
(dp1934
g4
I00
sg6
I00
sg7
(I00
I00
tp1935
sba(iModules.cell
Cell
p1936
(dp1937
g4
I00
sg6
I00
sg7
(I00
I00
tp1938
sba(iModules.cell
Cell
p1939
(dp1940
g4
I00
sg6
I00
sg7
(I00
I00
tp1941
sba(iModules.cell
Cell
p1942
(dp1943
g4
I00
sg6
I00
sg7
(I00
I00
tp1944
sba(iModules.cell
Cell
p1945
(dp1946
g4
I00
sg6
I00
sg7
(I00
I00
tp1947
sba(iModules.cell
Cell
p1948
(dp1949
g4
I00
sg6
I00
sg7
(I00
I00
tp1950
sba(iModules.cell
Cell
p1951
(dp1952
g4
I00
sg6
I00
sg7
(I00
I00
tp1953
sba(iModules.cell
Cell
p1954
(dp1955
g4
I00
sg6
I00
sg7
(I00
I00
tp1956
sba(iModules.cell
Cell
p1957
(dp1958
g4
I00
sg6
I00
sg7
(I00
I00
tp1959
sba(iModules.cell
Cell
p1960
(dp1961
g7
(I00
I00
tp1962
sbaa(lp1963
(iModules.cell
Cell
p1964
(dp1965
g4
I00
sg6
I00
sg7
(I00
I00
tp1966
sba(iModules.cell
Cell
p1967
(dp1968
g4
I00
sg257
I00
sg7
(I00
I00
tp1969
sba(iModules.cell
Cell
p1970
(dp1971
g4
I00
sg257
I00
sg7
(I01
I01
tp1972
sba(iModules.cell
Cell
p1973
(dp1974
g4
I00
sg257
I00
sg7
(I01
I01
tp1975
sba(iModules.cell
Cell
p1976
(dp1977
g4
I00
sg257
I00
sg7
(I00
I00
I00
tp1978
sba(iModules.cell
Cell
p1979
(dp1980
g4
I00
sg257
I00
sg7
(I00
I00
I00
tp1981
sba(iModules.cell
Cell
p1982
(dp1983
g4
I00
sg257
I00
sg7
(I00
I00
I00
tp1984
sba(iModules.cell
Cell
p1985
(dp1986
g4
I00
sg257
I00
sg7
(I00
I00
I00
tp1987
sba(iModules.cell
Cell
p1988
(dp1989
g4
I00
sg257
I00
sg7
(I00
I00
I00
tp1990
sba(iModules.cell
Cell
p1991
(dp1992
g4
I00
sg257
I00
sg7
(I01
I01
tp1993
sba(iModules.cell
Cell
p1994
(dp1995
g4
I00
sg257
I00
sg7
(I01
I01
tp1996
sba(iModules.cell
Cell
p1997
(dp1998
g4
I00
sg257
I00
sg7
(I01
I01
tp1999
sba(iModules.cell
Cell
p2000
(dp2001
g4
I00
sg257
I00
sg7
(I01
I01
tp2002
sba(iModules.cell
Cell
p2003
(dp2004
g4
I00
sg257
I00
sg7
(I01
I01
tp2005
sba(iModules.cell
Cell
p2006
(dp2007
g4
I00
sg257
I00
sg7
(I01
I01
tp2008
sba(iModules.cell
Cell
p2009
(dp2010
g4
I00
sg300
I00
sg7
(I01
I01
tp2011
sba(iModules.cell
Cell
p2012
(dp2013
g4
I00
sg300
I00
sg7
(I01
I01
tp2014
sba(iModules.cell
Cell
p2015
(dp2016
g4
I01
sg300
I01
sg7
(I00
I00
I00
tp2017
sba(iModules.cell
Cell
p2018
(dp2019
S'lit'
p2020
I01
sg4
I01
sg300
I01
sg7
(I01
I01
tp2021
sba(iModules.cell
Cell
p2022
(dp2023
g2020
I01
sg4
I01
sg300
I01
sg7
(I01
I01
tp2024
sba(iModules.cell
Cell
p2025
(dp2026
g2020
I01
sg4
I01
sg300
I01
sg7
(I01
I01
tp2027
sba(iModules.cell
Cell
p2028
(dp2029
g4
I01
sg300
I01
sg7
(I00
I00
I00
tp2030
sba(iModules.cell
Cell
p2031
(dp2032
g4
I00
sg300
I00
sg7
(I01
I01
tp2033
sba(iModules.cell
Cell
p2034
(dp2035
g4
I00
sg300
I00
sg7
(I01
I01
tp2036
sba(iModules.cell
Cell
p2037
(dp2038
g4
I00
sg300
I00
sg7
(I01
I01
tp2039
sba(iModules.cell
Cell
p2040
(dp2041
g4
I00
sg300
I00
sg7
(I01
I01
tp2042
sba(iModules.cell
Cell
p2043
(dp2044
g4
I00
sg300
I00
sg7
(I01
I01
tp2045
sba(iModules.cell
Cell
p2046
(dp2047
g4
I00
sg300
I00
sg7
(I01
I01
tp2048
sba(iModules.cell
Cell
p2049
(dp2050
g4
I00
sg300
I00
sg7
(I01
I01
tp2051
sba(iModules.cell
Cell
p2052
(dp2053
g4
I00
sg343
I00
sg7
(I01
I01
tp2054
sba(iModules.cell
Cell
p2055
(dp2056
g4
I00
sg343
I00
sg7
(I01
I01
tp2057
sba(iModules.cell
Cell
p2058
(dp2059
g4
I00
sg343
I00
sg7
(I01
I01
tp2060
sba(iModules.cell
Cell
p2061
(dp2062
g4
I00
sg343
I00
sg7
(I01
I01
tp2063
sba(iModules.cell
Cell
p2064
(dp2065
g4
I00
sg343
I00
sg7
(I01
I01
tp2066
sba(iModules.cell
Cell
p2067
(dp2068
g4
I00
sg343
I00
sg7
(I01
I01
tp2069
sba(iModules.cell
Cell
p2070
(dp2071
g4
I00
sg343
I00
sg7
(I01
I01
tp2072
sba(iModules.cell
Cell
p2073
(dp2074
g4
I00
sg343
I00
sg7
(I01
I01
tp2075
sba(iModules.cell
Cell
p2076
(dp2077
g4
I00
sg343
I00
sg7
(I01
I01
tp2078
sba(iModules.cell
Cell
p2079
(dp2080
g4
I00
sg343
I00
sg7
(I01
I01
tp2081
sba(iModules.cell
Cell
p2082
(dp2083
g4
I00
sg343
I00
sg7
(I01
I01
tp2084
sba(iModules.cell
Cell
p2085
(dp2086
g4
I00
sg343
I00
sg7
(I01
I01
tp2087
sba(iModules.cell
Cell
p2088
(dp2089
g4
I00
sg343
I00
sg7
(I01
I01
tp2090
sba(iModules.cell
Cell
p2091
(dp2092
g4
I00
sg343
I00
sg7
(I01
I01
tp2093
sba(iModules.cell
Cell
p2094
(dp2095
g4
I00
sg343
I00
sg7
(I01
I01
tp2096
sba(iModules.cell
Cell
p2097
(dp2098
g4
I00
sg343
I00
sg7
(I01
I01
tp2099
sba(iModules.cell
Cell
p2100
(dp2101
g4
I00
sg343
I00
sg7
(I01
I01
tp2102
sba(iModules.cell
Cell
p2103
(dp2104
g4
I00
sg343
I00
sg7
(I01
I01
tp2105
sba(iModules.cell
Cell
p2106
(dp2107
g4
I00
sg343
I00
sg7
(I01
I01
tp2108
sba(iModules.cell
Cell
p2109
(dp2110
g4
I00
sg343
I00
sg7
(I01
I01
tp2111
sba(iModules.cell
Cell
p2112
(dp2113
g4
I00
sg343
I00
sg7
(I01
I01
tp2114
sba(iModules.cell
Cell
p2115
(dp2116
g4
I00
sg407
I00
sg7
(I01
I01
tp2117
sba(iModules.cell
Cell
p2118
(dp2119
g4
I00
sg407
I00
sg7
(I01
I01
tp2120
sba(iModules.cell
Cell
p2121
(dp2122
g4
I00
sg407
I00
sg7
(I01
I01
tp2123
sba(iModules.cell
Cell
p2124
(dp2125
g4
I00
sg407
I00
sg7
(I01
I01
tp2126
sba(iModules.cell
Cell
p2127
(dp2128
g4
I00
sg407
I00
sg7
(I01
I01
tp2129
sba(iModules.cell
Cell
p2130
(dp2131
g4
I00
sg407
I00
sg7
(I01
I01
tp2132
sba(iModules.cell
Cell
p2133
(dp2134
g4
I00
sg407
I00
sg7
(I01
I01
tp2135
sba(iModules.cell
Cell
p2136
(dp2137
g4
I00
sg407
I00
sg7
(I01
I01
tp2138
sba(iModules.cell
Cell
p2139
(dp2140
g4
I00
sg407
I00
sg7
(I01
I01
tp2141
sba(iModules.cell
Cell
p2142
(dp2143
g4
I00
sg407
I00
sg7
(I01
I01
tp2144
sba(iModules.cell
Cell
p2145
(dp2146
g4
I00
sg407
I00
sg7
(I01
I01
tp2147
sba(iModules.cell
Cell
p2148
(dp2149
g4
I00
sg407
I00
sg7
(I00
I00
tp2150
sba(iModules.cell
Cell
p2151
(dp2152
g4
I00
sg6
I00
sg7
(I00
I00
tp2153
sba(iModules.cell
Cell
p2154
(dp2155
g4
I00
sg6
I00
sg7
(I00
I00
tp2156
sba(iModules.cell
Cell
p2157
(dp2158
g4
I00
sg6
I00
sg7
(I00
I00
tp2159
sba(iModules.cell
Cell
p2160
(dp2161
g4
I00
sg6
I00
sg7
(I00
I00
tp2162
sba(iModules.cell
Cell
p2163
(dp2164
g4
I00
sg6
I00
sg7
(I00
I00
tp2165
sba(iModules.cell
Cell
p2166
(dp2167
g4
I00
sg6
I00
sg7
(I00
I00
tp2168
sba(iModules.cell
Cell
p2169
(dp2170
g4
I00
sg6
I00
sg7
(I00
I00
tp2171
sba(iModules.cell
Cell
p2172
(dp2173
g4
I00
sg6
I00
sg7
(I00
I00
tp2174
sba(iModules.cell
Cell
p2175
(dp2176
g4
I00
sg6
I00
sg7
(I00
I00
tp2177
sba(iModules.cell
Cell
p2178
(dp2179
g4
I00
sg6
I00
sg7
(I00
I00
tp2180
sba(iModules.cell
Cell
p2181
(dp2182
g4
I00
sg6
I00
sg7
(I00
I00
tp2183
sba(iModules.cell
Cell
p2184
(dp2185
g4
I00
sg6
I00
sg7
(I00
I00
tp2186
sba(iModules.cell
Cell
p2187
(dp2188
g4
I00
sg6
I00
sg7
(I00
I00
tp2189
sba(iModules.cell
Cell
p2190
(dp2191
g4
I00
sg6
I00
sg7
(I00
I00
tp2192
sba(iModules.cell
Cell
p2193
(dp2194
g4
I00
sg6
I00
sg7
(I00
I00
tp2195
sba(iModules.cell
Cell
p2196
(dp2197
g4
I00
sg6
I00
sg7
(I00
I00
tp2198
sba(iModules.cell
Cell
p2199
(dp2200
g4
I00
sg6
I00
sg7
(I00
I00
tp2201
sba(iModules.cell
Cell
p2202
(dp2203
g4
I00
sg6
I00
sg7
(I00
I00
tp2204
sba(iModules.cell
Cell
p2205
(dp2206
g7
(I00
I00
tp2207
sbaa(lp2208
(iModules.cell
Cell
p2209
(dp2210
g4
I00
sg6
I00
sg7
(I00
I00
tp2211
sba(iModules.cell
Cell
p2212
(dp2213
g4
I00
sg257
I00
sg7
(I00
I00
tp2214
sba(iModules.cell
Cell
p2215
(dp2216
g4
I00
sg257
I00
sg7
(I01
I01
tp2217
sba(iModules.cell
Cell
p2218
(dp2219
g4
I00
sg257
I00
sg7
(I01
I01
tp2220
sba(iModules.cell
Cell
p2221
(dp2222
g4
I00
sg257
I00
sg7
(I00
I00
I00
tp2223
sba(iModules.cell
Mob
p2224
(dp2225
S'char'
p2226
S'D'
p2227
sS'visible'
p2228
I00
sS'undercell'
p2229
(iModules.cell
Cell
p2230
(dp2231
g4
I00
sg257
I01
sg7
(I01
I01
tp2232
sbsS'name'
p2233
S'Dragon'
p2234
sg6
I00
sba(iModules.cell
Cell
p2235
(dp2236
S'visible'
p2237
I00
sg300
I00
sS'type'
p2238
(I01
I01
tp2239
sba(iModules.cell
Cell
p2240
(dp2241
g4
I00
sg257
I00
sg7
(I01
I01
tp2242
sba(iModules.cell
Cell
p2243
(dp2244
g4
I00
sg257
I00
sg7
(I00
I00
I00
tp2245
sba(iModules.cell
Cell
p2246
(dp2247
g4
I00
sg257
I00
sg7
(I01
I01
tp2248
sba(iModules.cell
Cell
p2249
(dp2250
g4
I00
sg257
I00
sg7
(I01
I01
tp2251
sba(iModules.cell
Cell
p2252
(dp2253
g4
I00
sg257
I00
sg7
(I01
I01
tp2254
sba(iModules.cell
Cell
p2255
(dp2256
g4
I00
sg257
I00
sg7
(I01
I01
tp2257
sba(iModules.cell
Cell
p2258
(dp2259
g4
I00
sg257
I00
sg7
(I01
I01
tp2260
sba(iModules.cell
Cell
p2261
(dp2262
g4
I00
sg257
I00
sg7
(I01
I01
tp2263
sba(iModules.cell
Cell
p2264
(dp2265
g4
I00
sg300
I00
sg7
(I01
I01
tp2266
sba(iModules.cell
Cell
p2267
(dp2268
g4
I00
sg300
I00
sg7
(I01
I01
tp2269
sba(iModules.cell
Cell
p2270
(dp2271
g4
I01
sg300
I01
sg7
(I00
I00
I00
tp2272
sba(iModules.cell
Cell
p2273
(dp2274
g2020
I01
sg4
I01
sg300
I01
sg7
(I01
I01
tp2275
sba(iModules.cell
Cell
p2276
(dp2277
g2020
I01
sg4
I01
sg300
I01
sg7
(I01
I01
tp2278
sba(iModules.cell
Cell
p2279
(dp2280
g2020
I01
sg4
I01
sg300
I01
sg7
(I01
I01
tp2281
sba(iModules.cell
Cell
p2282
(dp2283
g4
I01
sg300
I01
sg7
(I00
I00
I00
tp2284
sba(iModules.cell
Cell
p2285
(dp2286
g4
I00
sg300
I00
sg7
(I01
I01
tp2287
sba(iModules.cell
Cell
p2288
(dp2289
g4
I00
sg300
I00
sg7
(I01
I01
tp2290
sba(iModules.cell
Cell
p2291
(dp2292
g4
I00
sg300
I00
sg7
(I01
I01
tp2293
sba(iModules.cell
Cell
p2294
(dp2295
g4
I00
sg300
I00
sg7
(I01
I01
tp2296
sba(iModules.cell
Cell
p2297
(dp2298
g4
I00
sg300
I00
sg7
(I01
I01
tp2299
sba(iModules.cell
Cell
p2300
(dp2301
g4
I00
sg300
I00
sg7
(I01
I01
tp2302
sba(iModules.cell
Cell
p2303
(dp2304
g4
I00
sg300
I00
sg7
(I01
I01
tp2305
sba(iModules.cell
Cell
p2306
(dp2307
g4
I00
sg343
I00
sg7
(I01
I01
tp2308
sba(iModules.cell
Cell
p2309
(dp2310
g4
I00
sg343
I00
sg7
(I01
I01
tp2311
sba(iModules.cell
Cell
p2312
(dp2313
g4
I00
sg343
I00
sg7
(I01
I01
tp2314
sba(iModules.cell
Cell
p2315
(dp2316
g4
I00
sg343
I00
sg7
(I01
I01
tp2317
sba(iModules.cell
Cell
p2318
(dp2319
g4
I00
sg343
I00
sg7
(I01
I01
tp2320
sba(iModules.cell
Cell
p2321
(dp2322
g4
I00
sg343
I00
sg7
(I01
I01
tp2323
sba(iModules.cell
Cell
p2324
(dp2325
g4
I00
sg343
I00
sg7
(I01
I01
tp2326
sba(iModules.cell
Cell
p2327
(dp2328
g4
I00
sg343
I00
sg7
(I01
I01
tp2329
sba(iModules.cell
Cell
p2330
(dp2331
g4
I00
sg343
I00
sg7
(I01
I01
tp2332
sba(iModules.cell
Cell
p2333
(dp2334
g4
I00
sg343
I00
sg7
(I01
I01
tp2335
sba(iModules.cell
Cell
p2336
(dp2337
g4
I00
sg343
I00
sg7
(I01
I01
tp2338
sba(iModules.cell
Cell
p2339
(dp2340
g4
I00
sg343
I00
sg7
(I01
I01
tp2341
sba(iModules.cell
Cell
p2342
(dp2343
g4
I00
sg343
I00
sg7
(I01
I01
tp2344
sba(iModules.cell
Cell
p2345
(dp2346
g4
I00
sg343
I00
sg7
(I01
I01
tp2347
sba(iModules.cell
Cell
p2348
(dp2349
g4
I00
sg343
I00
sg7
(I01
I01
tp2350
sba(iModules.cell
Cell
p2351
(dp2352
g4
I00
sg343
I00
sg7
(I01
I01
tp2353
sba(iModules.cell
Cell
p2354
(dp2355
g4
I00
sg343
I00
sg7
(I01
I01
tp2356
sba(iModules.cell
Cell
p2357
(dp2358
g4
I00
sg343
I00
sg7
(I01
I01
tp2359
sba(iModules.cell
Cell
p2360
(dp2361
g4
I00
sg343
I00
sg7
(I01
I01
tp2362
sba(iModules.cell
Cell
p2363
(dp2364
g4
I00
sg343
I00
sg7
(I01
I01
tp2365
sba(iModules.cell
Cell
p2366
(dp2367
g4
I00
sg343
I00
sg7
(I01
I01
tp2368
sba(iModules.cell
Cell
p2369
(dp2370
g4
I00
sg407
I00
sg7
(I01
I01
tp2371
sba(iModules.cell
Cell
p2372
(dp2373
g4
I00
sg407
I00
sg7
(I01
I01
tp2374
sba(iModules.cell
Cell
p2375
(dp2376
g4
I00
sg407
I00
sg7
(I01
I01
tp2377
sba(iModules.cell
Cell
p2378
(dp2379
g4
I00
sg407
I00
sg7
(I01
I01
tp2380
sba(iModules.cell
Cell
p2381
(dp2382
g4
I00
sg407
I00
sg7
(I01
I01
tp2383
sba(iModules.cell
Cell
p2384
(dp2385
g4
I00
sg407
I00
sg7
(I01
I01
tp2386
sba(iModules.cell
Cell
p2387
(dp2388
g4
I00
sg407
I00
sg7
(I01
I01
tp2389
sba(iModules.cell
Cell
p2390
(dp2391
g4
I00
sg407
I00
sg7
(I01
I01
tp2392
sba(iModules.cell
Cell
p2393
(dp2394
g4
I00
sg407
I00
sg7
(I01
I01
tp2395
sba(iModules.cell
Cell
p2396
(dp2397
g4
I00
sg407
I00
sg7
(I01
I01
tp2398
sba(iModules.cell
Cell
p2399
(dp2400
g4
I00
sg407
I00
sg7
(I01
I01
tp2401
sba(iModules.cell
Cell
p2402
(dp2403
g4
I00
sg407
I00
sg7
(I00
I00
tp2404
sba(iModules.cell
Cell
p2405
(dp2406
g4
I00
sg6
I00
sg7
(I00
I00
tp2407
sba(iModules.cell
Cell
p2408
(dp2409
g4
I00
sg6
I00
sg7
(I00
I00
tp2410
sba(iModules.cell
Cell
p2411
(dp2412
g4
I00
sg6
I00
sg7
(I00
I00
tp2413
sba(iModules.cell
Cell
p2414
(dp2415
g4
I00
sg6
I00
sg7
(I00
I00
tp2416
sba(iModules.cell
Cell
p2417
(dp2418
g4
I00
sg6
I00
sg7
(I00
I00
tp2419
sba(iModules.cell
Cell
p2420
(dp2421
g4
I00
sg6
I00
sg7
(I00
I00
tp2422
sba(iModules.cell
Cell
p2423
(dp2424
g4
I00
sg6
I00
sg7
(I00
I00
tp2425
sba(iModules.cell
Cell
p2426
(dp2427
g4
I00
sg6
I00
sg7
(I00
I00
tp2428
sba(iModules.cell
Cell
p2429
(dp2430
g4
I00
sg6
I00
sg7
(I00
I00
tp2431
sba(iModules.cell
Cell
p2432
(dp2433
g4
I00
sg6
I00
sg7
(I00
I00
tp2434
sba(iModules.cell
Cell
p2435
(dp2436
g4
I00
sg6
I00
sg7
(I00
I00
tp2437
sba(iModules.cell
Cell
p2438
(dp2439
g4
I00
sg6
I00
sg7
(I00
I00
tp2440
sba(iModules.cell
Cell
p2441
(dp2442
g4
I00
sg6
I00
sg7
(I00
I00
tp2443
sba(iModules.cell
Cell
p2444
(dp2445
g4
I00
sg6
I00
sg7
(I00
I00
tp2446
sba(iModules.cell
Cell
p2447
(dp2448
g4
I00
sg6
I00
sg7
(I00
I00
tp2449
sba(iModules.cell
Cell
p2450
(dp2451
g4
I00
sg6
I00
sg7
(I00
I00
tp2452
sba(iModules.cell
Cell
p2453
(dp2454
g4
I00
sg6
I00
sg7
(I00
I00
tp2455
sba(iModules.cell
Cell
p2456
(dp2457
g4
I00
sg6
I00
sg7
(I00
I00
tp2458
sba(iModules.cell
Cell
p2459
(dp2460
g7
(I00
I00
tp2461
sbaa(lp2462
(iModules.cell
Cell
p2463
(dp2464
g4
I00
sg6
I00
sg7
(I00
I00
tp2465
sba(iModules.cell
Cell
p2466
(dp2467
g4
I00
sg257
I00
sg7
(I00
I00
tp2468
sba(iModules.cell
Cell
p2469
(dp2470
g4
I00
sg257
I00
sg7
(I01
I01
tp2471
sba(iModules.cell
Cell
p2472
(dp2473
g4
I00
sg257
I00
sg7
(I01
I01
tp2474
sba(iModules.cell
Cell
p2475
(dp2476
g4
I00
sg257
I00
sg7
(I00
I00
I00
tp2477
sba(iModules.cell
Door
p2478
(dp2479
g2237
I00
sg300
I00
sg2238
(I00
I00
tp2480
sS'opened'
p2481
I00
sba(iModules.cell
Cell
p2482
(dp2483
g2237
I00
sg300
I00
sg2238
(I00
I00
I00
tp2484
sba(iModules.cell
Cell
p2485
(dp2486
g4
I00
sg257
I00
sg7
(I00
I00
I00
tp2487
sba(iModules.cell
Cell
p2488
(dp2489
g4
I00
sg257
I00
sg7
(I00
I00
I00
tp2490
sba(iModules.cell
Cell
p2491
(dp2492
g4
I00
sg257
I00
sg7
(I01
I01
tp2493
sba(iModules.cell
Cell
p2494
(dp2495
g4
I00
sg257
I00
sg7
(I00
I00
I00
tp2496
sba(iModules.cell
Cell
p2497
(dp2498
g4
I00
sg257
I00
sg7
(I00
I00
I00
tp2499
sba(iModules.cell
Cell
p2500
(dp2501
g4
I00
sg257
I00
sg7
(I00
I00
I00
tp2502
sba(iModules.cell
Cell
p2503
(dp2504
g4
I00
sg257
I00
sg7
(I01
I01
tp2505
sba(iModules.cell
Cell
p2506
(dp2507
g4
I00
sg257
I00
sg7
(I01
I01
tp2508
sba(iModules.cell
Cell
p2509
(dp2510
g4
I00
sg300
I00
sg7
(I01
I01
tp2511
sba(iModules.cell
Cell
p2512
(dp2513
g4
I00
sg300
I00
sg7
(I01
I01
tp2514
sba(iModules.cell
Cell
p2515
(dp2516
g4
I01
sg300
I01
sg7
(I00
I00
I00
tp2517
sba(iModules.cell
Cell
p2518
(dp2519
g4
I01
sg300
I01
sg7
(I00
I00
I00
tp2520
sba(iModules.cell
Door
p2521
(dp2522
g2228
I01
sS'explored'
p2523
I01
sS'type'
p2524
(I00
I00
tp2525
sS'opened'
p2526
I00
sba(iModules.cell
Cell
p2527
(dp2528
g4
I01
sg300
I01
sg7
(I00
I00
I00
tp2529
sba(iModules.cell
Cell
p2530
(dp2531
g4
I01
sg300
I01
sg7
(I00
I00
I00
tp2532
sba(iModules.cell
Cell
p2533
(dp2534
g4
I00
sg300
I00
sg7
(I01
I01
tp2535
sba(iModules.cell
Cell
p2536
(dp2537
g4
I00
sg300
I00
sg7
(I01
I01
tp2538
sba(iModules.cell
Cell
p2539
(dp2540
g4
I00
sg300
I00
sg7
(I01
I01
tp2541
sba(iModules.cell
Cell
p2542
(dp2543
g4
I00
sg300
I00
sg7
(I01
I01
tp2544
sba(iModules.cell
Cell
p2545
(dp2546
g4
I00
sg300
I00
sg7
(I00
I00
I00
tp2547
sba(iModules.cell
Cell
p2548
(dp2549
g4
I00
sg300
I00
sg7
(I00
I00
I00
tp2550
sba(iModules.cell
Cell
p2551
(dp2552
g4
I00
sg300
I00
sg7
(I00
I00
I00
tp2553
sba(iModules.cell
Cell
p2554
(dp2555
g4
I00
sg343
I00
sg7
(I01
I01
tp2556
sba(iModules.cell
Cell
p2557
(dp2558
g4
I00
sg343
I00
sg7
(I01
I01
tp2559
sba(iModules.cell
Cell
p2560
(dp2561
g4
I00
sg343
I00
sg7
(I01
I01
tp2562
sba(iModules.cell
Cell
p2563
(dp2564
g4
I00
sg343
I00
sg7
(I01
I01
tp2565
sba(iModules.cell
Cell
p2566
(dp2567
g4
I00
sg343
I00
sg7
(I01
I01
tp2568
sba(iModules.cell
Cell
p2569
(dp2570
g4
I00
sg343
I00
sg7
(I01
I01
tp2571
sba(iModules.cell
Cell
p2572
(dp2573
g4
I00
sg343
I00
sg7
(I01
I01
tp2574
sba(iModules.cell
Cell
p2575
(dp2576
g4
I00
sg343
I00
sg7
(I01
I01
tp2577
sba(iModules.cell
Cell
p2578
(dp2579
g4
I00
sg343
I00
sg7
(I01
I01
tp2580
sba(iModules.cell
Cell
p2581
(dp2582
g4
I00
sg343
I00
sg7
(I01
I01
tp2583
sba(iModules.cell
Cell
p2584
(dp2585
g4
I00
sg343
I00
sg7
(I01
I01
tp2586
sba(iModules.cell
Cell
p2587
(dp2588
g4
I00
sg343
I00
sg7
(I01
I01
tp2589
sba(iModules.cell
Cell
p2590
(dp2591
g4
I00
sg343
I00
sg7
(I01
I01
tp2592
sba(iModules.cell
Cell
p2593
(dp2594
g4
I00
sg343
I00
sg7
(I01
I01
tp2595
sba(iModules.cell
Cell
p2596
(dp2597
g4
I00
sg343
I00
sg7
(I01
I01
tp2598
sba(iModules.cell
Cell
p2599
(dp2600
g4
I00
sg343
I00
sg7
(I01
I01
tp2601
sba(iModules.cell
Cell
p2602
(dp2603
g4
I00
sg343
I00
sg7
(I01
I01
tp2604
sba(iModules.cell
Cell
p2605
(dp2606
g4
I00
sg343
I00
sg7
(I01
I01
tp2607
sba(iModules.cell
Cell
p2608
(dp2609
g4
I00
sg343
I00
sg7
(I01
I01
tp2610
sba(iModules.cell
Cell
p2611
(dp2612
g4
I00
sg343
I00
sg7
(I01
I01
tp2613
sba(iModules.cell
Cell
p2614
(dp2615
g4
I00
sg343
I00
sg7
(I01
I01
tp2616
sba(iModules.cell
Cell
p2617
(dp2618
g4
I00
sg407
I00
sg7
(I01
I01
tp2619
sba(iModules.cell
Cell
p2620
(dp2621
g4
I00
sg407
I00
sg7
(I01
I01
tp2622
sba(iModules.cell
Cell
p2623
(dp2624
g4
I00
sg407
I00
sg7
(I01
I01
tp2625
sba(iModules.cell
Cell
p2626
(dp2627
g4
I00
sg407
I00
sg7
(I01
I01
tp2628
sba(iModules.cell
Cell
p2629
(dp2630
g4
I00
sg407
I00
sg7
(I01
I01
tp2631
sba(iModules.cell
Cell
p2632
(dp2633
g4
I00
sg407
I00
sg7
(I01
I01
tp2634
sba(iModules.cell
Cell
p2635
(dp2636
g4
I00
sg407
I00
sg7
(I01
I01
tp2637
sba(iModules.cell
Cell
p2638
(dp2639
g4
I00
sg407
I00
sg7
(I01
I01
tp2640
sba(iModules.cell
Cell
p2641
(dp2642
g4
I00
sg407
I00
sg7
(I01
I01
tp2643
sba(iModules.cell
Cell
p2644
(dp2645
g4
I00
sg407
I00
sg7
(I01
I01
tp2646
sba(iModules.cell
Cell
p2647
(dp2648
g4
I00
sg407
I00
sg7
(I01
I01
tp2649
sba(iModules.cell
Cell
p2650
(dp2651
g4
I00
sg407
I00
sg7
(I00
I00
tp2652
sba(iModules.cell
Cell
p2653
(dp2654
g4
I00
sg6
I00
sg7
(I00
I00
tp2655
sba(iModules.cell
Cell
p2656
(dp2657
g4
I00
sg6
I00
sg7
(I00
I00
tp2658
sba(iModules.cell
Cell
p2659
(dp2660
g4
I00
sg6
I00
sg7
(I00
I00
tp2661
sba(iModules.cell
Cell
p2662
(dp2663
g4
I00
sg6
I00
sg7
(I00
I00
tp2664
sba(iModules.cell
Cell
p2665
(dp2666
g4
I00
sg6
I00
sg7
(I00
I00
tp2667
sba(iModules.cell
Cell
p2668
(dp2669
g4
I00
sg6
I00
sg7
(I00
I00
tp2670
sba(iModules.cell
Cell
p2671
(dp2672
g4
I00
sg6
I00
sg7
(I00
I00
tp2673
sba(iModules.cell
Cell
p2674
(dp2675
g4
I00
sg6
I00
sg7
(I00
I00
tp2676
sba(iModules.cell
Cell
p2677
(dp2678
g4
I00
sg6
I00
sg7
(I00
I00
tp2679
sba(iModules.cell
Cell
p2680
(dp2681
g4
I00
sg6
I00
sg7
(I00
I00
tp2682
sba(iModules.cell
Cell
p2683
(dp2684
g4
I00
sg6
I00
sg7
(I00
I00
tp2685
sba(iModules.cell
Cell
p2686
(dp2687
g4
I00
sg6
I00
sg7
(I00
I00
tp2688
sba(iModules.cell
Cell
p2689
(dp2690
g4
I00
sg6
I00
sg7
(I00
I00
tp2691
sba(iModules.cell
Cell
p2692
(dp2693
g4
I00
sg6
I00
sg7
(I00
I00
tp2694
sba(iModules.cell
Cell
p2695
(dp2696
g4
I00
sg6
I00
sg7
(I00
I00
tp2697
sba(iModules.cell
Cell
p2698
(dp2699
g4
I00
sg6
I00
sg7
(I00
I00
tp2700
sba(iModules.cell
Cell
p2701
(dp2702
g4
I00
sg6
I00
sg7
(I00
I00
tp2703
sba(iModules.cell
Cell
p2704
(dp2705
g4
I00
sg6
I00
sg7
(I00
I00
tp2706
sba(iModules.cell
Cell
p2707
(dp2708
g7
(I00
I00
tp2709
sbaa(lp2710
(iModules.cell
Cell
p2711
(dp2712
g4
I00
sg6
I00
sg7
(I00
I00
tp2713
sba(iModules.cell
Cell
p2714
(dp2715
g4
I00
sg257
I00
sg7
(I00
I00
tp2716
sba(iModules.cell
Cell
p2717
(dp2718
g4
I00
sg257
I00
sg7
(I01
I01
tp2719
sba(iModules.cell
Cell
p2720
(dp2721
g4
I00
sg257
I00
sg7
(I01
I01
tp2722
sba(iModules.cell
Cell
p2723
(dp2724
g4
I00
sg257
I00
sg7
(I00
I00
I00
tp2725
sba(iModules.cell
Cell
p2726
(dp2727
g4
I00
sg257
I00
sg7
(I01
I01
tp2728
sba(iModules.cell
Cell
p2729
(dp2730
g4
I00
sg257
I00
sg7
(I00
I00
I00
tp2731
sba(iModules.cell
Cell
p2732
(dp2733
g4
I00
sg257
I00
sg7
(I01
I01
tp2734
sba(iModules.cell
Cell
p2735
(dp2736
g4
I00
sg257
I00
sg7
(I01
I01
tp2737
sba(iModules.cell
Cell
p2738
(dp2739
g4
I00
sg257
I00
sg7
(I01
I01
tp2740
sba(iModules.cell
Cell
p2741
(dp2742
g4
I00
sg257
I00
sg7
(I00
I00
I00
tp2743
sba(iModules.cell
Cell
p2744
(dp2745
g4
I00
sg257
I00
sg7
(I01
I01
tp2746
sba(iModules.cell
Cell
p2747
(dp2748
g4
I00
sg257
I00
sg7
(I00
I00
I00
tp2749
sba(iModules.cell
Cell
p2750
(dp2751
g4
I00
sg257
I00
sg7
(I00
I00
I00
tp2752
sba(iModules.cell
Cell
p2753
(dp2754
g4
I00
sg257
I00
sg7
(I00
I00
I00
tp2755
sba(iModules.cell
Cell
p2756
(dp2757
g4
I00
sg300
I00
sg7
(I00
I00
I00
tp2758
sba(iModules.cell
Cell
p2759
(dp2760
g4
I00
sg300
I00
sg7
(I00
I00
I00
tp2761
sba(iModules.cell
Cell
p2762
(dp2763
g4
I00
sg300
I00
sg7
(I00
I00
I00
tp2764
sba(iModules.cell
Cell
p2765
(dp2766
g4
I00
sg300
I00
sg7
(I01
I01
tp2767
sba(iModules.cell
Cell
p2768
(dp2769
g4
I00
sg300
I00
sg7
(I01
I01
tp2770
sba(iModules.cell
Cell
p2771
(dp2772
g4
I00
sg300
I00
sg7
(I01
I01
tp2773
sba(iModules.cell
Cell
p2774
(dp2775
g4
I00
sg300
I00
sg7
(I00
I00
I00
tp2776
sba(iModules.cell
Cell
p2777
(dp2778
g4
I00
sg300
I00
sg7
(I01
I01
tp2779
sba(iModules.cell
Cell
p2780
(dp2781
g4
I00
sg300
I00
sg7
(I01
I01
tp2782
sba(iModules.cell
Cell
p2783
(dp2784
g4
I00
sg300
I00
sg7
(I01
I01
tp2785
sba(iModules.cell
Cell
p2786
(dp2787
g4
I00
sg300
I00
sg7
(I01
I01
tp2788
sba(iModules.cell
Cell
p2789
(dp2790
g4
I00
sg300
I00
sg7
(I00
I00
I00
tp2791
sba(iModules.cell
Cell
p2792
(dp2793
g4
I00
sg300
I00
sg7
(I01
I01
tp2794
sba(iModules.cell
Cell
p2795
(dp2796
g4
I00
sg300
I00
sg7
(I00
I00
I00
tp2797
sba(iModules.cell
Cell
p2798
(dp2799
g4
I00
sg343
I00
sg7
(I01
I01
tp2800
sba(iModules.cell
Cell
p2801
(dp2802
g4
I00
sg343
I00
sg7
(I01
I01
tp2803
sba(iModules.cell
Cell
p2804
(dp2805
g4
I00
sg343
I00
sg7
(I01
I01
tp2806
sba(iModules.cell
Cell
p2807
(dp2808
g4
I00
sg343
I00
sg7
(I01
I01
tp2809
sba(iModules.cell
Cell
p2810
(dp2811
g4
I00
sg343
I00
sg7
(I01
I01
tp2812
sba(iModules.cell
Cell
p2813
(dp2814
g4
I00
sg343
I00
sg7
(I01
I01
tp2815
sba(iModules.cell
Cell
p2816
(dp2817
g4
I00
sg343
I00
sg7
(I01
I01
tp2818
sba(iModules.cell
Cell
p2819
(dp2820
g4
I00
sg343
I00
sg7
(I01
I01
tp2821
sba(iModules.cell
Cell
p2822
(dp2823
g4
I00
sg343
I00
sg7
(I01
I01
tp2824
sba(iModules.cell
Cell
p2825
(dp2826
g4
I00
sg343
I00
sg7
(I01
I01
tp2827
sba(iModules.cell
Cell
p2828
(dp2829
g4
I00
sg343
I00
sg7
(I01
I01
tp2830
sba(iModules.cell
Cell
p2831
(dp2832
g4
I00
sg343
I00
sg7
(I01
I01
tp2833
sba(iModules.cell
Cell
p2834
(dp2835
g4
I00
sg343
I00
sg7
(I01
I01
tp2836
sba(iModules.cell
Cell
p2837
(dp2838
g4
I00
sg343
I00
sg7
(I01
I01
tp2839
sba(iModules.cell
Cell
p2840
(dp2841
g4
I00
sg343
I00
sg7
(I01
I01
tp2842
sba(iModules.cell
Cell
p2843
(dp2844
g4
I00
sg343
I00
sg7
(I01
I01
tp2845
sba(iModules.cell
Cell
p2846
(dp2847
g4
I00
sg343
I00
sg7
(I01
I01
tp2848
sba(iModules.cell
Cell
p2849
(dp2850
g4
I00
sg343
I00
sg7
(I01
I01
tp2851
sba(iModules.cell
Cell
p2852
(dp2853
g4
I00
sg343
I00
sg7
(I01
I01
tp2854
sba(iModules.cell
Cell
p2855
(dp2856
g4
I00
sg343
I00
sg7
(I01
I01
tp2857
sba(iModules.cell
Cell
p2858
(dp2859
g4
I00
sg343
I00
sg7
(I01
I01
tp2860
sba(iModules.cell
Cell
p2861
(dp2862
g4
I00
sg407
I00
sg7
(I01
I01
tp2863
sba(iModules.cell
Cell
p2864
(dp2865
g4
I00
sg407
I00
sg7
(I01
I01
tp2866
sba(iModules.cell
Cell
p2867
(dp2868
g4
I00
sg407
I00
sg7
(I01
I01
tp2869
sba(iModules.cell
Cell
p2870
(dp2871
g4
I00
sg407
I00
sg7
(I01
I01
tp2872
sba(iModules.cell
Cell
p2873
(dp2874
g4
I00
sg407
I00
sg7
(I01
I01
tp2875
sba(iModules.cell
Cell
p2876
(dp2877
g4
I00
sg407
I00
sg7
(I01
I01
tp2878
sba(iModules.cell
Cell
p2879
(dp2880
g4
I00
sg407
I00
sg7
(I01
I01
tp2881
sba(iModules.cell
Cell
p2882
(dp2883
g4
I00
sg407
I00
sg7
(I01
I01
tp2884
sba(iModules.cell
Cell
p2885
(dp2886
g4
I00
sg407
I00
sg7
(I01
I01
tp2887
sba(iModules.cell
Cell
p2888
(dp2889
g4
I00
sg407
I00
sg7
(I01
I01
tp2890
sba(iModules.cell
Cell
p2891
(dp2892
g4
I00
sg407
I00
sg7
(I01
I01
tp2893
sba(iModules.cell
Cell
p2894
(dp2895
g4
I00
sg407
I00
sg7
(I00
I00
tp2896
sba(iModules.cell
Cell
p2897
(dp2898
g4
I00
sg6
I00
sg7
(I00
I00
tp2899
sba(iModules.cell
Cell
p2900
(dp2901
g4
I00
sg6
I00
sg7
(I00
I00
tp2902
sba(iModules.cell
Cell
p2903
(dp2904
g4
I00
sg6
I00
sg7
(I00
I00
tp2905
sba(iModules.cell
Cell
p2906
(dp2907
g4
I00
sg6
I00
sg7
(I00
I00
tp2908
sba(iModules.cell
Cell
p2909
(dp2910
g4
I00
sg6
I00
sg7
(I00
I00
tp2911
sba(iModules.cell
Cell
p2912
(dp2913
g4
I00
sg6
I00
sg7
(I00
I00
tp2914
sba(iModules.cell
Cell
p2915
(dp2916
g4
I00
sg6
I00
sg7
(I00
I00
tp2917
sba(iModules.cell
Cell
p2918
(dp2919
g4
I00
sg6
I00
sg7
(I00
I00
tp2920
sba(iModules.cell
Cell
p2921
(dp2922
g4
I00
sg6
I00
sg7
(I00
I00
tp2923
sba(iModules.cell
Cell
p2924
(dp2925
g4
I00
sg6
I00
sg7
(I00
I00
tp2926
sba(iModules.cell
Cell
p2927
(dp2928
g4
I00
sg6
I00
sg7
(I00
I00
tp2929
sba(iModules.cell
Cell
p2930
(dp2931
g4
I00
sg6
I00
sg7
(I00
I00
tp2932
sba(iModules.cell
Cell
p2933
(dp2934
g4
I00
sg6
I00
sg7
(I00
I00
tp2935
sba(iModules.cell
Cell
p2936
(dp2937
g4
I00
sg6
I00
sg7
(I00
I00
tp2938
sba(iModules.cell
Cell
p2939
(dp2940
g4
I00
sg6
I00
sg7
(I00
I00
tp2941
sba(iModules.cell
Cell
p2942
(dp2943
g4
I00
sg6
I00
sg7
(I00
I00
tp2944
sba(iModules.cell
Cell
p2945
(dp2946
g4
I00
sg6
I00
sg7
(I00
I00
tp2947
sba(iModules.cell
Cell
p2948
(dp2949
g4
I00
sg6
I00
sg7
(I00
I00
tp2950
sba(iModules.cell
Cell
p2951
(dp2952
g7
(I00
I00
tp2953
sbaa(lp2954
(iModules.cell
Cell
p2955
(dp2956
g4
I00
sg6
I00
sg7
(I00
I00
tp2957
sba(iModules.cell
Cell
p2958
(dp2959
g4
I00
sg257
I00
sg7
(I00
I00
tp2960
sba(iModules.cell
Cell
p2961
(dp2962
g4
I00
sg257
I00
sg7
(I01
I01
tp2963
sba(iModules.cell
Cell
p2964
(dp2965
g4
I00
sg257
I00
sg7
(I01
I01
tp2966
sba(iModules.cell
Cell
p2967
(dp2968
g4
I00
sg257
I00
sg7
(I00
I00
I00
tp2969
sba(iModules.cell
Cell
p2970
(dp2971
g4
I00
sg257
I00
sg7
(I01
I01
tp2972
sba(iModules.cell
Cell
p2973
(dp2974
g4
I00
sg257
I00
sg7
(I00
I00
I00
tp2975
sba(iModules.cell
Cell
p2976
(dp2977
g4
I00
sg257
I00
sg7
(I00
I00
I00
tp2978
sba(iModules.cell
Cell
p2979
(dp2980
g4
I00
sg257
I00
sg7
(I00
I00
I00
tp2981
sba(iModules.cell
Cell
p2982
(dp2983
g4
I00
sg257
I00
sg7
(I00
I00
I00
tp2984
sba(iModules.cell
Cell
p2985
(dp2986
g4
I00
sg257
I00
sg7
(I00
I00
I00
tp2987
sba(iModules.cell
Cell
p2988
(dp2989
g4
I00
sg257
I00
sg7
(I01
I01
tp2990
sba(iModules.cell
Cell
p2991
(dp2992
g4
I00
sg257
I00
sg7
(I00
I00
I00
tp2993
sba(iModules.cell
Cell
p2994
(dp2995
g4
I00
sg257
I00
sg7
(I01
I01
tp2996
sba(iModules.cell
Cell
p2997
(dp2998
g4
I00
sg257
I00
sg7
(I01
I01
tp2999
sba(iModules.cell
Cell
p3000
(dp3001
g4
I00
sg300
I00
sg7
(I01
I01
tp3002
sba(iModules.cell
Cell
p3003
(dp3004
g4
I00
sg300
I00
sg7
(I01
I01
tp3005
sba(iModules.cell
Cell
p3006
(dp3007
g4
I00
sg300
I00
sg7
(I01
I01
tp3008
sba(iModules.cell
Cell
p3009
(dp3010
g4
I00
sg300
I00
sg7
(I01
I01
tp3011
sba(iModules.cell
Cell
p3012
(dp3013
g4
I00
sg300
I00
sg7
(I00
I00
I00
tp3014
sba(iModules.cell
Cell
p3015
(dp3016
g4
I00
sg300
I00
sg7
(I00
I00
I00
tp3017
sba(iModules.cell
Cell
p3018
(dp3019
g4
I00
sg300
I00
sg7
(I00
I00
I00
tp3020
sba(iModules.cell
Cell
p3021
(dp3022
g4
I00
sg300
I00
sg7
(I00
I00
I00
tp3023
sba(iModules.cell
Cell
p3024
(dp3025
g4
I00
sg300
I00
sg7
(I01
I01
tp3026
sba(iModules.cell
Cell
p3027
(dp3028
g4
I00
sg300
I00
sg7
(I00
I00
I00
tp3029
sba(iModules.cell
Cell
p3030
(dp3031
g4
I00
sg300
I00
sg7
(I00
I00
I00
tp3032
sba(iModules.cell
Cell
p3033
(dp3034
g4
I00
sg300
I00
sg7
(I00
I00
I00
tp3035
sba(iModules.cell
Cell
p3036
(dp3037
g4
I00
sg300
I00
sg7
(I01
I01
tp3038
sba(iModules.cell
Cell
p3039
(dp3040
g4
I00
sg300
I00
sg7
(I00
I00
I00
tp3041
sba(iModules.cell
Cell
p3042
(dp3043
g4
I00
sg343
I00
sg7
(I01
I01
tp3044
sba(iModules.cell
Cell
p3045
(dp3046
g4
I00
sg343
I00
sg7
(I01
I01
tp3047
sba(iModules.cell
Cell
p3048
(dp3049
g4
I00
sg343
I00
sg7
(I01
I01
tp3050
sba(iModules.cell
Cell
p3051
(dp3052
g4
I00
sg343
I00
sg7
(I01
I01
tp3053
sba(iModules.cell
Cell
p3054
(dp3055
g4
I00
sg343
I00
sg7
(I01
I01
tp3056
sba(iModules.cell
Cell
p3057
(dp3058
g4
I00
sg343
I00
sg7
(I01
I01
tp3059
sba(iModules.cell
Cell
p3060
(dp3061
g4
I00
sg343
I00
sg7
(I01
I01
tp3062
sba(iModules.cell
Cell
p3063
(dp3064
g4
I00
sg343
I00
sg7
(I01
I01
tp3065
sba(iModules.cell
Cell
p3066
(dp3067
g4
I00
sg343
I00
sg7
(I01
I01
tp3068
sba(iModules.cell
Cell
p3069
(dp3070
g4
I00
sg343
I00
sg7
(I01
I01
tp3071
sba(iModules.cell
Cell
p3072
(dp3073
g4
I00
sg343
I00
sg7
(I01
I01
tp3074
sba(iModules.cell
Cell
p3075
(dp3076
g4
I00
sg343
I00
sg7
(I01
I01
tp3077
sba(iModules.cell
Cell
p3078
(dp3079
g4
I00
sg343
I00
sg7
(I01
I01
tp3080
sba(iModules.cell
Cell
p3081
(dp3082
g4
I00
sg343
I00
sg7
(I01
I01
tp3083
sba(iModules.cell
Cell
p3084
(dp3085
g4
I00
sg343
I00
sg7
(I01
I01
tp3086
sba(iModules.cell
Cell
p3087
(dp3088
g4
I00
sg343
I00
sg7
(I01
I01
tp3089
sba(iModules.cell
Cell
p3090
(dp3091
g4
I00
sg343
I00
sg7
(I01
I01
tp3092
sba(iModules.cell
Cell
p3093
(dp3094
g4
I00
sg343
I00
sg7
(I01
I01
tp3095
sba(iModules.cell
Cell
p3096
(dp3097
g4
I00
sg343
I00
sg7
(I01
I01
tp3098
sba(iModules.cell
Cell
p3099
(dp3100
g4
I00
sg343
I00
sg7
(I01
I01
tp3101
sba(iModules.cell
Cell
p3102
(dp3103
g4
I00
sg343
I00
sg7
(I01
I01
tp3104
sba(iModules.cell
Cell
p3105
(dp3106
g4
I00
sg407
I00
sg7
(I01
I01
tp3107
sba(iModules.cell
Cell
p3108
(dp3109
g4
I00
sg407
I00
sg7
(I01
I01
tp3110
sba(iModules.cell
Cell
p3111
(dp3112
g4
I00
sg407
I00
sg7
(I01
I01
tp3113
sba(iModules.cell
Cell
p3114
(dp3115
g4
I00
sg407
I00
sg7
(I01
I01
tp3116
sba(iModules.cell
Cell
p3117
(dp3118
g4
I00
sg407
I00
sg7
(I01
I01
tp3119
sba(iModules.cell
Cell
p3120
(dp3121
g4
I00
sg407
I00
sg7
(I01
I01
tp3122
sba(iModules.cell
Cell
p3123
(dp3124
g4
I00
sg407
I00
sg7
(I01
I01
tp3125
sba(iModules.cell
Cell
p3126
(dp3127
g4
I00
sg407
I00
sg7
(I01
I01
tp3128
sba(iModules.cell
Cell
p3129
(dp3130
g4
I00
sg407
I00
sg7
(I01
I01
tp3131
sba(iModules.cell
Cell
p3132
(dp3133
g4
I00
sg407
I00
sg7
(I01
I01
tp3134
sba(iModules.cell
Cell
p3135
(dp3136
g4
I00
sg407
I00
sg7
(I01
I01
tp3137
sba(iModules.cell
Cell
p3138
(dp3139
g4
I00
sg407
I00
sg7
(I00
I00
tp3140
sba(iModules.cell
Cell
p3141
(dp3142
g4
I00
sg6
I00
sg7
(I00
I00
tp3143
sba(iModules.cell
Cell
p3144
(dp3145
g4
I00
sg6
I00
sg7
(I00
I00
tp3146
sba(iModules.cell
Cell
p3147
(dp3148
g4
I00
sg6
I00
sg7
(I00
I00
tp3149
sba(iModules.cell
Cell
p3150
(dp3151
g4
I00
sg6
I00
sg7
(I00
I00
tp3152
sba(iModules.cell
Cell
p3153
(dp3154
g4
I00
sg6
I00
sg7
(I00
I00
tp3155
sba(iModules.cell
Cell
p3156
(dp3157
g4
I00
sg6
I00
sg7
(I00
I00
tp3158
sba(iModules.cell
Cell
p3159
(dp3160
g4
I00
sg6
I00
sg7
(I00
I00
tp3161
sba(iModules.cell
Cell
p3162
(dp3163
g4
I00
sg6
I00
sg7
(I00
I00
tp3164
sba(iModules.cell
Cell
p3165
(dp3166
g4
I00
sg6
I00
sg7
(I00
I00
tp3167
sba(iModules.cell
Cell
p3168
(dp3169
g4
I00
sg6
I00
sg7
(I00
I00
tp3170
sba(iModules.cell
Cell
p3171
(dp3172
g4
I00
sg6
I00
sg7
(I00
I00
tp3173
sba(iModules.cell
Cell
p3174
(dp3175
g4
I00
sg6
I00
sg7
(I00
I00
tp3176
sba(iModules.cell
Cell
p3177
(dp3178
g4
I00
sg6
I00
sg7
(I00
I00
tp3179
sba(iModules.cell
Cell
p3180
(dp3181
g4
I00
sg6
I00
sg7
(I00
I00
tp3182
sba(iModules.cell
Cell
p3183
(dp3184
g4
I00
sg6
I00
sg7
(I00
I00
tp3185
sba(iModules.cell
Cell
p3186
(dp3187
g4
I00
sg6
I00
sg7
(I00
I00
tp3188
sba(iModules.cell
Cell
p3189
(dp3190
g4
I00
sg6
I00
sg7
(I00
I00
tp3191
sba(iModules.cell
Cell
p3192
(dp3193
g4
I00
sg6
I00
sg7
(I00
I00
tp3194
sba(iModules.cell
Cell
p3195
(dp3196
g7
(I00
I00
tp3197
sbaa(lp3198
(iModules.cell
Cell
p3199
(dp3200
g4
I00
sg6
I00
sg7
(I00
I00
tp3201
sba(iModules.cell
Cell
p3202
(dp3203
g4
I00
sg257
I00
sg7
(I00
I00
tp3204
sba(iModules.cell
Cell
p3205
(dp3206
g4
I00
sg257
I00
sg7
(I01
I01
tp3207
sba(iModules.cell
Cell
p3208
(dp3209
g4
I00
sg257
I00
sg7
(I01
I01
tp3210
sba(iModules.cell
Cell
p3211
(dp3212
g4
I00
sg257
I00
sg7
(I00
I00
I00
tp3213
sba(iModules.cell
Cell
p3214
(dp3215
g4
I00
sg257
I00
sg7
(I01
I01
tp3216
sba(iModules.cell
Cell
p3217
(dp3218
g4
I00
sg257
I00
sg7
(I01
I01
tp3219
sba(iModules.cell
Cell
p3220
(dp3221
g4
I00
sg257
I00
sg7
(I01
I01
tp3222
sba(iModules.cell
Cell
p3223
(dp3224
g4
I00
sg257
I00
sg7
(I01
I01
tp3225
sba(iModules.cell
Cell
p3226
(dp3227
g4
I00
sg257
I00
sg7
(I01
I01
tp3228
sba(iModules.cell
Cell
p3229
(dp3230
g4
I00
sg257
I00
sg7
(I01
I01
tp3231
sba(iModules.cell
Cell
p3232
(dp3233
S'visible'
p3234
I00
sS'explored'
p3235
I00
sS'type'
p3236
(I01
I01
tp3237
sba(iModules.cell
Cell
p3238
(dp3239
g3234
I00
sg3235
I00
sg3236
(I00
I00
I00
tp3240
sba(iModules.cell
Cell
p3241
(dp3242
g3234
I00
sg3235
I00
sg3236
(I01
I01
tp3243
sba(iModules.cell
Cell
p3244
(dp3245
g4
I00
sg257
I00
sg7
(I01
I01
tp3246
sba(iModules.cell
Cell
p3247
(dp3248
g4
I00
sg300
I00
sg7
(I01
I01
tp3249
sba(iModules.cell
Cell
p3250
(dp3251
g4
I00
sg300
I00
sg7
(I01
I01
tp3252
sba(iModules.cell
Cell
p3253
(dp3254
g4
I00
sg300
I00
sg7
(I01
I01
tp3255
sba(iModules.cell
Cell
p3256
(dp3257
g4
I00
sg300
I00
sg7
(I01
I01
tp3258
sba(iModules.cell
Cell
p3259
(dp3260
g4
I00
sg300
I00
sg7
(I01
I01
tp3261
sba(iModules.cell
Cell
p3262
(dp3263
g4
I00
sg300
I00
sg7
(I01
I01
tp3264
sba(iModules.cell
Cell
p3265
(dp3266
g4
I00
sg300
I00
sg7
(I01
I01
tp3267
sba(iModules.cell
Cell
p3268
(dp3269
g4
I00
sg300
I00
sg7
(I00
I00
I00
tp3270
sba(iModules.cell
Cell
p3271
(dp3272
g4
I00
sg300
I00
sg7
(I00
I00
I00
tp3273
sba(iModules.cell
Cell
p3274
(dp3275
g4
I00
sg300
I00
sg7
(I00
I00
I00
tp3276
sba(iModules.cell
Cell
p3277
(dp3278
g4
I00
sg300
I00
sg7
(I01
I01
tp3279
sba(iModules.cell
Cell
p3280
(dp3281
g4
I00
sg300
I00
sg7
(I01
I01
tp3282
sba(iModules.cell
Cell
p3283
(dp3284
g4
I00
sg300
I00
sg7
(I01
I01
tp3285
sba(iModules.cell
Cell
p3286
(dp3287
g4
I00
sg300
I00
sg7
(I00
I00
I00
tp3288
sba(iModules.cell
Cell
p3289
(dp3290
g4
I00
sg343
I00
sg7
(I01
I01
tp3291
sba(iModules.cell
Cell
p3292
(dp3293
g4
I00
sg343
I00
sg7
(I01
I01
tp3294
sba(iModules.cell
Cell
p3295
(dp3296
g4
I00
sg343
I00
sg7
(I01
I01
tp3297
sba(iModules.cell
Cell
p3298
(dp3299
g4
I00
sg343
I00
sg7
(I01
I01
tp3300
sba(iModules.cell
Cell
p3301
(dp3302
g4
I00
sg343
I00
sg7
(I01
I01
tp3303
sba(iModules.cell
Cell
p3304
(dp3305
g4
I00
sg343
I00
sg7
(I01
I01
tp3306
sba(iModules.cell
Cell
p3307
(dp3308
g4
I00
sg343
I00
sg7
(I01
I01
tp3309
sba(iModules.cell
Cell
p3310
(dp3311
g4
I00
sg343
I00
sg7
(I01
I01
tp3312
sba(iModules.cell
Cell
p3313
(dp3314
g4
I00
sg343
I00
sg7
(I01
I01
tp3315
sba(iModules.cell
Cell
p3316
(dp3317
g4
I00
sg343
I00
sg7
(I01
I01
tp3318
sba(iModules.cell
Cell
p3319
(dp3320
g4
I00
sg343
I00
sg7
(I01
I01
tp3321
sba(iModules.cell
Cell
p3322
(dp3323
g4
I00
sg343
I00
sg7
(I01
I01
tp3324
sba(iModules.cell
Cell
p3325
(dp3326
g4
I00
sg343
I00
sg7
(I01
I01
tp3327
sba(iModules.cell
Cell
p3328
(dp3329
g4
I00
sg343
I00
sg7
(I01
I01
tp3330
sba(iModules.cell
Cell
p3331
(dp3332
g4
I00
sg343
I00
sg7
(I01
I01
tp3333
sba(iModules.cell
Cell
p3334
(dp3335
g4
I00
sg343
I00
sg7
(I01
I01
tp3336
sba(iModules.cell
Cell
p3337
(dp3338
g4
I00
sg343
I00
sg7
(I01
I01
tp3339
sba(iModules.cell
Cell
p3340
(dp3341
g4
I00
sg343
I00
sg7
(I01
I01
tp3342
sba(iModules.cell
Cell
p3343
(dp3344
g4
I00
sg343
I00
sg7
(I01
I01
tp3345
sba(iModules.cell
Cell
p3346
(dp3347
g4
I00
sg343
I00
sg7
(I01
I01
tp3348
sba(iModules.cell
Cell
p3349
(dp3350
g4
I00
sg343
I00
sg7
(I01
I01
tp3351
sba(iModules.cell
Cell
p3352
(dp3353
g4
I00
sg407
I00
sg7
(I01
I01
tp3354
sba(iModules.cell
Cell
p3355
(dp3356
g4
I00
sg407
I00
sg7
(I01
I01
tp3357
sba(iModules.cell
Cell
p3358
(dp3359
g4
I00
sg407
I00
sg7
(I01
I01
tp3360
sba(iModules.cell
Cell
p3361
(dp3362
g4
I00
sg407
I00
sg7
(I01
I01
tp3363
sba(iModules.cell
Cell
p3364
(dp3365
g4
I00
sg407
I00
sg7
(I01
I01
tp3366
sba(iModules.cell
Cell
p3367
(dp3368
g4
I00
sg407
I00
sg7
(I01
I01
tp3369
sba(iModules.cell
Cell
p3370
(dp3371
g4
I00
sg407
I00
sg7
(I01
I01
tp3372
sba(iModules.cell
Cell
p3373
(dp3374
g4
I00
sg407
I00
sg7
(I01
I01
tp3375
sba(iModules.cell
Cell
p3376
(dp3377
g4
I00
sg407
I00
sg7
(I01
I01
tp3378
sba(iModules.cell
Cell
p3379
(dp3380
g4
I00
sg407
I00
sg7
(I01
I01
tp3381
sba(iModules.cell
Cell
p3382
(dp3383
g4
I00
sg407
I00
sg7
(I01
I01
tp3384
sba(iModules.cell
Cell
p3385
(dp3386
g4
I00
sg407
I00
sg7
(I00
I00
tp3387
sba(iModules.cell
Cell
p3388
(dp3389
g4
I00
sg6
I00
sg7
(I00
I00
tp3390
sba(iModules.cell
Cell
p3391
(dp3392
g4
I00
sg6
I00
sg7
(I00
I00
tp3393
sba(iModules.cell
Cell
p3394
(dp3395
g4
I00
sg6
I00
sg7
(I00
I00
tp3396
sba(iModules.cell
Cell
p3397
(dp3398
g4
I00
sg6
I00
sg7
(I00
I00
tp3399
sba(iModules.cell
Cell
p3400
(dp3401
g4
I00
sg6
I00
sg7
(I00
I00
tp3402
sba(iModules.cell
Cell
p3403
(dp3404
g4
I00
sg6
I00
sg7
(I00
I00
tp3405
sba(iModules.cell
Cell
p3406
(dp3407
g4
I00
sg6
I00
sg7
(I00
I00
tp3408
sba(iModules.cell
Cell
p3409
(dp3410
g4
I00
sg6
I00
sg7
(I00
I00
tp3411
sba(iModules.cell
Cell
p3412
(dp3413
g4
I00
sg6
I00
sg7
(I00
I00
tp3414
sba(iModules.cell
Cell
p3415
(dp3416
g4
I00
sg6
I00
sg7
(I00
I00
tp3417
sba(iModules.cell
Cell
p3418
(dp3419
g4
I00
sg6
I00
sg7
(I00
I00
tp3420
sba(iModules.cell
Cell
p3421
(dp3422
g4
I00
sg6
I00
sg7
(I00
I00
tp3423
sba(iModules.cell
Cell
p3424
(dp3425
g4
I00
sg6
I00
sg7
(I00
I00
tp3426
sba(iModules.cell
Cell
p3427
(dp3428
g4
I00
sg6
I00
sg7
(I00
I00
tp3429
sba(iModules.cell
Cell
p3430
(dp3431
g4
I00
sg6
I00
sg7
(I00
I00
tp3432
sba(iModules.cell
Cell
p3433
(dp3434
g4
I00
sg6
I00
sg7
(I00
I00
tp3435
sba(iModules.cell
Cell
p3436
(dp3437
g4
I00
sg6
I00
sg7
(I00
I00
tp3438
sba(iModules.cell
Cell
p3439
(dp3440
g4
I00
sg6
I00
sg7
(I00
I00
tp3441
sba(iModules.cell
Cell
p3442
(dp3443
g7
(I00
I00
tp3444
sbaa(lp3445
(iModules.cell
Cell
p3446
(dp3447
g4
I00
sg6
I00
sg7
(I00
I00
tp3448
sba(iModules.cell
Cell
p3449
(dp3450
g4
I00
sg257
I00
sg7
(I00
I00
tp3451
sba(iModules.cell
Cell
p3452
(dp3453
g4
I00
sg257
I00
sg7
(I01
I01
tp3454
sba(iModules.cell
Cell
p3455
(dp3456
g4
I00
sg257
I00
sg7
(I01
I01
tp3457
sba(iModules.cell
Cell
p3458
(dp3459
g4
I00
sg257
I00
sg7
(I00
I00
I00
tp3460
sba(iModules.cell
Cell
p3461
(dp3462
g4
I00
sg257
I00
sg7
(I00
I00
I00
tp3463
sba(iModules.cell
Cell
p3464
(dp3465
g4
I00
sg257
I00
sg7
(I00
I00
I00
tp3466
sba(iModules.cell
Cell
p3467
(dp3468
g4
I00
sg257
I00
sg7
(I00
I00
I00
tp3469
sba(iModules.cell
Cell
p3470
(dp3471
g4
I00
sg257
I00
sg7
(I00
I00
I00
tp3472
sba(iModules.cell
Cell
p3473
(dp3474
g4
I00
sg257
I00
sg7
(I00
I00
I00
tp3475
sba(iModules.cell
Cell
p3476
(dp3477
g4
I00
sg257
I00
sg7
(I00
I00
I00
tp3478
sba(iModules.cell
Cell
p3479
(dp3480
g3234
I00
sg3235
I00
sg3236
(I01
I01
tp3481
sba(iModules.cell
Cell
p3482
(dp3483
g3234
I00
sg3235
I00
sg3236
(I00
I00
I00
tp3484
sba(iModules.cell
Cell
p3485
(dp3486
g3234
I00
sg3235
I00
sg3236
(I01
I01
tp3487
sba(iModules.cell
Cell
p3488
(dp3489
g4
I00
sg257
I00
sg7
(I01
I01
tp3490
sba(iModules.cell
Cell
p3491
(dp3492
g4
I00
sg300
I00
sg7
(I01
I01
tp3493
sba(iModules.cell
Cell
p3494
(dp3495
g4
I00
sg300
I00
sg7
(I01
I01
tp3496
sba(iModules.cell
Cell
p3497
(dp3498
g4
I00
sg300
I00
sg7
(I01
I01
tp3499
sba(iModules.cell
Cell
p3500
(dp3501
g4
I00
sg300
I00
sg7
(I01
I01
tp3502
sba(iModules.cell
Cell
p3503
(dp3504
g4
I00
sg300
I00
sg7
(I01
I01
tp3505
sba(iModules.cell
Cell
p3506
(dp3507
g2228
I00
sg2523
I00
sg2524
(I01
I01
tp3508
sba(iModules.cell
Cell
p3509
(dp3510
g4
I00
sg300
I00
sg7
(I01
I01
tp3511
sba(iModules.cell
Cell
p3512
(dp3513
S'visible'
p3514
I00
sS'explored'
p3515
I00
sS'type'
p3516
(I01
I01
tp3517
sba(iModules.cell
Cell
p3518
(dp3519
g4
I00
sg300
I00
sg7
(I01
I01
tp3520
sba(iModules.cell
Cell
p3521
(dp3522
g4
I00
sg300
I00
sg7
(I01
I01
tp3523
sba(iModules.cell
Cell
p3524
(dp3525
g4
I00
sg300
I00
sg7
(I01
I01
tp3526
sba(iModules.cell
Cell
p3527
(dp3528
g4
I00
sg300
I00
sg7
(I00
I00
I00
tp3529
sba(iModules.cell
Cell
p3530
(dp3531
g4
I00
sg300
I00
sg7
(I00
I00
I00
tp3532
sba(iModules.cell
Cell
p3533
(dp3534
g4
I00
sg300
I00
sg7
(I00
I00
I00
tp3535
sba(iModules.cell
Cell
p3536
(dp3537
g4
I00
sg343
I00
sg7
(I01
I01
tp3538
sba(iModules.cell
Cell
p3539
(dp3540
g4
I00
sg343
I00
sg7
(I01
I01
tp3541
sba(iModules.cell
Cell
p3542
(dp3543
g4
I00
sg343
I00
sg7
(I01
I01
tp3544
sba(iModules.cell
Cell
p3545
(dp3546
g4
I00
sg343
I00
sg7
(I01
I01
tp3547
sba(iModules.cell
Cell
p3548
(dp3549
g4
I00
sg343
I00
sg7
(I01
I01
tp3550
sba(iModules.cell
Cell
p3551
(dp3552
g4
I00
sg343
I00
sg7
(I01
I01
tp3553
sba(iModules.cell
Cell
p3554
(dp3555
g4
I00
sg343
I00
sg7
(I01
I01
tp3556
sba(iModules.cell
Cell
p3557
(dp3558
g4
I00
sg343
I00
sg7
(I01
I01
tp3559
sba(iModules.cell
Cell
p3560
(dp3561
g4
I00
sg343
I00
sg7
(I01
I01
tp3562
sba(iModules.cell
Cell
p3563
(dp3564
g4
I00
sg343
I00
sg7
(I01
I01
tp3565
sba(iModules.cell
Cell
p3566
(dp3567
g4
I00
sg343
I00
sg7
(I01
I01
tp3568
sba(iModules.cell
Cell
p3569
(dp3570
g4
I00
sg343
I00
sg7
(I01
I01
tp3571
sba(iModules.cell
Cell
p3572
(dp3573
g4
I00
sg343
I00
sg7
(I01
I01
tp3574
sba(iModules.cell
Cell
p3575
(dp3576
g4
I00
sg343
I00
sg7
(I01
I01
tp3577
sba(iModules.cell
Cell
p3578
(dp3579
g4
I00
sg343
I00
sg7
(I01
I01
tp3580
sba(iModules.cell
Cell
p3581
(dp3582
g4
I00
sg343
I00
sg7
(I01
I01
tp3583
sba(iModules.cell
Cell
p3584
(dp3585
g4
I00
sg343
I00
sg7
(I01
I01
tp3586
sba(iModules.cell
Cell
p3587
(dp3588
g4
I00
sg343
I00
sg7
(I01
I01
tp3589
sba(iModules.cell
Cell
p3590
(dp3591
g4
I00
sg343
I00
sg7
(I01
I01
tp3592
sba(iModules.cell
Cell
p3593
(dp3594
g4
I00
sg343
I00
sg7
(I01
I01
tp3595
sba(iModules.cell
Cell
p3596
(dp3597
g4
I00
sg343
I00
sg7
(I01
I01
tp3598
sba(iModules.cell
Cell
p3599
(dp3600
g4
I00
sg407
I00
sg7
(I01
I01
tp3601
sba(iModules.cell
Cell
p3602
(dp3603
g4
I00
sg407
I00
sg7
(I01
I01
tp3604
sba(iModules.cell
Cell
p3605
(dp3606
g4
I00
sg407
I00
sg7
(I01
I01
tp3607
sba(iModules.cell
Cell
p3608
(dp3609
g4
I00
sg407
I00
sg7
(I01
I01
tp3610
sba(iModules.cell
Cell
p3611
(dp3612
g4
I00
sg407
I00
sg7
(I01
I01
tp3613
sba(iModules.cell
Cell
p3614
(dp3615
g4
I00
sg407
I00
sg7
(I01
I01
tp3616
sba(iModules.cell
Cell
p3617
(dp3618
g4
I00
sg407
I00
sg7
(I01
I01
tp3619
sba(iModules.cell
Cell
p3620
(dp3621
g4
I00
sg407
I00
sg7
(I01
I01
tp3622
sba(iModules.cell
Cell
p3623
(dp3624
g4
I00
sg407
I00
sg7
(I01
I01
tp3625
sba(iModules.cell
Cell
p3626
(dp3627
g4
I00
sg407
I00
sg7
(I01
I01
tp3628
sba(iModules.cell
Cell
p3629
(dp3630
g4
I00
sg407
I00
sg7
(I01
I01
tp3631
sba(iModules.cell
Cell
p3632
(dp3633
g4
I00
sg407
I00
sg7
(I00
I00
tp3634
sba(iModules.cell
Cell
p3635
(dp3636
g4
I00
sg6
I00
sg7
(I00
I00
tp3637
sba(iModules.cell
Cell
p3638
(dp3639
g4
I00
sg6
I00
sg7
(I00
I00
tp3640
sba(iModules.cell
Cell
p3641
(dp3642
g4
I00
sg6
I00
sg7
(I00
I00
tp3643
sba(iModules.cell
Cell
p3644
(dp3645
g4
I00
sg6
I00
sg7
(I00
I00
tp3646
sba(iModules.cell
Cell
p3647
(dp3648
g4
I00
sg6
I00
sg7
(I00
I00
tp3649
sba(iModules.cell
Cell
p3650
(dp3651
g4
I00
sg6
I00
sg7
(I00
I00
tp3652
sba(iModules.cell
Cell
p3653
(dp3654
g4
I00
sg6
I00
sg7
(I00
I00
tp3655
sba(iModules.cell
Cell
p3656
(dp3657
g4
I00
sg6
I00
sg7
(I00
I00
tp3658
sba(iModules.cell
Cell
p3659
(dp3660
g4
I00
sg6
I00
sg7
(I00
I00
tp3661
sba(iModules.cell
Cell
p3662
(dp3663
g4
I00
sg6
I00
sg7
(I00
I00
tp3664
sba(iModules.cell
Cell
p3665
(dp3666
g4
I00
sg6
I00
sg7
(I00
I00
tp3667
sba(iModules.cell
Cell
p3668
(dp3669
g4
I00
sg6
I00
sg7
(I00
I00
tp3670
sba(iModules.cell
Cell
p3671
(dp3672
g4
I00
sg6
I00
sg7
(I00
I00
tp3673
sba(iModules.cell
Cell
p3674
(dp3675
g4
I00
sg6
I00
sg7
(I00
I00
tp3676
sba(iModules.cell
Cell
p3677
(dp3678
g4
I00
sg6
I00
sg7
(I00
I00
tp3679
sba(iModules.cell
Cell
p3680
(dp3681
g4
I00
sg6
I00
sg7
(I00
I00
tp3682
sba(iModules.cell
Cell
p3683
(dp3684
g4
I00
sg6
I00
sg7
(I00
I00
tp3685
sba(iModules.cell
Cell
p3686
(dp3687
g4
I00
sg6
I00
sg7
(I00
I00
tp3688
sba(iModules.cell
Cell
p3689
(dp3690
g7
(I00
I00
tp3691
sbaa(lp3692
(iModules.cell
Cell
p3693
(dp3694
g4
I00
sg6
I00
sg7
(I00
I00
tp3695
sba(iModules.cell
Cell
p3696
(dp3697
g4
I00
sg257
I00
sg7
(I00
I00
tp3698
sba(iModules.cell
Cell
p3699
(dp3700
g4
I00
sg257
I00
sg7
(I01
I01
tp3701
sba(iModules.cell
Cell
p3702
(dp3703
g4
I00
sg257
I00
sg7
(I01
I01
tp3704
sba(iModules.cell
Cell
p3705
(dp3706
g4
I00
sg257
I00
sg7
(I01
I01
tp3707
sba(iModules.cell
Cell
p3708
(dp3709
g4
I00
sg257
I00
sg7
(I01
I01
tp3710
sba(iModules.cell
Cell
p3711
(dp3712
g4
I00
sg257
I00
sg7
(I01
I01
tp3713
sba(iModules.cell
Cell
p3714
(dp3715
g4
I00
sg257
I00
sg7
(I01
I01
tp3716
sba(iModules.cell
Cell
p3717
(dp3718
g4
I00
sg257
I00
sg7
(I01
I01
tp3719
sba(iModules.cell
Cell
p3720
(dp3721
g4
I00
sg257
I00
sg7
(I01
I01
tp3722
sba(iModules.cell
Cell
p3723
(dp3724
g4
I00
sg257
I00
sg7
(I00
I00
I00
tp3725
sba(iModules.cell
Cell
p3726
(dp3727
g3234
I00
sg3235
I00
sg3236
(I01
I01
tp3728
sba(iModules.cell
Cell
p3729
(dp3730
g3234
I00
sg3235
I00
sg3236
(I00
I00
I00
tp3731
sba(iModules.cell
Door
p3732
(dp3733
g2228
I00
sg2523
I00
sg2524
(I00
I00
tp3734
sg2526
I00
sba(iModules.cell
Cell
p3735
(dp3736
S'visible'
p3737
I00
sS'explored'
p3738
I00
sS'type'
p3739
(I00
I00
I00
tp3740
sba(iModules.cell
Cell
p3741
(dp3742
g4
I00
sg300
I00
sg7
(I00
I00
I00
tp3743
sba(iModules.cell
Cell
p3744
(dp3745
g4
I00
sg300
I00
sg7
(I00
I00
I00
tp3746
sba(iModules.cell
Cell
p3747
(dp3748
g4
I00
sg300
I00
sg7
(I00
I00
I00
tp3749
sba(iModules.cell
Cell
p3750
(dp3751
g4
I00
sg300
I00
sg7
(I00
I00
I00
tp3752
sba(iModules.cell
Cell
p3753
(dp3754
g4
I00
sg300
I00
sg7
(I00
I00
I00
tp3755
sba(iModules.cell
Door
p3756
(dp3757
g2228
I00
sg2523
I00
sg2524
(I00
I00
tp3758
sg2526
I00
sba(iModules.cell
Cell
p3759
(dp3760
g4
I00
sg300
I00
sg7
(I00
I00
I00
tp3761
sba(iModules.cell
Cell
p3762
(dp3763
g4
I00
sg300
I00
sg7
(I00
I00
I00
tp3764
sba(iModules.cell
Cell
p3765
(dp3766
g4
I00
sg300
I00
sg7
(I01
I01
tp3767
sba(iModules.cell
Cell
p3768
(dp3769
g4
I00
sg300
I00
sg7
(I01
I01
tp3770
sba(iModules.cell
Cell
p3771
(dp3772
g4
I00
sg300
I00
sg7
(I00
I00
I00
tp3773
sba(iModules.cell
Cell
p3774
(dp3775
g4
I00
sg300
I00
sg7
(I00
I00
I00
tp3776
sba(iModules.cell
Cell
p3777
(dp3778
g4
I00
sg300
I00
sg7
(I01
I01
tp3779
sba(iModules.cell
Cell
p3780
(dp3781
g4
I00
sg300
I00
sg7
(I01
I01
tp3782
sba(iModules.cell
Cell
p3783
(dp3784
g4
I00
sg343
I00
sg7
(I01
I01
tp3785
sba(iModules.cell
Cell
p3786
(dp3787
g4
I00
sg343
I00
sg7
(I01
I01
tp3788
sba(iModules.cell
Cell
p3789
(dp3790
g4
I00
sg343
I00
sg7
(I00
I00
I00
tp3791
sba(iModules.cell
Cell
p3792
(dp3793
g4
I00
sg343
I00
sg7
(I00
I00
I00
tp3794
sba(iModules.cell
Cell
p3795
(dp3796
g4
I00
sg343
I00
sg7
(I00
I00
I00
tp3797
sba(iModules.cell
Cell
p3798
(dp3799
g4
I00
sg343
I00
sg7
(I01
I01
tp3800
sba(iModules.cell
Cell
p3801
(dp3802
g4
I00
sg343
I00
sg7
(I01
I01
tp3803
sba(iModules.cell
Cell
p3804
(dp3805
g4
I00
sg343
I00
sg7
(I01
I01
tp3806
sba(iModules.cell
Cell
p3807
(dp3808
g4
I00
sg343
I00
sg7
(I01
I01
tp3809
sba(iModules.cell
Cell
p3810
(dp3811
g4
I00
sg343
I00
sg7
(I01
I01
tp3812
sba(iModules.cell
Cell
p3813
(dp3814
g4
I00
sg343
I00
sg7
(I01
I01
tp3815
sba(iModules.cell
Cell
p3816
(dp3817
g4
I00
sg343
I00
sg7
(I01
I01
tp3818
sba(iModules.cell
Cell
p3819
(dp3820
g4
I00
sg343
I00
sg7
(I01
I01
tp3821
sba(iModules.cell
Cell
p3822
(dp3823
g4
I00
sg343
I00
sg7
(I01
I01
tp3824
sba(iModules.cell
Cell
p3825
(dp3826
g4
I00
sg343
I00
sg7
(I01
I01
tp3827
sba(iModules.cell
Cell
p3828
(dp3829
g4
I00
sg343
I00
sg7
(I01
I01
tp3830
sba(iModules.cell
Cell
p3831
(dp3832
g4
I00
sg343
I00
sg7
(I01
I01
tp3833
sba(iModules.cell
Cell
p3834
(dp3835
g4
I00
sg343
I00
sg7
(I01
I01
tp3836
sba(iModules.cell
Cell
p3837
(dp3838
g4
I00
sg343
I00
sg7
(I01
I01
tp3839
sba(iModules.cell
Cell
p3840
(dp3841
g4
I00
sg343
I00
sg7
(I01
I01
tp3842
sba(iModules.cell
Cell
p3843
(dp3844
g4
I00
sg343
I00
sg7
(I01
I01
tp3845
sba(iModules.cell
Cell
p3846
(dp3847
g4
I00
sg407
I00
sg7
(I01
I01
tp3848
sba(iModules.cell
Cell
p3849
(dp3850
g4
I00
sg407
I00
sg7
(I01
I01
tp3851
sba(iModules.cell
Cell
p3852
(dp3853
g4
I00
sg407
I00
sg7
(I01
I01
tp3854
sba(iModules.cell
Cell
p3855
(dp3856
g4
I00
sg407
I00
sg7
(I01
I01
tp3857
sba(iModules.cell
Cell
p3858
(dp3859
g4
I00
sg407
I00
sg7
(I01
I01
tp3860
sba(iModules.cell
Cell
p3861
(dp3862
g4
I00
sg407
I00
sg7
(I01
I01
tp3863
sba(iModules.cell
Cell
p3864
(dp3865
g4
I00
sg407
I00
sg7
(I01
I01
tp3866
sba(iModules.cell
Cell
p3867
(dp3868
g4
I00
sg407
I00
sg7
(I01
I01
tp3869
sba(iModules.cell
Cell
p3870
(dp3871
g4
I00
sg407
I00
sg7
(I01
I01
tp3872
sba(iModules.cell
Cell
p3873
(dp3874
g4
I00
sg407
I00
sg7
(I01
I01
tp3875
sba(iModules.cell
Cell
p3876
(dp3877
g4
I00
sg407
I00
sg7
(I01
I01
tp3878
sba(iModules.cell
Cell
p3879
(dp3880
g4
I00
sg407
I00
sg7
(I00
I00
tp3881
sba(iModules.cell
Cell
p3882
(dp3883
g4
I00
sg6
I00
sg7
(I00
I00
tp3884
sba(iModules.cell
Cell
p3885
(dp3886
g4
I00
sg6
I00
sg7
(I00
I00
tp3887
sba(iModules.cell
Cell
p3888
(dp3889
g4
I00
sg6
I00
sg7
(I00
I00
tp3890
sba(iModules.cell
Cell
p3891
(dp3892
g4
I00
sg6
I00
sg7
(I00
I00
tp3893
sba(iModules.cell
Cell
p3894
(dp3895
g4
I00
sg6
I00
sg7
(I00
I00
tp3896
sba(iModules.cell
Cell
p3897
(dp3898
g4
I00
sg6
I00
sg7
(I00
I00
tp3899
sba(iModules.cell
Cell
p3900
(dp3901
g4
I00
sg6
I00
sg7
(I00
I00
tp3902
sba(iModules.cell
Cell
p3903
(dp3904
g4
I00
sg6
I00
sg7
(I00
I00
tp3905
sba(iModules.cell
Cell
p3906
(dp3907
g4
I00
sg6
I00
sg7
(I00
I00
tp3908
sba(iModules.cell
Cell
p3909
(dp3910
g4
I00
sg6
I00
sg7
(I00
I00
tp3911
sba(iModules.cell
Cell
p3912
(dp3913
g4
I00
sg6
I00
sg7
(I00
I00
tp3914
sba(iModules.cell
Cell
p3915
(dp3916
g4
I00
sg6
I00
sg7
(I00
I00
tp3917
sba(iModules.cell
Cell
p3918
(dp3919
g4
I00
sg6
I00
sg7
(I00
I00
tp3920
sba(iModules.cell
Cell
p3921
(dp3922
g4
I00
sg6
I00
sg7
(I00
I00
tp3923
sba(iModules.cell
Cell
p3924
(dp3925
g4
I00
sg6
I00
sg7
(I00
I00
tp3926
sba(iModules.cell
Cell
p3927
(dp3928
g4
I00
sg6
I00
sg7
(I00
I00
tp3929
sba(iModules.cell
Cell
p3930
(dp3931
g4
I00
sg6
I00
sg7
(I00
I00
tp3932
sba(iModules.cell
Cell
p3933
(dp3934
g4
I00
sg6
I00
sg7
(I00
I00
tp3935
sba(iModules.cell
Cell
p3936
(dp3937
g7
(I00
I00
tp3938
sbaa(lp3939
(iModules.cell
Cell
p3940
(dp3941
g4
I00
sg6
I00
sg7
(I00
I00
tp3942
sba(iModules.cell
Cell
p3943
(dp3944
g4
I00
sg300
I00
sg7
(I00
I00
tp3945
sba(iModules.cell
Cell
p3946
(dp3947
g4
I00
sg300
I00
sg7
(I01
I01
tp3948
sba(iModules.cell
Cell
p3949
(dp3950
g4
I00
sg300
I00
sg7
(I01
I01
tp3951
sba(iModules.cell
Cell
p3952
(dp3953
g4
I00
sg300
I00
sg7
(I01
I01
tp3954
sba(iModules.cell
Cell
p3955
(dp3956
g4
I00
sg300
I00
sg7
(I01
I01
tp3957
sba(iModules.cell
Cell
p3958
(dp3959
g4
I00
sg300
I00
sg7
(I01
I01
tp3960
sba(iModules.cell
Cell
p3961
(dp3962
g4
I00
sg300
I00
sg7
(I01
I01
tp3963
sba(iModules.cell
Cell
p3964
(dp3965
g4
I00
sg300
I00
sg7
(I01
I01
tp3966
sba(iModules.cell
Cell
p3967
(dp3968
g4
I00
sg300
I00
sg7
(I01
I01
tp3969
sba(iModules.cell
Cell
p3970
(dp3971
g3234
I00
sg3235
I00
sg3236
(I00
I00
I00
tp3972
sba(iModules.cell
Cell
p3973
(dp3974
g3234
I00
sg3235
I00
sg3236
(I01
I01
tp3975
sba(iModules.cell
Cell
p3976
(dp3977
g3234
I00
sg3235
I00
sg3236
(I01
I01
tp3978
sba(iModules.cell
Cell
p3979
(dp3980
g3234
I00
sg3235
I00
sg3236
(I01
I01
tp3981
sba(iModules.cell
Cell
p3982
(dp3983
g3737
I00
sg3738
I00
sg3739
(I00
I00
I00
tp3984
sba(iModules.cell
Cell
p3985
(dp3986
g3737
I00
sg3738
I00
sg3739
(I01
I01
tp3987
sba(iModules.cell
Cell
p3988
(dp3989
g4
I00
sg300
I00
sg7
(I01
I01
tp3990
sba(iModules.cell
Cell
p3991
(dp3992
g4
I00
sg300
I00
sg7
(I01
I01
tp3993
sba(iModules.cell
Cell
p3994
(dp3995
g4
I00
sg300
I00
sg7
(I01
I01
tp3996
sba(iModules.cell
Cell
p3997
(dp3998
g4
I00
sg300
I00
sg7
(I00
I00
I00
tp3999
sba(iModules.cell
Mob
p4000
(dp4001
g2226
g2227
sg2228
I00
sg2229
(iModules.cell
Cell
p4002
(dp4003
g4
I00
sg300
I01
sg7
(I01
I01
tp4004
sbsg2233
g2234
sg6
I00
sba(iModules.cell
Cell
p4005
(dp4006
g4
I00
sg300
I00
sg7
(I00
I00
I00
tp4007
sba(iModules.cell
Cell
p4008
(dp4009
g4
I00
sg300
I00
sg7
(I01
I01
tp4010
sba(iModules.cell
Cell
p4011
(dp4012
g4
I00
sg300
I00
sg7
(I01
I01
tp4013
sba(iModules.cell
Cell
p4014
(dp4015
g4
I00
sg300
I00
sg7
(I01
I01
tp4016
sba(iModules.cell
Cell
p4017
(dp4018
g4
I00
sg300
I00
sg7
(I00
I00
I00
tp4019
sba(iModules.cell
Cell
p4020
(dp4021
g4
I00
sg300
I00
sg7
(I00
I00
I00
tp4022
sba(iModules.cell
Cell
p4023
(dp4024
g4
I00
sg300
I00
sg7
(I01
I01
tp4025
sba(iModules.cell
Cell
p4026
(dp4027
g4
I00
sg407
I00
sg7
(I01
I01
tp4028
sba(iModules.cell
Cell
p4029
(dp4030
g4
I00
sg407
I00
sg7
(I01
I01
tp4031
sba(iModules.cell
Cell
p4032
(dp4033
g4
I00
sg407
I00
sg7
(I01
I01
tp4034
sba(iModules.cell
Cell
p4035
(dp4036
g4
I00
sg407
I00
sg7
(I00
I00
I00
tp4037
sba(iModules.cell
Cell
p4038
(dp4039
g4
I00
sg407
I00
sg7
(I01
I01
tp4040
sba(iModules.cell
Cell
p4041
(dp4042
g4
I00
sg407
I00
sg7
(I00
I00
I00
tp4043
sba(iModules.cell
Cell
p4044
(dp4045
g4
I00
sg407
I00
sg7
(I01
I01
tp4046
sba(iModules.cell
Cell
p4047
(dp4048
g4
I00
sg407
I00
sg7
(I01
I01
tp4049
sba(iModules.cell
Cell
p4050
(dp4051
g4
I00
sg407
I00
sg7
(I01
I01
tp4052
sba(iModules.cell
Cell
p4053
(dp4054
g4
I00
sg407
I00
sg7
(I01
I01
tp4055
sba(iModules.cell
Cell
p4056
(dp4057
g4
I00
sg407
I00
sg7
(I01
I01
tp4058
sba(iModules.cell
Cell
p4059
(dp4060
g4
I00
sg407
I00
sg7
(I01
I01
tp4061
sba(iModules.cell
Cell
p4062
(dp4063
g4
I00
sg407
I00
sg7
(I01
I01
tp4064
sba(iModules.cell
Cell
p4065
(dp4066
g4
I00
sg407
I00
sg7
(I01
I01
tp4067
sba(iModules.cell
Cell
p4068
(dp4069
g4
I00
sg407
I00
sg7
(I01
I01
tp4070
sba(iModules.cell
Cell
p4071
(dp4072
g4
I00
sg407
I00
sg7
(I01
I01
tp4073
sba(iModules.cell
Cell
p4074
(dp4075
g4
I00
sg407
I00
sg7
(I01
I01
tp4076
sba(iModules.cell
Cell
p4077
(dp4078
g4
I00
sg407
I00
sg7
(I01
I01
tp4079
sba(iModules.cell
Cell
p4080
(dp4081
g4
I00
sg407
I00
sg7
(I01
I01
tp4082
sba(iModules.cell
Cell
p4083
(dp4084
g4
I00
sg407
I00
sg7
(I01
I01
tp4085
sba(iModules.cell
Cell
p4086
(dp4087
g4
I00
sg407
I00
sg7
(I01
I01
tp4088
sba(iModules.cell
Cell
p4089
(dp4090
g4
I00
sg407
I00
sg7
(I01
I01
tp4091
sba(iModules.cell
Cell
p4092
(dp4093
g4
I00
sg407
I00
sg7
(I01
I01
tp4094
sba(iModules.cell
Cell
p4095
(dp4096
g4
I00
sg407
I00
sg7
(I01
I01
tp4097
sba(iModules.cell
Cell
p4098
(dp4099
g4
I00
sg407
I00
sg7
(I01
I01
tp4100
sba(iModules.cell
Cell
p4101
(dp4102
g4
I00
sg407
I00
sg7
(I01
I01
tp4103
sba(iModules.cell
Cell
p4104
(dp4105
g4
I00
sg407
I00
sg7
(I01
I01
tp4106
sba(iModules.cell
Cell
p4107
(dp4108
g4
I00
sg407
I00
sg7
(I01
I01
tp4109
sba(iModules.cell
Cell
p4110
(dp4111
g4
I00
sg407
I00
sg7
(I01
I01
tp4112
sba(iModules.cell
Cell
p4113
(dp4114
g4
I00
sg407
I00
sg7
(I01
I01
tp4115
sba(iModules.cell
Cell
p4116
(dp4117
g4
I00
sg407
I00
sg7
(I01
I01
tp4118
sba(iModules.cell
Cell
p4119
(dp4120
g4
I00
sg407
I00
sg7
(I01
I01
tp4121
sba(iModules.cell
Cell
p4122
(dp4123
g4
I00
sg407
I00
sg7
(I01
I01
tp4124
sba(iModules.cell
Cell
p4125
(dp4126
g4
I00
sg407
I00
sg7
(I00
I00
tp4127
sba(iModules.cell
Cell
p4128
(dp4129
g4
I00
sg6
I00
sg7
(I00
I00
tp4130
sba(iModules.cell
Cell
p4131
(dp4132
g4
I00
sg6
I00
sg7
(I00
I00
tp4133
sba(iModules.cell
Cell
p4134
(dp4135
g4
I00
sg6
I00
sg7
(I00
I00
tp4136
sba(iModules.cell
Cell
p4137
(dp4138
g4
I00
sg6
I00
sg7
(I00
I00
tp4139
sba(iModules.cell
Cell
p4140
(dp4141
g4
I00
sg6
I00
sg7
(I00
I00
tp4142
sba(iModules.cell
Cell
p4143
(dp4144
g4
I00
sg6
I00
sg7
(I00
I00
tp4145
sba(iModules.cell
Cell
p4146
(dp4147
g4
I00
sg6
I00
sg7
(I00
I00
tp4148
sba(iModules.cell
Cell
p4149
(dp4150
g4
I00
sg6
I00
sg7
(I00
I00
tp4151
sba(iModules.cell
Cell
p4152
(dp4153
g4
I00
sg6
I00
sg7
(I00
I00
tp4154
sba(iModules.cell
Cell
p4155
(dp4156
g4
I00
sg6
I00
sg7
(I00
I00
tp4157
sba(iModules.cell
Cell
p4158
(dp4159
g4
I00
sg6
I00
sg7
(I00
I00
tp4160
sba(iModules.cell
Cell
p4161
(dp4162
g4
I00
sg6
I00
sg7
(I00
I00
tp4163
sba(iModules.cell
Cell
p4164
(dp4165
g4
I00
sg6
I00
sg7
(I00
I00
tp4166
sba(iModules.cell
Cell
p4167
(dp4168
g4
I00
sg6
I00
sg7
(I00
I00
tp4169
sba(iModules.cell
Cell
p4170
(dp4171
g4
I00
sg6
I00
sg7
(I00
I00
tp4172
sba(iModules.cell
Cell
p4173
(dp4174
g4
I00
sg6
I00
sg7
(I00
I00
tp4175
sba(iModules.cell
Cell
p4176
(dp4177
g4
I00
sg6
I00
sg7
(I00
I00
tp4178
sba(iModules.cell
Cell
p4179
(dp4180
g4
I00
sg6
I00
sg7
(I00
I00
tp4181
sba(iModules.cell
Cell
p4182
(dp4183
g7
(I00
I00
tp4184
sbaa(lp4185
(iModules.cell
Cell
p4186
(dp4187
g4
I00
sg6
I00
sg7
(I00
I00
tp4188
sba(iModules.cell
Cell
p4189
(dp4190
g4
I00
sg300
I00
sg7
(I00
I00
tp4191
sba(iModules.cell
Cell
p4192
(dp4193
g4
I00
sg300
I00
sg7
(I01
I01
tp4194
sba(iModules.cell
Cell
p4195
(dp4196
g4
I00
sg300
I00
sg7
(I01
I01
tp4197
sba(iModules.cell
Cell
p4198
(dp4199
g4
I00
sg300
I00
sg7
(I01
I01
tp4200
sba(iModules.cell
Cell
p4201
(dp4202
g4
I00
sg300
I00
sg7
(I01
I01
tp4203
sba(iModules.cell
Cell
p4204
(dp4205
g4
I00
sg300
I00
sg7
(I01
I01
tp4206
sba(iModules.cell
Cell
p4207
(dp4208
g4
I00
sg300
I00
sg7
(I01
I01
tp4209
sba(iModules.cell
Cell
p4210
(dp4211
g4
I00
sg300
I00
sg7
(I01
I01
tp4212
sba(iModules.cell
Cell
p4213
(dp4214
g4
I00
sg300
I00
sg7
(I01
I01
tp4215
sba(iModules.cell
Cell
p4216
(dp4217
g3234
I00
sg3235
I00
sg3236
(I00
I00
I00
tp4218
sba(iModules.cell
Cell
p4219
(dp4220
g3234
I00
sg3235
I00
sg3236
(I01
I01
tp4221
sba(iModules.cell
Cell
p4222
(dp4223
g4
I00
sg300
I00
sg7
(I01
I01
tp4224
sba(iModules.cell
Cell
p4225
(dp4226
g3234
I00
sg3235
I00
sg3236
(I01
I01
tp4227
sba(iModules.cell
Cell
p4228
(dp4229
g4
I00
sg300
I00
sg7
(I00
I00
I00
tp4230
sba(iModules.cell
Cell
p4231
(dp4232
g4
I00
sg300
I00
sg7
(I01
I01
tp4233
sba(iModules.cell
Cell
p4234
(dp4235
g4
I00
sg300
I00
sg7
(I01
I01
tp4236
sba(iModules.cell
Cell
p4237
(dp4238
g4
I00
sg300
I00
sg7
(I01
I01
tp4239
sba(iModules.cell
Cell
p4240
(dp4241
g4
I00
sg300
I00
sg7
(I01
I01
tp4242
sba(iModules.cell
Cell
p4243
(dp4244
g4
I00
sg300
I00
sg7
(I00
I00
I00
tp4245
sba(iModules.cell
Cell
p4246
(dp4247
g4
I00
sg300
I00
sg7
(I00
I00
I00
tp4248
sba(iModules.cell
Cell
p4249
(dp4250
g4
I00
sg300
I00
sg7
(I00
I00
I00
tp4251
sba(iModules.cell
Cell
p4252
(dp4253
g4
I00
sg300
I00
sg7
(I01
I01
tp4254
sba(iModules.cell
Cell
p4255
(dp4256
g4
I00
sg300
I00
sg7
(I00
I00
I00
tp4257
sba(iModules.cell
Cell
p4258
(dp4259
g4
I00
sg300
I00
sg7
(I00
I00
I00
tp4260
sba(iModules.cell
Cell
p4261
(dp4262
g4
I00
sg300
I00
sg7
(I00
I00
I00
tp4263
sba(iModules.cell
Cell
p4264
(dp4265
g4
I00
sg300
I00
sg7
(I00
I00
I00
tp4266
sba(iModules.cell
Cell
p4267
(dp4268
g4
I00
sS'explored'
p4269
I00
sg7
(I01
I01
tp4270
sba(iModules.cell
Cell
p4271
(dp4272
g4
I00
sg407
I00
sg7
(I01
I01
tp4273
sba(iModules.cell
Cell
p4274
(dp4275
g4
I00
sg407
I00
sg7
(I01
I01
tp4276
sba(iModules.cell
Cell
p4277
(dp4278
g4
I00
sg407
I00
sg7
(I00
I00
I00
tp4279
sba(iModules.cell
Cell
p4280
(dp4281
g4
I00
sg407
I00
sg7
(I00
I00
I00
tp4282
sba(iModules.cell
Cell
p4283
(dp4284
g4
I00
sg407
I00
sg7
(I01
I01
tp4285
sba(iModules.cell
Cell
p4286
(dp4287
g4
I00
sg407
I00
sg7
(I00
I00
I00
tp4288
sba(iModules.cell
Cell
p4289
(dp4290
g4
I00
sg407
I00
sg7
(I01
I01
tp4291
sba(iModules.cell
Cell
p4292
(dp4293
g4
I00
sg407
I00
sg7
(I01
I01
tp4294
sba(iModules.cell
Cell
p4295
(dp4296
g4
I00
sg407
I00
sg7
(I01
I01
tp4297
sba(iModules.cell
Cell
p4298
(dp4299
g4
I00
sg407
I00
sg7
(I01
I01
tp4300
sba(iModules.cell
Cell
p4301
(dp4302
g4
I00
sg407
I00
sg7
(I01
I01
tp4303
sba(iModules.cell
Cell
p4304
(dp4305
g4
I00
sg407
I00
sg7
(I01
I01
tp4306
sba(iModules.cell
Cell
p4307
(dp4308
g4
I00
sg407
I00
sg7
(I01
I01
tp4309
sba(iModules.cell
Cell
p4310
(dp4311
g4
I00
sg407
I00
sg7
(I01
I01
tp4312
sba(iModules.cell
Cell
p4313
(dp4314
g4
I00
sg407
I00
sg7
(I01
I01
tp4315
sba(iModules.cell
Cell
p4316
(dp4317
g4
I00
sg407
I00
sg7
(I01
I01
tp4318
sba(iModules.cell
Cell
p4319
(dp4320
g4
I00
sg407
I00
sg7
(I01
I01
tp4321
sba(iModules.cell
Cell
p4322
(dp4323
g4
I00
sg407
I00
sg7
(I01
I01
tp4324
sba(iModules.cell
Cell
p4325
(dp4326
g4
I00
sg407
I00
sg7
(I01
I01
tp4327
sba(iModules.cell
Cell
p4328
(dp4329
g4
I00
sg407
I00
sg7
(I01
I01
tp4330
sba(iModules.cell
Cell
p4331
(dp4332
g4
I00
sg407
I00
sg7
(I01
I01
tp4333
sba(iModules.cell
Cell
p4334
(dp4335
g4
I00
sg407
I00
sg7
(I01
I01
tp4336
sba(iModules.cell
Cell
p4337
(dp4338
g4
I00
sg407
I00
sg7
(I01
I01
tp4339
sba(iModules.cell
Cell
p4340
(dp4341
g4
I00
sg407
I00
sg7
(I01
I01
tp4342
sba(iModules.cell
Cell
p4343
(dp4344
g4
I00
sg407
I00
sg7
(I01
I01
tp4345
sba(iModules.cell
Cell
p4346
(dp4347
g4
I00
sg407
I00
sg7
(I01
I01
tp4348
sba(iModules.cell
Cell
p4349
(dp4350
g4
I00
sg407
I00
sg7
(I01
I01
tp4351
sba(iModules.cell
Cell
p4352
(dp4353
g4
I00
sg407
I00
sg7
(I01
I01
tp4354
sba(iModules.cell
Cell
p4355
(dp4356
g4
I00
sg407
I00
sg7
(I01
I01
tp4357
sba(iModules.cell
Cell
p4358
(dp4359
g4
I00
sg407
I00
sg7
(I01
I01
tp4360
sba(iModules.cell
Cell
p4361
(dp4362
g4
I00
sg407
I00
sg7
(I01
I01
tp4363
sba(iModules.cell
Cell
p4364
(dp4365
g4
I00
sg407
I00
sg7
(I01
I01
tp4366
sba(iModules.cell
Cell
p4367
(dp4368
g4
I00
sg407
I00
sg7
(I01
I01
tp4369
sba(iModules.cell
Cell
p4370
(dp4371
g4
I00
sg407
I00
sg7
(I00
I00
tp4372
sba(iModules.cell
Cell
p4373
(dp4374
g4
I00
sg6
I00
sg7
(I00
I00
tp4375
sba(iModules.cell
Cell
p4376
(dp4377
g4
I00
sg6
I00
sg7
(I00
I00
tp4378
sba(iModules.cell
Cell
p4379
(dp4380
g4
I00
sg6
I00
sg7
(I00
I00
tp4381
sba(iModules.cell
Cell
p4382
(dp4383
g4
I00
sg6
I00
sg7
(I00
I00
tp4384
sba(iModules.cell
Cell
p4385
(dp4386
g4
I00
sg6
I00
sg7
(I00
I00
tp4387
sba(iModules.cell
Cell
p4388
(dp4389
g4
I00
sg6
I00
sg7
(I00
I00
tp4390
sba(iModules.cell
Cell
p4391
(dp4392
g4
I00
sg6
I00
sg7
(I00
I00
tp4393
sba(iModules.cell
Cell
p4394
(dp4395
g4
I00
sg6
I00
sg7
(I00
I00
tp4396
sba(iModules.cell
Cell
p4397
(dp4398
g4
I00
sg6
I00
sg7
(I00
I00
tp4399
sba(iModules.cell
Cell
p4400
(dp4401
g4
I00
sg6
I00
sg7
(I00
I00
tp4402
sba(iModules.cell
Cell
p4403
(dp4404
g4
I00
sg6
I00
sg7
(I00
I00
tp4405
sba(iModules.cell
Cell
p4406
(dp4407
g4
I00
sg6
I00
sg7
(I00
I00
tp4408
sba(iModules.cell
Cell
p4409
(dp4410
g4
I00
sg6
I00
sg7
(I00
I00
tp4411
sba(iModules.cell
Cell
p4412
(dp4413
g4
I00
sg6
I00
sg7
(I00
I00
tp4414
sba(iModules.cell
Cell
p4415
(dp4416
g4
I00
sg6
I00
sg7
(I00
I00
tp4417
sba(iModules.cell
Cell
p4418
(dp4419
g4
I00
sg6
I00
sg7
(I00
I00
tp4420
sba(iModules.cell
Cell
p4421
(dp4422
g4
I00
sg6
I00
sg7
(I00
I00
tp4423
sba(iModules.cell
Cell
p4424
(dp4425
g4
I00
sg6
I00
sg7
(I00
I00
tp4426
sba(iModules.cell
Cell
p4427
(dp4428
g7
(I00
I00
tp4429
sbaa(lp4430
(iModules.cell
Cell
p4431
(dp4432
g4
I00
sg6
I00
sg7
(I00
I00
tp4433
sba(iModules.cell
Cell
p4434
(dp4435
g4
I00
sg300
I00
sg7
(I00
I00
tp4436
sba(iModules.cell
Cell
p4437
(dp4438
g4
I00
sg300
I00
sg7
(I01
I01
tp4439
sba(iModules.cell
Cell
p4440
(dp4441
g4
I00
sg300
I00
sg7
(I01
I01
tp4442
sba(iModules.cell
Cell
p4443
(dp4444
g4
I00
sg300
I00
sg7
(I01
I01
tp4445
sba(iModules.cell
Cell
p4446
(dp4447
g4
I00
sg300
I00
sg7
(I01
I01
tp4448
sba(iModules.cell
Cell
p4449
(dp4450
g4
I00
sg300
I00
sg7
(I01
I01
tp4451
sba(iModules.cell
Cell
p4452
(dp4453
g4
I00
sg300
I00
sg7
(I01
I01
tp4454
sba(iModules.cell
Cell
p4455
(dp4456
g4
I00
sg300
I00
sg7
(I01
I01
tp4457
sba(iModules.cell
Cell
p4458
(dp4459
g3234
I00
sg3235
I00
sg3236
(I01
I01
tp4460
sba(iModules.cell
Cell
p4461
(dp4462
g3234
I00
sg3235
I00
sg3236
(I00
I00
I00
tp4463
sba(iModules.cell
Cell
p4464
(dp4465
g3234
I00
sg3235
I00
sg3236
(I00
I00
I00
tp4466
sba(iModules.cell
Cell
p4467
(dp4468
g3234
I00
sg3235
I00
sg3236
(I00
I00
I00
tp4469
sba(iModules.cell
Cell
p4470
(dp4471
g3234
I00
sg3235
I00
sg3236
(I00
I00
I00
tp4472
sba(iModules.cell
Cell
p4473
(dp4474
g4
I00
sg300
I00
sg7
(I00
I00
I00
tp4475
sba(iModules.cell
Cell
p4476
(dp4477
g4
I00
sg300
I00
sg7
(I01
I01
tp4478
sba(iModules.cell
Cell
p4479
(dp4480
g4
I00
sg300
I00
sg7
(I01
I01
tp4481
sba(iModules.cell
Cell
p4482
(dp4483
g4
I00
sg300
I00
sg7
(I01
I01
tp4484
sba(iModules.cell
Cell
p4485
(dp4486
g4
I00
sg300
I00
sg7
(I01
I01
tp4487
sba(iModules.cell
Cell
p4488
(dp4489
g4
I00
sg300
I00
sg7
(I01
I01
tp4490
sba(iModules.cell
Cell
p4491
(dp4492
g4
I00
sg300
I00
sg7
(I00
I00
I00
tp4493
sba(iModules.cell
Cell
p4494
(dp4495
g4
I00
sg300
I00
sg7
(I01
I01
tp4496
sba(iModules.cell
Cell
p4497
(dp4498
g4
I00
sg300
I00
sg7
(I01
I01
tp4499
sba(iModules.cell
Cell
p4500
(dp4501
g4
I00
sg300
I00
sg7
(I00
I00
I00
tp4502
sba(iModules.cell
Cell
p4503
(dp4504
g4
I00
sg300
I00
sg7
(I01
I01
tp4505
sba(iModules.cell
Cell
p4506
(dp4507
g4
I00
sg300
I00
sg7
(I01
I01
tp4508
sba(iModules.cell
Cell
p4509
(dp4510
g4
I00
sg4269
I00
sg7
(I01
I01
tp4511
sba(iModules.cell
Cell
p4512
(dp4513
g3514
I00
sg3515
I00
sg3516
(I01
I01
tp4514
sba(iModules.cell
Cell
p4515
(dp4516
g4
I00
sg407
I00
sg7
(I01
I01
tp4517
sba(iModules.cell
Cell
p4518
(dp4519
g4
I00
sg407
I00
sg7
(I01
I01
tp4520
sba(iModules.cell
Cell
p4521
(dp4522
g4
I00
sg407
I00
sg7
(I00
I00
I00
tp4523
sba(iModules.cell
Cell
p4524
(dp4525
g4
I00
sg407
I00
sg7
(I01
I01
tp4526
sba(iModules.cell
Cell
p4527
(dp4528
g4
I00
sg407
I00
sg7
(I00
I00
I00
tp4529
sba(iModules.cell
Cell
p4530
(dp4531
g4
I00
sg407
I00
sg7
(I00
I00
I00
tp4532
sba(iModules.cell
Cell
p4533
(dp4534
g4
I00
sg407
I00
sg7
(I01
I01
tp4535
sba(iModules.cell
Cell
p4536
(dp4537
g4
I00
sg407
I00
sg7
(I01
I01
tp4538
sba(iModules.cell
Cell
p4539
(dp4540
g4
I00
sg407
I00
sg7
(I01
I01
tp4541
sba(iModules.cell
Cell
p4542
(dp4543
g4
I00
sg407
I00
sg7
(I01
I01
tp4544
sba(iModules.cell
Cell
p4545
(dp4546
g4
I00
sg407
I00
sg7
(I01
I01
tp4547
sba(iModules.cell
Cell
p4548
(dp4549
g4
I00
sg407
I00
sg7
(I01
I01
tp4550
sba(iModules.cell
Cell
p4551
(dp4552
g4
I00
sg407
I00
sg7
(I01
I01
tp4553
sba(iModules.cell
Cell
p4554
(dp4555
g4
I00
sg407
I00
sg7
(I01
I01
tp4556
sba(iModules.cell
Cell
p4557
(dp4558
g4
I00
sg407
I00
sg7
(I01
I01
tp4559
sba(iModules.cell
Cell
p4560
(dp4561
g4
I00
sg407
I00
sg7
(I01
I01
tp4562
sba(iModules.cell
Cell
p4563
(dp4564
g4
I00
sg407
I00
sg7
(I01
I01
tp4565
sba(iModules.cell
Cell
p4566
(dp4567
g4
I00
sg407
I00
sg7
(I01
I01
tp4568
sba(iModules.cell
Cell
p4569
(dp4570
g4
I00
sg407
I00
sg7
(I01
I01
tp4571
sba(iModules.cell
Cell
p4572
(dp4573
g4
I00
sg407
I00
sg7
(I01
I01
tp4574
sba(iModules.cell
Cell
p4575
(dp4576
g4
I00
sg407
I00
sg7
(I01
I01
tp4577
sba(iModules.cell
Cell
p4578
(dp4579
g4
I00
sg407
I00
sg7
(I01
I01
tp4580
sba(iModules.cell
Cell
p4581
(dp4582
g4
I00
sg407
I00
sg7
(I01
I01
tp4583
sba(iModules.cell
Cell
p4584
(dp4585
g4
I00
sg407
I00
sg7
(I01
I01
tp4586
sba(iModules.cell
Cell
p4587
(dp4588
g4
I00
sg407
I00
sg7
(I01
I01
tp4589
sba(iModules.cell
Cell
p4590
(dp4591
g4
I00
sg407
I00
sg7
(I01
I01
tp4592
sba(iModules.cell
Cell
p4593
(dp4594
g4
I00
sg407
I00
sg7
(I01
I01
tp4595
sba(iModules.cell
Cell
p4596
(dp4597
g4
I00
sg407
I00
sg7
(I01
I01
tp4598
sba(iModules.cell
Cell
p4599
(dp4600
g4
I00
sg407
I00
sg7
(I01
I01
tp4601
sba(iModules.cell
Cell
p4602
(dp4603
g4
I00
sg407
I00
sg7
(I01
I01
tp4604
sba(iModules.cell
Cell
p4605
(dp4606
g4
I00
sg407
I00
sg7
(I01
I01
tp4607
sba(iModules.cell
Cell
p4608
(dp4609
g4
I00
sg407
I00
sg7
(I01
I01
tp4610
sba(iModules.cell
Cell
p4611
(dp4612
g4
I00
sg407
I00
sg7
(I01
I01
tp4613
sba(iModules.cell
Cell
p4614
(dp4615
g4
I00
sg407
I00
sg7
(I00
I00
tp4616
sba(iModules.cell
Cell
p4617
(dp4618
g4
I00
sg6
I00
sg7
(I00
I00
tp4619
sba(iModules.cell
Cell
p4620
(dp4621
g4
I00
sg6
I00
sg7
(I00
I00
tp4622
sba(iModules.cell
Cell
p4623
(dp4624
g4
I00
sg6
I00
sg7
(I00
I00
tp4625
sba(iModules.cell
Cell
p4626
(dp4627
g4
I00
sg6
I00
sg7
(I00
I00
tp4628
sba(iModules.cell
Cell
p4629
(dp4630
g4
I00
sg6
I00
sg7
(I00
I00
tp4631
sba(iModules.cell
Cell
p4632
(dp4633
g4
I00
sg6
I00
sg7
(I00
I00
tp4634
sba(iModules.cell
Cell
p4635
(dp4636
g4
I00
sg6
I00
sg7
(I00
I00
tp4637
sba(iModules.cell
Cell
p4638
(dp4639
g4
I00
sg6
I00
sg7
(I00
I00
tp4640
sba(iModules.cell
Cell
p4641
(dp4642
g4
I00
sg6
I00
sg7
(I00
I00
tp4643
sba(iModules.cell
Cell
p4644
(dp4645
g4
I00
sg6
I00
sg7
(I00
I00
tp4646
sba(iModules.cell
Cell
p4647
(dp4648
g4
I00
sg6
I00
sg7
(I00
I00
tp4649
sba(iModules.cell
Cell
p4650
(dp4651
g4
I00
sg6
I00
sg7
(I00
I00
tp4652
sba(iModules.cell
Cell
p4653
(dp4654
g4
I00
sg6
I00
sg7
(I00
I00
tp4655
sba(iModules.cell
Cell
p4656
(dp4657
g4
I00
sg6
I00
sg7
(I00
I00
tp4658
sba(iModules.cell
Cell
p4659
(dp4660
g4
I00
sg6
I00
sg7
(I00
I00
tp4661
sba(iModules.cell
Cell
p4662
(dp4663
g4
I00
sg6
I00
sg7
(I00
I00
tp4664
sba(iModules.cell
Cell
p4665
(dp4666
g4
I00
sg6
I00
sg7
(I00
I00
tp4667
sba(iModules.cell
Cell
p4668
(dp4669
g4
I00
sg6
I00
sg7
(I00
I00
tp4670
sba(iModules.cell
Cell
p4671
(dp4672
g7
(I00
I00
tp4673
sbaa(lp4674
(iModules.cell
Cell
p4675
(dp4676
g4
I00
sg6
I00
sg7
(I00
I00
tp4677
sba(iModules.cell
Cell
p4678
(dp4679
g4
I00
sg300
I00
sg7
(I00
I00
tp4680
sba(iModules.cell
Cell
p4681
(dp4682
g4
I00
sg300
I00
sg7
(I01
I01
tp4683
sba(iModules.cell
Cell
p4684
(dp4685
g4
I00
sg300
I00
sg7
(I01
I01
tp4686
sba(iModules.cell
Cell
p4687
(dp4688
g4
I00
sg300
I00
sg7
(I01
I01
tp4689
sba(iModules.cell
Cell
p4690
(dp4691
g4
I00
sg300
I00
sg7
(I01
I01
tp4692
sba(iModules.cell
Cell
p4693
(dp4694
g4
I00
sg300
I00
sg7
(I01
I01
tp4695
sba(iModules.cell
Cell
p4696
(dp4697
g4
I00
sg300
I00
sg7
(I01
I01
tp4698
sba(iModules.cell
Cell
p4699
(dp4700
g4
I00
sg300
I00
sg7
(I01
I01
tp4701
sba(iModules.cell
Cell
p4702
(dp4703
g4
I00
sg300
I00
sg7
(I01
I01
tp4704
sba(iModules.cell
Cell
p4705
(dp4706
g3234
I00
sg3235
I00
sg3236
(I01
I01
tp4707
sba(iModules.cell
Cell
p4708
(dp4709
g4
I00
sg300
I00
sg7
(I01
I01
tp4710
sba(iModules.cell
Cell
p4711
(dp4712
g4
I00
sg300
I00
sg7
(I01
I01
tp4713
sba(iModules.cell
Cell
p4714
(dp4715
g4
I00
sg300
I00
sg7
(I01
I01
tp4716
sba(iModules.cell
Cell
p4717
(dp4718
g4
I00
sg300
I00
sg7
(I01
I01
tp4719
sba(iModules.cell
Cell
p4720
(dp4721
g4
I00
sg300
I00
sg7
(I01
I01
tp4722
sba(iModules.cell
Cell
p4723
(dp4724
g4
I00
sg300
I00
sg7
(I01
I01
tp4725
sba(iModules.cell
Cell
p4726
(dp4727
g4
I00
sg300
I00
sg7
(I01
I01
tp4728
sba(iModules.cell
Cell
p4729
(dp4730
g4
I00
sg300
I00
sg7
(I01
I01
tp4731
sba(iModules.cell
Cell
p4732
(dp4733
g4
I00
sg300
I00
sg7
(I01
I01
tp4734
sba(iModules.cell
Cell
p4735
(dp4736
g4
I00
sg300
I00
sg7
(I00
I00
I00
tp4737
sba(iModules.cell
Cell
p4738
(dp4739
g4
I00
sg300
I00
sg7
(I01
I01
tp4740
sba(iModules.cell
Cell
p4741
(dp4742
g4
I00
sg300
I00
sg7
(I01
I01
tp4743
sba(iModules.cell
Cell
p4744
(dp4745
g4
I00
sg300
I00
sg7
(I00
I00
I00
tp4746
sba(iModules.cell
Cell
p4747
(dp4748
g4
I00
sg300
I00
sg7
(I01
I01
tp4749
sba(iModules.cell
Cell
p4750
(dp4751
g4
I00
sg3738
I00
sg7
(I01
I01
tp4752
sba(iModules.cell
Cell
p4753
(dp4754
g4
I00
sg4269
I00
sg7
(I01
I01
tp4755
sba(iModules.cell
Cell
p4756
(dp4757
g4
I00
sg4269
I00
sg7
(I00
I00
I00
tp4758
sba(iModules.cell
Cell
p4759
(dp4760
g4
I00
sg407
I00
sg7
(I00
I00
I00
tp4761
sba(iModules.cell
Cell
p4762
(dp4763
g4
I00
sg407
I00
sg7
(I00
I00
I00
tp4764
sba(iModules.cell
Cell
p4765
(dp4766
g4
I00
sg407
I00
sg7
(I00
I00
I00
tp4767
sba(iModules.cell
Cell
p4768
(dp4769
g4
I00
sg407
I00
sg7
(I01
I01
tp4770
sba(iModules.cell
Cell
p4771
(dp4772
g4
I00
sg407
I00
sg7
(I00
I00
I00
tp4773
sba(iModules.cell
Cell
p4774
(dp4775
g4
I00
sg407
I00
sg7
(I01
I01
tp4776
sba(iModules.cell
Cell
p4777
(dp4778
g4
I00
sg407
I00
sg7
(I01
I01
tp4779
sba(iModules.cell
Cell
p4780
(dp4781
g4
I00
sg407
I00
sg7
(I01
I01
tp4782
sba(iModules.cell
Cell
p4783
(dp4784
g4
I00
sg407
I00
sg7
(I01
I01
tp4785
sba(iModules.cell
Cell
p4786
(dp4787
g4
I00
sg407
I00
sg7
(I01
I01
tp4788
sba(iModules.cell
Cell
p4789
(dp4790
g4
I00
sg407
I00
sg7
(I01
I01
tp4791
sba(iModules.cell
Cell
p4792
(dp4793
g4
I00
sg407
I00
sg7
(I01
I01
tp4794
sba(iModules.cell
Cell
p4795
(dp4796
g4
I00
sg407
I00
sg7
(I01
I01
tp4797
sba(iModules.cell
Cell
p4798
(dp4799
g4
I00
sg407
I00
sg7
(I01
I01
tp4800
sba(iModules.cell
Cell
p4801
(dp4802
g4
I00
sg407
I00
sg7
(I01
I01
tp4803
sba(iModules.cell
Cell
p4804
(dp4805
g4
I00
sg407
I00
sg7
(I01
I01
tp4806
sba(iModules.cell
Cell
p4807
(dp4808
g4
I00
sg407
I00
sg7
(I01
I01
tp4809
sba(iModules.cell
Cell
p4810
(dp4811
g4
I00
sg407
I00
sg7
(I01
I01
tp4812
sba(iModules.cell
Cell
p4813
(dp4814
g4
I00
sg407
I00
sg7
(I01
I01
tp4815
sba(iModules.cell
Cell
p4816
(dp4817
g4
I00
sg407
I00
sg7
(I01
I01
tp4818
sba(iModules.cell
Cell
p4819
(dp4820
g4
I00
sg407
I00
sg7
(I01
I01
tp4821
sba(iModules.cell
Cell
p4822
(dp4823
g4
I00
sg407
I00
sg7
(I01
I01
tp4824
sba(iModules.cell
Cell
p4825
(dp4826
g4
I00
sg407
I00
sg7
(I01
I01
tp4827
sba(iModules.cell
Cell
p4828
(dp4829
g4
I00
sg407
I00
sg7
(I01
I01
tp4830
sba(iModules.cell
Cell
p4831
(dp4832
g4
I00
sg407
I00
sg7
(I01
I01
tp4833
sba(iModules.cell
Cell
p4834
(dp4835
g4
I00
sg407
I00
sg7
(I01
I01
tp4836
sba(iModules.cell
Cell
p4837
(dp4838
g4
I00
sg407
I00
sg7
(I01
I01
tp4839
sba(iModules.cell
Cell
p4840
(dp4841
g4
I00
sg407
I00
sg7
(I01
I01
tp4842
sba(iModules.cell
Cell
p4843
(dp4844
g4
I00
sg407
I00
sg7
(I01
I01
tp4845
sba(iModules.cell
Cell
p4846
(dp4847
g4
I00
sg407
I00
sg7
(I01
I01
tp4848
sba(iModules.cell
Cell
p4849
(dp4850
g4
I00
sg407
I00
sg7
(I01
I01
tp4851
sba(iModules.cell
Cell
p4852
(dp4853
g4
I00
sg407
I00
sg7
(I01
I01
tp4854
sba(iModules.cell
Cell
p4855
(dp4856
g4
I00
sg407
I00
sg7
(I01
I01
tp4857
sba(iModules.cell
Cell
p4858
(dp4859
g4
I00
sg407
I00
sg7
(I00
I00
tp4860
sba(iModules.cell
Cell
p4861
(dp4862
g4
I00
sg6
I00
sg7
(I00
I00
tp4863
sba(iModules.cell
Cell
p4864
(dp4865
g4
I00
sg6
I00
sg7
(I00
I00
tp4866
sba(iModules.cell
Cell
p4867
(dp4868
g4
I00
sg6
I00
sg7
(I00
I00
tp4869
sba(iModules.cell
Cell
p4870
(dp4871
g4
I00
sg6
I00
sg7
(I00
I00
tp4872
sba(iModules.cell
Cell
p4873
(dp4874
g4
I00
sg6
I00
sg7
(I00
I00
tp4875
sba(iModules.cell
Cell
p4876
(dp4877
g4
I00
sg6
I00
sg7
(I00
I00
tp4878
sba(iModules.cell
Cell
p4879
(dp4880
g4
I00
sg6
I00
sg7
(I00
I00
tp4881
sba(iModules.cell
Cell
p4882
(dp4883
g4
I00
sg6
I00
sg7
(I00
I00
tp4884
sba(iModules.cell
Cell
p4885
(dp4886
g4
I00
sg6
I00
sg7
(I00
I00
tp4887
sba(iModules.cell
Cell
p4888
(dp4889
g4
I00
sg6
I00
sg7
(I00
I00
tp4890
sba(iModules.cell
Cell
p4891
(dp4892
g4
I00
sg6
I00
sg7
(I00
I00
tp4893
sba(iModules.cell
Cell
p4894
(dp4895
g4
I00
sg6
I00
sg7
(I00
I00
tp4896
sba(iModules.cell
Cell
p4897
(dp4898
g4
I00
sg6
I00
sg7
(I00
I00
tp4899
sba(iModules.cell
Cell
p4900
(dp4901
g4
I00
sg6
I00
sg7
(I00
I00
tp4902
sba(iModules.cell
Cell
p4903
(dp4904
g4
I00
sg6
I00
sg7
(I00
I00
tp4905
sba(iModules.cell
Cell
p4906
(dp4907
g4
I00
sg6
I00
sg7
(I00
I00
tp4908
sba(iModules.cell
Cell
p4909
(dp4910
g4
I00
sg6
I00
sg7
(I00
I00
tp4911
sba(iModules.cell
Cell
p4912
(dp4913
g4
I00
sg6
I00
sg7
(I00
I00
tp4914
sba(iModules.cell
Cell
p4915
(dp4916
g7
(I00
I00
tp4917
sbaa(lp4918
(iModules.cell
Cell
p4919
(dp4920
g4
I00
sg6
I00
sg7
(I00
I00
tp4921
sba(iModules.cell
Cell
p4922
(dp4923
g4
I00
sg300
I00
sg7
(I00
I00
tp4924
sba(iModules.cell
Cell
p4925
(dp4926
g4
I00
sg300
I00
sg7
(I01
I01
tp4927
sba(iModules.cell
Cell
p4928
(dp4929
g4
I00
sg300
I00
sg7
(I01
I01
tp4930
sba(iModules.cell
Cell
p4931
(dp4932
g4
I00
sg300
I00
sg7
(I01
I01
tp4933
sba(iModules.cell
Cell
p4934
(dp4935
g4
I00
sg300
I00
sg7
(I01
I01
tp4936
sba(iModules.cell
Cell
p4937
(dp4938
g4
I00
sg300
I00
sg7
(I01
I01
tp4939
sba(iModules.cell
Cell
p4940
(dp4941
g4
I00
sg300
I00
sg7
(I01
I01
tp4942
sba(iModules.cell
Cell
p4943
(dp4944
g4
I00
sg300
I00
sg7
(I01
I01
tp4945
sba(iModules.cell
Cell
p4946
(dp4947
g4
I00
sg300
I00
sg7
(I01
I01
tp4948
sba(iModules.cell
Cell
p4949
(dp4950
g4
I00
sg300
I00
sg7
(I01
I01
tp4951
sba(iModules.cell
Cell
p4952
(dp4953
g4
I00
sg300
I00
sg7
(I01
I01
tp4954
sba(iModules.cell
Cell
p4955
(dp4956
g4
I00
sg300
I00
sg7
(I01
I01
tp4957
sba(iModules.cell
Cell
p4958
(dp4959
g4
I00
sg300
I00
sg7
(I01
I01
tp4960
sba(iModules.cell
Cell
p4961
(dp4962
g4
I00
sg300
I00
sg7
(I01
I01
tp4963
sba(iModules.cell
Cell
p4964
(dp4965
g4
I00
sg300
I00
sg7
(I01
I01
tp4966
sba(iModules.cell
Cell
p4967
(dp4968
g4
I00
sg300
I00
sg7
(I01
I01
tp4969
sba(iModules.cell
Cell
p4970
(dp4971
g4
I00
sg300
I00
sg7
(I01
I01
tp4972
sba(iModules.cell
Cell
p4973
(dp4974
g4
I00
sg300
I00
sg7
(I01
I01
tp4975
sba(iModules.cell
Cell
p4976
(dp4977
g4
I00
sg300
I00
sg7
(I01
I01
tp4978
sba(iModules.cell
Cell
p4979
(dp4980
g4
I00
sg300
I00
sg7
(I00
I00
I00
tp4981
sba(iModules.cell
Cell
p4982
(dp4983
g4
I00
sg300
I00
sg7
(I01
I01
tp4984
sba(iModules.cell
Cell
p4985
(dp4986
g4
I00
sg300
I00
sg7
(I01
I01
tp4987
sba(iModules.cell
Cell
p4988
(dp4989
g4
I00
sg300
I00
sg7
(I00
I00
I00
tp4990
sba(iModules.cell
Cell
p4991
(dp4992
g4
I00
sg3738
I00
sg7
(I00
I00
I00
tp4993
sba(iModules.cell
Cell
p4994
(dp4995
g4
I00
sg3738
I00
sg7
(I00
I00
I00
tp4996
sba(iModules.cell
Cell
p4997
(dp4998
g4
I00
sg4269
I00
sg7
(I00
I00
I00
tp4999
sba(iModules.cell
Cell
p5000
(dp5001
g4
I00
sg4269
I00
sg7
(I00
I00
I00
tp5002
sba(iModules.cell
Cell
p5003
(dp5004
g4
I00
sg407
I00
sg7
(I01
I01
tp5005
sba(iModules.cell
Cell
p5006
(dp5007
g4
I00
sg407
I00
sg7
(I01
I01
tp5008
sba(iModules.cell
Cell
p5009
(dp5010
g4
I00
sg407
I00
sg7
(I01
I01
tp5011
sba(iModules.cell
Cell
p5012
(dp5013
g4
I00
sg407
I00
sg7
(I01
I01
tp5014
sba(iModules.cell
Cell
p5015
(dp5016
g4
I00
sg407
I00
sg7
(I00
I00
I00
tp5017
sba(iModules.cell
Cell
p5018
(dp5019
g4
I00
sg407
I00
sg7
(I01
I01
tp5020
sba(iModules.cell
Cell
p5021
(dp5022
g4
I00
sg407
I00
sg7
(I01
I01
tp5023
sba(iModules.cell
Cell
p5024
(dp5025
g4
I00
sg407
I00
sg7
(I01
I01
tp5026
sba(iModules.cell
Cell
p5027
(dp5028
g4
I00
sg407
I00
sg7
(I01
I01
tp5029
sba(iModules.cell
Cell
p5030
(dp5031
g4
I00
sg407
I00
sg7
(I01
I01
tp5032
sba(iModules.cell
Cell
p5033
(dp5034
g4
I00
sg407
I00
sg7
(I01
I01
tp5035
sba(iModules.cell
Cell
p5036
(dp5037
g4
I00
sg407
I00
sg7
(I01
I01
tp5038
sba(iModules.cell
Cell
p5039
(dp5040
g4
I00
sg407
I00
sg7
(I01
I01
tp5041
sba(iModules.cell
Cell
p5042
(dp5043
g4
I00
sg407
I00
sg7
(I01
I01
tp5044
sba(iModules.cell
Cell
p5045
(dp5046
g4
I00
sg407
I00
sg7
(I01
I01
tp5047
sba(iModules.cell
Cell
p5048
(dp5049
g4
I00
sg407
I00
sg7
(I01
I01
tp5050
sba(iModules.cell
Cell
p5051
(dp5052
g4
I00
sg407
I00
sg7
(I01
I01
tp5053
sba(iModules.cell
Cell
p5054
(dp5055
g4
I00
sg407
I00
sg7
(I01
I01
tp5056
sba(iModules.cell
Cell
p5057
(dp5058
g4
I00
sg407
I00
sg7
(I01
I01
tp5059
sba(iModules.cell
Cell
p5060
(dp5061
g4
I00
sg407
I00
sg7
(I01
I01
tp5062
sba(iModules.cell
Cell
p5063
(dp5064
g4
I00
sg407
I00
sg7
(I01
I01
tp5065
sba(iModules.cell
Cell
p5066
(dp5067
g4
I00
sg407
I00
sg7
(I01
I01
tp5068
sba(iModules.cell
Cell
p5069
(dp5070
g4
I00
sg407
I00
sg7
(I01
I01
tp5071
sba(iModules.cell
Cell
p5072
(dp5073
g4
I00
sg407
I00
sg7
(I01
I01
tp5074
sba(iModules.cell
Cell
p5075
(dp5076
g4
I00
sg407
I00
sg7
(I01
I01
tp5077
sba(iModules.cell
Cell
p5078
(dp5079
g4
I00
sg407
I00
sg7
(I01
I01
tp5080
sba(iModules.cell
Cell
p5081
(dp5082
g4
I00
sg407
I00
sg7
(I01
I01
tp5083
sba(iModules.cell
Cell
p5084
(dp5085
g4
I00
sg407
I00
sg7
(I01
I01
tp5086
sba(iModules.cell
Cell
p5087
(dp5088
g4
I00
sg407
I00
sg7
(I01
I01
tp5089
sba(iModules.cell
Cell
p5090
(dp5091
g4
I00
sg407
I00
sg7
(I01
I01
tp5092
sba(iModules.cell
Cell
p5093
(dp5094
g4
I00
sg407
I00
sg7
(I01
I01
tp5095
sba(iModules.cell
Cell
p5096
(dp5097
g4
I00
sg407
I00
sg7
(I01
I01
tp5098
sba(iModules.cell
Cell
p5099
(dp5100
g4
I00
sg407
I00
sg7
(I01
I01
tp5101
sba(iModules.cell
Cell
p5102
(dp5103
g4
I00
sg407
I00
sg7
(I00
I00
tp5104
sba(iModules.cell
Cell
p5105
(dp5106
g4
I00
sg6
I00
sg7
(I00
I00
tp5107
sba(iModules.cell
Cell
p5108
(dp5109
g4
I00
sg6
I00
sg7
(I00
I00
tp5110
sba(iModules.cell
Cell
p5111
(dp5112
g4
I00
sg6
I00
sg7
(I00
I00
tp5113
sba(iModules.cell
Cell
p5114
(dp5115
g4
I00
sg6
I00
sg7
(I00
I00
tp5116
sba(iModules.cell
Cell
p5117
(dp5118
g4
I00
sg6
I00
sg7
(I00
I00
tp5119
sba(iModules.cell
Cell
p5120
(dp5121
g4
I00
sg6
I00
sg7
(I00
I00
tp5122
sba(iModules.cell
Cell
p5123
(dp5124
g4
I00
sg6
I00
sg7
(I00
I00
tp5125
sba(iModules.cell
Cell
p5126
(dp5127
g4
I00
sg6
I00
sg7
(I00
I00
tp5128
sba(iModules.cell
Cell
p5129
(dp5130
g4
I00
sg6
I00
sg7
(I00
I00
tp5131
sba(iModules.cell
Cell
p5132
(dp5133
g4
I00
sg6
I00
sg7
(I00
I00
tp5134
sba(iModules.cell
Cell
p5135
(dp5136
g4
I00
sg6
I00
sg7
(I00
I00
tp5137
sba(iModules.cell
Cell
p5138
(dp5139
g4
I00
sg6
I00
sg7
(I00
I00
tp5140
sba(iModules.cell
Cell
p5141
(dp5142
g4
I00
sg6
I00
sg7
(I00
I00
tp5143
sba(iModules.cell
Cell
p5144
(dp5145
g4
I00
sg6
I00
sg7
(I00
I00
tp5146
sba(iModules.cell
Cell
p5147
(dp5148
g4
I00
sg6
I00
sg7
(I00
I00
tp5149
sba(iModules.cell
Cell
p5150
(dp5151
g4
I00
sg6
I00
sg7
(I00
I00
tp5152
sba(iModules.cell
Cell
p5153
(dp5154
g4
I00
sg6
I00
sg7
(I00
I00
tp5155
sba(iModules.cell
Cell
p5156
(dp5157
g4
I00
sg6
I00
sg7
(I00
I00
tp5158
sba(iModules.cell
Cell
p5159
(dp5160
g7
(I00
I00
tp5161
sbaa(lp5162
(iModules.cell
Cell
p5163
(dp5164
g4
I00
sg6
I00
sg7
(I00
I00
tp5165
sba(iModules.cell
Cell
p5166
(dp5167
g4
I00
sg300
I00
sg7
(I00
I00
tp5168
sba(iModules.cell
Cell
p5169
(dp5170
g4
I00
sg300
I00
sg7
(I01
I01
tp5171
sba(iModules.cell
Cell
p5172
(dp5173
g4
I00
sg300
I00
sg7
(I01
I01
tp5174
sba(iModules.cell
Cell
p5175
(dp5176
g4
I00
sg300
I00
sg7
(I01
I01
tp5177
sba(iModules.cell
Cell
p5178
(dp5179
g4
I00
sg300
I00
sg7
(I01
I01
tp5180
sba(iModules.cell
Cell
p5181
(dp5182
g4
I00
sg300
I00
sg7
(I01
I01
tp5183
sba(iModules.cell
Cell
p5184
(dp5185
g4
I00
sg300
I00
sg7
(I01
I01
tp5186
sba(iModules.cell
Cell
p5187
(dp5188
g4
I00
sg300
I00
sg7
(I01
I01
tp5189
sba(iModules.cell
Cell
p5190
(dp5191
g4
I00
sg300
I00
sg7
(I01
I01
tp5192
sba(iModules.cell
Cell
p5193
(dp5194
g4
I00
sg300
I00
sg7
(I01
I01
tp5195
sba(iModules.cell
Cell
p5196
(dp5197
g4
I00
sg300
I00
sg7
(I01
I01
tp5198
sba(iModules.cell
Cell
p5199
(dp5200
g4
I00
sg300
I00
sg7
(I01
I01
tp5201
sba(iModules.cell
Cell
p5202
(dp5203
g4
I00
sg300
I00
sg7
(I01
I01
tp5204
sba(iModules.cell
Cell
p5205
(dp5206
g4
I00
sg300
I00
sg7
(I01
I01
tp5207
sba(iModules.cell
Cell
p5208
(dp5209
g4
I00
sg300
I00
sg7
(I01
I01
tp5210
sba(iModules.cell
Cell
p5211
(dp5212
g4
I00
sg300
I00
sg7
(I01
I01
tp5213
sba(iModules.cell
Cell
p5214
(dp5215
g4
I00
sg300
I00
sg7
(I01
I01
tp5216
sba(iModules.cell
Cell
p5217
(dp5218
g4
I00
sg300
I00
sg7
(I01
I01
tp5219
sba(iModules.cell
Cell
p5220
(dp5221
g4
I00
sg300
I00
sg7
(I01
I01
tp5222
sba(iModules.cell
Cell
p5223
(dp5224
g4
I00
sg300
I00
sg7
(I00
I00
I00
tp5225
sba(iModules.cell
Cell
p5226
(dp5227
g4
I00
sg300
I00
sg7
(I01
I01
tp5228
sba(iModules.cell
Cell
p5229
(dp5230
g4
I00
sg300
I00
sg7
(I01
I01
tp5231
sba(iModules.cell
Cell
p5232
(dp5233
g4
I00
sg3738
I00
sg7
(I01
I01
tp5234
sba(iModules.cell
Cell
p5235
(dp5236
g4
I00
sg3738
I00
sg7
(I01
I01
tp5237
sba(iModules.cell
Cell
p5238
(dp5239
g4
I00
sg3738
I00
sg7
(I01
I01
tp5240
sba(iModules.cell
Cell
p5241
(dp5242
g4
I00
sg4269
I00
sg7
(I01
I01
tp5243
sba(iModules.cell
Cell
p5244
(dp5245
g4
I00
sg4269
I00
sg7
(I01
I01
tp5246
sba(iModules.cell
Cell
p5247
(dp5248
g4
I00
sg407
I00
sg7
(I01
I01
tp5249
sba(iModules.cell
Cell
p5250
(dp5251
g4
I00
sg407
I00
sg7
(I01
I01
tp5252
sba(iModules.cell
Cell
p5253
(dp5254
g4
I00
sg407
I00
sg7
(I01
I01
tp5255
sba(iModules.cell
Cell
p5256
(dp5257
g4
I00
sg407
I00
sg7
(I01
I01
tp5258
sba(iModules.cell
Cell
p5259
(dp5260
g4
I00
sg407
I00
sg7
(I00
I00
I00
tp5261
sba(iModules.cell
Cell
p5262
(dp5263
g4
I00
sg407
I00
sg7
(I01
I01
tp5264
sba(iModules.cell
Cell
p5265
(dp5266
g4
I00
sg407
I00
sg7
(I01
I01
tp5267
sba(iModules.cell
Cell
p5268
(dp5269
g4
I00
sg407
I00
sg7
(I01
I01
tp5270
sba(iModules.cell
Cell
p5271
(dp5272
g4
I00
sg407
I00
sg7
(I01
I01
tp5273
sba(iModules.cell
Cell
p5274
(dp5275
g4
I00
sg407
I00
sg7
(I01
I01
tp5276
sba(iModules.cell
Cell
p5277
(dp5278
g4
I00
sg407
I00
sg7
(I01
I01
tp5279
sba(iModules.cell
Cell
p5280
(dp5281
g4
I00
sg407
I00
sg7
(I01
I01
tp5282
sba(iModules.cell
Cell
p5283
(dp5284
g4
I00
sg407
I00
sg7
(I01
I01
tp5285
sba(iModules.cell
Cell
p5286
(dp5287
g4
I00
sg407
I00
sg7
(I01
I01
tp5288
sba(iModules.cell
Cell
p5289
(dp5290
g4
I00
sg407
I00
sg7
(I01
I01
tp5291
sba(iModules.cell
Cell
p5292
(dp5293
g4
I00
sg407
I00
sg7
(I01
I01
tp5294
sba(iModules.cell
Cell
p5295
(dp5296
g4
I00
sg407
I00
sg7
(I01
I01
tp5297
sba(iModules.cell
Cell
p5298
(dp5299
g4
I00
sg407
I00
sg7
(I01
I01
tp5300
sba(iModules.cell
Cell
p5301
(dp5302
g4
I00
sg407
I00
sg7
(I01
I01
tp5303
sba(iModules.cell
Cell
p5304
(dp5305
g4
I00
sg407
I00
sg7
(I01
I01
tp5306
sba(iModules.cell
Cell
p5307
(dp5308
g4
I00
sg407
I00
sg7
(I01
I01
tp5309
sba(iModules.cell
Cell
p5310
(dp5311
g4
I00
sg407
I00
sg7
(I01
I01
tp5312
sba(iModules.cell
Cell
p5313
(dp5314
g4
I00
sg407
I00
sg7
(I01
I01
tp5315
sba(iModules.cell
Cell
p5316
(dp5317
g4
I00
sg407
I00
sg7
(I01
I01
tp5318
sba(iModules.cell
Cell
p5319
(dp5320
g4
I00
sg407
I00
sg7
(I01
I01
tp5321
sba(iModules.cell
Cell
p5322
(dp5323
g4
I00
sg407
I00
sg7
(I01
I01
tp5324
sba(iModules.cell
Cell
p5325
(dp5326
g4
I00
sg407
I00
sg7
(I01
I01
tp5327
sba(iModules.cell
Cell
p5328
(dp5329
g4
I00
sg407
I00
sg7
(I01
I01
tp5330
sba(iModules.cell
Cell
p5331
(dp5332
g4
I00
sg407
I00
sg7
(I01
I01
tp5333
sba(iModules.cell
Cell
p5334
(dp5335
g4
I00
sg407
I00
sg7
(I01
I01
tp5336
sba(iModules.cell
Cell
p5337
(dp5338
g4
I00
sg407
I00
sg7
(I01
I01
tp5339
sba(iModules.cell
Cell
p5340
(dp5341
g4
I00
sg407
I00
sg7
(I01
I01
tp5342
sba(iModules.cell
Cell
p5343
(dp5344
g4
I00
sg407
I00
sg7
(I01
I01
tp5345
sba(iModules.cell
Cell
p5346
(dp5347
g4
I00
sg407
I00
sg7
(I00
I00
tp5348
sba(iModules.cell
Cell
p5349
(dp5350
g4
I00
sg6
I00
sg7
(I00
I00
tp5351
sba(iModules.cell
Cell
p5352
(dp5353
g4
I00
sg6
I00
sg7
(I00
I00
tp5354
sba(iModules.cell
Cell
p5355
(dp5356
g4
I00
sg6
I00
sg7
(I00
I00
tp5357
sba(iModules.cell
Cell
p5358
(dp5359
g4
I00
sg6
I00
sg7
(I00
I00
tp5360
sba(iModules.cell
Cell
p5361
(dp5362
g4
I00
sg6
I00
sg7
(I00
I00
tp5363
sba(iModules.cell
Cell
p5364
(dp5365
g4
I00
sg6
I00
sg7
(I00
I00
tp5366
sba(iModules.cell
Cell
p5367
(dp5368
g4
I00
sg6
I00
sg7
(I00
I00
tp5369
sba(iModules.cell
Cell
p5370
(dp5371
g4
I00
sg6
I00
sg7
(I00
I00
tp5372
sba(iModules.cell
Cell
p5373
(dp5374
g4
I00
sg6
I00
sg7
(I00
I00
tp5375
sba(iModules.cell
Cell
p5376
(dp5377
g4
I00
sg6
I00
sg7
(I00
I00
tp5378
sba(iModules.cell
Cell
p5379
(dp5380
g4
I00
sg6
I00
sg7
(I00
I00
tp5381
sba(iModules.cell
Cell
p5382
(dp5383
g4
I00
sg6
I00
sg7
(I00
I00
tp5384
sba(iModules.cell
Cell
p5385
(dp5386
g4
I00
sg6
I00
sg7
(I00
I00
tp5387
sba(iModules.cell
Cell
p5388
(dp5389
g4
I00
sg6
I00
sg7
(I00
I00
tp5390
sba(iModules.cell
Cell
p5391
(dp5392
g4
I00
sg6
I00
sg7
(I00
I00
tp5393
sba(iModules.cell
Cell
p5394
(dp5395
g4
I00
sg6
I00
sg7
(I00
I00
tp5396
sba(iModules.cell
Cell
p5397
(dp5398
g4
I00
sg6
I00
sg7
(I00
I00
tp5399
sba(iModules.cell
Cell
p5400
(dp5401
g4
I00
sg6
I00
sg7
(I00
I00
tp5402
sba(iModules.cell
Cell
p5403
(dp5404
g7
(I00
I00
tp5405
sbaa(lp5406
(iModules.cell
Cell
p5407
(dp5408
g4
I00
sg6
I00
sg7
(I00
I00
tp5409
sba(iModules.cell
Cell
p5410
(dp5411
g4
I00
sg300
I00
sg7
(I00
I00
tp5412
sba(iModules.cell
Cell
p5413
(dp5414
g4
I00
sg300
I00
sg7
(I00
I00
tp5415
sba(iModules.cell
Cell
p5416
(dp5417
g4
I00
sg300
I00
sg7
(I00
I00
tp5418
sba(iModules.cell
Cell
p5419
(dp5420
g4
I00
sg300
I00
sg7
(I00
I00
tp5421
sba(iModules.cell
Cell
p5422
(dp5423
g4
I00
sg300
I00
sg7
(I00
I00
tp5424
sba(iModules.cell
Cell
p5425
(dp5426
g4
I00
sg300
I00
sg7
(I00
I00
tp5427
sba(iModules.cell
Cell
p5428
(dp5429
g4
I00
sg300
I00
sg7
(I00
I00
tp5430
sba(iModules.cell
Cell
p5431
(dp5432
g4
I00
sg300
I00
sg7
(I00
I00
tp5433
sba(iModules.cell
Cell
p5434
(dp5435
g4
I00
sg300
I00
sg7
(I00
I00
tp5436
sba(iModules.cell
Cell
p5437
(dp5438
g4
I00
sg300
I00
sg7
(I00
I00
tp5439
sba(iModules.cell
Cell
p5440
(dp5441
g4
I00
sg300
I00
sg7
(I00
I00
tp5442
sba(iModules.cell
Cell
p5443
(dp5444
g4
I00
sg300
I00
sg7
(I00
I00
tp5445
sba(iModules.cell
Cell
p5446
(dp5447
g4
I00
sg300
I00
sg7
(I00
I00
tp5448
sba(iModules.cell
Cell
p5449
(dp5450
g4
I00
sg300
I00
sg7
(I00
I00
tp5451
sba(iModules.cell
Cell
p5452
(dp5453
g4
I00
sg300
I00
sg7
(I00
I00
tp5454
sba(iModules.cell
Cell
p5455
(dp5456
g4
I00
sg300
I00
sg7
(I00
I00
tp5457
sba(iModules.cell
Cell
p5458
(dp5459
g4
I00
sg300
I00
sg7
(I00
I00
tp5460
sba(iModules.cell
Cell
p5461
(dp5462
g4
I00
sg300
I00
sg7
(I00
I00
tp5463
sba(iModules.cell
Cell
p5464
(dp5465
g4
I00
sg300
I00
sg7
(I00
I00
tp5466
sba(iModules.cell
Cell
p5467
(dp5468
g4
I00
sg300
I00
sg7
(I00
I00
tp5469
sba(iModules.cell
Cell
p5470
(dp5471
g4
I00
sg300
I00
sg7
(I00
I00
tp5472
sba(iModules.cell
Cell
p5473
(dp5474
g4
I00
sg3738
I00
sg7
(I00
I00
tp5475
sba(iModules.cell
Cell
p5476
(dp5477
g4
I00
sg3738
I00
sg7
(I00
I00
tp5478
sba(iModules.cell
Cell
p5479
(dp5480
g4
I00
sg3738
I00
sg7
(I00
I00
tp5481
sba(iModules.cell
Cell
p5482
(dp5483
g4
I00
sg3738
I00
sg7
(I00
I00
tp5484
sba(iModules.cell
Cell
p5485
(dp5486
g4
I00
sg4269
I00
sg7
(I00
I00
tp5487
sba(iModules.cell
Cell
p5488
(dp5489
g4
I00
sg4269
I00
sg7
(I00
I00
tp5490
sba(iModules.cell
Cell
p5491
(dp5492
g4
I00
sg407
I00
sg7
(I00
I00
tp5493
sba(iModules.cell
Cell
p5494
(dp5495
g4
I00
sg407
I00
sg7
(I00
I00
tp5496
sba(iModules.cell
Cell
p5497
(dp5498
g4
I00
sg407
I00
sg7
(I00
I00
tp5499
sba(iModules.cell
Cell
p5500
(dp5501
g4
I00
sg407
I00
sg7
(I00
I00
tp5502
sba(iModules.cell
Cell
p5503
(dp5504
g4
I00
sg407
I00
sg7
(I00
I00
tp5505
sba(iModules.cell
Cell
p5506
(dp5507
g4
I00
sg407
I00
sg7
(I00
I00
tp5508
sba(iModules.cell
Cell
p5509
(dp5510
g4
I00
sg407
I00
sg7
(I00
I00
tp5511
sba(iModules.cell
Cell
p5512
(dp5513
g4
I00
sg407
I00
sg7
(I00
I00
tp5514
sba(iModules.cell
Cell
p5515
(dp5516
g4
I00
sg407
I00
sg7
(I00
I00
tp5517
sba(iModules.cell
Cell
p5518
(dp5519
g4
I00
sg407
I00
sg7
(I00
I00
tp5520
sba(iModules.cell
Cell
p5521
(dp5522
g4
I00
sg407
I00
sg7
(I00
I00
tp5523
sba(iModules.cell
Cell
p5524
(dp5525
g4
I00
sg407
I00
sg7
(I00
I00
tp5526
sba(iModules.cell
Cell
p5527
(dp5528
g4
I00
sg407
I00
sg7
(I00
I00
tp5529
sba(iModules.cell
Cell
p5530
(dp5531
g4
I00
sg407
I00
sg7
(I00
I00
tp5532
sba(iModules.cell
Cell
p5533
(dp5534
g4
I00
sg407
I00
sg7
(I00
I00
tp5535
sba(iModules.cell
Cell
p5536
(dp5537
g4
I00
sg407
I00
sg7
(I00
I00
tp5538
sba(iModules.cell
Cell
p5539
(dp5540
g4
I00
sg407
I00
sg7
(I00
I00
tp5541
sba(iModules.cell
Cell
p5542
(dp5543
g4
I00
sg407
I00
sg7
(I00
I00
tp5544
sba(iModules.cell
Cell
p5545
(dp5546
g4
I00
sg407
I00
sg7
(I00
I00
tp5547
sba(iModules.cell
Cell
p5548
(dp5549
g4
I00
sg407
I00
sg7
(I00
I00
tp5550
sba(iModules.cell
Cell
p5551
(dp5552
g4
I00
sg407
I00
sg7
(I00
I00
tp5553
sba(iModules.cell
Cell
p5554
(dp5555
g4
I00
sg407
I00
sg7
(I00
I00
tp5556
sba(iModules.cell
Cell
p5557
(dp5558
g4
I00
sg407
I00
sg7
(I00
I00
tp5559
sba(iModules.cell
Cell
p5560
(dp5561
g4
I00
sg407
I00
sg7
(I00
I00
tp5562
sba(iModules.cell
Cell
p5563
(dp5564
g4
I00
sg407
I00
sg7
(I00
I00
tp5565
sba(iModules.cell
Cell
p5566
(dp5567
g4
I00
sg407
I00
sg7
(I00
I00
tp5568
sba(iModules.cell
Cell
p5569
(dp5570
g4
I00
sg407
I00
sg7
(I00
I00
tp5571
sba(iModules.cell
Cell
p5572
(dp5573
g4
I00
sg407
I00
sg7
(I00
I00
tp5574
sba(iModules.cell
Cell
p5575
(dp5576
g4
I00
sg407
I00
sg7
(I00
I00
tp5577
sba(iModules.cell
Cell
p5578
(dp5579
g4
I00
sg407
I00
sg7
(I00
I00
tp5580
sba(iModules.cell
Cell
p5581
(dp5582
g4
I00
sg407
I00
sg7
(I00
I00
tp5583
sba(iModules.cell
Cell
p5584
(dp5585
g4
I00
sg407
I00
sg7
(I00
I00
tp5586
sba(iModules.cell
Cell
p5587
(dp5588
g4
I00
sg407
I00
sg7
(I00
I00
tp5589
sba(iModules.cell
Cell
p5590
(dp5591
g4
I00
sg407
I00
sg7
(I00
I00
tp5592
sba(iModules.cell
Cell
p5593
(dp5594
g4
I00
sg6
I00
sg7
(I00
I00
tp5595
sba(iModules.cell
Cell
p5596
(dp5597
g4
I00
sg6
I00
sg7
(I00
I00
tp5598
sba(iModules.cell
Cell
p5599
(dp5600
g4
I00
sg6
I00
sg7
(I00
I00
tp5601
sba(iModules.cell
Cell
p5602
(dp5603
g4
I00
sg6
I00
sg7
(I00
I00
tp5604
sba(iModules.cell
Cell
p5605
(dp5606
g4
I00
sg6
I00
sg7
(I00
I00
tp5607
sba(iModules.cell
Cell
p5608
(dp5609
g4
I00
sg6
I00
sg7
(I00
I00
tp5610
sba(iModules.cell
Cell
p5611
(dp5612
g4
I00
sg6
I00
sg7
(I00
I00
tp5613
sba(iModules.cell
Cell
p5614
(dp5615
g4
I00
sg6
I00
sg7
(I00
I00
tp5616
sba(iModules.cell
Cell
p5617
(dp5618
g4
I00
sg6
I00
sg7
(I00
I00
tp5619
sba(iModules.cell
Cell
p5620
(dp5621
g4
I00
sg6
I00
sg7
(I00
I00
tp5622
sba(iModules.cell
Cell
p5623
(dp5624
g4
I00
sg6
I00
sg7
(I00
I00
tp5625
sba(iModules.cell
Cell
p5626
(dp5627
g4
I00
sg6
I00
sg7
(I00
I00
tp5628
sba(iModules.cell
Cell
p5629
(dp5630
g4
I00
sg6
I00
sg7
(I00
I00
tp5631
sba(iModules.cell
Cell
p5632
(dp5633
g4
I00
sg6
I00
sg7
(I00
I00
tp5634
sba(iModules.cell
Cell
p5635
(dp5636
g4
I00
sg6
I00
sg7
(I00
I00
tp5637
sba(iModules.cell
Cell
p5638
(dp5639
g4
I00
sg6
I00
sg7
(I00
I00
tp5640
sba(iModules.cell
Cell
p5641
(dp5642
g4
I00
sg6
I00
sg7
(I00
I00
tp5643
sba(iModules.cell
Cell
p5644
(dp5645
g4
I00
sg6
I00
sg7
(I00
I00
tp5646
sba(iModules.cell
Cell
p5647
(dp5648
g7
(I00
I00
tp5649
sbaa(lp5650
(iModules.cell
Cell
p5651
(dp5652
g7
(I00
I00
tp5653
sba(iModules.cell
Cell
p5654
(dp5655
g7
(I00
I00
tp5656
sba(iModules.cell
Cell
p5657
(dp5658
g7
(I00
I00
tp5659
sba(iModules.cell
Cell
p5660
(dp5661
g7
(I00
I00
tp5662
sba(iModules.cell
Cell
p5663
(dp5664
g7
(I00
I00
tp5665
sba(iModules.cell
Cell
p5666
(dp5667
g7
(I00
I00
tp5668
sba(iModules.cell
Cell
p5669
(dp5670
g7
(I00
I00
tp5671
sba(iModules.cell
Cell
p5672
(dp5673
g7
(I00
I00
tp5674
sba(iModules.cell
Cell
p5675
(dp5676
g7
(I00
I00
tp5677
sba(iModules.cell
Cell
p5678
(dp5679
g7
(I00
I00
tp5680
sba(iModules.cell
Cell
p5681
(dp5682
g7
(I00
I00
tp5683
sba(iModules.cell
Cell
p5684
(dp5685
g7
(I00
I00
tp5686
sba(iModules.cell
Cell
p5687
(dp5688
g7
(I00
I00
tp5689
sba(iModules.cell
Cell
p5690
(dp5691
g7
(I00
I00
tp5692
sba(iModules.cell
Cell
p5693
(dp5694
g7
(I00
I00
tp5695
sba(iModules.cell
Cell
p5696
(dp5697
g7
(I00
I00
tp5698
sba(iModules.cell
Cell
p5699
(dp5700
g7
(I00
I00
tp5701
sba(iModules.cell
Cell
p5702
(dp5703
g7
(I00
I00
tp5704
sba(iModules.cell
Cell
p5705
(dp5706
g7
(I00
I00
tp5707
sba(iModules.cell
Cell
p5708
(dp5709
g7
(I00
I00
tp5710
sba(iModules.cell
Cell
p5711
(dp5712
g7
(I00
I00
tp5713
sba(iModules.cell
Cell
p5714
(dp5715
g7
(I00
I00
tp5716
sba(iModules.cell
Cell
p5717
(dp5718
g7
(I00
I00
tp5719
sba(iModules.cell
Cell
p5720
(dp5721
g7
(I00
I00
tp5722
sba(iModules.cell
Cell
p5723
(dp5724
g7
(I00
I00
tp5725
sba(iModules.cell
Cell
p5726
(dp5727
g7
(I00
I00
tp5728
sba(iModules.cell
Cell
p5729
(dp5730
g7
(I00
I00
tp5731
sba(iModules.cell
Cell
p5732
(dp5733
g7
(I00
I00
tp5734
sba(iModules.cell
Cell
p5735
(dp5736
g7
(I00
I00
tp5737
sba(iModules.cell
Cell
p5738
(dp5739
g7
(I00
I00
tp5740
sba(iModules.cell
Cell
p5741
(dp5742
g7
(I00
I00
tp5743
sba(iModules.cell
Cell
p5744
(dp5745
g7
(I00
I00
tp5746
sba(iModules.cell
Cell
p5747
(dp5748
g7
(I00
I00
tp5749
sba(iModules.cell
Cell
p5750
(dp5751
g7
(I00
I00
tp5752
sba(iModules.cell
Cell
p5753
(dp5754
g7
(I00
I00
tp5755
sba(iModules.cell
Cell
p5756
(dp5757
g7
(I00
I00
tp5758
sba(iModules.cell
Cell
p5759
(dp5760
g7
(I00
I00
tp5761
sba(iModules.cell
Cell
p5762
(dp5763
g7
(I00
I00
tp5764
sba(iModules.cell
Cell
p5765
(dp5766
g7
(I00
I00
tp5767
sba(iModules.cell
Cell
p5768
(dp5769
g7
(I00
I00
tp5770
sba(iModules.cell
Cell
p5771
(dp5772
g7
(I00
I00
tp5773
sba(iModules.cell
Cell
p5774
(dp5775
g7
(I00
I00
tp5776
sba(iModules.cell
Cell
p5777
(dp5778
g7
(I00
I00
tp5779
sba(iModules.cell
Cell
p5780
(dp5781
g7
(I00
I00
tp5782
sba(iModules.cell
Cell
p5783
(dp5784
g7
(I00
I00
tp5785
sba(iModules.cell
Cell
p5786
(dp5787
g7
(I00
I00
tp5788
sba(iModules.cell
Cell
p5789
(dp5790
g7
(I00
I00
tp5791
sba(iModules.cell
Cell
p5792
(dp5793
g7
(I00
I00
tp5794
sba(iModules.cell
Cell
p5795
(dp5796
g7
(I00
I00
tp5797
sba(iModules.cell
Cell
p5798
(dp5799
g7
(I00
I00
tp5800
sba(iModules.cell
Cell
p5801
(dp5802
g7
(I00
I00
tp5803
sba(iModules.cell
Cell
p5804
(dp5805
g7
(I00
I00
tp5806
sba(iModules.cell
Cell
p5807
(dp5808
g7
(I00
I00
tp5809
sba(iModules.cell
Cell
p5810
(dp5811
g7
(I00
I00
tp5812
sba(iModules.cell
Cell
p5813
(dp5814
g7
(I00
I00
tp5815
sba(iModules.cell
Cell
p5816
(dp5817
g7
(I00
I00
tp5818
sba(iModules.cell
Cell
p5819
(dp5820
g7
(I00
I00
tp5821
sba(iModules.cell
Cell
p5822
(dp5823
g7
(I00
I00
tp5824
sba(iModules.cell
Cell
p5825
(dp5826
g7
(I00
I00
tp5827
sba(iModules.cell
Cell
p5828
(dp5829
g7
(I00
I00
tp5830
sba(iModules.cell
Cell
p5831
(dp5832
g7
(I00
I00
tp5833
sba(iModules.cell
Cell
p5834
(dp5835
g7
(I00
I00
tp5836
sba(iModules.cell
Cell
p5837
(dp5838
g7
(I00
I00
tp5839
sba(iModules.cell
Cell
p5840
(dp5841
g7
(I00
I00
tp5842
sba(iModules.cell
Cell
p5843
(dp5844
g7
(I00
I00
tp5845
sba(iModules.cell
Cell
p5846
(dp5847
g7
(I00
I00
tp5848
sba(iModules.cell
Cell
p5849
(dp5850
g7
(I00
I00
tp5851
sba(iModules.cell
Cell
p5852
(dp5853
g7
(I00
I00
tp5854
sba(iModules.cell
Cell
p5855
(dp5856
g7
(I00
I00
tp5857
sba(iModules.cell
Cell
p5858
(dp5859
g7
(I00
I00
tp5860
sba(iModules.cell
Cell
p5861
(dp5862
g7
(I00
I00
tp5863
sba(iModules.cell
Cell
p5864
(dp5865
g7
(I00
I00
tp5866
sba(iModules.cell
Cell
p5867
(dp5868
g7
(I00
I00
tp5869
sba(iModules.cell
Cell
p5870
(dp5871
g7
(I00
I00
tp5872
sba(iModules.cell
Cell
p5873
(dp5874
g7
(I00
I00
tp5875
sba(iModules.cell
Cell
p5876
(dp5877
g7
(I00
I00
tp5878
sba(iModules.cell
Cell
p5879
(dp5880
g7
(I00
I00
tp5881
sba(iModules.cell
Cell
p5882
(dp5883
g7
(I00
I00
tp5884
sba(iModules.cell
Cell
p5885
(dp5886
g7
(I00
I00
tp5887
sba(iModules.cell
Cell
p5888
(dp5889
g7
(I00
I00
tp5890
sba(iModules.cell
Cell
p5891
(dp5892
g7
(I00
I00
tp5893
sbaa(lp5894
(iModules.cell
Cell
p5895
(dp5896
g7
(I00
I00
tp5897
sba(iModules.cell
Cell
p5898
(dp5899
g7
(I00
I00
tp5900
sba(iModules.cell
Cell
p5901
(dp5902
g7
(I00
I00
tp5903
sba(iModules.cell
Cell
p5904
(dp5905
g7
(I00
I00
tp5906
sba(iModules.cell
Cell
p5907
(dp5908
g7
(I00
I00
tp5909
sba(iModules.cell
Cell
p5910
(dp5911
g7
(I00
I00
tp5912
sba(iModules.cell
Cell
p5913
(dp5914
g7
(I00
I00
tp5915
sba(iModules.cell
Cell
p5916
(dp5917
g7
(I00
I00
tp5918
sba(iModules.cell
Cell
p5919
(dp5920
g7
(I00
I00
tp5921
sba(iModules.cell
Cell
p5922
(dp5923
g7
(I00
I00
tp5924
sba(iModules.cell
Cell
p5925
(dp5926
g7
(I00
I00
tp5927
sba(iModules.cell
Cell
p5928
(dp5929
g7
(I00
I00
tp5930
sba(iModules.cell
Cell
p5931
(dp5932
g7
(I00
I00
tp5933
sba(iModules.cell
Cell
p5934
(dp5935
g7
(I00
I00
tp5936
sba(iModules.cell
Cell
p5937
(dp5938
g7
(I00
I00
tp5939
sba(iModules.cell
Cell
p5940
(dp5941
g7
(I00
I00
tp5942
sba(iModules.cell
Cell
p5943
(dp5944
g7
(I00
I00
tp5945
sba(iModules.cell
Cell
p5946
(dp5947
g7
(I00
I00
tp5948
sba(iModules.cell
Cell
p5949
(dp5950
g7
(I00
I00
tp5951
sba(iModules.cell
Cell
p5952
(dp5953
g7
(I00
I00
tp5954
sba(iModules.cell
Cell
p5955
(dp5956
g7
(I00
I00
tp5957
sba(iModules.cell
Cell
p5958
(dp5959
g7
(I00
I00
tp5960
sba(iModules.cell
Cell
p5961
(dp5962
g7
(I00
I00
tp5963
sba(iModules.cell
Cell
p5964
(dp5965
g7
(I00
I00
tp5966
sba(iModules.cell
Cell
p5967
(dp5968
g7
(I00
I00
tp5969
sba(iModules.cell
Cell
p5970
(dp5971
g7
(I00
I00
tp5972
sba(iModules.cell
Cell
p5973
(dp5974
g7
(I00
I00
tp5975
sba(iModules.cell
Cell
p5976
(dp5977
g7
(I00
I00
tp5978
sba(iModules.cell
Cell
p5979
(dp5980
g7
(I00
I00
tp5981
sba(iModules.cell
Cell
p5982
(dp5983
g7
(I00
I00
tp5984
sba(iModules.cell
Cell
p5985
(dp5986
g7
(I00
I00
tp5987
sba(iModules.cell
Cell
p5988
(dp5989
g7
(I00
I00
tp5990
sba(iModules.cell
Cell
p5991
(dp5992
g7
(I00
I00
tp5993
sba(iModules.cell
Cell
p5994
(dp5995
g7
(I00
I00
tp5996
sba(iModules.cell
Cell
p5997
(dp5998
g7
(I00
I00
tp5999
sba(iModules.cell
Cell
p6000
(dp6001
g7
(I00
I00
tp6002
sba(iModules.cell
Cell
p6003
(dp6004
g7
(I00
I00
tp6005
sba(iModules.cell
Cell
p6006
(dp6007
g7
(I00
I00
tp6008
sba(iModules.cell
Cell
p6009
(dp6010
g7
(I00
I00
tp6011
sba(iModules.cell
Cell
p6012
(dp6013
g7
(I00
I00
tp6014
sba(iModules.cell
Cell
p6015
(dp6016
g7
(I00
I00
tp6017
sba(iModules.cell
Cell
p6018
(dp6019
g7
(I00
I00
tp6020
sba(iModules.cell
Cell
p6021
(dp6022
g7
(I00
I00
tp6023
sba(iModules.cell
Cell
p6024
(dp6025
g7
(I00
I00
tp6026
sba(iModules.cell
Cell
p6027
(dp6028
g7
(I00
I00
tp6029
sba(iModules.cell
Cell
p6030
(dp6031
g7
(I00
I00
tp6032
sba(iModules.cell
Cell
p6033
(dp6034
g7
(I00
I00
tp6035
sba(iModules.cell
Cell
p6036
(dp6037
g7
(I00
I00
tp6038
sba(iModules.cell
Cell
p6039
(dp6040
g7
(I00
I00
tp6041
sba(iModules.cell
Cell
p6042
(dp6043
g7
(I00
I00
tp6044
sba(iModules.cell
Cell
p6045
(dp6046
g7
(I00
I00
tp6047
sba(iModules.cell
Cell
p6048
(dp6049
g7
(I00
I00
tp6050
sba(iModules.cell
Cell
p6051
(dp6052
g7
(I00
I00
tp6053
sba(iModules.cell
Cell
p6054
(dp6055
g7
(I00
I00
tp6056
sba(iModules.cell
Cell
p6057
(dp6058
g7
(I00
I00
tp6059
sba(iModules.cell
Cell
p6060
(dp6061
g7
(I00
I00
tp6062
sba(iModules.cell
Cell
p6063
(dp6064
g7
(I00
I00
tp6065
sba(iModules.cell
Cell
p6066
(dp6067
g7
(I00
I00
tp6068
sba(iModules.cell
Cell
p6069
(dp6070
g7
(I00
I00
tp6071
sba(iModules.cell
Cell
p6072
(dp6073
g7
(I00
I00
tp6074
sba(iModules.cell
Cell
p6075
(dp6076
g7
(I00
I00
tp6077
sba(iModules.cell
Cell
p6078
(dp6079
g7
(I00
I00
tp6080
sba(iModules.cell
Cell
p6081
(dp6082
g7
(I00
I00
tp6083
sba(iModules.cell
Cell
p6084
(dp6085
g7
(I00
I00
tp6086
sba(iModules.cell
Cell
p6087
(dp6088
g7
(I00
I00
tp6089
sba(iModules.cell
Cell
p6090
(dp6091
g7
(I00
I00
tp6092
sba(iModules.cell
Cell
p6093
(dp6094
g7
(I00
I00
tp6095
sba(iModules.cell
Cell
p6096
(dp6097
g7
(I00
I00
tp6098
sba(iModules.cell
Cell
p6099
(dp6100
g7
(I00
I00
tp6101
sba(iModules.cell
Cell
p6102
(dp6103
g7
(I00
I00
tp6104
sba(iModules.cell
Cell
p6105
(dp6106
g7
(I00
I00
tp6107
sba(iModules.cell
Cell
p6108
(dp6109
g7
(I00
I00
tp6110
sba(iModules.cell
Cell
p6111
(dp6112
g7
(I00
I00
tp6113
sba(iModules.cell
Cell
p6114
(dp6115
g7
(I00
I00
tp6116
sba(iModules.cell
Cell
p6117
(dp6118
g7
(I00
I00
tp6119
sba(iModules.cell
Cell
p6120
(dp6121
g7
(I00
I00
tp6122
sba(iModules.cell
Cell
p6123
(dp6124
g7
(I00
I00
tp6125
sba(iModules.cell
Cell
p6126
(dp6127
g7
(I00
I00
tp6128
sba(iModules.cell
Cell
p6129
(dp6130
g7
(I00
I00
tp6131
sba(iModules.cell
Cell
p6132
(dp6133
g7
(I00
I00
tp6134
sba(iModules.cell
Cell
p6135
(dp6136
g7
(I00
I00
tp6137
sbaa.