(lp0
(lp1
(iModules.cell
Cell
p2
(dp3
S'fov'
p4
I00
sS'visible'
p5
I00
sS'turns'
p6
I334
sS'hp'
p7
I30
sS'pc'
p8
(lp9
I3
aI5
asS'sc'
p10
(lp11
I16
aI34
asS'type'
p12
(I00
I00
tp13
sba(iModules.cell
Cell
p14
(dp15
g5
I00
sg12
(I00
I00
tp16
sba(iModules.cell
Cell
p17
(dp18
g5
I00
sg12
(I00
I00
tp19
sba(iModules.cell
Cell
p20
(dp21
g5
I00
sg12
(I00
I00
tp22
sba(iModules.cell
Cell
p23
(dp24
g5
I00
sg12
(I00
I00
tp25
sba(iModules.cell
Cell
p26
(dp27
g5
I00
sg12
(I00
I00
tp28
sba(iModules.cell
Cell
p29
(dp30
g5
I00
sg12
(I00
I00
tp31
sba(iModules.cell
Cell
p32
(dp33
g5
I00
sg12
(I00
I00
tp34
sba(iModules.cell
Cell
p35
(dp36
g5
I00
sg12
(I00
I00
tp37
sba(iModules.cell
Cell
p38
(dp39
g5
I00
sg12
(I00
I00
tp40
sba(iModules.cell
Cell
p41
(dp42
g5
I00
sg12
(I00
I00
tp43
sba(iModules.cell
Cell
p44
(dp45
g5
I00
sg12
(I00
I00
tp46
sba(iModules.cell
Cell
p47
(dp48
g5
I00
sg12
(I00
I00
tp49
sba(iModules.cell
Cell
p50
(dp51
g5
I00
sg12
(I00
I00
tp52
sba(iModules.cell
Cell
p53
(dp54
g5
I00
sg12
(I00
I00
tp55
sba(iModules.cell
Cell
p56
(dp57
g5
I00
sg12
(I00
I00
tp58
sba(iModules.cell
Cell
p59
(dp60
g5
I00
sg12
(I00
I00
tp61
sba(iModules.cell
Cell
p62
(dp63
g5
I00
sg12
(I00
I00
tp64
sba(iModules.cell
Cell
p65
(dp66
g5
I00
sg12
(I00
I00
tp67
sba(iModules.cell
Cell
p68
(dp69
g5
I00
sg12
(I00
I00
tp70
sba(iModules.cell
Cell
p71
(dp72
g5
I00
sg12
(I00
I00
tp73
sba(iModules.cell
Cell
p74
(dp75
g5
I00
sg12
(I00
I00
tp76
sba(iModules.cell
Cell
p77
(dp78
g5
I00
sg12
(I00
I00
tp79
sba(iModules.cell
Cell
p80
(dp81
g5
I00
sg12
(I00
I00
tp82
sba(iModules.cell
Cell
p83
(dp84
g5
I00
sg12
(I00
I00
tp85
sba(iModules.cell
Cell
p86
(dp87
g5
I00
sg12
(I00
I00
tp88
sba(iModules.cell
Cell
p89
(dp90
g5
I00
sg12
(I00
I00
tp91
sba(iModules.cell
Cell
p92
(dp93
g5
I00
sg12
(I00
I00
tp94
sba(iModules.cell
Cell
p95
(dp96
g5
I00
sg12
(I00
I00
tp97
sba(iModules.cell
Cell
p98
(dp99
g5
I00
sg12
(I00
I00
tp100
sba(iModules.cell
Cell
p101
(dp102
g5
I00
sg12
(I00
I00
tp103
sba(iModules.cell
Cell
p104
(dp105
g5
I00
sg12
(I00
I00
tp106
sba(iModules.cell
Cell
p107
(dp108
g5
I00
sg12
(I00
I00
tp109
sba(iModules.cell
Cell
p110
(dp111
g5
I00
sg12
(I00
I00
tp112
sba(iModules.cell
Cell
p113
(dp114
g5
I00
sg12
(I00
I00
tp115
sba(iModules.cell
Cell
p116
(dp117
g5
I00
sg12
(I00
I00
tp118
sba(iModules.cell
Cell
p119
(dp120
g5
I00
sg12
(I00
I00
tp121
sba(iModules.cell
Cell
p122
(dp123
g5
I00
sg12
(I00
I00
tp124
sba(iModules.cell
Cell
p125
(dp126
g5
I00
sg12
(I00
I00
tp127
sba(iModules.cell
Cell
p128
(dp129
g5
I00
sg12
(I00
I00
tp130
sba(iModules.cell
Cell
p131
(dp132
g5
I00
sg12
(I00
I00
tp133
sba(iModules.cell
Cell
p134
(dp135
g5
I00
sg12
(I00
I00
tp136
sba(iModules.cell
Cell
p137
(dp138
g5
I00
sg12
(I00
I00
tp139
sba(iModules.cell
Cell
p140
(dp141
g5
I00
sg12
(I00
I00
tp142
sba(iModules.cell
Cell
p143
(dp144
g5
I00
sg12
(I00
I00
tp145
sba(iModules.cell
Cell
p146
(dp147
g5
I00
sg12
(I00
I00
tp148
sba(iModules.cell
Cell
p149
(dp150
g5
I00
sg12
(I00
I00
tp151
sba(iModules.cell
Cell
p152
(dp153
g5
I00
sg12
(I00
I00
tp154
sba(iModules.cell
Cell
p155
(dp156
g5
I00
sg12
(I00
I00
tp157
sba(iModules.cell
Cell
p158
(dp159
g5
I00
sg12
(I00
I00
tp160
sba(iModules.cell
Cell
p161
(dp162
g5
I00
sg12
(I00
I00
tp163
sba(iModules.cell
Cell
p164
(dp165
g5
I00
sg12
(I00
I00
tp166
sba(iModules.cell
Cell
p167
(dp168
g5
I00
sg12
(I00
I00
tp169
sba(iModules.cell
Cell
p170
(dp171
g5
I00
sg12
(I00
I00
tp172
sba(iModules.cell
Cell
p173
(dp174
g5
I00
sg12
(I00
I00
tp175
sba(iModules.cell
Cell
p176
(dp177
g5
I00
sg12
(I00
I00
tp178
sba(iModules.cell
Cell
p179
(dp180
g5
I00
sg12
(I00
I00
tp181
sba(iModules.cell
Cell
p182
(dp183
g5
I00
sg12
(I00
I00
tp184
sba(iModules.cell
Cell
p185
(dp186
g5
I00
sg12
(I00
I00
tp187
sba(iModules.cell
Cell
p188
(dp189
g5
I00
sg12
(I00
I00
tp190
sba(iModules.cell
Cell
p191
(dp192
g5
I00
sg12
(I00
I00
tp193
sba(iModules.cell
Cell
p194
(dp195
g5
I00
sg12
(I00
I00
tp196
sba(iModules.cell
Cell
p197
(dp198
g5
I00
sg12
(I00
I00
tp199
sba(iModules.cell
Cell
p200
(dp201
g5
I00
sg12
(I00
I00
tp202
sba(iModules.cell
Cell
p203
(dp204
g5
I00
sg12
(I00
I00
tp205
sba(iModules.cell
Cell
p206
(dp207
g5
I00
sg12
(I00
I00
tp208
sba(iModules.cell
Cell
p209
(dp210
g5
I00
sg12
(I00
I00
tp211
sba(iModules.cell
Cell
p212
(dp213
g5
I00
sg12
(I00
I00
tp214
sba(iModules.cell
Cell
p215
(dp216
g5
I00
sg12
(I00
I00
tp217
sba(iModules.cell
Cell
p218
(dp219
g5
I00
sg12
(I00
I00
tp220
sba(iModules.cell
Cell
p221
(dp222
g5
I00
sg12
(I00
I00
tp223
sba(iModules.cell
Cell
p224
(dp225
g5
I00
sg12
(I00
I00
tp226
sba(iModules.cell
Cell
p227
(dp228
g5
I00
sg12
(I00
I00
tp229
sba(iModules.cell
Cell
p230
(dp231
g5
I00
sg12
(I00
I00
tp232
sba(iModules.cell
Cell
p233
(dp234
g5
I00
sg12
(I00
I00
tp235
sba(iModules.cell
Cell
p236
(dp237
g5
I00
sg12
(I00
I00
tp238
sba(iModules.cell
Cell
p239
(dp240
g5
I00
sg12
(I00
I00
tp241
sba(iModules.cell
Cell
p242
(dp243
g5
I00
sg12
(I00
I00
tp244
sba(iModules.cell
Cell
p245
(dp246
g5
I00
sg12
(I00
I00
tp247
sba(iModules.cell
Cell
p248
(dp249
g5
I00
sg12
(I00
I00
tp250
sba(iModules.cell
Cell
p251
(dp252
g12
(I00
I00
tp253
sbaa(lp254
(iModules.cell
Cell
p255
(dp256
g5
I00
sg12
(I00
I00
tp257
sba(iModules.cell
Cell
p258
(dp259
g5
I01
sS'explored'
p260
I01
sg12
(I00
I00
tp261
sba(iModules.cell
Cell
p262
(dp263
g5
I01
sg260
I01
sg12
(I00
I00
tp264
sba(iModules.cell
Cell
p265
(dp266
g5
I01
sg260
I01
sg12
(I00
I00
tp267
sba(iModules.cell
Cell
p268
(dp269
g5
I01
sg260
I01
sg12
(I00
I00
tp270
sba(iModules.cell
Cell
p271
(dp272
g5
I01
sg260
I01
sg12
(I00
I00
tp273
sba(iModules.cell
Cell
p274
(dp275
g5
I01
sg260
I01
sg12
(I00
I00
tp276
sba(iModules.cell
Cell
p277
(dp278
g5
I00
sg260
I01
sg12
(I00
I00
tp279
sba(iModules.cell
Cell
p280
(dp281
g5
I00
sg260
I01
sg12
(I00
I00
tp282
sba(iModules.cell
Cell
p283
(dp284
g5
I00
sg260
I01
sg12
(I00
I00
tp285
sba(iModules.cell
Cell
p286
(dp287
g5
I00
sg260
I01
sg12
(I00
I00
tp288
sba(iModules.cell
Cell
p289
(dp290
g5
I00
sg260
I01
sg12
(I00
I00
tp291
sba(iModules.cell
Cell
p292
(dp293
g5
I00
sg260
I01
sg12
(I00
I00
tp294
sba(iModules.cell
Cell
p295
(dp296
g5
I00
sg260
I01
sg12
(I00
I00
tp297
sba(iModules.cell
Cell
p298
(dp299
g5
I00
sg260
I01
sg12
(I00
I00
tp300
sba(iModules.cell
Cell
p301
(dp302
g5
I00
sg260
I01
sg12
(I00
I00
tp303
sba(iModules.cell
Cell
p304
(dp305
g5
I00
sg260
I01
sg12
(I00
I00
tp306
sba(iModules.cell
Cell
p307
(dp308
g5
I00
sg260
I01
sg12
(I00
I00
tp309
sba(iModules.cell
Cell
p310
(dp311
g5
I00
sg260
I01
sg12
(I00
I00
tp312
sba(iModules.cell
Cell
p313
(dp314
g5
I00
sg260
I01
sg12
(I00
I00
tp315
sba(iModules.cell
Cell
p316
(dp317
g5
I00
sg260
I01
sg12
(I00
I00
tp318
sba(iModules.cell
Cell
p319
(dp320
g5
I00
sg260
I01
sg12
(I00
I00
tp321
sba(iModules.cell
Cell
p322
(dp323
g5
I00
sg260
I01
sg12
(I00
I00
tp324
sba(iModules.cell
Cell
p325
(dp326
S'lit'
p327
I00
sg5
I00
sg260
I01
sg12
(I00
I00
tp328
sS'lit_by'
p329
(lp330
I1
aI23
asba(iModules.cell
Cell
p331
(dp332
g327
I00
sg5
I00
sg260
I01
sg12
(I00
I00
tp333
sg329
(lp334
I1
aI24
asba(iModules.cell
Cell
p335
(dp336
g327
I00
sg5
I00
sg260
I01
sg12
(I00
I00
tp337
sg329
(lp338
I1
aI25
asba(iModules.cell
Cell
p339
(dp340
g327
I00
sg5
I00
sg260
I01
sg12
(I00
I00
tp341
sg329
(lp342
I1
aI26
asba(iModules.cell
Cell
p343
(dp344
g327
I00
sg5
I00
sg260
I01
sg12
(I00
I00
tp345
sg329
(lp346
I1
aI27
asba(iModules.cell
Cell
p347
(dp348
g327
I00
sg5
I00
sg260
I01
sg12
(I00
I00
tp349
sg329
(lp350
I1
aI28
asba(iModules.cell
Cell
p351
(dp352
g327
I00
sg5
I00
sg260
I01
sg12
(I00
I00
tp353
sg329
(lp354
I1
aI29
asba(iModules.cell
Cell
p355
(dp356
g327
I00
sg5
I00
sg260
I01
sg12
(I00
I00
tp357
sg329
(lp358
I1
aI30
asba(iModules.cell
Cell
p359
(dp360
g327
I00
sg5
I00
sg260
I01
sg12
(I00
I00
tp361
sg329
(lp362
I1
aI31
asba(iModules.cell
Cell
p363
(dp364
g327
I00
sg5
I00
sg260
I01
sg12
(I00
I00
tp365
sg329
(lp366
I1
aI32
asba(iModules.cell
Cell
p367
(dp368
g327
I00
sg5
I00
sg260
I01
sg12
(I00
I00
tp369
sg329
(lp370
I1
aI33
asba(iModules.cell
Cell
p371
(dp372
g327
I00
sg5
I00
sg260
I01
sg12
(I00
I00
tp373
sg329
(lp374
I1
aI34
asba(iModules.cell
Cell
p375
(dp376
g327
I00
sg5
I00
sg260
I01
sg12
(I00
I00
tp377
sg329
(lp378
I1
aI35
asba(iModules.cell
Cell
p379
(dp380
g327
I00
sg5
I00
sg260
I01
sg12
(I00
I00
tp381
sg329
(lp382
I1
aI36
asba(iModules.cell
Cell
p383
(dp384
g327
I00
sg5
I00
sg260
I01
sg12
(I00
I00
tp385
sg329
(lp386
I1
aI37
asba(iModules.cell
Cell
p387
(dp388
g327
I00
sg5
I00
sg260
I01
sg12
(I00
I00
tp389
sg329
(lp390
I1
aI38
asba(iModules.cell
Cell
p391
(dp392
g327
I00
sg5
I00
sg260
I01
sg12
(I00
I00
tp393
sg329
(lp394
I1
aI39
asba(iModules.cell
Cell
p395
(dp396
g327
I00
sg5
I00
sg260
I01
sg12
(I00
I00
tp397
sg329
(lp398
I1
aI40
asba(iModules.cell
Cell
p399
(dp400
g327
I00
sg5
I00
sg260
I01
sg12
(I00
I00
tp401
sg329
(lp402
I1
aI41
asba(iModules.cell
Cell
p403
(dp404
g327
I00
sg5
I00
sg260
I01
sg12
(I00
I00
tp405
sg329
(lp406
I1
aI42
asba(iModules.cell
Cell
p407
(dp408
g5
I00
sg12
(I00
I00
tp409
sba(iModules.cell
Cell
p410
(dp411
g5
I00
sg12
(I00
I00
tp412
sba(iModules.cell
Cell
p413
(dp414
g5
I00
sg12
(I00
I00
tp415
sba(iModules.cell
Cell
p416
(dp417
g5
I00
sg12
(I00
I00
tp418
sba(iModules.cell
Cell
p419
(dp420
g5
I00
sg12
(I00
I00
tp421
sba(iModules.cell
Cell
p422
(dp423
g5
I00
sg12
(I00
I00
tp424
sba(iModules.cell
Cell
p425
(dp426
g5
I00
sg12
(I00
I00
tp427
sba(iModules.cell
Cell
p428
(dp429
g5
I00
sg12
(I00
I00
tp430
sba(iModules.cell
Cell
p431
(dp432
g5
I00
sg12
(I00
I00
tp433
sba(iModules.cell
Cell
p434
(dp435
g5
I00
sg12
(I00
I00
tp436
sba(iModules.cell
Cell
p437
(dp438
g5
I00
sg12
(I00
I00
tp439
sba(iModules.cell
Cell
p440
(dp441
g5
I00
sg12
(I00
I00
tp442
sba(iModules.cell
Cell
p443
(dp444
g5
I00
sg12
(I00
I00
tp445
sba(iModules.cell
Cell
p446
(dp447
g5
I00
sg12
(I00
I00
tp448
sba(iModules.cell
Cell
p449
(dp450
g5
I00
sg12
(I00
I00
tp451
sba(iModules.cell
Cell
p452
(dp453
g5
I00
sg12
(I00
I00
tp454
sba(iModules.cell
Cell
p455
(dp456
g5
I00
sg12
(I00
I00
tp457
sba(iModules.cell
Cell
p458
(dp459
g5
I00
sg12
(I00
I00
tp460
sba(iModules.cell
Cell
p461
(dp462
g5
I00
sg12
(I00
I00
tp463
sba(iModules.cell
Cell
p464
(dp465
g5
I00
sg12
(I00
I00
tp466
sba(iModules.cell
Cell
p467
(dp468
g5
I00
sg12
(I00
I00
tp469
sba(iModules.cell
Cell
p470
(dp471
g5
I00
sg12
(I00
I00
tp472
sba(iModules.cell
Cell
p473
(dp474
g5
I00
sg12
(I00
I00
tp475
sba(iModules.cell
Cell
p476
(dp477
g5
I00
sg12
(I00
I00
tp478
sba(iModules.cell
Cell
p479
(dp480
g5
I00
sg12
(I00
I00
tp481
sba(iModules.cell
Cell
p482
(dp483
g5
I00
sg12
(I00
I00
tp484
sba(iModules.cell
Cell
p485
(dp486
g5
I00
sg12
(I00
I00
tp487
sba(iModules.cell
Cell
p488
(dp489
g5
I00
sg12
(I00
I00
tp490
sba(iModules.cell
Cell
p491
(dp492
g5
I00
sg12
(I00
I00
tp493
sba(iModules.cell
Cell
p494
(dp495
g5
I00
sg12
(I00
I00
tp496
sba(iModules.cell
Cell
p497
(dp498
g5
I00
sg12
(I00
I00
tp499
sba(iModules.cell
Cell
p500
(dp501
g5
I00
sg12
(I00
I00
tp502
sba(iModules.cell
Cell
p503
(dp504
g5
I00
sg12
(I00
I00
tp505
sba(iModules.cell
Cell
p506
(dp507
g5
I00
sg12
(I00
I00
tp508
sba(iModules.cell
Cell
p509
(dp510
g5
I00
sg12
(I00
I00
tp511
sba(iModules.cell
Cell
p512
(dp513
g5
I00
sg12
(I00
I00
tp514
sba(iModules.cell
Cell
p515
(dp516
g5
I00
sg12
(I00
I00
tp517
sba(iModules.cell
Cell
p518
(dp519
g12
(I00
I00
tp520
sbaa(lp521
(iModules.cell
Cell
p522
(dp523
g5
I00
sg12
(I00
I00
tp524
sba(iModules.cell
Cell
p525
(dp526
g5
I01
sg260
I01
sg12
(I00
I00
tp527
sba(iModules.cell
Cell
p528
(dp529
g5
I01
sg260
I01
sg12
(I01
I01
tp530
sba(iModules.cell
Cell
p531
(dp532
g5
I01
sg260
I01
sg12
(I01
I01
tp533
sba(iModules.cell
Cell
p534
(dp535
g5
I01
sg260
I01
sg12
(I01
I01
tp536
sba(iModules.cell
Cell
p537
(dp538
g5
I01
sg260
I01
sg12
(I01
I01
tp539
sba(iModules.cell
Cell
p540
(dp541
g5
I01
sg260
I01
sg12
(I00
I00
I00
tp542
sba(iModules.cell
Cell
p543
(dp544
g5
I00
sg260
I01
sg12
(I01
I01
tp545
sba(iModules.cell
Cell
p546
(dp547
g5
I00
sg260
I01
sg12
(I01
I01
tp548
sba(iModules.cell
Cell
p549
(dp550
g5
I00
sg260
I01
sg12
(I01
I01
tp551
sba(iModules.cell
Cell
p552
(dp553
g5
I00
sg260
I01
sg12
(I01
I01
tp554
sba(iModules.cell
Cell
p555
(dp556
g5
I00
sg260
I01
sg12
(I01
I01
tp557
sba(iModules.cell
Cell
p558
(dp559
g5
I00
sg260
I01
sg12
(I01
I01
tp560
sba(iModules.cell
Cell
p561
(dp562
g5
I00
sg260
I01
sg12
(I01
I01
tp563
sba(iModules.cell
Cell
p564
(dp565
g5
I00
sg260
I01
sg12
(I01
I01
tp566
sba(iModules.cell
Cell
p567
(dp568
g5
I00
sg260
I01
sg12
(I01
I01
tp569
sba(iModules.cell
Cell
p570
(dp571
g5
I00
sg260
I01
sg12
(I01
I01
tp572
sba(iModules.cell
Cell
p573
(dp574
g5
I00
sg260
I01
sg12
(I01
I01
tp575
sba(iModules.cell
Cell
p576
(dp577
g5
I00
sg260
I01
sg12
(I01
I01
tp578
sba(iModules.cell
Cell
p579
(dp580
g5
I00
sg260
I01
sg12
(I01
I01
tp581
sba(iModules.cell
Cell
p582
(dp583
g5
I00
sg260
I01
sg12
(I01
I01
tp584
sba(iModules.cell
Cell
p585
(dp586
g5
I00
sg260
I01
sg12
(I01
I01
tp587
sba(iModules.cell
Cell
p588
(dp589
g5
I00
sg260
I01
sg12
(I01
I01
tp590
sba(iModules.cell
Cell
p591
(dp592
g5
I00
sg260
I01
sg12
(I01
I01
tp593
sba(iModules.cell
Newt
p594
(dp595
S'char'
p596
S':'
p597
sg5
I00
sS'undercell'
p598
(iModules.cell
Cell
p599
(dp600
g5
I00
sg260
I01
sg12
(I01
I01
tp601
sbsS'name'
p602
S'Newt'
p603
sba(iModules.cell
Cell
p604
(dp605
g5
I00
sg260
I01
sg12
(I01
I01
tp606
sba(iModules.cell
Cell
p607
(dp608
g5
I00
sg260
I01
sg12
(I01
I01
tp609
sba(iModules.cell
Cell
p610
(dp611
g5
I00
sg260
I01
sg12
(I01
I01
tp612
sba(iModules.cell
Cell
p613
(dp614
g5
I00
sg260
I01
sg12
(I01
I01
tp615
sba(iModules.cell
Cell
p616
(dp617
g5
I00
sg260
I01
sg12
(I01
I01
tp618
sba(iModules.cell
Cell
p619
(dp620
g5
I00
sg260
I01
sg12
(I01
I01
tp621
sba(iModules.cell
Cell
p622
(dp623
g5
I00
sg260
I01
sg12
(I01
I01
tp624
sba(iModules.cell
Cell
p625
(dp626
g5
I00
sg260
I01
sg12
(I01
I01
tp627
sba(iModules.cell
Cell
p628
(dp629
g5
I00
sg260
I01
sg12
(I01
I01
tp630
sba(iModules.cell
Cell
p631
(dp632
g5
I00
sg260
I01
sg12
(I01
I01
tp633
sba(iModules.cell
Cell
p634
(dp635
g5
I00
sg260
I01
sg12
(I01
I01
tp636
sba(iModules.cell
Cell
p637
(dp638
g5
I00
sg260
I01
sg12
(I01
I01
tp639
sba(iModules.cell
Cell
p640
(dp641
g5
I00
sg260
I01
sg12
(I01
I01
tp642
sba(iModules.cell
Cell
p643
(dp644
g5
I00
sg260
I01
sg12
(I01
I01
tp645
sba(iModules.cell
Cell
p646
(dp647
g5
I00
sg260
I01
sg12
(I01
I01
tp648
sba(iModules.cell
Cell
p649
(dp650
g5
I00
sg260
I01
sg12
(I01
I01
tp651
sba(iModules.cell
Cell
p652
(dp653
g5
I00
sg260
I01
sg12
(I01
I01
tp654
sba(iModules.cell
Cell
p655
(dp656
g5
I00
sg260
I01
sg12
(I01
I01
tp657
sba(iModules.cell
Cell
p658
(dp659
g5
I00
sg12
(I01
I01
tp660
sba(iModules.cell
Cell
p661
(dp662
g5
I00
sg12
(I01
I01
tp663
sba(iModules.cell
Cell
p664
(dp665
g5
I00
sg12
(I01
I01
tp666
sba(iModules.cell
Cell
p667
(dp668
g5
I00
sg12
(I01
I01
tp669
sba(iModules.cell
Cell
p670
(dp671
g5
I00
sg12
(I01
I01
tp672
sba(iModules.cell
Cell
p673
(dp674
g5
I00
sg12
(I01
I01
tp675
sba(iModules.cell
Cell
p676
(dp677
g5
I00
sg12
(I01
I01
tp678
sba(iModules.cell
Cell
p679
(dp680
g5
I00
sg12
(I01
I01
tp681
sba(iModules.cell
Cell
p682
(dp683
g5
I00
sg12
(I01
I01
tp684
sba(iModules.cell
Cell
p685
(dp686
g5
I00
sg12
(I01
I01
tp687
sba(iModules.cell
Cell
p688
(dp689
g5
I00
sg12
(I01
I01
tp690
sba(iModules.cell
Cell
p691
(dp692
g5
I00
sg12
(I01
I01
tp693
sba(iModules.cell
Cell
p694
(dp695
g5
I00
sg12
(I01
I01
tp696
sba(iModules.cell
Cell
p697
(dp698
g5
I00
sg12
(I01
I01
tp699
sba(iModules.cell
Cell
p700
(dp701
g5
I00
sg12
(I01
I01
tp702
sba(iModules.cell
Cell
p703
(dp704
g5
I00
sg12
(I01
I01
tp705
sba(iModules.cell
Cell
p706
(dp707
g5
I00
sg12
(I01
I01
tp708
sba(iModules.cell
Cell
p709
(dp710
g5
I00
sg12
(I01
I01
tp711
sba(iModules.cell
Cell
p712
(dp713
g5
I00
sg12
(I00
I00
tp714
sba(iModules.cell
Cell
p715
(dp716
g5
I00
sg12
(I00
I00
tp717
sba(iModules.cell
Cell
p718
(dp719
g5
I00
sg12
(I00
I00
tp720
sba(iModules.cell
Cell
p721
(dp722
g5
I00
sg12
(I00
I00
tp723
sba(iModules.cell
Cell
p724
(dp725
g5
I00
sg12
(I00
I00
tp726
sba(iModules.cell
Cell
p727
(dp728
g5
I00
sg12
(I00
I00
tp729
sba(iModules.cell
Cell
p730
(dp731
g5
I00
sg12
(I00
I00
tp732
sba(iModules.cell
Cell
p733
(dp734
g5
I00
sg12
(I00
I00
tp735
sba(iModules.cell
Cell
p736
(dp737
g5
I00
sg12
(I00
I00
tp738
sba(iModules.cell
Cell
p739
(dp740
g5
I00
sg12
(I00
I00
tp741
sba(iModules.cell
Cell
p742
(dp743
g5
I00
sg12
(I00
I00
tp744
sba(iModules.cell
Cell
p745
(dp746
g5
I00
sg12
(I00
I00
tp747
sba(iModules.cell
Cell
p748
(dp749
g5
I00
sg12
(I00
I00
tp750
sba(iModules.cell
Cell
p751
(dp752
g5
I00
sg12
(I00
I00
tp753
sba(iModules.cell
Cell
p754
(dp755
g5
I00
sg12
(I00
I00
tp756
sba(iModules.cell
Cell
p757
(dp758
g5
I00
sg12
(I00
I00
tp759
sba(iModules.cell
Cell
p760
(dp761
g5
I00
sg12
(I00
I00
tp762
sba(iModules.cell
Cell
p763
(dp764
g5
I00
sg12
(I00
I00
tp765
sba(iModules.cell
Cell
p766
(dp767
g5
I00
sg12
(I00
I00
tp768
sba(iModules.cell
Cell
p769
(dp770
g12
(I00
I00
tp771
sbaa(lp772
(iModules.cell
Cell
p773
(dp774
g5
I00
sg12
(I00
I00
tp775
sba(iModules.cell
Cell
p776
(dp777
g5
I01
sg260
I01
sg12
(I00
I00
tp778
sba(iModules.cell
Cell
p779
(dp780
g5
I01
sg260
I01
sg12
(I01
I01
tp781
sba(iModules.cell
Cell
p782
(dp783
g5
I01
sg260
I01
sg12
(I01
I01
tp784
sba(iModules.cell
Cell
p785
(dp786
g5
I01
sg260
I01
sg12
(I01
I01
tp787
sba(iModules.cell
Cell
p788
(dp789
g5
I01
sg260
I01
sg12
(I01
I01
tp790
sba(iModules.cell
Door
p791
(dp792
g5
I01
sg260
I01
sg12
(I00
I00
tp793
sS'opened'
p794
I00
sba(iModules.cell
Cell
p795
(dp796
g5
I00
sg260
I01
sg12
(I01
I01
tp797
sba(iModules.cell
Cell
p798
(dp799
g5
I00
sg260
I01
sg12
(I01
I01
tp800
sba(iModules.cell
Cell
p801
(dp802
g5
I00
sg260
I01
sg12
(I01
I01
tp803
sba(iModules.cell
Cell
p804
(dp805
g5
I00
sg260
I01
sg12
(I01
I01
tp806
sba(iModules.cell
Cell
p807
(dp808
g5
I00
sg260
I01
sg12
(I01
I01
tp809
sba(iModules.cell
Cell
p810
(dp811
g5
I00
sg260
I01
sg12
(I01
I01
tp812
sba(iModules.cell
Cell
p813
(dp814
g5
I00
sg260
I01
sg12
(I01
I01
tp815
sba(iModules.cell
Cell
p816
(dp817
g5
I00
sg260
I01
sg12
(I01
I01
tp818
sba(iModules.cell
Cell
p819
(dp820
g5
I00
sg260
I01
sg12
(I01
I01
tp821
sba(iModules.cell
Cell
p822
(dp823
g5
I00
sg260
I01
sg12
(I01
I01
tp824
sba(iModules.cell
Cell
p825
(dp826
g5
I00
sg260
I01
sg12
(I01
I01
tp827
sba(iModules.cell
Cell
p828
(dp829
g5
I00
sg260
I01
sg12
(I01
I01
tp830
sba(iModules.cell
Cell
p831
(dp832
g5
I00
sg260
I01
sg12
(I01
I01
tp833
sba(iModules.cell
Cell
p834
(dp835
g5
I00
sg260
I01
sg12
(I01
I01
tp836
sba(iModules.cell
Cell
p837
(dp838
g5
I00
sg260
I01
sg12
(I01
I01
tp839
sba(iModules.cell
Cell
p840
(dp841
g5
I00
sg260
I01
sg12
(I01
I01
tp842
sba(iModules.cell
Cell
p843
(dp844
g5
I00
sg260
I01
sg12
(I01
I01
tp845
sba(iModules.cell
Cell
p846
(dp847
g5
I00
sg260
I01
sg12
(I01
I01
tp848
sba(iModules.cell
Cell
p849
(dp850
g5
I00
sg260
I01
sg12
(I01
I01
tp851
sba(iModules.cell
Cell
p852
(dp853
g5
I00
sg260
I01
sg12
(I01
I01
tp854
sba(iModules.cell
Cell
p855
(dp856
g5
I00
sg260
I01
sg12
(I01
I01
tp857
sba(iModules.cell
Cell
p858
(dp859
g5
I00
sg260
I01
sg12
(I01
I01
tp860
sba(iModules.cell
Cell
p861
(dp862
g5
I00
sg260
I01
sg12
(I01
I01
tp863
sba(iModules.cell
Cell
p864
(dp865
g5
I00
sg260
I01
sg12
(I01
I01
tp866
sba(iModules.cell
Cell
p867
(dp868
g5
I00
sg260
I01
sg12
(I01
I01
tp869
sba(iModules.cell
Cell
p870
(dp871
g5
I00
sg260
I01
sg12
(I01
I01
tp872
sba(iModules.cell
Cell
p873
(dp874
g5
I00
sg260
I01
sg12
(I01
I01
tp875
sba(iModules.cell
Cell
p876
(dp877
g5
I00
sg260
I01
sg12
(I01
I01
tp878
sba(iModules.cell
Cell
p879
(dp880
g5
I00
sg260
I01
sg12
(I01
I01
tp881
sba(iModules.cell
Cell
p882
(dp883
g5
I00
sg260
I01
sg12
(I01
I01
tp884
sba(iModules.cell
Cell
p885
(dp886
g5
I00
sg260
I01
sg12
(I01
I01
tp887
sba(iModules.cell
Cell
p888
(dp889
g5
I00
sg260
I01
sg12
(I01
I01
tp890
sba(iModules.cell
Cell
p891
(dp892
g5
I00
sg260
I01
sg12
(I01
I01
tp893
sba(iModules.cell
Cell
p894
(dp895
g5
I00
sg260
I01
sg12
(I01
I01
tp896
sba(iModules.cell
Cell
p897
(dp898
g5
I00
sg260
I01
sg12
(I01
I01
tp899
sba(iModules.cell
Cell
p900
(dp901
g5
I00
sg260
I01
sg12
(I01
I01
tp902
sba(iModules.cell
Cell
p903
(dp904
g5
I00
sg12
(I01
I01
tp905
sba(iModules.cell
Cell
p906
(dp907
g5
I00
sg12
(I01
I01
tp908
sba(iModules.cell
Cell
p909
(dp910
g5
I00
sg12
(I01
I01
tp911
sba(iModules.cell
Cell
p912
(dp913
g5
I00
sg12
(I01
I01
tp914
sba(iModules.cell
Cell
p915
(dp916
g5
I00
sg12
(I01
I01
tp917
sba(iModules.cell
Cell
p918
(dp919
g5
I00
sg12
(I01
I01
tp920
sba(iModules.cell
Cell
p921
(dp922
g5
I00
sg12
(I01
I01
tp923
sba(iModules.cell
Cell
p924
(dp925
g5
I00
sg12
(I01
I01
tp926
sba(iModules.cell
Cell
p927
(dp928
g5
I00
sg12
(I01
I01
tp929
sba(iModules.cell
Cell
p930
(dp931
g5
I00
sg12
(I01
I01
tp932
sba(iModules.cell
Cell
p933
(dp934
g5
I00
sg12
(I01
I01
tp935
sba(iModules.cell
Cell
p936
(dp937
g5
I00
sg12
(I01
I01
tp938
sba(iModules.cell
Cell
p939
(dp940
g5
I00
sg12
(I01
I01
tp941
sba(iModules.cell
Cell
p942
(dp943
g5
I00
sg12
(I01
I01
tp944
sba(iModules.cell
Cell
p945
(dp946
g5
I00
sg12
(I01
I01
tp947
sba(iModules.cell
Cell
p948
(dp949
g5
I00
sg12
(I01
I01
tp950
sba(iModules.cell
Cell
p951
(dp952
g5
I00
sg12
(I01
I01
tp953
sba(iModules.cell
Cell
p954
(dp955
g5
I00
sg12
(I01
I01
tp956
sba(iModules.cell
Cell
p957
(dp958
g5
I00
sg12
(I00
I00
tp959
sba(iModules.cell
Cell
p960
(dp961
g5
I00
sg12
(I00
I00
tp962
sba(iModules.cell
Cell
p963
(dp964
g5
I00
sg12
(I00
I00
tp965
sba(iModules.cell
Cell
p966
(dp967
g5
I00
sg12
(I00
I00
tp968
sba(iModules.cell
Cell
p969
(dp970
g5
I00
sg12
(I00
I00
tp971
sba(iModules.cell
Cell
p972
(dp973
g5
I00
sg12
(I00
I00
tp974
sba(iModules.cell
Cell
p975
(dp976
g5
I00
sg12
(I00
I00
tp977
sba(iModules.cell
Cell
p978
(dp979
g5
I00
sg12
(I00
I00
tp980
sba(iModules.cell
Cell
p981
(dp982
g5
I00
sg12
(I00
I00
tp983
sba(iModules.cell
Cell
p984
(dp985
g5
I00
sg12
(I00
I00
tp986
sba(iModules.cell
Cell
p987
(dp988
g5
I00
sg12
(I00
I00
tp989
sba(iModules.cell
Cell
p990
(dp991
g5
I00
sg12
(I00
I00
tp992
sba(iModules.cell
Cell
p993
(dp994
g5
I00
sg12
(I00
I00
tp995
sba(iModules.cell
Cell
p996
(dp997
g5
I00
sg12
(I00
I00
tp998
sba(iModules.cell
Cell
p999
(dp1000
g5
I00
sg12
(I00
I00
tp1001
sba(iModules.cell
Cell
p1002
(dp1003
g5
I00
sg12
(I00
I00
tp1004
sba(iModules.cell
Cell
p1005
(dp1006
g5
I00
sg12
(I00
I00
tp1007
sba(iModules.cell
Cell
p1008
(dp1009
g5
I00
sg12
(I00
I00
tp1010
sba(iModules.cell
Cell
p1011
(dp1012
g5
I00
sg12
(I00
I00
tp1013
sba(iModules.cell
Cell
p1014
(dp1015
g12
(I00
I00
tp1016
sbaa(lp1017
(iModules.cell
Cell
p1018
(dp1019
g5
I00
sg12
(I00
I00
tp1020
sba(iModules.cell
Cell
p1021
(dp1022
g5
I01
sg260
I01
sg12
(I00
I00
tp1023
sba(iModules.cell
Cell
p1024
(dp1025
g5
I01
sg260
I01
sg12
(I01
I01
tp1026
sba(iModules.cell
Cell
p1027
(dp1028
g5
I01
sg260
I01
sg12
(I01
I01
tp1029
sba(iModules.cell
Cell
p1030
(dp1031
g5
I01
sg260
I01
sg12
(I01
I01
tp1032
sba(iModules.cell
Cell
p1033
(dp1034
g5
I01
sg260
I01
sg12
(I01
I01
tp1035
sba(iModules.cell
Cell
p1036
(dp1037
g5
I01
sg260
I01
sg12
(I00
I00
I00
tp1038
sba(iModules.cell
Cell
p1039
(dp1040
g5
I00
sg260
I01
sg12
(I01
I01
tp1041
sba(iModules.cell
Cell
p1042
(dp1043
g5
I00
sg260
I01
sg12
(I01
I01
tp1044
sba(iModules.cell
Cell
p1045
(dp1046
g5
I00
sg260
I01
sg12
(I01
I01
tp1047
sba(iModules.cell
Cell
p1048
(dp1049
g5
I00
sg260
I01
sg12
(I01
I01
tp1050
sba(iModules.cell
Cell
p1051
(dp1052
g5
I00
sg260
I01
sg12
(I01
I01
tp1053
sba(iModules.cell
Cell
p1054
(dp1055
g5
I00
sg260
I01
sg12
(I01
I01
tp1056
sba(iModules.cell
Cell
p1057
(dp1058
g5
I00
sg260
I01
sg12
(I01
I01
tp1059
sba(iModules.cell
Cell
p1060
(dp1061
g5
I00
sg260
I01
sg12
(I01
I01
tp1062
sba(iModules.cell
Cell
p1063
(dp1064
g5
I00
sg260
I01
sg12
(I01
I01
tp1065
sba(iModules.cell
Cell
p1066
(dp1067
g5
I00
sg260
I01
sg12
(I01
I01
tp1068
sba(iModules.cell
Cell
p1069
(dp1070
g5
I00
sg260
I01
sg12
(I01
I01
tp1071
sba(iModules.cell
Cell
p1072
(dp1073
g5
I00
sg260
I01
sg12
(I01
I01
tp1074
sba(iModules.cell
Cell
p1075
(dp1076
g5
I00
sg260
I01
sg12
(I01
I01
tp1077
sba(iModules.cell
Cell
p1078
(dp1079
g5
I00
sg260
I01
sg12
(I01
I01
tp1080
sba(iModules.cell
Cell
p1081
(dp1082
g5
I00
sg260
I01
sg12
(I01
I01
tp1083
sba(iModules.cell
Cell
p1084
(dp1085
g5
I00
sg260
I01
sg12
(I01
I01
tp1086
sba(iModules.cell
Cell
p1087
(dp1088
g5
I00
sg260
I01
sg12
(I01
I01
tp1089
sba(iModules.cell
Cell
p1090
(dp1091
g5
I00
sg260
I01
sg12
(I01
I01
tp1092
sba(iModules.cell
Cell
p1093
(dp1094
g5
I00
sg260
I01
sg12
(I01
I01
tp1095
sba(iModules.cell
Cell
p1096
(dp1097
g5
I00
sg260
I01
sg12
(I01
I01
tp1098
sba(iModules.cell
Cell
p1099
(dp1100
g5
I00
sg260
I01
sg12
(I01
I01
tp1101
sba(iModules.cell
Cell
p1102
(dp1103
g5
I00
sg260
I01
sg12
(I01
I01
tp1104
sba(iModules.cell
Cell
p1105
(dp1106
g5
I00
sg260
I01
sg12
(I01
I01
tp1107
sba(iModules.cell
Cell
p1108
(dp1109
g5
I00
sg260
I01
sg12
(I01
I01
tp1110
sba(iModules.cell
Cell
p1111
(dp1112
g5
I00
sg260
I01
sg12
(I01
I01
tp1113
sba(iModules.cell
Cell
p1114
(dp1115
g5
I00
sg260
I01
sg12
(I01
I01
tp1116
sba(iModules.cell
Cell
p1117
(dp1118
g5
I00
sg260
I01
sg12
(I01
I01
tp1119
sba(iModules.cell
Cell
p1120
(dp1121
g5
I00
sg260
I01
sg12
(I01
I01
tp1122
sba(iModules.cell
Cell
p1123
(dp1124
g5
I00
sg260
I01
sg12
(I01
I01
tp1125
sba(iModules.cell
Cell
p1126
(dp1127
g5
I00
sg260
I01
sg12
(I01
I01
tp1128
sba(iModules.cell
Cell
p1129
(dp1130
g5
I00
sg260
I01
sg12
(I01
I01
tp1131
sba(iModules.cell
Cell
p1132
(dp1133
g5
I00
sg260
I01
sg12
(I01
I01
tp1134
sba(iModules.cell
Cell
p1135
(dp1136
g5
I00
sg260
I01
sg12
(I01
I01
tp1137
sba(iModules.cell
Cell
p1138
(dp1139
g5
I00
sg260
I01
sg12
(I01
I01
tp1140
sba(iModules.cell
Cell
p1141
(dp1142
g5
I00
sg260
I01
sg12
(I01
I01
tp1143
sba(iModules.cell
Cell
p1144
(dp1145
g5
I00
sg260
I01
sg12
(I01
I01
tp1146
sba(iModules.cell
Cell
p1147
(dp1148
g5
I00
sg12
(I01
I01
tp1149
sba(iModules.cell
Cell
p1150
(dp1151
g5
I00
sg12
(I01
I01
tp1152
sba(iModules.cell
Cell
p1153
(dp1154
g5
I00
sg12
(I01
I01
tp1155
sba(iModules.cell
Cell
p1156
(dp1157
g5
I00
sg12
(I01
I01
tp1158
sba(iModules.cell
Cell
p1159
(dp1160
g5
I00
sg12
(I01
I01
tp1161
sba(iModules.cell
Cell
p1162
(dp1163
g5
I00
sg12
(I01
I01
tp1164
sba(iModules.cell
Cell
p1165
(dp1166
g5
I00
sg12
(I01
I01
tp1167
sba(iModules.cell
Cell
p1168
(dp1169
g5
I00
sg12
(I01
I01
tp1170
sba(iModules.cell
Cell
p1171
(dp1172
g5
I00
sg12
(I01
I01
tp1173
sba(iModules.cell
Cell
p1174
(dp1175
g5
I00
sg12
(I01
I01
tp1176
sba(iModules.cell
Cell
p1177
(dp1178
g5
I00
sg12
(I01
I01
tp1179
sba(iModules.cell
Cell
p1180
(dp1181
g5
I00
sg12
(I01
I01
tp1182
sba(iModules.cell
Cell
p1183
(dp1184
g5
I00
sg12
(I01
I01
tp1185
sba(iModules.cell
Cell
p1186
(dp1187
g5
I00
sg12
(I01
I01
tp1188
sba(iModules.cell
Cell
p1189
(dp1190
g5
I00
sg12
(I01
I01
tp1191
sba(iModules.cell
Cell
p1192
(dp1193
g5
I00
sg12
(I01
I01
tp1194
sba(iModules.cell
Cell
p1195
(dp1196
g5
I00
sg12
(I01
I01
tp1197
sba(iModules.cell
Cell
p1198
(dp1199
g5
I00
sg12
(I01
I01
tp1200
sba(iModules.cell
Cell
p1201
(dp1202
g5
I00
sg12
(I00
I00
tp1203
sba(iModules.cell
Cell
p1204
(dp1205
g5
I00
sg12
(I00
I00
tp1206
sba(iModules.cell
Cell
p1207
(dp1208
g5
I00
sg12
(I00
I00
tp1209
sba(iModules.cell
Cell
p1210
(dp1211
g5
I00
sg12
(I00
I00
tp1212
sba(iModules.cell
Cell
p1213
(dp1214
g5
I00
sg12
(I00
I00
tp1215
sba(iModules.cell
Cell
p1216
(dp1217
g5
I00
sg12
(I00
I00
tp1218
sba(iModules.cell
Cell
p1219
(dp1220
g5
I00
sg12
(I00
I00
tp1221
sba(iModules.cell
Cell
p1222
(dp1223
g5
I00
sg12
(I00
I00
tp1224
sba(iModules.cell
Cell
p1225
(dp1226
g5
I00
sg12
(I00
I00
tp1227
sba(iModules.cell
Cell
p1228
(dp1229
g5
I00
sg12
(I00
I00
tp1230
sba(iModules.cell
Cell
p1231
(dp1232
g5
I00
sg12
(I00
I00
tp1233
sba(iModules.cell
Cell
p1234
(dp1235
g5
I00
sg12
(I00
I00
tp1236
sba(iModules.cell
Cell
p1237
(dp1238
g5
I00
sg12
(I00
I00
tp1239
sba(iModules.cell
Cell
p1240
(dp1241
g5
I00
sg12
(I00
I00
tp1242
sba(iModules.cell
Cell
p1243
(dp1244
g5
I00
sg12
(I00
I00
tp1245
sba(iModules.cell
Cell
p1246
(dp1247
g5
I00
sg12
(I00
I00
tp1248
sba(iModules.cell
Cell
p1249
(dp1250
g5
I00
sg12
(I00
I00
tp1251
sba(iModules.cell
Cell
p1252
(dp1253
g5
I00
sg12
(I00
I00
tp1254
sba(iModules.cell
Cell
p1255
(dp1256
g5
I00
sg12
(I00
I00
tp1257
sba(iModules.cell
Cell
p1258
(dp1259
g12
(I00
I00
tp1260
sbaa(lp1261
(iModules.cell
Cell
p1262
(dp1263
g5
I00
sg12
(I00
I00
tp1264
sba(iModules.cell
Cell
p1265
(dp1266
g5
I01
sg260
I01
sg12
(I00
I00
tp1267
sba(iModules.cell
Cell
p1268
(dp1269
g5
I01
sg260
I01
sg12
(I00
I00
I00
tp1270
sba(iModules.cell
Cell
p1271
(dp1272
g5
I01
sg260
I01
sg12
(I00
I00
I00
tp1273
sba(iModules.cell
Cell
p1274
(dp1275
g5
I01
sg260
I01
sg12
(I00
I00
I00
tp1276
sba(iModules.cell
Cell
p1277
(dp1278
g5
I01
sg260
I01
sg12
(I00
I00
I00
tp1279
sba(iModules.cell
Cell
p1280
(dp1281
g5
I01
sg260
I01
sg12
(I00
I00
I00
tp1282
sba(iModules.cell
Cell
p1283
(dp1284
g5
I00
sg260
I01
sg12
(I01
I01
tp1285
sba(iModules.cell
Cell
p1286
(dp1287
g5
I00
sg260
I01
sg12
(I01
I01
tp1288
sba(iModules.cell
Cell
p1289
(dp1290
g5
I00
sg260
I01
sg12
(I01
I01
tp1291
sba(iModules.cell
Cell
p1292
(dp1293
g5
I00
sg260
I01
sg12
(I01
I01
tp1294
sba(iModules.cell
Cell
p1295
(dp1296
g5
I00
sg260
I01
sg12
(I01
I01
tp1297
sba(iModules.cell
Cell
p1298
(dp1299
g5
I00
sg260
I01
sg12
(I01
I01
tp1300
sba(iModules.cell
Cell
p1301
(dp1302
g5
I00
sg260
I01
sg12
(I01
I01
tp1303
sba(iModules.cell
Cell
p1304
(dp1305
g5
I00
sg260
I01
sg12
(I01
I01
tp1306
sba(iModules.cell
Cell
p1307
(dp1308
g5
I00
sg260
I01
sg12
(I01
I01
tp1309
sba(iModules.cell
Cell
p1310
(dp1311
g5
I00
sg260
I01
sg12
(I01
I01
tp1312
sba(iModules.cell
Cell
p1313
(dp1314
g5
I00
sg260
I01
sg12
(I01
I01
tp1315
sba(iModules.cell
Cell
p1316
(dp1317
g5
I00
sg260
I01
sg12
(I01
I01
tp1318
sba(iModules.cell
Cell
p1319
(dp1320
g5
I00
sg260
I01
sg12
(I01
I01
tp1321
sba(iModules.cell
Cell
p1322
(dp1323
g5
I00
sg260
I01
sg12
(I01
I01
tp1324
sba(iModules.cell
Cell
p1325
(dp1326
g5
I00
sg260
I01
sg12
(I01
I01
tp1327
sba(iModules.cell
Cell
p1328
(dp1329
g5
I00
sg260
I01
sg12
(I01
I01
tp1330
sba(iModules.cell
Cell
p1331
(dp1332
g5
I00
sg260
I01
sg12
(I01
I01
tp1333
sba(iModules.cell
Newt
p1334
(dp1335
g596
g597
sg5
I00
sg598
(iModules.cell
Cell
p1336
(dp1337
g5
I00
sg260
I01
sg12
(I01
I01
tp1338
sbsg602
g603
sba(iModules.cell
Cell
p1339
(dp1340
g5
I00
sg260
I01
sg12
(I01
I01
tp1341
sba(iModules.cell
Cell
p1342
(dp1343
g5
I00
sg260
I01
sg12
(I01
I01
tp1344
sba(iModules.cell
Cell
p1345
(dp1346
g5
I00
sg260
I01
sg12
(I01
I01
tp1347
sba(iModules.cell
Cell
p1348
(dp1349
g5
I00
sg260
I01
sg12
(I01
I01
tp1350
sba(iModules.cell
Cell
p1351
(dp1352
g5
I00
sg260
I01
sg12
(I01
I01
tp1353
sba(iModules.cell
Cell
p1354
(dp1355
g5
I00
sg260
I01
sg12
(I01
I01
tp1356
sba(iModules.cell
Cell
p1357
(dp1358
g5
I00
sg260
I01
sg12
(I01
I01
tp1359
sba(iModules.cell
Cell
p1360
(dp1361
g5
I00
sg260
I01
sg12
(I01
I01
tp1362
sba(iModules.cell
Cell
p1363
(dp1364
g5
I00
sg260
I01
sg12
(I01
I01
tp1365
sba(iModules.cell
Cell
p1366
(dp1367
g5
I00
sg260
I01
sg12
(I01
I01
tp1368
sba(iModules.cell
Cell
p1369
(dp1370
g5
I00
sg260
I01
sg12
(I01
I01
tp1371
sba(iModules.cell
Cell
p1372
(dp1373
g5
I00
sg260
I01
sg12
(I01
I01
tp1374
sba(iModules.cell
Cell
p1375
(dp1376
g5
I00
sg260
I01
sg12
(I01
I01
tp1377
sba(iModules.cell
Cell
p1378
(dp1379
g5
I00
sg260
I01
sg12
(I01
I01
tp1380
sba(iModules.cell
Cell
p1381
(dp1382
g5
I00
sg260
I01
sg12
(I01
I01
tp1383
sba(iModules.cell
Cell
p1384
(dp1385
g5
I00
sg260
I01
sg12
(I01
I01
tp1386
sba(iModules.cell
Cell
p1387
(dp1388
g5
I00
sg260
I01
sg12
(I01
I01
tp1389
sba(iModules.cell
Cell
p1390
(dp1391
g5
I00
sg260
I01
sg12
(I01
I01
tp1392
sba(iModules.cell
Cell
p1393
(dp1394
g5
I00
sg12
(I01
I01
tp1395
sba(iModules.cell
Cell
p1396
(dp1397
g5
I00
sg12
(I01
I01
tp1398
sba(iModules.cell
Cell
p1399
(dp1400
g5
I00
sg12
(I01
I01
tp1401
sba(iModules.cell
Cell
p1402
(dp1403
g5
I00
sg12
(I01
I01
tp1404
sba(iModules.cell
Cell
p1405
(dp1406
g5
I00
sg12
(I01
I01
tp1407
sba(iModules.cell
Cell
p1408
(dp1409
g5
I00
sg12
(I01
I01
tp1410
sba(iModules.cell
Cell
p1411
(dp1412
g5
I00
sg12
(I01
I01
tp1413
sba(iModules.cell
Cell
p1414
(dp1415
g5
I00
sg12
(I01
I01
tp1416
sba(iModules.cell
Cell
p1417
(dp1418
g5
I00
sg12
(I01
I01
tp1419
sba(iModules.cell
Cell
p1420
(dp1421
g5
I00
sg12
(I01
I01
tp1422
sba(iModules.cell
Cell
p1423
(dp1424
g5
I00
sg12
(I01
I01
tp1425
sba(iModules.cell
Cell
p1426
(dp1427
g5
I00
sg12
(I01
I01
tp1428
sba(iModules.cell
Cell
p1429
(dp1430
g5
I00
sg12
(I01
I01
tp1431
sba(iModules.cell
Cell
p1432
(dp1433
g5
I00
sg12
(I01
I01
tp1434
sba(iModules.cell
Cell
p1435
(dp1436
g5
I00
sg12
(I01
I01
tp1437
sba(iModules.cell
Cell
p1438
(dp1439
g5
I00
sg12
(I01
I01
tp1440
sba(iModules.cell
Cell
p1441
(dp1442
g5
I00
sg12
(I01
I01
tp1443
sba(iModules.cell
Cell
p1444
(dp1445
g5
I00
sg12
(I01
I01
tp1446
sba(iModules.cell
Cell
p1447
(dp1448
g5
I00
sg12
(I00
I00
tp1449
sba(iModules.cell
Cell
p1450
(dp1451
g5
I00
sg12
(I00
I00
tp1452
sba(iModules.cell
Cell
p1453
(dp1454
g5
I00
sg12
(I00
I00
tp1455
sba(iModules.cell
Cell
p1456
(dp1457
g5
I00
sg12
(I00
I00
tp1458
sba(iModules.cell
Cell
p1459
(dp1460
g5
I00
sg12
(I00
I00
tp1461
sba(iModules.cell
Cell
p1462
(dp1463
g5
I00
sg12
(I00
I00
tp1464
sba(iModules.cell
Cell
p1465
(dp1466
g5
I00
sg12
(I00
I00
tp1467
sba(iModules.cell
Cell
p1468
(dp1469
g5
I00
sg12
(I00
I00
tp1470
sba(iModules.cell
Cell
p1471
(dp1472
g5
I00
sg12
(I00
I00
tp1473
sba(iModules.cell
Cell
p1474
(dp1475
g5
I00
sg12
(I00
I00
tp1476
sba(iModules.cell
Cell
p1477
(dp1478
g5
I00
sg12
(I00
I00
tp1479
sba(iModules.cell
Cell
p1480
(dp1481
g5
I00
sg12
(I00
I00
tp1482
sba(iModules.cell
Cell
p1483
(dp1484
g5
I00
sg12
(I00
I00
tp1485
sba(iModules.cell
Cell
p1486
(dp1487
g5
I00
sg12
(I00
I00
tp1488
sba(iModules.cell
Cell
p1489
(dp1490
g5
I00
sg12
(I00
I00
tp1491
sba(iModules.cell
Cell
p1492
(dp1493
g5
I00
sg12
(I00
I00
tp1494
sba(iModules.cell
Cell
p1495
(dp1496
g5
I00
sg12
(I00
I00
tp1497
sba(iModules.cell
Cell
p1498
(dp1499
g5
I00
sg12
(I00
I00
tp1500
sba(iModules.cell
Cell
p1501
(dp1502
g5
I00
sg12
(I00
I00
tp1503
sba(iModules.cell
Cell
p1504
(dp1505
g12
(I00
I00
tp1506
sbaa(lp1507
(iModules.cell
Cell
p1508
(dp1509
g5
I00
sg12
(I00
I00
tp1510
sba(iModules.cell
Cell
p1511
(dp1512
g5
I00
sg260
I01
sg12
(I00
I00
tp1513
sba(iModules.cell
Cell
p1514
(dp1515
g5
I00
sg260
I01
sg12
(I01
I01
tp1516
sba(iModules.cell
Cell
p1517
(dp1518
g5
I00
sg260
I01
sg12
(I01
I01
tp1519
sba(iModules.cell
Cell
p1520
(dp1521
g5
I00
sg260
I01
sg12
(I01
I01
tp1522
sba(iModules.cell
Cell
p1523
(dp1524
g5
I00
sg260
I01
sg12
(I01
I01
tp1525
sba(iModules.cell
Cell
p1526
(dp1527
g5
I00
sg260
I01
sg12
(I01
I01
tp1528
sba(iModules.cell
Cell
p1529
(dp1530
g5
I00
sg260
I01
sg12
(I01
I01
tp1531
sba(iModules.cell
Cell
p1532
(dp1533
g5
I00
sg260
I01
sg12
(I01
I01
tp1534
sba(iModules.cell
Cell
p1535
(dp1536
g5
I00
sg260
I01
sg12
(I01
I01
tp1537
sba(iModules.cell
Cell
p1538
(dp1539
g5
I00
sg260
I01
sg12
(I01
I01
tp1540
sba(iModules.cell
Cell
p1541
(dp1542
g5
I00
sg260
I01
sg12
(I01
I01
tp1543
sba(iModules.cell
Cell
p1544
(dp1545
g5
I00
sg260
I01
sg12
(I01
I01
tp1546
sba(iModules.cell
Cell
p1547
(dp1548
g5
I00
sg260
I01
sg12
(I01
I01
tp1549
sba(iModules.cell
Cell
p1550
(dp1551
g5
I00
sg260
I01
sg12
(I01
I01
tp1552
sba(iModules.cell
Cell
p1553
(dp1554
g5
I00
sg260
I01
sg12
(I01
I01
tp1555
sba(iModules.cell
Cell
p1556
(dp1557
g5
I00
sg260
I01
sg12
(I01
I01
tp1558
sba(iModules.cell
Cell
p1559
(dp1560
g5
I00
sg260
I01
sg12
(I01
I01
tp1561
sba(iModules.cell
Cell
p1562
(dp1563
g5
I00
sg260
I01
sg12
(I01
I01
tp1564
sba(iModules.cell
Cell
p1565
(dp1566
g5
I00
sg260
I01
sg12
(I01
I01
tp1567
sba(iModules.cell
Cell
p1568
(dp1569
g5
I00
sg260
I01
sg12
(I01
I01
tp1570
sba(iModules.cell
Cell
p1571
(dp1572
g5
I00
sg260
I01
sg12
(I01
I01
tp1573
sba(iModules.cell
Cell
p1574
(dp1575
g5
I00
sg260
I01
sg12
(I01
I01
tp1576
sba(iModules.cell
Cell
p1577
(dp1578
g5
I00
sg260
I01
sg12
(I01
I01
tp1579
sba(iModules.cell
Cell
p1580
(dp1581
g5
I00
sg260
I01
sg12
(I01
I01
tp1582
sba(iModules.cell
Cell
p1583
(dp1584
g5
I00
sg260
I01
sg12
(I01
I01
tp1585
sba(iModules.cell
Cell
p1586
(dp1587
g5
I00
sg260
I01
sg12
(I01
I01
tp1588
sba(iModules.cell
Cell
p1589
(dp1590
g5
I00
sg260
I01
sg12
(I01
I01
tp1591
sba(iModules.cell
Cell
p1592
(dp1593
g5
I00
sg260
I01
sg12
(I01
I01
tp1594
sba(iModules.cell
Cell
p1595
(dp1596
g5
I00
sg260
I01
sg12
(I01
I01
tp1597
sba(iModules.cell
Cell
p1598
(dp1599
g5
I00
sg260
I01
sg12
(I01
I01
tp1600
sba(iModules.cell
Newt
p1601
(dp1602
g596
g597
sg5
I00
sg598
(iModules.cell
Cell
p1603
(dp1604
g5
I00
sg260
I01
sg12
(I01
I01
tp1605
sbsg602
g603
sba(iModules.cell
Cell
p1606
(dp1607
g5
I00
sg260
I01
sg12
(I01
I01
tp1608
sba(iModules.cell
Cell
p1609
(dp1610
g5
I00
sg260
I01
sg12
(I01
I01
tp1611
sba(iModules.cell
Cell
p1612
(dp1613
g5
I00
sg260
I01
sg12
(I01
I01
tp1614
sba(iModules.cell
Cell
p1615
(dp1616
g5
I00
sg260
I01
sg12
(I01
I01
tp1617
sba(iModules.cell
Cell
p1618
(dp1619
g5
I00
sg260
I01
sg12
(I01
I01
tp1620
sba(iModules.cell
Cell
p1621
(dp1622
g5
I00
sg260
I01
sg12
(I01
I01
tp1623
sba(iModules.cell
Cell
p1624
(dp1625
g5
I00
sg260
I01
sg12
(I01
I01
tp1626
sba(iModules.cell
Cell
p1627
(dp1628
g5
I00
sg260
I01
sg12
(I01
I01
tp1629
sba(iModules.cell
Cell
p1630
(dp1631
g5
I00
sg260
I01
sg12
(I01
I01
tp1632
sba(iModules.cell
Cell
p1633
(dp1634
g5
I00
sg260
I01
sg12
(I01
I01
tp1635
sba(iModules.cell
Cell
p1636
(dp1637
g5
I00
sg260
I01
sg12
(I01
I01
tp1638
sba(iModules.cell
Cell
p1639
(dp1640
g5
I00
sg12
(I01
I01
tp1641
sba(iModules.cell
Cell
p1642
(dp1643
g5
I00
sg12
(I01
I01
tp1644
sba(iModules.cell
Cell
p1645
(dp1646
g5
I00
sg12
(I01
I01
tp1647
sba(iModules.cell
Cell
p1648
(dp1649
g5
I00
sg12
(I01
I01
tp1650
sba(iModules.cell
Cell
p1651
(dp1652
g5
I00
sg12
(I01
I01
tp1653
sba(iModules.cell
Cell
p1654
(dp1655
g5
I00
sg12
(I01
I01
tp1656
sba(iModules.cell
Cell
p1657
(dp1658
g5
I00
sg12
(I01
I01
tp1659
sba(iModules.cell
Cell
p1660
(dp1661
g5
I00
sg12
(I01
I01
tp1662
sba(iModules.cell
Cell
p1663
(dp1664
g5
I00
sg12
(I01
I01
tp1665
sba(iModules.cell
Cell
p1666
(dp1667
g5
I00
sg12
(I01
I01
tp1668
sba(iModules.cell
Cell
p1669
(dp1670
g5
I00
sg12
(I01
I01
tp1671
sba(iModules.cell
Cell
p1672
(dp1673
g5
I00
sg12
(I01
I01
tp1674
sba(iModules.cell
Cell
p1675
(dp1676
g5
I00
sg12
(I01
I01
tp1677
sba(iModules.cell
Cell
p1678
(dp1679
g5
I00
sg12
(I01
I01
tp1680
sba(iModules.cell
Cell
p1681
(dp1682
g5
I00
sg12
(I01
I01
tp1683
sba(iModules.cell
Cell
p1684
(dp1685
g5
I00
sg12
(I01
I01
tp1686
sba(iModules.cell
Cell
p1687
(dp1688
g5
I00
sg12
(I01
I01
tp1689
sba(iModules.cell
Cell
p1690
(dp1691
g5
I00
sg12
(I01
I01
tp1692
sba(iModules.cell
Cell
p1693
(dp1694
g5
I00
sg12
(I00
I00
tp1695
sba(iModules.cell
Cell
p1696
(dp1697
g5
I00
sg12
(I00
I00
tp1698
sba(iModules.cell
Cell
p1699
(dp1700
g5
I00
sg12
(I00
I00
tp1701
sba(iModules.cell
Cell
p1702
(dp1703
g5
I00
sg12
(I00
I00
tp1704
sba(iModules.cell
Cell
p1705
(dp1706
g5
I00
sg12
(I00
I00
tp1707
sba(iModules.cell
Cell
p1708
(dp1709
g5
I00
sg12
(I00
I00
tp1710
sba(iModules.cell
Cell
p1711
(dp1712
g5
I00
sg12
(I00
I00
tp1713
sba(iModules.cell
Cell
p1714
(dp1715
g5
I00
sg12
(I00
I00
tp1716
sba(iModules.cell
Cell
p1717
(dp1718
g5
I00
sg12
(I00
I00
tp1719
sba(iModules.cell
Cell
p1720
(dp1721
g5
I00
sg12
(I00
I00
tp1722
sba(iModules.cell
Cell
p1723
(dp1724
g5
I00
sg12
(I00
I00
tp1725
sba(iModules.cell
Cell
p1726
(dp1727
g5
I00
sg12
(I00
I00
tp1728
sba(iModules.cell
Cell
p1729
(dp1730
g5
I00
sg12
(I00
I00
tp1731
sba(iModules.cell
Cell
p1732
(dp1733
g5
I00
sg12
(I00
I00
tp1734
sba(iModules.cell
Cell
p1735
(dp1736
g5
I00
sg12
(I00
I00
tp1737
sba(iModules.cell
Cell
p1738
(dp1739
g5
I00
sg12
(I00
I00
tp1740
sba(iModules.cell
Cell
p1741
(dp1742
g5
I00
sg12
(I00
I00
tp1743
sba(iModules.cell
Cell
p1744
(dp1745
g5
I00
sg12
(I00
I00
tp1746
sba(iModules.cell
Cell
p1747
(dp1748
g5
I00
sg12
(I00
I00
tp1749
sba(iModules.cell
Cell
p1750
(dp1751
g12
(I00
I00
tp1752
sbaa(lp1753
(iModules.cell
Cell
p1754
(dp1755
g5
I00
sg12
(I00
I00
tp1756
sba(iModules.cell
Cell
p1757
(dp1758
g5
I00
sg260
I01
sg12
(I00
I00
tp1759
sba(iModules.cell
Cell
p1760
(dp1761
g5
I00
sg260
I01
sg12
(I01
I01
tp1762
sba(iModules.cell
Cell
p1763
(dp1764
g5
I00
sg260
I01
sg12
(I01
I01
tp1765
sba(iModules.cell
Cell
p1766
(dp1767
g5
I00
sg260
I01
sg12
(I01
I01
tp1768
sba(iModules.cell
Cell
p1769
(dp1770
g5
I00
sg260
I01
sg12
(I01
I01
tp1771
sba(iModules.cell
Cell
p1772
(dp1773
g5
I00
sg260
I01
sg12
(I01
I01
tp1774
sba(iModules.cell
Cell
p1775
(dp1776
g5
I00
sg260
I01
sg12
(I01
I01
tp1777
sba(iModules.cell
Cell
p1778
(dp1779
g5
I00
sg260
I01
sg12
(I01
I01
tp1780
sba(iModules.cell
Cell
p1781
(dp1782
g5
I00
sg260
I01
sg12
(I01
I01
tp1783
sba(iModules.cell
Cell
p1784
(dp1785
g5
I00
sg260
I01
sg12
(I01
I01
tp1786
sba(iModules.cell
Cell
p1787
(dp1788
g5
I00
sg260
I01
sg12
(I01
I01
tp1789
sba(iModules.cell
Cell
p1790
(dp1791
g5
I00
sg260
I01
sg12
(I01
I01
tp1792
sba(iModules.cell
Cell
p1793
(dp1794
g5
I00
sg260
I01
sg12
(I01
I01
tp1795
sba(iModules.cell
Cell
p1796
(dp1797
g5
I00
sg260
I01
sg12
(I01
I01
tp1798
sba(iModules.cell
Cell
p1799
(dp1800
g5
I00
sg260
I01
sg12
(I01
I01
tp1801
sba(iModules.cell
Cell
p1802
(dp1803
g5
I00
sg260
I01
sg12
(I01
I01
tp1804
sba(iModules.cell
Cell
p1805
(dp1806
g5
I00
sg260
I01
sg12
(I01
I01
tp1807
sba(iModules.cell
Cell
p1808
(dp1809
g5
I00
sg260
I01
sg12
(I01
I01
tp1810
sba(iModules.cell
Cell
p1811
(dp1812
g5
I00
sg260
I01
sg12
(I01
I01
tp1813
sba(iModules.cell
Cell
p1814
(dp1815
g5
I00
sg260
I01
sg12
(I01
I01
tp1816
sba(iModules.cell
Cell
p1817
(dp1818
g5
I00
sg260
I01
sg12
(I01
I01
tp1819
sba(iModules.cell
Cell
p1820
(dp1821
g5
I00
sg260
I01
sg12
(I01
I01
tp1822
sba(iModules.cell
Cell
p1823
(dp1824
g5
I00
sg260
I01
sg12
(I01
I01
tp1825
sba(iModules.cell
Cell
p1826
(dp1827
g5
I00
sg260
I01
sg12
(I01
I01
tp1828
sba(iModules.cell
Cell
p1829
(dp1830
g5
I00
sg260
I01
sg12
(I01
I01
tp1831
sba(iModules.cell
Cell
p1832
(dp1833
g5
I00
sg260
I01
sg12
(I01
I01
tp1834
sba(iModules.cell
Cell
p1835
(dp1836
g5
I00
sg260
I01
sg12
(I01
I01
tp1837
sba(iModules.cell
Cell
p1838
(dp1839
g5
I00
sg260
I01
sg12
(I01
I01
tp1840
sba(iModules.cell
Cell
p1841
(dp1842
g5
I00
sg260
I01
sg12
(I01
I01
tp1843
sba(iModules.cell
Cell
p1844
(dp1845
g5
I00
sg260
I01
sg12
(I01
I01
tp1846
sba(iModules.cell
Newt
p1847
(dp1848
g596
g597
sg5
I00
sg598
(iModules.cell
Cell
p1849
(dp1850
g5
I00
sg260
I01
sg12
(I01
I01
tp1851
sbsg602
g603
sba(iModules.cell
Cell
p1852
(dp1853
g5
I00
sg260
I01
sg12
(I01
I01
tp1854
sba(iModules.cell
Cell
p1855
(dp1856
g5
I00
sg260
I01
sg12
(I01
I01
tp1857
sba(iModules.cell
Cell
p1858
(dp1859
g5
I00
sg260
I01
sg12
(I01
I01
tp1860
sba(iModules.cell
Cell
p1861
(dp1862
g5
I00
sg260
I01
sg12
(I01
I01
tp1863
sba(iModules.cell
Cell
p1864
(dp1865
g5
I00
sg260
I01
sg12
(I01
I01
tp1866
sba(iModules.cell
Cell
p1867
(dp1868
g5
I00
sg260
I01
sg12
(I01
I01
tp1869
sba(iModules.cell
Cell
p1870
(dp1871
g5
I00
sg260
I01
sg12
(I01
I01
tp1872
sba(iModules.cell
Cell
p1873
(dp1874
g5
I00
sg260
I01
sg12
(I01
I01
tp1875
sba(iModules.cell
Cell
p1876
(dp1877
g5
I00
sg260
I01
sg12
(I01
I01
tp1878
sba(iModules.cell
Cell
p1879
(dp1880
g5
I00
sg260
I01
sg12
(I01
I01
tp1881
sba(iModules.cell
Cell
p1882
(dp1883
g5
I00
sg260
I01
sg12
(I01
I01
tp1884
sba(iModules.cell
Cell
p1885
(dp1886
g5
I00
sg12
(I01
I01
tp1887
sba(iModules.cell
Cell
p1888
(dp1889
g5
I00
sg12
(I01
I01
tp1890
sba(iModules.cell
Cell
p1891
(dp1892
g5
I00
sg12
(I01
I01
tp1893
sba(iModules.cell
Cell
p1894
(dp1895
g5
I00
sg12
(I01
I01
tp1896
sba(iModules.cell
Cell
p1897
(dp1898
g5
I00
sg12
(I01
I01
tp1899
sba(iModules.cell
Cell
p1900
(dp1901
g5
I00
sg12
(I01
I01
tp1902
sba(iModules.cell
Cell
p1903
(dp1904
g5
I00
sg12
(I01
I01
tp1905
sba(iModules.cell
Cell
p1906
(dp1907
g5
I00
sg12
(I01
I01
tp1908
sba(iModules.cell
Cell
p1909
(dp1910
g5
I00
sg12
(I01
I01
tp1911
sba(iModules.cell
Cell
p1912
(dp1913
g5
I00
sg12
(I01
I01
tp1914
sba(iModules.cell
Cell
p1915
(dp1916
g5
I00
sg12
(I01
I01
tp1917
sba(iModules.cell
Cell
p1918
(dp1919
g5
I00
sg12
(I01
I01
tp1920
sba(iModules.cell
Cell
p1921
(dp1922
g5
I00
sg12
(I01
I01
tp1923
sba(iModules.cell
Cell
p1924
(dp1925
g5
I00
sg12
(I01
I01
tp1926
sba(iModules.cell
Cell
p1927
(dp1928
g5
I00
sg12
(I01
I01
tp1929
sba(iModules.cell
Cell
p1930
(dp1931
g5
I00
sg12
(I01
I01
tp1932
sba(iModules.cell
Cell
p1933
(dp1934
g5
I00
sg12
(I01
I01
tp1935
sba(iModules.cell
Cell
p1936
(dp1937
g5
I00
sg12
(I01
I01
tp1938
sba(iModules.cell
Cell
p1939
(dp1940
g5
I00
sg12
(I00
I00
tp1941
sba(iModules.cell
Cell
p1942
(dp1943
g5
I00
sg12
(I00
I00
tp1944
sba(iModules.cell
Cell
p1945
(dp1946
g5
I00
sg12
(I00
I00
tp1947
sba(iModules.cell
Cell
p1948
(dp1949
g5
I00
sg12
(I00
I00
tp1950
sba(iModules.cell
Cell
p1951
(dp1952
g5
I00
sg12
(I00
I00
tp1953
sba(iModules.cell
Cell
p1954
(dp1955
g5
I00
sg12
(I00
I00
tp1956
sba(iModules.cell
Cell
p1957
(dp1958
g5
I00
sg12
(I00
I00
tp1959
sba(iModules.cell
Cell
p1960
(dp1961
g5
I00
sg12
(I00
I00
tp1962
sba(iModules.cell
Cell
p1963
(dp1964
g5
I00
sg12
(I00
I00
tp1965
sba(iModules.cell
Cell
p1966
(dp1967
g5
I00
sg12
(I00
I00
tp1968
sba(iModules.cell
Cell
p1969
(dp1970
g5
I00
sg12
(I00
I00
tp1971
sba(iModules.cell
Cell
p1972
(dp1973
g5
I00
sg12
(I00
I00
tp1974
sba(iModules.cell
Cell
p1975
(dp1976
g5
I00
sg12
(I00
I00
tp1977
sba(iModules.cell
Cell
p1978
(dp1979
g5
I00
sg12
(I00
I00
tp1980
sba(iModules.cell
Cell
p1981
(dp1982
g5
I00
sg12
(I00
I00
tp1983
sba(iModules.cell
Cell
p1984
(dp1985
g5
I00
sg12
(I00
I00
tp1986
sba(iModules.cell
Cell
p1987
(dp1988
g5
I00
sg12
(I00
I00
tp1989
sba(iModules.cell
Cell
p1990
(dp1991
g5
I00
sg12
(I00
I00
tp1992
sba(iModules.cell
Cell
p1993
(dp1994
g5
I00
sg12
(I00
I00
tp1995
sba(iModules.cell
Cell
p1996
(dp1997
g12
(I00
I00
tp1998
sbaa(lp1999
(iModules.cell
Cell
p2000
(dp2001
g5
I00
sg12
(I00
I00
tp2002
sba(iModules.cell
Cell
p2003
(dp2004
g5
I00
sg260
I01
sg12
(I00
I00
tp2005
sba(iModules.cell
Cell
p2006
(dp2007
g5
I00
sg260
I01
sg12
(I01
I01
tp2008
sba(iModules.cell
Cell
p2009
(dp2010
g5
I00
sg260
I01
sg12
(I01
I01
tp2011
sba(iModules.cell
Cell
p2012
(dp2013
g5
I00
sg260
I01
sg12
(I01
I01
tp2014
sba(iModules.cell
Cell
p2015
(dp2016
g5
I00
sg260
I01
sg12
(I01
I01
tp2017
sba(iModules.cell
Cell
p2018
(dp2019
g5
I00
sg260
I01
sg12
(I01
I01
tp2020
sba(iModules.cell
Cell
p2021
(dp2022
g5
I00
sg260
I01
sg12
(I01
I01
tp2023
sba(iModules.cell
Cell
p2024
(dp2025
g5
I00
sg260
I01
sg12
(I01
I01
tp2026
sba(iModules.cell
Cell
p2027
(dp2028
g5
I00
sg260
I01
sg12
(I01
I01
tp2029
sba(iModules.cell
Cell
p2030
(dp2031
g5
I00
sg260
I01
sg12
(I01
I01
tp2032
sba(iModules.cell
Cell
p2033
(dp2034
g5
I00
sg260
I01
sg12
(I01
I01
tp2035
sba(iModules.cell
Cell
p2036
(dp2037
g5
I00
sg260
I01
sg12
(I01
I01
tp2038
sba(iModules.cell
Cell
p2039
(dp2040
g5
I00
sg260
I01
sg12
(I01
I01
tp2041
sba(iModules.cell
Cell
p2042
(dp2043
g5
I00
sg260
I01
sg12
(I01
I01
tp2044
sba(iModules.cell
Cell
p2045
(dp2046
g5
I00
sg260
I01
sg12
(I01
I01
tp2047
sba(iModules.cell
Cell
p2048
(dp2049
g5
I00
sg260
I01
sg12
(I01
I01
tp2050
sba(iModules.cell
Cell
p2051
(dp2052
g5
I00
sg260
I01
sg12
(I01
I01
tp2053
sba(iModules.cell
Cell
p2054
(dp2055
g5
I00
sg260
I01
sg12
(I01
I01
tp2056
sba(iModules.cell
Cell
p2057
(dp2058
g5
I00
sg260
I01
sg12
(I01
I01
tp2059
sba(iModules.cell
Cell
p2060
(dp2061
g5
I00
sg260
I01
sg12
(I01
I01
tp2062
sba(iModules.cell
Cell
p2063
(dp2064
g5
I00
sg260
I01
sg12
(I01
I01
tp2065
sba(iModules.cell
Cell
p2066
(dp2067
g5
I00
sg260
I01
sg12
(I01
I01
tp2068
sba(iModules.cell
Cell
p2069
(dp2070
g5
I00
sg260
I01
sg12
(I01
I01
tp2071
sba(iModules.cell
Cell
p2072
(dp2073
g5
I00
sg260
I01
sg12
(I01
I01
tp2074
sba(iModules.cell
Cell
p2075
(dp2076
g5
I00
sg260
I01
sg12
(I01
I01
tp2077
sba(iModules.cell
Cell
p2078
(dp2079
g5
I00
sg260
I01
sg12
(I01
I01
tp2080
sba(iModules.cell
Cell
p2081
(dp2082
g5
I00
sg260
I01
sg12
(I01
I01
tp2083
sba(iModules.cell
Cell
p2084
(dp2085
g5
I00
sg260
I01
sg12
(I01
I01
tp2086
sba(iModules.cell
Cell
p2087
(dp2088
g5
I00
sg260
I01
sg12
(I01
I01
tp2089
sba(iModules.cell
Cell
p2090
(dp2091
g5
I00
sg260
I01
sg12
(I01
I01
tp2092
sba(iModules.cell
Cell
p2093
(dp2094
g5
I00
sg260
I01
sg12
(I01
I01
tp2095
sba(iModules.cell
Cell
p2096
(dp2097
g5
I00
sg260
I01
sg12
(I01
I01
tp2098
sba(iModules.cell
Cell
p2099
(dp2100
g5
I00
sg260
I01
sg12
(I01
I01
tp2101
sba(iModules.cell
Cell
p2102
(dp2103
g5
I00
sg260
I01
sg12
(I01
I01
tp2104
sba(iModules.cell
Cell
p2105
(dp2106
g5
I00
sg260
I01
sg12
(I01
I01
tp2107
sba(iModules.cell
Cell
p2108
(dp2109
g5
I00
sg260
I01
sg12
(I01
I01
tp2110
sba(iModules.cell
Cell
p2111
(dp2112
g5
I00
sg260
I01
sg12
(I01
I01
tp2113
sba(iModules.cell
Cell
p2114
(dp2115
g5
I00
sg260
I01
sg12
(I01
I01
tp2116
sba(iModules.cell
Cell
p2117
(dp2118
g5
I00
sg260
I01
sg12
(I01
I01
tp2119
sba(iModules.cell
Cell
p2120
(dp2121
g5
I00
sg260
I01
sg12
(I01
I01
tp2122
sba(iModules.cell
Cell
p2123
(dp2124
g5
I00
sg260
I01
sg12
(I01
I01
tp2125
sba(iModules.cell
Cell
p2126
(dp2127
g5
I00
sg260
I01
sg12
(I01
I01
tp2128
sba(iModules.cell
Cell
p2129
(dp2130
g5
I00
sg12
(I01
I01
tp2131
sba(iModules.cell
Cell
p2132
(dp2133
g5
I00
sg12
(I01
I01
tp2134
sba(iModules.cell
Cell
p2135
(dp2136
g5
I00
sg12
(I01
I01
tp2137
sba(iModules.cell
Cell
p2138
(dp2139
g5
I00
sg12
(I01
I01
tp2140
sba(iModules.cell
Cell
p2141
(dp2142
g5
I00
sg12
(I01
I01
tp2143
sba(iModules.cell
Cell
p2144
(dp2145
g5
I00
sg12
(I01
I01
tp2146
sba(iModules.cell
Cell
p2147
(dp2148
g5
I00
sg12
(I01
I01
tp2149
sba(iModules.cell
Cell
p2150
(dp2151
g5
I00
sg12
(I01
I01
tp2152
sba(iModules.cell
Cell
p2153
(dp2154
g5
I00
sg12
(I01
I01
tp2155
sba(iModules.cell
Cell
p2156
(dp2157
g5
I00
sg12
(I01
I01
tp2158
sba(iModules.cell
Cell
p2159
(dp2160
g5
I00
sg12
(I01
I01
tp2161
sba(iModules.cell
Cell
p2162
(dp2163
g5
I00
sg12
(I01
I01
tp2164
sba(iModules.cell
Cell
p2165
(dp2166
g5
I00
sg12
(I01
I01
tp2167
sba(iModules.cell
Cell
p2168
(dp2169
g5
I00
sg12
(I01
I01
tp2170
sba(iModules.cell
Cell
p2171
(dp2172
g5
I00
sg12
(I01
I01
tp2173
sba(iModules.cell
Cell
p2174
(dp2175
g5
I00
sg12
(I01
I01
tp2176
sba(iModules.cell
Cell
p2177
(dp2178
g5
I00
sg12
(I01
I01
tp2179
sba(iModules.cell
Cell
p2180
(dp2181
g5
I00
sg12
(I01
I01
tp2182
sba(iModules.cell
Cell
p2183
(dp2184
g5
I00
sg12
(I00
I00
tp2185
sba(iModules.cell
Cell
p2186
(dp2187
g5
I00
sg12
(I00
I00
tp2188
sba(iModules.cell
Cell
p2189
(dp2190
g5
I00
sg12
(I00
I00
tp2191
sba(iModules.cell
Cell
p2192
(dp2193
g5
I00
sg12
(I00
I00
tp2194
sba(iModules.cell
Cell
p2195
(dp2196
g5
I00
sg12
(I00
I00
tp2197
sba(iModules.cell
Cell
p2198
(dp2199
g5
I00
sg12
(I00
I00
tp2200
sba(iModules.cell
Cell
p2201
(dp2202
g5
I00
sg12
(I00
I00
tp2203
sba(iModules.cell
Cell
p2204
(dp2205
g5
I00
sg12
(I00
I00
tp2206
sba(iModules.cell
Cell
p2207
(dp2208
g5
I00
sg12
(I00
I00
tp2209
sba(iModules.cell
Cell
p2210
(dp2211
g5
I00
sg12
(I00
I00
tp2212
sba(iModules.cell
Cell
p2213
(dp2214
g5
I00
sg12
(I00
I00
tp2215
sba(iModules.cell
Cell
p2216
(dp2217
g5
I00
sg12
(I00
I00
tp2218
sba(iModules.cell
Cell
p2219
(dp2220
g5
I00
sg12
(I00
I00
tp2221
sba(iModules.cell
Cell
p2222
(dp2223
g5
I00
sg12
(I00
I00
tp2224
sba(iModules.cell
Cell
p2225
(dp2226
g5
I00
sg12
(I00
I00
tp2227
sba(iModules.cell
Cell
p2228
(dp2229
g5
I00
sg12
(I00
I00
tp2230
sba(iModules.cell
Cell
p2231
(dp2232
g5
I00
sg12
(I00
I00
tp2233
sba(iModules.cell
Cell
p2234
(dp2235
g5
I00
sg12
(I00
I00
tp2236
sba(iModules.cell
Cell
p2237
(dp2238
g5
I00
sg12
(I00
I00
tp2239
sba(iModules.cell
Cell
p2240
(dp2241
g12
(I00
I00
tp2242
sbaa(lp2243
(iModules.cell
Cell
p2244
(dp2245
g5
I00
sg12
(I00
I00
tp2246
sba(iModules.cell
Cell
p2247
(dp2248
g5
I00
sg260
I01
sg12
(I00
I00
tp2249
sba(iModules.cell
Cell
p2250
(dp2251
g5
I00
sg260
I01
sg12
(I01
I01
tp2252
sba(iModules.cell
Cell
p2253
(dp2254
g5
I00
sg260
I01
sg12
(I01
I01
tp2255
sba(iModules.cell
Cell
p2256
(dp2257
g5
I00
sg260
I01
sg12
(I01
I01
tp2258
sba(iModules.cell
Cell
p2259
(dp2260
g5
I00
sg260
I01
sg12
(I01
I01
tp2261
sba(iModules.cell
Cell
p2262
(dp2263
g5
I00
sg260
I01
sg12
(I01
I01
tp2264
sba(iModules.cell
Cell
p2265
(dp2266
g5
I00
sg260
I01
sg12
(I01
I01
tp2267
sba(iModules.cell
Cell
p2268
(dp2269
g5
I00
sg260
I01
sg12
(I01
I01
tp2270
sba(iModules.cell
Cell
p2271
(dp2272
g5
I00
sg260
I01
sg12
(I01
I01
tp2273
sba(iModules.cell
Cell
p2274
(dp2275
g5
I00
sg260
I01
sg12
(I01
I01
tp2276
sba(iModules.cell
Cell
p2277
(dp2278
g5
I00
sg260
I01
sg12
(I01
I01
tp2279
sba(iModules.cell
Cell
p2280
(dp2281
g5
I00
sg260
I01
sg12
(I01
I01
tp2282
sba(iModules.cell
Cell
p2283
(dp2284
g5
I00
sg260
I01
sg12
(I01
I01
tp2285
sba(iModules.cell
Cell
p2286
(dp2287
g5
I00
sg260
I01
sg12
(I01
I01
tp2288
sba(iModules.cell
Cell
p2289
(dp2290
g5
I00
sg260
I01
sg12
(I01
I01
tp2291
sba(iModules.cell
Cell
p2292
(dp2293
g5
I00
sg260
I01
sg12
(I01
I01
tp2294
sba(iModules.cell
Cell
p2295
(dp2296
g5
I00
sg260
I01
sg12
(I01
I01
tp2297
sba(iModules.cell
Cell
p2298
(dp2299
g5
I00
sg260
I01
sg12
(I01
I01
tp2300
sba(iModules.cell
Cell
p2301
(dp2302
g5
I00
sg260
I01
sg12
(I01
I01
tp2303
sba(iModules.cell
Cell
p2304
(dp2305
g5
I00
sg260
I01
sg12
(I01
I01
tp2306
sba(iModules.cell
Cell
p2307
(dp2308
g5
I00
sg260
I01
sg12
(I01
I01
tp2309
sba(iModules.cell
Cell
p2310
(dp2311
g5
I00
sg260
I01
sg12
(I01
I01
tp2312
sba(iModules.cell
Cell
p2313
(dp2314
g5
I00
sg260
I01
sg12
(I01
I01
tp2315
sba(iModules.cell
Cell
p2316
(dp2317
g5
I00
sg260
I01
sg12
(I01
I01
tp2318
sba(iModules.cell
Cell
p2319
(dp2320
g5
I00
sg260
I01
sg12
(I01
I01
tp2321
sba(iModules.cell
Cell
p2322
(dp2323
g5
I00
sg260
I01
sg12
(I01
I01
tp2324
sba(iModules.cell
Cell
p2325
(dp2326
g5
I00
sg260
I01
sg12
(I01
I01
tp2327
sba(iModules.cell
Cell
p2328
(dp2329
g5
I00
sg260
I01
sg12
(I01
I01
tp2330
sba(iModules.cell
Cell
p2331
(dp2332
g5
I00
sg260
I01
sg12
(I01
I01
tp2333
sba(iModules.cell
Cell
p2334
(dp2335
g5
I00
sg260
I01
sg12
(I01
I01
tp2336
sba(iModules.cell
Cell
p2337
(dp2338
g5
I00
sg260
I01
sg12
(I01
I01
tp2339
sba(iModules.cell
Cell
p2340
(dp2341
g5
I00
sg260
I01
sg12
(I01
I01
tp2342
sba(iModules.cell
Cell
p2343
(dp2344
g5
I00
sg260
I01
sg12
(I01
I01
tp2345
sba(iModules.cell
Cell
p2346
(dp2347
g5
I00
sg260
I01
sg12
(I01
I01
tp2348
sba(iModules.cell
Cell
p2349
(dp2350
g5
I00
sg260
I01
sg12
(I01
I01
tp2351
sba(iModules.cell
Cell
p2352
(dp2353
g5
I00
sg260
I01
sg12
(I01
I01
tp2354
sba(iModules.cell
Cell
p2355
(dp2356
g5
I00
sg260
I01
sg12
(I01
I01
tp2357
sba(iModules.cell
Cell
p2358
(dp2359
g5
I00
sg260
I01
sg12
(I01
I01
tp2360
sba(iModules.cell
Cell
p2361
(dp2362
g5
I00
sg260
I01
sg12
(I01
I01
tp2363
sba(iModules.cell
Cell
p2364
(dp2365
g5
I00
sg260
I01
sg12
(I01
I01
tp2366
sba(iModules.cell
Cell
p2367
(dp2368
g5
I00
sg260
I01
sg12
(I01
I01
tp2369
sba(iModules.cell
Cell
p2370
(dp2371
g5
I00
sg260
I01
sg12
(I01
I01
tp2372
sba(iModules.cell
Cell
p2373
(dp2374
g5
I00
sg12
(I01
I01
tp2375
sba(iModules.cell
Cell
p2376
(dp2377
g5
I00
sg12
(I01
I01
tp2378
sba(iModules.cell
Cell
p2379
(dp2380
g5
I00
sg12
(I01
I01
tp2381
sba(iModules.cell
Newt
p2382
(dp2383
g596
g597
sg5
I00
sg598
(iModules.cell
Cell
p2384
(dp2385
g5
I00
sg12
(I01
I01
tp2386
sbsg602
g603
sba(iModules.cell
Cell
p2387
(dp2388
g5
I00
sg12
(I01
I01
tp2389
sba(iModules.cell
Cell
p2390
(dp2391
g5
I00
sg12
(I01
I01
tp2392
sba(iModules.cell
Cell
p2393
(dp2394
g5
I00
sg12
(I01
I01
tp2395
sba(iModules.cell
Cell
p2396
(dp2397
g5
I00
sg12
(I01
I01
tp2398
sba(iModules.cell
Cell
p2399
(dp2400
g5
I00
sg12
(I01
I01
tp2401
sba(iModules.cell
Cell
p2402
(dp2403
g5
I00
sg12
(I01
I01
tp2404
sba(iModules.cell
Cell
p2405
(dp2406
g5
I00
sg12
(I01
I01
tp2407
sba(iModules.cell
Cell
p2408
(dp2409
g5
I00
sg12
(I01
I01
tp2410
sba(iModules.cell
Cell
p2411
(dp2412
g5
I00
sg12
(I01
I01
tp2413
sba(iModules.cell
Cell
p2414
(dp2415
g5
I00
sg12
(I01
I01
tp2416
sba(iModules.cell
Cell
p2417
(dp2418
g5
I00
sg12
(I01
I01
tp2419
sba(iModules.cell
Cell
p2420
(dp2421
g5
I00
sg12
(I01
I01
tp2422
sba(iModules.cell
Cell
p2423
(dp2424
g5
I00
sg12
(I01
I01
tp2425
sba(iModules.cell
Cell
p2426
(dp2427
g5
I00
sg12
(I01
I01
tp2428
sba(iModules.cell
Cell
p2429
(dp2430
g327
I00
sg5
I00
sg12
(I00
I00
tp2431
sg329
(lp2432
I9
aI61
asba(iModules.cell
Cell
p2433
(dp2434
g5
I00
sg12
(I00
I00
tp2435
sba(iModules.cell
Cell
p2436
(dp2437
g5
I00
sg12
(I00
I00
tp2438
sba(iModules.cell
Cell
p2439
(dp2440
g5
I00
sg12
(I00
I00
tp2441
sba(iModules.cell
Cell
p2442
(dp2443
g5
I00
sg12
(I00
I00
tp2444
sba(iModules.cell
Cell
p2445
(dp2446
g5
I00
sg12
(I00
I00
tp2447
sba(iModules.cell
Cell
p2448
(dp2449
g5
I00
sg12
(I00
I00
tp2450
sba(iModules.cell
Cell
p2451
(dp2452
g5
I00
sg12
(I00
I00
tp2453
sba(iModules.cell
Cell
p2454
(dp2455
g5
I00
sg12
(I00
I00
tp2456
sba(iModules.cell
Cell
p2457
(dp2458
g5
I00
sg12
(I00
I00
tp2459
sba(iModules.cell
Cell
p2460
(dp2461
g5
I00
sg12
(I00
I00
tp2462
sba(iModules.cell
Cell
p2463
(dp2464
g5
I00
sg12
(I00
I00
tp2465
sba(iModules.cell
Cell
p2466
(dp2467
g5
I00
sg12
(I00
I00
tp2468
sba(iModules.cell
Cell
p2469
(dp2470
g5
I00
sg12
(I00
I00
tp2471
sba(iModules.cell
Cell
p2472
(dp2473
g5
I00
sg12
(I00
I00
tp2474
sba(iModules.cell
Cell
p2475
(dp2476
g5
I00
sg12
(I00
I00
tp2477
sba(iModules.cell
Cell
p2478
(dp2479
g5
I00
sg12
(I00
I00
tp2480
sba(iModules.cell
Cell
p2481
(dp2482
g5
I00
sg12
(I00
I00
tp2483
sba(iModules.cell
Cell
p2484
(dp2485
g5
I00
sg12
(I00
I00
tp2486
sba(iModules.cell
Cell
p2487
(dp2488
g12
(I00
I00
tp2489
sbaa(lp2490
(iModules.cell
Cell
p2491
(dp2492
g5
I00
sg12
(I00
I00
tp2493
sba(iModules.cell
Cell
p2494
(dp2495
g5
I00
sg260
I01
sg12
(I00
I00
tp2496
sba(iModules.cell
Cell
p2497
(dp2498
g5
I00
sg260
I01
sg12
(I01
I01
tp2499
sba(iModules.cell
Cell
p2500
(dp2501
g5
I00
sg260
I01
sg12
(I01
I01
tp2502
sba(iModules.cell
Cell
p2503
(dp2504
g5
I00
sg260
I01
sg12
(I01
I01
tp2505
sba(iModules.cell
Cell
p2506
(dp2507
g5
I00
sg260
I01
sg12
(I01
I01
tp2508
sba(iModules.cell
Cell
p2509
(dp2510
g5
I00
sg260
I01
sg12
(I01
I01
tp2511
sba(iModules.cell
Cell
p2512
(dp2513
g5
I00
sg260
I01
sg12
(I01
I01
tp2514
sba(iModules.cell
Cell
p2515
(dp2516
g5
I00
sg260
I01
sg12
(I01
I01
tp2517
sba(iModules.cell
Cell
p2518
(dp2519
g5
I00
sg260
I01
sg12
(I01
I01
tp2520
sba(iModules.cell
Cell
p2521
(dp2522
g5
I00
sg260
I01
sg12
(I01
I01
tp2523
sba(iModules.cell
Cell
p2524
(dp2525
g5
I00
sg260
I01
sg12
(I01
I01
tp2526
sba(iModules.cell
Cell
p2527
(dp2528
g5
I00
sg260
I01
sg12
(I01
I01
tp2529
sba(iModules.cell
Cell
p2530
(dp2531
g5
I00
sg260
I01
sg12
(I01
I01
tp2532
sba(iModules.cell
Cell
p2533
(dp2534
g5
I00
sg260
I01
sg12
(I01
I01
tp2535
sba(iModules.cell
Cell
p2536
(dp2537
g5
I00
sg260
I01
sg12
(I01
I01
tp2538
sba(iModules.cell
Cell
p2539
(dp2540
g5
I00
sg260
I01
sg12
(I01
I01
tp2541
sba(iModules.cell
Cell
p2542
(dp2543
g5
I00
sg260
I01
sg12
(I01
I01
tp2544
sba(iModules.cell
Cell
p2545
(dp2546
g5
I00
sg260
I01
sg12
(I01
I01
tp2547
sba(iModules.cell
Cell
p2548
(dp2549
g5
I00
sg260
I01
sg12
(I01
I01
tp2550
sba(iModules.cell
Cell
p2551
(dp2552
g5
I00
sg260
I01
sg12
(I01
I01
tp2553
sba(iModules.cell
Cell
p2554
(dp2555
g5
I00
sg260
I01
sg12
(I01
I01
tp2556
sba(iModules.cell
Cell
p2557
(dp2558
g5
I00
sg260
I01
sg12
(I01
I01
tp2559
sba(iModules.cell
Cell
p2560
(dp2561
g5
I00
sg260
I01
sg12
(I01
I01
tp2562
sba(iModules.cell
Cell
p2563
(dp2564
g5
I00
sg260
I01
sg12
(I01
I01
tp2565
sba(iModules.cell
Cell
p2566
(dp2567
g5
I00
sg260
I01
sg12
(I01
I01
tp2568
sba(iModules.cell
Cell
p2569
(dp2570
g5
I00
sg260
I01
sg12
(I01
I01
tp2571
sba(iModules.cell
Cell
p2572
(dp2573
g5
I00
sg260
I01
sg12
(I01
I01
tp2574
sba(iModules.cell
Newt
p2575
(dp2576
g596
g597
sg5
I00
sg598
(iModules.cell
Cell
p2577
(dp2578
g5
I00
sg260
I01
sg12
(I01
I01
tp2579
sbsg602
g603
sba(iModules.cell
Cell
p2580
(dp2581
g5
I00
sg260
I01
sg12
(I01
I01
tp2582
sba(iModules.cell
Cell
p2583
(dp2584
g5
I00
sg260
I01
sg12
(I01
I01
tp2585
sba(iModules.cell
Cell
p2586
(dp2587
g5
I00
sg260
I01
sg12
(I01
I01
tp2588
sba(iModules.cell
Cell
p2589
(dp2590
g5
I00
sg260
I01
sg12
(I01
I01
tp2591
sba(iModules.cell
Cell
p2592
(dp2593
g5
I00
sg260
I01
sg12
(I01
I01
tp2594
sba(iModules.cell
Cell
p2595
(dp2596
g5
I00
sg260
I01
sg12
(I01
I01
tp2597
sba(iModules.cell
Cell
p2598
(dp2599
g5
I00
sg260
I01
sg12
(I01
I01
tp2600
sba(iModules.cell
Cell
p2601
(dp2602
g5
I00
sg260
I01
sg12
(I01
I01
tp2603
sba(iModules.cell
Cell
p2604
(dp2605
g5
I00
sg260
I01
sg12
(I01
I01
tp2606
sba(iModules.cell
Cell
p2607
(dp2608
g5
I00
sg260
I01
sg12
(I01
I01
tp2609
sba(iModules.cell
Cell
p2610
(dp2611
g5
I00
sg260
I01
sg12
(I01
I01
tp2612
sba(iModules.cell
Cell
p2613
(dp2614
g5
I00
sg260
I01
sg12
(I01
I01
tp2615
sba(iModules.cell
Cell
p2616
(dp2617
g5
I00
sg260
I01
sg12
(I01
I01
tp2618
sba(iModules.cell
Cell
p2619
(dp2620
g5
I00
sg260
I01
sg12
(I01
I01
tp2621
sba(iModules.cell
Cell
p2622
(dp2623
g5
I00
sg12
(I01
I01
tp2624
sba(iModules.cell
Cell
p2625
(dp2626
g5
I00
sg12
(I01
I01
tp2627
sba(iModules.cell
Cell
p2628
(dp2629
g5
I00
sg12
(I01
I01
tp2630
sba(iModules.cell
Cell
p2631
(dp2632
g5
I00
sg12
(I01
I01
tp2633
sba(iModules.cell
Cell
p2634
(dp2635
g5
I00
sg12
(I01
I01
tp2636
sba(iModules.cell
Cell
p2637
(dp2638
g5
I00
sg12
(I01
I01
tp2639
sba(iModules.cell
Cell
p2640
(dp2641
g5
I00
sg12
(I01
I01
tp2642
sba(iModules.cell
Cell
p2643
(dp2644
g5
I00
sg12
(I01
I01
tp2645
sba(iModules.cell
Cell
p2646
(dp2647
g5
I00
sg12
(I01
I01
tp2648
sba(iModules.cell
Cell
p2649
(dp2650
g5
I00
sg12
(I01
I01
tp2651
sba(iModules.cell
Cell
p2652
(dp2653
g5
I00
sg12
(I01
I01
tp2654
sba(iModules.cell
Cell
p2655
(dp2656
g5
I00
sg12
(I01
I01
tp2657
sba(iModules.cell
Newt
p2658
(dp2659
g596
g597
sg5
I00
sg598
(iModules.cell
Cell
p2660
(dp2661
g5
I00
sg12
(I01
I01
tp2662
sbsg602
g603
sba(iModules.cell
Cell
p2663
(dp2664
g5
I00
sg12
(I01
I01
tp2665
sba(iModules.cell
Cell
p2666
(dp2667
g5
I00
sg12
(I01
I01
tp2668
sba(iModules.cell
Cell
p2669
(dp2670
g5
I00
sg12
(I01
I01
tp2671
sba(iModules.cell
Cell
p2672
(dp2673
g5
I00
sg12
(I01
I01
tp2674
sba(iModules.cell
Cell
p2675
(dp2676
g5
I00
sg12
(I01
I01
tp2677
sba(iModules.cell
Cell
p2678
(dp2679
g327
I00
sg5
I00
sg12
(I00
I00
tp2680
sg329
(lp2681
I10
aI61
asba(iModules.cell
Cell
p2682
(dp2683
g5
I00
sg12
(I00
I00
tp2684
sba(iModules.cell
Cell
p2685
(dp2686
g5
I00
sg12
(I00
I00
tp2687
sba(iModules.cell
Cell
p2688
(dp2689
g5
I00
sg12
(I00
I00
tp2690
sba(iModules.cell
Cell
p2691
(dp2692
g5
I00
sg12
(I00
I00
tp2693
sba(iModules.cell
Cell
p2694
(dp2695
g5
I00
sg12
(I00
I00
tp2696
sba(iModules.cell
Cell
p2697
(dp2698
g5
I00
sg12
(I00
I00
tp2699
sba(iModules.cell
Cell
p2700
(dp2701
g5
I00
sg12
(I00
I00
tp2702
sba(iModules.cell
Cell
p2703
(dp2704
g5
I00
sg12
(I00
I00
tp2705
sba(iModules.cell
Cell
p2706
(dp2707
g5
I00
sg12
(I00
I00
tp2708
sba(iModules.cell
Cell
p2709
(dp2710
g5
I00
sg12
(I00
I00
tp2711
sba(iModules.cell
Cell
p2712
(dp2713
g5
I00
sg12
(I00
I00
tp2714
sba(iModules.cell
Cell
p2715
(dp2716
g5
I00
sg12
(I00
I00
tp2717
sba(iModules.cell
Cell
p2718
(dp2719
g5
I00
sg12
(I00
I00
tp2720
sba(iModules.cell
Cell
p2721
(dp2722
g5
I00
sg12
(I00
I00
tp2723
sba(iModules.cell
Cell
p2724
(dp2725
g5
I00
sg12
(I00
I00
tp2726
sba(iModules.cell
Cell
p2727
(dp2728
g5
I00
sg12
(I00
I00
tp2729
sba(iModules.cell
Cell
p2730
(dp2731
g5
I00
sg12
(I00
I00
tp2732
sba(iModules.cell
Cell
p2733
(dp2734
g5
I00
sg12
(I00
I00
tp2735
sba(iModules.cell
Cell
p2736
(dp2737
g12
(I00
I00
tp2738
sbaa(lp2739
(iModules.cell
Cell
p2740
(dp2741
g5
I00
sg12
(I00
I00
tp2742
sba(iModules.cell
Cell
p2743
(dp2744
g5
I00
sg260
I01
sg12
(I00
I00
tp2745
sba(iModules.cell
Cell
p2746
(dp2747
g5
I00
sg260
I01
sg12
(I01
I01
tp2748
sba(iModules.cell
Cell
p2749
(dp2750
g5
I00
sg260
I01
sg12
(I01
I01
tp2751
sba(iModules.cell
Cell
p2752
(dp2753
g5
I00
sg260
I01
sg12
(I01
I01
tp2754
sba(iModules.cell
Cell
p2755
(dp2756
g5
I00
sg260
I01
sg12
(I01
I01
tp2757
sba(iModules.cell
Cell
p2758
(dp2759
g5
I00
sg260
I01
sg12
(I01
I01
tp2760
sba(iModules.cell
Cell
p2761
(dp2762
g5
I00
sg260
I01
sg12
(I01
I01
tp2763
sba(iModules.cell
Cell
p2764
(dp2765
g5
I00
sg260
I01
sg12
(I01
I01
tp2766
sba(iModules.cell
Cell
p2767
(dp2768
g5
I00
sg260
I01
sg12
(I01
I01
tp2769
sba(iModules.cell
Cell
p2770
(dp2771
g5
I00
sg260
I01
sg12
(I01
I01
tp2772
sba(iModules.cell
Cell
p2773
(dp2774
g5
I00
sg260
I01
sg12
(I01
I01
tp2775
sba(iModules.cell
Cell
p2776
(dp2777
g5
I00
sg260
I01
sg12
(I01
I01
tp2778
sba(iModules.cell
Cell
p2779
(dp2780
g5
I00
sg260
I01
sg12
(I01
I01
tp2781
sba(iModules.cell
Cell
p2782
(dp2783
g5
I00
sg260
I01
sg12
(I01
I01
tp2784
sba(iModules.cell
Cell
p2785
(dp2786
g5
I00
sg260
I01
sg12
(I01
I01
tp2787
sba(iModules.cell
Cell
p2788
(dp2789
g5
I00
sg260
I01
sg12
(I01
I01
tp2790
sba(iModules.cell
Cell
p2791
(dp2792
g5
I00
sg260
I01
sg12
(I01
I01
tp2793
sba(iModules.cell
Cell
p2794
(dp2795
g5
I00
sg260
I01
sg12
(I01
I01
tp2796
sba(iModules.cell
Cell
p2797
(dp2798
g5
I00
sg260
I01
sg12
(I01
I01
tp2799
sba(iModules.cell
Cell
p2800
(dp2801
g5
I00
sg260
I01
sg12
(I01
I01
tp2802
sba(iModules.cell
Cell
p2803
(dp2804
g5
I00
sg260
I01
sg12
(I01
I01
tp2805
sba(iModules.cell
Cell
p2806
(dp2807
g5
I00
sg260
I01
sg12
(I01
I01
tp2808
sba(iModules.cell
Cell
p2809
(dp2810
g5
I00
sg260
I01
sg12
(I01
I01
tp2811
sba(iModules.cell
Cell
p2812
(dp2813
g5
I00
sg260
I01
sg12
(I01
I01
tp2814
sba(iModules.cell
Cell
p2815
(dp2816
g5
I00
sg260
I01
sg12
(I01
I01
tp2817
sba(iModules.cell
Cell
p2818
(dp2819
g5
I00
sg260
I01
sg12
(I01
I01
tp2820
sba(iModules.cell
Cell
p2821
(dp2822
g5
I00
sg260
I01
sg12
(I01
I01
tp2823
sba(iModules.cell
Cell
p2824
(dp2825
g5
I00
sg260
I01
sg12
(I01
I01
tp2826
sba(iModules.cell
Cell
p2827
(dp2828
g5
I00
sg260
I01
sg12
(I01
I01
tp2829
sba(iModules.cell
Cell
p2830
(dp2831
g5
I00
sg260
I01
sg12
(I01
I01
tp2832
sba(iModules.cell
Cell
p2833
(dp2834
g5
I00
sg260
I01
sg12
(I01
I01
tp2835
sba(iModules.cell
Cell
p2836
(dp2837
g5
I00
sg260
I01
sg12
(I01
I01
tp2838
sba(iModules.cell
Cell
p2839
(dp2840
g5
I00
sg260
I01
sg12
(I01
I01
tp2841
sba(iModules.cell
Cell
p2842
(dp2843
g5
I00
sg260
I01
sg12
(I01
I01
tp2844
sba(iModules.cell
Cell
p2845
(dp2846
g5
I00
sg260
I01
sg12
(I01
I01
tp2847
sba(iModules.cell
Cell
p2848
(dp2849
g5
I00
sg260
I01
sg12
(I01
I01
tp2850
sba(iModules.cell
Cell
p2851
(dp2852
g5
I00
sg260
I01
sg12
(I01
I01
tp2853
sba(iModules.cell
Cell
p2854
(dp2855
g5
I00
sg260
I01
sg12
(I01
I01
tp2856
sba(iModules.cell
Cell
p2857
(dp2858
g5
I00
sg260
I01
sg12
(I01
I01
tp2859
sba(iModules.cell
Cell
p2860
(dp2861
g5
I00
sg260
I01
sg12
(I01
I01
tp2862
sba(iModules.cell
Cell
p2863
(dp2864
g5
I00
sg260
I01
sg12
(I01
I01
tp2865
sba(iModules.cell
Cell
p2866
(dp2867
g5
I00
sg260
I01
sg12
(I01
I01
tp2868
sba(iModules.cell
Cell
p2869
(dp2870
g5
I00
sg12
(I01
I01
tp2871
sba(iModules.cell
Cell
p2872
(dp2873
g5
I00
sg12
(I01
I01
tp2874
sba(iModules.cell
Cell
p2875
(dp2876
g5
I00
sg12
(I01
I01
tp2877
sba(iModules.cell
Cell
p2878
(dp2879
g5
I00
sg12
(I01
I01
tp2880
sba(iModules.cell
Cell
p2881
(dp2882
g5
I00
sg12
(I01
I01
tp2883
sba(iModules.cell
Cell
p2884
(dp2885
g5
I00
sg12
(I01
I01
tp2886
sba(iModules.cell
Cell
p2887
(dp2888
g5
I00
sg12
(I01
I01
tp2889
sba(iModules.cell
Cell
p2890
(dp2891
g5
I00
sg12
(I01
I01
tp2892
sba(iModules.cell
Cell
p2893
(dp2894
g5
I00
sg12
(I01
I01
tp2895
sba(iModules.cell
Cell
p2896
(dp2897
g5
I00
sg12
(I01
I01
tp2898
sba(iModules.cell
Cell
p2899
(dp2900
g5
I00
sg12
(I01
I01
tp2901
sba(iModules.cell
Cell
p2902
(dp2903
g5
I00
sg12
(I01
I01
tp2904
sba(iModules.cell
Cell
p2905
(dp2906
g5
I00
sg12
(I01
I01
tp2907
sba(iModules.cell
Cell
p2908
(dp2909
g5
I00
sg12
(I01
I01
tp2910
sba(iModules.cell
Cell
p2911
(dp2912
g5
I00
sg12
(I01
I01
tp2913
sba(iModules.cell
Cell
p2914
(dp2915
g5
I00
sg12
(I01
I01
tp2916
sba(iModules.cell
Cell
p2917
(dp2918
g5
I00
sg12
(I01
I01
tp2919
sba(iModules.cell
Cell
p2920
(dp2921
g5
I00
sg12
(I01
I01
tp2922
sba(iModules.cell
Cell
p2923
(dp2924
g327
I00
sg5
I00
sg12
(I00
I00
tp2925
sg329
(lp2926
I11
aI61
asba(iModules.cell
Cell
p2927
(dp2928
g5
I00
sg12
(I00
I00
tp2929
sba(iModules.cell
Cell
p2930
(dp2931
g5
I00
sg12
(I00
I00
tp2932
sba(iModules.cell
Cell
p2933
(dp2934
g5
I00
sg12
(I00
I00
tp2935
sba(iModules.cell
Cell
p2936
(dp2937
g5
I00
sg12
(I00
I00
tp2938
sba(iModules.cell
Cell
p2939
(dp2940
g5
I00
sg12
(I00
I00
tp2941
sba(iModules.cell
Cell
p2942
(dp2943
g5
I00
sg12
(I00
I00
tp2944
sba(iModules.cell
Cell
p2945
(dp2946
g5
I00
sg12
(I00
I00
tp2947
sba(iModules.cell
Cell
p2948
(dp2949
g5
I00
sg12
(I00
I00
tp2950
sba(iModules.cell
Cell
p2951
(dp2952
g5
I00
sg12
(I00
I00
tp2953
sba(iModules.cell
Cell
p2954
(dp2955
g5
I00
sg12
(I00
I00
tp2956
sba(iModules.cell
Cell
p2957
(dp2958
g5
I00
sg12
(I00
I00
tp2959
sba(iModules.cell
Cell
p2960
(dp2961
g5
I00
sg12
(I00
I00
tp2962
sba(iModules.cell
Cell
p2963
(dp2964
g5
I00
sg12
(I00
I00
tp2965
sba(iModules.cell
Cell
p2966
(dp2967
g5
I00
sg12
(I00
I00
tp2968
sba(iModules.cell
Cell
p2969
(dp2970
g5
I00
sg12
(I00
I00
tp2971
sba(iModules.cell
Cell
p2972
(dp2973
g5
I00
sg12
(I00
I00
tp2974
sba(iModules.cell
Cell
p2975
(dp2976
g5
I00
sg12
(I00
I00
tp2977
sba(iModules.cell
Cell
p2978
(dp2979
g5
I00
sg12
(I00
I00
tp2980
sba(iModules.cell
Cell
p2981
(dp2982
g12
(I00
I00
tp2983
sbaa(lp2984
(iModules.cell
Cell
p2985
(dp2986
g5
I00
sg12
(I00
I00
tp2987
sba(iModules.cell
Cell
p2988
(dp2989
g5
I00
sg260
I01
sg12
(I00
I00
tp2990
sba(iModules.cell
Cell
p2991
(dp2992
g5
I00
sg260
I01
sg12
(I01
I01
tp2993
sba(iModules.cell
Cell
p2994
(dp2995
g5
I00
sg260
I01
sg12
(I01
I01
tp2996
sba(iModules.cell
Cell
p2997
(dp2998
g5
I00
sg260
I01
sg12
(I01
I01
tp2999
sba(iModules.cell
Cell
p3000
(dp3001
g5
I00
sg260
I01
sg12
(I01
I01
tp3002
sba(iModules.cell
Cell
p3003
(dp3004
g5
I00
sg260
I01
sg12
(I01
I01
tp3005
sba(iModules.cell
Cell
p3006
(dp3007
g5
I00
sg260
I01
sg12
(I01
I01
tp3008
sba(iModules.cell
Cell
p3009
(dp3010
g5
I00
sg260
I01
sg12
(I01
I01
tp3011
sba(iModules.cell
Cell
p3012
(dp3013
g5
I00
sg260
I01
sg12
(I01
I01
tp3014
sba(iModules.cell
Cell
p3015
(dp3016
g5
I00
sg260
I01
sg12
(I01
I01
tp3017
sba(iModules.cell
Cell
p3018
(dp3019
g5
I00
sg260
I01
sg12
(I01
I01
tp3020
sba(iModules.cell
Cell
p3021
(dp3022
g5
I00
sg260
I01
sg12
(I01
I01
tp3023
sba(iModules.cell
Cell
p3024
(dp3025
g5
I00
sg260
I01
sg12
(I01
I01
tp3026
sba(iModules.cell
Cell
p3027
(dp3028
g5
I00
sg260
I01
sg12
(I01
I01
tp3029
sba(iModules.cell
Cell
p3030
(dp3031
g5
I00
sg260
I01
sg12
(I01
I01
tp3032
sba(iModules.cell
Cell
p3033
(dp3034
g5
I00
sg260
I01
sg12
(I01
I01
tp3035
sba(iModules.cell
Cell
p3036
(dp3037
g5
I00
sg260
I01
sg12
(I01
I01
tp3038
sba(iModules.cell
Cell
p3039
(dp3040
g5
I00
sg260
I01
sg12
(I01
I01
tp3041
sba(iModules.cell
Cell
p3042
(dp3043
g5
I00
sg260
I01
sg12
(I01
I01
tp3044
sba(iModules.cell
Cell
p3045
(dp3046
g5
I00
sg260
I01
sg12
(I01
I01
tp3047
sba(iModules.cell
Cell
p3048
(dp3049
g5
I00
sg260
I01
sg12
(I01
I01
tp3050
sba(iModules.cell
Cell
p3051
(dp3052
g5
I00
sg260
I01
sg12
(I01
I01
tp3053
sba(iModules.cell
Cell
p3054
(dp3055
g5
I00
sg260
I01
sg12
(I01
I01
tp3056
sba(iModules.cell
Cell
p3057
(dp3058
g5
I00
sg260
I01
sg12
(I01
I01
tp3059
sba(iModules.cell
Cell
p3060
(dp3061
g5
I00
sg260
I01
sg12
(I01
I01
tp3062
sba(iModules.cell
Cell
p3063
(dp3064
g5
I00
sg260
I01
sg12
(I01
I01
tp3065
sba(iModules.cell
Cell
p3066
(dp3067
g5
I00
sg260
I01
sg12
(I01
I01
tp3068
sba(iModules.cell
Cell
p3069
(dp3070
g5
I00
sg260
I01
sg12
(I01
I01
tp3071
sba(iModules.cell
Cell
p3072
(dp3073
g5
I00
sg260
I01
sg12
(I01
I01
tp3074
sba(iModules.cell
Cell
p3075
(dp3076
g5
I00
sg260
I01
sg12
(I01
I01
tp3077
sba(iModules.cell
Cell
p3078
(dp3079
g5
I00
sg260
I01
sg12
(I01
I01
tp3080
sba(iModules.cell
Cell
p3081
(dp3082
g5
I00
sg260
I01
sg12
(I01
I01
tp3083
sba(iModules.cell
Cell
p3084
(dp3085
g5
I00
sg260
I01
sg12
(I01
I01
tp3086
sba(iModules.cell
Cell
p3087
(dp3088
g5
I00
sg260
I01
sg12
(I01
I01
tp3089
sba(iModules.cell
Cell
p3090
(dp3091
g5
I00
sg260
I01
sg12
(I01
I01
tp3092
sba(iModules.cell
Cell
p3093
(dp3094
g5
I00
sg260
I01
sg12
(I01
I01
tp3095
sba(iModules.cell
Newt
p3096
(dp3097
g596
g597
sg5
I00
sg598
(iModules.cell
Cell
p3098
(dp3099
g5
I00
sg260
I01
sg12
(I01
I01
tp3100
sbsg602
g603
sba(iModules.cell
Cell
p3101
(dp3102
g5
I00
sg260
I01
sg12
(I01
I01
tp3103
sba(iModules.cell
Cell
p3104
(dp3105
g5
I00
sg260
I01
sg12
(I01
I01
tp3106
sba(iModules.cell
Cell
p3107
(dp3108
g5
I00
sg260
I01
sg12
(I01
I01
tp3109
sba(iModules.cell
Cell
p3110
(dp3111
g5
I00
sg260
I01
sg12
(I01
I01
tp3112
sba(iModules.cell
Cell
p3113
(dp3114
g5
I00
sg260
I01
sg12
(I01
I01
tp3115
sba(iModules.cell
Cell
p3116
(dp3117
g5
I00
sg12
(I01
I01
tp3118
sba(iModules.cell
Cell
p3119
(dp3120
g5
I00
sg12
(I01
I01
tp3121
sba(iModules.cell
Cell
p3122
(dp3123
g5
I00
sg12
(I01
I01
tp3124
sba(iModules.cell
Cell
p3125
(dp3126
g5
I00
sg12
(I01
I01
tp3127
sba(iModules.cell
Cell
p3128
(dp3129
g5
I00
sg12
(I01
I01
tp3130
sba(iModules.cell
Cell
p3131
(dp3132
g5
I00
sg12
(I01
I01
tp3133
sba(iModules.cell
Cell
p3134
(dp3135
g5
I00
sg12
(I01
I01
tp3136
sba(iModules.cell
Cell
p3137
(dp3138
g5
I00
sg12
(I01
I01
tp3139
sba(iModules.cell
Cell
p3140
(dp3141
g5
I00
sg12
(I01
I01
tp3142
sba(iModules.cell
Cell
p3143
(dp3144
g5
I00
sg12
(I01
I01
tp3145
sba(iModules.cell
Cell
p3146
(dp3147
g5
I00
sg12
(I01
I01
tp3148
sba(iModules.cell
Cell
p3149
(dp3150
g5
I00
sg12
(I01
I01
tp3151
sba(iModules.cell
Cell
p3152
(dp3153
g5
I00
sg12
(I01
I01
tp3154
sba(iModules.cell
Cell
p3155
(dp3156
g5
I00
sg12
(I01
I01
tp3157
sba(iModules.cell
Cell
p3158
(dp3159
g5
I00
sg12
(I01
I01
tp3160
sba(iModules.cell
Cell
p3161
(dp3162
g5
I00
sg12
(I01
I01
tp3163
sba(iModules.cell
Cell
p3164
(dp3165
g5
I00
sg12
(I01
I01
tp3166
sba(iModules.cell
Cell
p3167
(dp3168
g5
I00
sg12
(I01
I01
tp3169
sba(iModules.cell
Cell
p3170
(dp3171
g327
I00
sg5
I00
sg12
(I00
I00
tp3172
sg329
(lp3173
I12
aI61
asba(iModules.cell
Cell
p3174
(dp3175
g5
I00
sg12
(I00
I00
tp3176
sba(iModules.cell
Cell
p3177
(dp3178
g5
I00
sg12
(I00
I00
tp3179
sba(iModules.cell
Cell
p3180
(dp3181
g5
I00
sg12
(I00
I00
tp3182
sba(iModules.cell
Cell
p3183
(dp3184
g5
I00
sg12
(I00
I00
tp3185
sba(iModules.cell
Cell
p3186
(dp3187
g5
I00
sg12
(I00
I00
tp3188
sba(iModules.cell
Cell
p3189
(dp3190
g5
I00
sg12
(I00
I00
tp3191
sba(iModules.cell
Cell
p3192
(dp3193
g5
I00
sg12
(I00
I00
tp3194
sba(iModules.cell
Cell
p3195
(dp3196
g5
I00
sg12
(I00
I00
tp3197
sba(iModules.cell
Cell
p3198
(dp3199
g5
I00
sg12
(I00
I00
tp3200
sba(iModules.cell
Cell
p3201
(dp3202
g5
I00
sg12
(I00
I00
tp3203
sba(iModules.cell
Cell
p3204
(dp3205
g5
I00
sg12
(I00
I00
tp3206
sba(iModules.cell
Cell
p3207
(dp3208
g5
I00
sg12
(I00
I00
tp3209
sba(iModules.cell
Cell
p3210
(dp3211
g5
I00
sg12
(I00
I00
tp3212
sba(iModules.cell
Cell
p3213
(dp3214
g5
I00
sg12
(I00
I00
tp3215
sba(iModules.cell
Cell
p3216
(dp3217
g5
I00
sg12
(I00
I00
tp3218
sba(iModules.cell
Cell
p3219
(dp3220
g5
I00
sg12
(I00
I00
tp3221
sba(iModules.cell
Cell
p3222
(dp3223
g5
I00
sg12
(I00
I00
tp3224
sba(iModules.cell
Cell
p3225
(dp3226
g5
I00
sg12
(I00
I00
tp3227
sba(iModules.cell
Cell
p3228
(dp3229
g12
(I00
I00
tp3230
sbaa(lp3231
(iModules.cell
Cell
p3232
(dp3233
g5
I00
sg12
(I00
I00
tp3234
sba(iModules.cell
Cell
p3235
(dp3236
g5
I00
sg260
I01
sg12
(I00
I00
tp3237
sba(iModules.cell
Cell
p3238
(dp3239
g5
I00
sg260
I01
sg12
(I01
I01
tp3240
sba(iModules.cell
Cell
p3241
(dp3242
g5
I00
sg260
I01
sg12
(I01
I01
tp3243
sba(iModules.cell
Cell
p3244
(dp3245
g5
I00
sg260
I01
sg12
(I01
I01
tp3246
sba(iModules.cell
Cell
p3247
(dp3248
g5
I00
sg260
I01
sg12
(I01
I01
tp3249
sba(iModules.cell
Cell
p3250
(dp3251
g5
I00
sg260
I01
sg12
(I01
I01
tp3252
sba(iModules.cell
Cell
p3253
(dp3254
g5
I00
sg260
I01
sg12
(I01
I01
tp3255
sba(iModules.cell
Cell
p3256
(dp3257
g5
I00
sg260
I01
sg12
(I01
I01
tp3258
sba(iModules.cell
Cell
p3259
(dp3260
g5
I00
sg260
I01
sg12
(I01
I01
tp3261
sba(iModules.cell
Cell
p3262
(dp3263
g5
I00
sg260
I01
sg12
(I01
I01
tp3264
sba(iModules.cell
Cell
p3265
(dp3266
g5
I00
sg260
I01
sg12
(I01
I01
tp3267
sba(iModules.cell
Cell
p3268
(dp3269
g5
I00
sg260
I01
sg12
(I01
I01
tp3270
sba(iModules.cell
Cell
p3271
(dp3272
g5
I00
sg260
I01
sg12
(I01
I01
tp3273
sba(iModules.cell
Cell
p3274
(dp3275
g5
I00
sg260
I01
sg12
(I01
I01
tp3276
sba(iModules.cell
Cell
p3277
(dp3278
g5
I00
sg260
I01
sg12
(I01
I01
tp3279
sba(iModules.cell
Cell
p3280
(dp3281
g5
I00
sg260
I01
sg12
(I01
I01
tp3282
sba(iModules.cell
Cell
p3283
(dp3284
g5
I00
sg260
I01
sg12
(I01
I01
tp3285
sba(iModules.cell
Cell
p3286
(dp3287
g5
I00
sg260
I01
sg12
(I01
I01
tp3288
sba(iModules.cell
Cell
p3289
(dp3290
g5
I00
sg260
I01
sg12
(I01
I01
tp3291
sba(iModules.cell
Cell
p3292
(dp3293
g5
I00
sg260
I01
sg12
(I01
I01
tp3294
sba(iModules.cell
Cell
p3295
(dp3296
g5
I00
sg260
I01
sg12
(I01
I01
tp3297
sba(iModules.cell
Cell
p3298
(dp3299
g5
I00
sg260
I01
sg12
(I01
I01
tp3300
sba(iModules.cell
Cell
p3301
(dp3302
g5
I00
sg260
I01
sg12
(I01
I01
tp3303
sba(iModules.cell
Cell
p3304
(dp3305
g5
I00
sg260
I01
sg12
(I01
I01
tp3306
sba(iModules.cell
Cell
p3307
(dp3308
g5
I00
sg260
I01
sg12
(I01
I01
tp3309
sba(iModules.cell
Cell
p3310
(dp3311
g5
I00
sg260
I01
sg12
(I01
I01
tp3312
sba(iModules.cell
Cell
p3313
(dp3314
g5
I00
sg260
I01
sg12
(I01
I01
tp3315
sba(iModules.cell
Cell
p3316
(dp3317
g5
I00
sg260
I01
sg12
(I01
I01
tp3318
sba(iModules.cell
Cell
p3319
(dp3320
g5
I00
sg260
I01
sg12
(I01
I01
tp3321
sba(iModules.cell
Cell
p3322
(dp3323
g5
I00
sg260
I01
sg12
(I01
I01
tp3324
sba(iModules.cell
Cell
p3325
(dp3326
g5
I00
sg260
I01
sg12
(I01
I01
tp3327
sba(iModules.cell
Cell
p3328
(dp3329
g5
I00
sg260
I01
sg12
(I01
I01
tp3330
sba(iModules.cell
Cell
p3331
(dp3332
g5
I00
sg260
I01
sg12
(I01
I01
tp3333
sba(iModules.cell
Cell
p3334
(dp3335
g5
I00
sg260
I01
sg12
(I01
I01
tp3336
sba(iModules.cell
Cell
p3337
(dp3338
g5
I00
sg260
I01
sg12
(I01
I01
tp3339
sba(iModules.cell
Cell
p3340
(dp3341
g5
I00
sg260
I01
sg12
(I01
I01
tp3342
sba(iModules.cell
Cell
p3343
(dp3344
g5
I00
sg260
I01
sg12
(I01
I01
tp3345
sba(iModules.cell
Cell
p3346
(dp3347
g5
I00
sg260
I01
sg12
(I01
I01
tp3348
sba(iModules.cell
Cell
p3349
(dp3350
g5
I00
sg260
I01
sg12
(I01
I01
tp3351
sba(iModules.cell
Cell
p3352
(dp3353
g5
I00
sg260
I01
sg12
(I01
I01
tp3354
sba(iModules.cell
Cell
p3355
(dp3356
g5
I00
sg260
I01
sg12
(I01
I01
tp3357
sba(iModules.cell
Cell
p3358
(dp3359
g5
I00
sg260
I01
sg12
(I01
I01
tp3360
sba(iModules.cell
Cell
p3361
(dp3362
g5
I00
sg12
(I01
I01
tp3363
sba(iModules.cell
Cell
p3364
(dp3365
g5
I00
sg12
(I01
I01
tp3366
sba(iModules.cell
Cell
p3367
(dp3368
g5
I00
sg12
(I01
I01
tp3369
sba(iModules.cell
Cell
p3370
(dp3371
g5
I00
sg12
(I01
I01
tp3372
sba(iModules.cell
Cell
p3373
(dp3374
g5
I00
sg12
(I01
I01
tp3375
sba(iModules.cell
Cell
p3376
(dp3377
g5
I00
sg12
(I01
I01
tp3378
sba(iModules.cell
Cell
p3379
(dp3380
g5
I00
sg12
(I01
I01
tp3381
sba(iModules.cell
Cell
p3382
(dp3383
g5
I00
sg12
(I01
I01
tp3384
sba(iModules.cell
Cell
p3385
(dp3386
g5
I00
sg12
(I01
I01
tp3387
sba(iModules.cell
Cell
p3388
(dp3389
g5
I00
sg12
(I01
I01
tp3390
sba(iModules.cell
Cell
p3391
(dp3392
g5
I00
sg12
(I01
I01
tp3393
sba(iModules.cell
Cell
p3394
(dp3395
g5
I00
sg12
(I01
I01
tp3396
sba(iModules.cell
Cell
p3397
(dp3398
g5
I00
sg12
(I01
I01
tp3399
sba(iModules.cell
Cell
p3400
(dp3401
g5
I00
sg12
(I01
I01
tp3402
sba(iModules.cell
Cell
p3403
(dp3404
g5
I00
sg12
(I01
I01
tp3405
sba(iModules.cell
Cell
p3406
(dp3407
g5
I00
sg12
(I01
I01
tp3408
sba(iModules.cell
Cell
p3409
(dp3410
g5
I00
sg12
(I01
I01
tp3411
sba(iModules.cell
Cell
p3412
(dp3413
g5
I00
sg12
(I01
I01
tp3414
sba(iModules.cell
Cell
p3415
(dp3416
g327
I00
sg5
I00
sg12
(I00
I00
tp3417
sg329
(lp3418
I13
aI61
asba(iModules.cell
Cell
p3419
(dp3420
g5
I00
sg12
(I00
I00
tp3421
sba(iModules.cell
Cell
p3422
(dp3423
g5
I00
sg12
(I00
I00
tp3424
sba(iModules.cell
Cell
p3425
(dp3426
g5
I00
sg12
(I00
I00
tp3427
sba(iModules.cell
Cell
p3428
(dp3429
g5
I00
sg12
(I00
I00
tp3430
sba(iModules.cell
Cell
p3431
(dp3432
g5
I00
sg12
(I00
I00
tp3433
sba(iModules.cell
Cell
p3434
(dp3435
g5
I00
sg12
(I00
I00
tp3436
sba(iModules.cell
Cell
p3437
(dp3438
g5
I00
sg12
(I00
I00
tp3439
sba(iModules.cell
Cell
p3440
(dp3441
g5
I00
sg12
(I00
I00
tp3442
sba(iModules.cell
Cell
p3443
(dp3444
g5
I00
sg12
(I00
I00
tp3445
sba(iModules.cell
Cell
p3446
(dp3447
g5
I00
sg12
(I00
I00
tp3448
sba(iModules.cell
Cell
p3449
(dp3450
g5
I00
sg12
(I00
I00
tp3451
sba(iModules.cell
Cell
p3452
(dp3453
g5
I00
sg12
(I00
I00
tp3454
sba(iModules.cell
Cell
p3455
(dp3456
g5
I00
sg12
(I00
I00
tp3457
sba(iModules.cell
Cell
p3458
(dp3459
g5
I00
sg12
(I00
I00
tp3460
sba(iModules.cell
Cell
p3461
(dp3462
g5
I00
sg12
(I00
I00
tp3463
sba(iModules.cell
Cell
p3464
(dp3465
g5
I00
sg12
(I00
I00
tp3466
sba(iModules.cell
Cell
p3467
(dp3468
g5
I00
sg12
(I00
I00
tp3469
sba(iModules.cell
Cell
p3470
(dp3471
g5
I00
sg12
(I00
I00
tp3472
sba(iModules.cell
Cell
p3473
(dp3474
g12
(I00
I00
tp3475
sbaa(lp3476
(iModules.cell
Cell
p3477
(dp3478
g5
I00
sg12
(I00
I00
tp3479
sba(iModules.cell
Cell
p3480
(dp3481
g5
I00
sg260
I01
sg12
(I00
I00
tp3482
sba(iModules.cell
Cell
p3483
(dp3484
g5
I00
sg260
I01
sg12
(I01
I01
tp3485
sba(iModules.cell
Cell
p3486
(dp3487
g5
I00
sg260
I01
sg12
(I01
I01
tp3488
sba(iModules.cell
Cell
p3489
(dp3490
g5
I00
sg260
I01
sg12
(I01
I01
tp3491
sba(iModules.cell
Cell
p3492
(dp3493
g5
I00
sg260
I01
sg12
(I01
I01
tp3494
sba(iModules.cell
Cell
p3495
(dp3496
g5
I00
sg260
I01
sg12
(I01
I01
tp3497
sba(iModules.cell
Cell
p3498
(dp3499
g5
I00
sg260
I01
sg12
(I01
I01
tp3500
sba(iModules.cell
Cell
p3501
(dp3502
g5
I00
sg260
I01
sg12
(I01
I01
tp3503
sba(iModules.cell
Cell
p3504
(dp3505
g5
I00
sg260
I01
sg12
(I01
I01
tp3506
sba(iModules.cell
Cell
p3507
(dp3508
g5
I00
sg260
I01
sg12
(I01
I01
tp3509
sba(iModules.cell
Cell
p3510
(dp3511
g5
I00
sg260
I01
sg12
(I01
I01
tp3512
sba(iModules.cell
Cell
p3513
(dp3514
g5
I00
sg260
I01
sg12
(I01
I01
tp3515
sba(iModules.cell
Cell
p3516
(dp3517
g5
I00
sg260
I01
sg12
(I01
I01
tp3518
sba(iModules.cell
Cell
p3519
(dp3520
g5
I00
sg260
I01
sg12
(I01
I01
tp3521
sba(iModules.cell
Cell
p3522
(dp3523
g5
I00
sg260
I01
sg12
(I01
I01
tp3524
sba(iModules.cell
Cell
p3525
(dp3526
g5
I00
sg260
I01
sg12
(I01
I01
tp3527
sba(iModules.cell
Cell
p3528
(dp3529
g5
I00
sg260
I01
sg12
(I01
I01
tp3530
sba(iModules.cell
Cell
p3531
(dp3532
g5
I00
sg260
I01
sg12
(I01
I01
tp3533
sba(iModules.cell
Cell
p3534
(dp3535
g5
I00
sg260
I01
sg12
(I01
I01
tp3536
sba(iModules.cell
Cell
p3537
(dp3538
g5
I00
sg260
I01
sg12
(I01
I01
tp3539
sba(iModules.cell
Cell
p3540
(dp3541
g5
I00
sg260
I01
sg12
(I01
I01
tp3542
sba(iModules.cell
Cell
p3543
(dp3544
g5
I00
sg260
I01
sg12
(I01
I01
tp3545
sba(iModules.cell
Cell
p3546
(dp3547
g5
I00
sg260
I01
sg12
(I01
I01
tp3548
sba(iModules.cell
Cell
p3549
(dp3550
g5
I00
sg260
I01
sg12
(I01
I01
tp3551
sba(iModules.cell
Cell
p3552
(dp3553
g5
I00
sg260
I01
sg12
(I01
I01
tp3554
sba(iModules.cell
Cell
p3555
(dp3556
g5
I00
sg260
I01
sg12
(I01
I01
tp3557
sba(iModules.cell
Cell
p3558
(dp3559
g5
I00
sg260
I01
sg12
(I01
I01
tp3560
sba(iModules.cell
Cell
p3561
(dp3562
g5
I00
sg260
I01
sg12
(I01
I01
tp3563
sba(iModules.cell
Cell
p3564
(dp3565
g5
I00
sg260
I01
sg12
(I01
I01
tp3566
sba(iModules.cell
Cell
p3567
(dp3568
g5
I00
sg260
I01
sg12
(I01
I01
tp3569
sba(iModules.cell
Cell
p3570
(dp3571
g5
I00
sg260
I01
sg12
(I01
I01
tp3572
sba(iModules.cell
Cell
p3573
(dp3574
g5
I00
sg260
I01
sg12
(I01
I01
tp3575
sba(iModules.cell
Cell
p3576
(dp3577
g5
I00
sg260
I01
sg12
(I01
I01
tp3578
sba(iModules.cell
Cell
p3579
(dp3580
g5
I00
sg260
I01
sg12
(I01
I01
tp3581
sba(iModules.cell
Cell
p3582
(dp3583
g5
I00
sg260
I01
sg12
(I01
I01
tp3584
sba(iModules.cell
Cell
p3585
(dp3586
g5
I00
sg260
I01
sg12
(I01
I01
tp3587
sba(iModules.cell
Cell
p3588
(dp3589
g5
I00
sg260
I01
sg12
(I01
I01
tp3590
sba(iModules.cell
Cell
p3591
(dp3592
g5
I00
sg260
I01
sg12
(I01
I01
tp3593
sba(iModules.cell
Cell
p3594
(dp3595
g5
I00
sg260
I01
sg12
(I01
I01
tp3596
sba(iModules.cell
Cell
p3597
(dp3598
g5
I00
sg260
I01
sg12
(I01
I01
tp3599
sba(iModules.cell
Cell
p3600
(dp3601
g5
I00
sg260
I01
sg12
(I01
I01
tp3602
sba(iModules.cell
Cell
p3603
(dp3604
g5
I00
sg260
I01
sg12
(I01
I01
tp3605
sba(iModules.cell
Cell
p3606
(dp3607
g5
I00
sg12
(I01
I01
tp3608
sba(iModules.cell
Cell
p3609
(dp3610
g5
I00
sg12
(I01
I01
tp3611
sba(iModules.cell
Cell
p3612
(dp3613
g5
I00
sg12
(I01
I01
tp3614
sba(iModules.cell
Cell
p3615
(dp3616
g5
I00
sg12
(I01
I01
tp3617
sba(iModules.cell
Cell
p3618
(dp3619
g5
I00
sg12
(I01
I01
tp3620
sba(iModules.cell
Cell
p3621
(dp3622
g5
I00
sg12
(I01
I01
tp3623
sba(iModules.cell
Cell
p3624
(dp3625
g5
I00
sg12
(I01
I01
tp3626
sba(iModules.cell
Cell
p3627
(dp3628
g5
I00
sg12
(I01
I01
tp3629
sba(iModules.cell
Cell
p3630
(dp3631
g5
I00
sg12
(I01
I01
tp3632
sba(iModules.cell
Cell
p3633
(dp3634
g5
I00
sg12
(I01
I01
tp3635
sba(iModules.cell
Cell
p3636
(dp3637
g5
I00
sg12
(I01
I01
tp3638
sba(iModules.cell
Cell
p3639
(dp3640
g5
I00
sg12
(I01
I01
tp3641
sba(iModules.cell
Cell
p3642
(dp3643
g5
I00
sg12
(I01
I01
tp3644
sba(iModules.cell
Cell
p3645
(dp3646
g5
I00
sg12
(I01
I01
tp3647
sba(iModules.cell
Cell
p3648
(dp3649
g5
I00
sg12
(I01
I01
tp3650
sba(iModules.cell
Cell
p3651
(dp3652
g5
I00
sg12
(I01
I01
tp3653
sba(iModules.cell
Cell
p3654
(dp3655
g5
I00
sg12
(I01
I01
tp3656
sba(iModules.cell
Cell
p3657
(dp3658
g5
I00
sg12
(I01
I01
tp3659
sba(iModules.cell
Cell
p3660
(dp3661
g5
I00
sg12
(I00
I00
tp3662
sba(iModules.cell
Cell
p3663
(dp3664
g5
I00
sg12
(I00
I00
tp3665
sba(iModules.cell
Cell
p3666
(dp3667
g5
I00
sg12
(I00
I00
tp3668
sba(iModules.cell
Cell
p3669
(dp3670
g5
I00
sg12
(I00
I00
tp3671
sba(iModules.cell
Cell
p3672
(dp3673
g5
I00
sg12
(I00
I00
tp3674
sba(iModules.cell
Cell
p3675
(dp3676
g5
I00
sg12
(I00
I00
tp3677
sba(iModules.cell
Cell
p3678
(dp3679
g5
I00
sg12
(I00
I00
tp3680
sba(iModules.cell
Cell
p3681
(dp3682
g5
I00
sg12
(I00
I00
tp3683
sba(iModules.cell
Cell
p3684
(dp3685
g5
I00
sg12
(I00
I00
tp3686
sba(iModules.cell
Cell
p3687
(dp3688
g5
I00
sg12
(I00
I00
tp3689
sba(iModules.cell
Cell
p3690
(dp3691
g5
I00
sg12
(I00
I00
tp3692
sba(iModules.cell
Cell
p3693
(dp3694
g5
I00
sg12
(I00
I00
tp3695
sba(iModules.cell
Cell
p3696
(dp3697
g5
I00
sg12
(I00
I00
tp3698
sba(iModules.cell
Cell
p3699
(dp3700
g5
I00
sg12
(I00
I00
tp3701
sba(iModules.cell
Cell
p3702
(dp3703
g5
I00
sg12
(I00
I00
tp3704
sba(iModules.cell
Cell
p3705
(dp3706
g5
I00
sg12
(I00
I00
tp3707
sba(iModules.cell
Cell
p3708
(dp3709
g5
I00
sg12
(I00
I00
tp3710
sba(iModules.cell
Cell
p3711
(dp3712
g5
I00
sg12
(I00
I00
tp3713
sba(iModules.cell
Cell
p3714
(dp3715
g5
I00
sg12
(I00
I00
tp3716
sba(iModules.cell
Cell
p3717
(dp3718
g12
(I00
I00
tp3719
sbaa(lp3720
(iModules.cell
Cell
p3721
(dp3722
g5
I00
sg12
(I00
I00
tp3723
sba(iModules.cell
Cell
p3724
(dp3725
g5
I00
sg260
I01
sg12
(I00
I00
tp3726
sba(iModules.cell
Cell
p3727
(dp3728
g5
I00
sg260
I01
sg12
(I01
I01
tp3729
sba(iModules.cell
Cell
p3730
(dp3731
g5
I00
sg260
I01
sg12
(I01
I01
tp3732
sba(iModules.cell
Cell
p3733
(dp3734
g5
I00
sg260
I01
sg12
(I01
I01
tp3735
sba(iModules.cell
Cell
p3736
(dp3737
g5
I00
sg260
I01
sg12
(I01
I01
tp3738
sba(iModules.cell
Cell
p3739
(dp3740
g5
I00
sg260
I01
sg12
(I01
I01
tp3741
sba(iModules.cell
Cell
p3742
(dp3743
g5
I00
sg260
I01
sg12
(I01
I01
tp3744
sba(iModules.cell
Cell
p3745
(dp3746
g5
I00
sg260
I01
sg12
(I01
I01
tp3747
sba(iModules.cell
Cell
p3748
(dp3749
g5
I00
sg260
I01
sg12
(I01
I01
tp3750
sba(iModules.cell
Cell
p3751
(dp3752
g5
I00
sg260
I01
sg12
(I01
I01
tp3753
sba(iModules.cell
Cell
p3754
(dp3755
g5
I00
sg260
I01
sg12
(I01
I01
tp3756
sba(iModules.cell
Cell
p3757
(dp3758
g5
I00
sg260
I01
sg12
(I01
I01
tp3759
sba(iModules.cell
Cell
p3760
(dp3761
g5
I00
sg260
I01
sg12
(I01
I01
tp3762
sba(iModules.cell
Cell
p3763
(dp3764
g5
I00
sg260
I01
sg12
(I01
I01
tp3765
sba(iModules.cell
Cell
p3766
(dp3767
g5
I00
sg260
I01
sg12
(I01
I01
tp3768
sba(iModules.cell
Cell
p3769
(dp3770
g5
I00
sg260
I01
sg12
(I01
I01
tp3771
sba(iModules.cell
Cell
p3772
(dp3773
g5
I00
sg260
I01
sg12
(I01
I01
tp3774
sba(iModules.cell
Cell
p3775
(dp3776
g5
I00
sg260
I01
sg12
(I01
I01
tp3777
sba(iModules.cell
Cell
p3778
(dp3779
g5
I00
sg260
I01
sg12
(I01
I01
tp3780
sba(iModules.cell
Cell
p3781
(dp3782
g5
I00
sg260
I01
sg12
(I01
I01
tp3783
sba(iModules.cell
Cell
p3784
(dp3785
g5
I00
sg260
I01
sg12
(I01
I01
tp3786
sba(iModules.cell
Cell
p3787
(dp3788
g5
I00
sg260
I01
sg12
(I01
I01
tp3789
sba(iModules.cell
Cell
p3790
(dp3791
g5
I00
sg260
I01
sg12
(I01
I01
tp3792
sba(iModules.cell
Cell
p3793
(dp3794
g5
I00
sg260
I01
sg12
(I01
I01
tp3795
sba(iModules.cell
Cell
p3796
(dp3797
g5
I00
sg260
I01
sg12
(I01
I01
tp3798
sba(iModules.cell
Cell
p3799
(dp3800
g5
I00
sg260
I01
sg12
(I01
I01
tp3801
sba(iModules.cell
Cell
p3802
(dp3803
g5
I00
sg260
I01
sg12
(I01
I01
tp3804
sba(iModules.cell
Cell
p3805
(dp3806
g5
I00
sg260
I01
sg12
(I01
I01
tp3807
sba(iModules.cell
Cell
p3808
(dp3809
g5
I00
sg260
I01
sg12
(I01
I01
tp3810
sba(iModules.cell
Cell
p3811
(dp3812
g5
I00
sg260
I01
sg12
(I01
I01
tp3813
sba(iModules.cell
Cell
p3814
(dp3815
g5
I00
sg260
I01
sg12
(I01
I01
tp3816
sba(iModules.cell
Cell
p3817
(dp3818
g5
I00
sg260
I01
sg12
(I01
I01
tp3819
sba(iModules.cell
Cell
p3820
(dp3821
g5
I00
sg260
I01
sg12
(I01
I01
tp3822
sba(iModules.cell
Cell
p3823
(dp3824
g5
I00
sg260
I01
sg12
(I01
I01
tp3825
sba(iModules.cell
Cell
p3826
(dp3827
g5
I00
sg260
I01
sg12
(I01
I01
tp3828
sba(iModules.cell
Cell
p3829
(dp3830
g5
I00
sg260
I01
sg12
(I01
I01
tp3831
sba(iModules.cell
Cell
p3832
(dp3833
g5
I00
sg260
I01
sg12
(I01
I01
tp3834
sba(iModules.cell
Cell
p3835
(dp3836
g5
I00
sg260
I01
sg12
(I01
I01
tp3837
sba(iModules.cell
Cell
p3838
(dp3839
g5
I00
sg260
I01
sg12
(I01
I01
tp3840
sba(iModules.cell
Cell
p3841
(dp3842
g5
I00
sg260
I01
sg12
(I01
I01
tp3843
sba(iModules.cell
Cell
p3844
(dp3845
g5
I00
sg260
I01
sg12
(I01
I01
tp3846
sba(iModules.cell
Cell
p3847
(dp3848
g5
I00
sg260
I01
sg12
(I01
I01
tp3849
sba(iModules.cell
Cell
p3850
(dp3851
g5
I00
sg12
(I01
I01
tp3852
sba(iModules.cell
Cell
p3853
(dp3854
g5
I00
sg12
(I01
I01
tp3855
sba(iModules.cell
Cell
p3856
(dp3857
g5
I00
sg12
(I01
I01
tp3858
sba(iModules.cell
Cell
p3859
(dp3860
g5
I00
sg12
(I01
I01
tp3861
sba(iModules.cell
Cell
p3862
(dp3863
g5
I00
sg12
(I01
I01
tp3864
sba(iModules.cell
Cell
p3865
(dp3866
g5
I00
sg12
(I01
I01
tp3867
sba(iModules.cell
Cell
p3868
(dp3869
g5
I00
sg12
(I01
I01
tp3870
sba(iModules.cell
Cell
p3871
(dp3872
g5
I00
sg12
(I01
I01
tp3873
sba(iModules.cell
Cell
p3874
(dp3875
g5
I00
sg12
(I01
I01
tp3876
sba(iModules.cell
Cell
p3877
(dp3878
g5
I00
sg12
(I01
I01
tp3879
sba(iModules.cell
Cell
p3880
(dp3881
g5
I00
sg12
(I01
I01
tp3882
sba(iModules.cell
Cell
p3883
(dp3884
g5
I00
sg12
(I01
I01
tp3885
sba(iModules.cell
Cell
p3886
(dp3887
g5
I00
sg12
(I01
I01
tp3888
sba(iModules.cell
Cell
p3889
(dp3890
g5
I00
sg12
(I01
I01
tp3891
sba(iModules.cell
Cell
p3892
(dp3893
g5
I00
sg12
(I01
I01
tp3894
sba(iModules.cell
Cell
p3895
(dp3896
g5
I00
sg12
(I01
I01
tp3897
sba(iModules.cell
Cell
p3898
(dp3899
g5
I00
sg12
(I01
I01
tp3900
sba(iModules.cell
Cell
p3901
(dp3902
g5
I00
sg12
(I01
I01
tp3903
sba(iModules.cell
Cell
p3904
(dp3905
g5
I00
sg12
(I00
I00
tp3906
sba(iModules.cell
Cell
p3907
(dp3908
g5
I00
sg12
(I00
I00
tp3909
sba(iModules.cell
Cell
p3910
(dp3911
g5
I00
sg12
(I00
I00
tp3912
sba(iModules.cell
Cell
p3913
(dp3914
g5
I00
sg12
(I00
I00
tp3915
sba(iModules.cell
Cell
p3916
(dp3917
g5
I00
sg12
(I00
I00
tp3918
sba(iModules.cell
Cell
p3919
(dp3920
g5
I00
sg12
(I00
I00
tp3921
sba(iModules.cell
Cell
p3922
(dp3923
g5
I00
sg12
(I00
I00
tp3924
sba(iModules.cell
Cell
p3925
(dp3926
g5
I00
sg12
(I00
I00
tp3927
sba(iModules.cell
Cell
p3928
(dp3929
g5
I00
sg12
(I00
I00
tp3930
sba(iModules.cell
Cell
p3931
(dp3932
g5
I00
sg12
(I00
I00
tp3933
sba(iModules.cell
Cell
p3934
(dp3935
g5
I00
sg12
(I00
I00
tp3936
sba(iModules.cell
Cell
p3937
(dp3938
g5
I00
sg12
(I00
I00
tp3939
sba(iModules.cell
Cell
p3940
(dp3941
g5
I00
sg12
(I00
I00
tp3942
sba(iModules.cell
Cell
p3943
(dp3944
g5
I00
sg12
(I00
I00
tp3945
sba(iModules.cell
Cell
p3946
(dp3947
g5
I00
sg12
(I00
I00
tp3948
sba(iModules.cell
Cell
p3949
(dp3950
g5
I00
sg12
(I00
I00
tp3951
sba(iModules.cell
Cell
p3952
(dp3953
g5
I00
sg12
(I00
I00
tp3954
sba(iModules.cell
Cell
p3955
(dp3956
g5
I00
sg12
(I00
I00
tp3957
sba(iModules.cell
Cell
p3958
(dp3959
g5
I00
sg12
(I00
I00
tp3960
sba(iModules.cell
Cell
p3961
(dp3962
g12
(I00
I00
tp3963
sbaa(lp3964
(iModules.cell
Cell
p3965
(dp3966
g5
I00
sg12
(I00
I00
tp3967
sba(iModules.cell
Cell
p3968
(dp3969
g5
I00
sg260
I01
sg12
(I00
I00
tp3970
sba(iModules.cell
Cell
p3971
(dp3972
g5
I00
sg260
I01
sg12
(I01
I01
tp3973
sba(iModules.cell
Cell
p3974
(dp3975
g5
I00
sg260
I01
sg12
(I01
I01
tp3976
sba(iModules.cell
Cell
p3977
(dp3978
g5
I00
sg260
I01
sg12
(I01
I01
tp3979
sba(iModules.cell
Cell
p3980
(dp3981
g5
I00
sg260
I01
sg12
(I01
I01
tp3982
sba(iModules.cell
Cell
p3983
(dp3984
g5
I00
sg260
I01
sg12
(I01
I01
tp3985
sba(iModules.cell
Cell
p3986
(dp3987
g5
I00
sg260
I01
sg12
(I01
I01
tp3988
sba(iModules.cell
Cell
p3989
(dp3990
g5
I00
sg260
I01
sg12
(I01
I01
tp3991
sba(iModules.cell
Cell
p3992
(dp3993
g5
I00
sg260
I01
sg12
(I01
I01
tp3994
sba(iModules.cell
Cell
p3995
(dp3996
g5
I00
sg260
I01
sg12
(I01
I01
tp3997
sba(iModules.cell
Cell
p3998
(dp3999
g5
I00
sg260
I01
sg12
(I01
I01
tp4000
sba(iModules.cell
Cell
p4001
(dp4002
g5
I00
sg260
I01
sg12
(I01
I01
tp4003
sba(iModules.cell
Cell
p4004
(dp4005
g5
I00
sg260
I01
sg12
(I01
I01
tp4006
sba(iModules.cell
Cell
p4007
(dp4008
g5
I00
sg260
I01
sg12
(I01
I01
tp4009
sba(iModules.cell
Cell
p4010
(dp4011
g5
I00
sg260
I01
sg12
(I01
I01
tp4012
sba(iModules.cell
Cell
p4013
(dp4014
g5
I00
sg260
I01
sg12
(I01
I01
tp4015
sba(iModules.cell
Cell
p4016
(dp4017
g5
I00
sg260
I01
sg12
(I01
I01
tp4018
sba(iModules.cell
Cell
p4019
(dp4020
g5
I00
sg260
I01
sg12
(I01
I01
tp4021
sba(iModules.cell
Cell
p4022
(dp4023
g5
I00
sg260
I01
sg12
(I01
I01
tp4024
sba(iModules.cell
Cell
p4025
(dp4026
g5
I00
sg260
I01
sg12
(I01
I01
tp4027
sba(iModules.cell
Cell
p4028
(dp4029
g5
I00
sg260
I01
sg12
(I01
I01
tp4030
sba(iModules.cell
Cell
p4031
(dp4032
g5
I00
sg260
I01
sg12
(I01
I01
tp4033
sba(iModules.cell
Cell
p4034
(dp4035
g5
I00
sg260
I01
sg12
(I01
I01
tp4036
sba(iModules.cell
Cell
p4037
(dp4038
g5
I00
sg260
I01
sg12
(I01
I01
tp4039
sba(iModules.cell
Cell
p4040
(dp4041
g5
I00
sg260
I01
sg12
(I01
I01
tp4042
sba(iModules.cell
Cell
p4043
(dp4044
g5
I00
sg260
I01
sg12
(I01
I01
tp4045
sba(iModules.cell
Cell
p4046
(dp4047
g5
I00
sg260
I01
sg12
(I01
I01
tp4048
sba(iModules.cell
Cell
p4049
(dp4050
g5
I00
sg260
I01
sg12
(I01
I01
tp4051
sba(iModules.cell
Cell
p4052
(dp4053
g5
I00
sg260
I01
sg12
(I01
I01
tp4054
sba(iModules.cell
Cell
p4055
(dp4056
g5
I00
sg260
I01
sg12
(I01
I01
tp4057
sba(iModules.cell
Cell
p4058
(dp4059
g5
I00
sg260
I01
sg12
(I01
I01
tp4060
sba(iModules.cell
Cell
p4061
(dp4062
g5
I00
sg260
I01
sg12
(I01
I01
tp4063
sba(iModules.cell
Cell
p4064
(dp4065
g5
I00
sg260
I01
sg12
(I01
I01
tp4066
sba(iModules.cell
Cell
p4067
(dp4068
g5
I00
sg260
I01
sg12
(I01
I01
tp4069
sba(iModules.cell
Cell
p4070
(dp4071
g5
I00
sg260
I01
sg12
(I01
I01
tp4072
sba(iModules.cell
Cell
p4073
(dp4074
g5
I00
sg260
I01
sg12
(I01
I01
tp4075
sba(iModules.cell
Cell
p4076
(dp4077
g5
I00
sg260
I01
sg12
(I01
I01
tp4078
sba(iModules.cell
Cell
p4079
(dp4080
g5
I00
sg260
I01
sg12
(I01
I01
tp4081
sba(iModules.cell
Cell
p4082
(dp4083
g5
I00
sg260
I01
sg12
(I01
I01
tp4084
sba(iModules.cell
Cell
p4085
(dp4086
g5
I00
sg260
I01
sg12
(I01
I01
tp4087
sba(iModules.cell
Cell
p4088
(dp4089
g5
I00
sg260
I01
sg12
(I01
I01
tp4090
sba(iModules.cell
Cell
p4091
(dp4092
g5
I00
sg260
I01
sg12
(I01
I01
tp4093
sba(iModules.cell
Cell
p4094
(dp4095
g5
I00
sg12
(I01
I01
tp4096
sba(iModules.cell
Cell
p4097
(dp4098
g5
I00
sg12
(I01
I01
tp4099
sba(iModules.cell
Cell
p4100
(dp4101
g5
I00
sg12
(I01
I01
tp4102
sba(iModules.cell
Cell
p4103
(dp4104
g5
I00
sg12
(I01
I01
tp4105
sba(iModules.cell
Cell
p4106
(dp4107
g5
I00
sg12
(I01
I01
tp4108
sba(iModules.cell
Cell
p4109
(dp4110
g5
I00
sg12
(I01
I01
tp4111
sba(iModules.cell
Cell
p4112
(dp4113
g5
I00
sg12
(I01
I01
tp4114
sba(iModules.cell
Cell
p4115
(dp4116
g5
I00
sg12
(I01
I01
tp4117
sba(iModules.cell
Cell
p4118
(dp4119
g5
I00
sg12
(I01
I01
tp4120
sba(iModules.cell
Cell
p4121
(dp4122
g5
I00
sg12
(I01
I01
tp4123
sba(iModules.cell
Cell
p4124
(dp4125
g5
I00
sg12
(I01
I01
tp4126
sba(iModules.cell
Cell
p4127
(dp4128
g5
I00
sg12
(I01
I01
tp4129
sba(iModules.cell
Cell
p4130
(dp4131
g5
I00
sg12
(I01
I01
tp4132
sba(iModules.cell
Cell
p4133
(dp4134
g5
I00
sg12
(I01
I01
tp4135
sba(iModules.cell
Cell
p4136
(dp4137
g5
I00
sg12
(I01
I01
tp4138
sba(iModules.cell
Cell
p4139
(dp4140
g5
I00
sg12
(I01
I01
tp4141
sba(iModules.cell
Cell
p4142
(dp4143
g5
I00
sg12
(I01
I01
tp4144
sba(iModules.cell
Cell
p4145
(dp4146
g5
I00
sg12
(I01
I01
tp4147
sba(iModules.cell
Cell
p4148
(dp4149
g5
I00
sg12
(I00
I00
tp4150
sba(iModules.cell
Cell
p4151
(dp4152
g5
I00
sg12
(I00
I00
tp4153
sba(iModules.cell
Cell
p4154
(dp4155
g5
I00
sg12
(I00
I00
tp4156
sba(iModules.cell
Cell
p4157
(dp4158
g5
I00
sg12
(I00
I00
tp4159
sba(iModules.cell
Cell
p4160
(dp4161
g5
I00
sg12
(I00
I00
tp4162
sba(iModules.cell
Cell
p4163
(dp4164
g5
I00
sg12
(I00
I00
tp4165
sba(iModules.cell
Cell
p4166
(dp4167
g5
I00
sg12
(I00
I00
tp4168
sba(iModules.cell
Cell
p4169
(dp4170
g5
I00
sg12
(I00
I00
tp4171
sba(iModules.cell
Cell
p4172
(dp4173
g5
I00
sg12
(I00
I00
tp4174
sba(iModules.cell
Cell
p4175
(dp4176
g5
I00
sg12
(I00
I00
tp4177
sba(iModules.cell
Cell
p4178
(dp4179
g5
I00
sg12
(I00
I00
tp4180
sba(iModules.cell
Cell
p4181
(dp4182
g5
I00
sg12
(I00
I00
tp4183
sba(iModules.cell
Cell
p4184
(dp4185
g5
I00
sg12
(I00
I00
tp4186
sba(iModules.cell
Cell
p4187
(dp4188
g5
I00
sg12
(I00
I00
tp4189
sba(iModules.cell
Cell
p4190
(dp4191
g5
I00
sg12
(I00
I00
tp4192
sba(iModules.cell
Cell
p4193
(dp4194
g5
I00
sg12
(I00
I00
tp4195
sba(iModules.cell
Cell
p4196
(dp4197
g5
I00
sg12
(I00
I00
tp4198
sba(iModules.cell
Cell
p4199
(dp4200
g5
I00
sg12
(I00
I00
tp4201
sba(iModules.cell
Cell
p4202
(dp4203
g5
I00
sg12
(I00
I00
tp4204
sba(iModules.cell
Cell
p4205
(dp4206
g12
(I00
I00
tp4207
sbaa(lp4208
(iModules.cell
Cell
p4209
(dp4210
g5
I00
sg12
(I00
I00
tp4211
sba(iModules.cell
Cell
p4212
(dp4213
g5
I00
sg12
(I00
I00
tp4214
sba(iModules.cell
Cell
p4215
(dp4216
g5
I00
sg12
(I01
I01
tp4217
sba(iModules.cell
Cell
p4218
(dp4219
g5
I00
sg12
(I01
I01
tp4220
sba(iModules.cell
Cell
p4221
(dp4222
g5
I00
sg12
(I01
I01
tp4223
sba(iModules.cell
Cell
p4224
(dp4225
g5
I00
sg12
(I01
I01
tp4226
sba(iModules.cell
Cell
p4227
(dp4228
g5
I00
sg12
(I01
I01
tp4229
sba(iModules.cell
Cell
p4230
(dp4231
g5
I00
sg12
(I01
I01
tp4232
sba(iModules.cell
Cell
p4233
(dp4234
g5
I00
sg12
(I01
I01
tp4235
sba(iModules.cell
Cell
p4236
(dp4237
g5
I00
sg12
(I01
I01
tp4238
sba(iModules.cell
Cell
p4239
(dp4240
g5
I00
sg12
(I01
I01
tp4241
sba(iModules.cell
Cell
p4242
(dp4243
g5
I00
sg12
(I01
I01
tp4244
sba(iModules.cell
Cell
p4245
(dp4246
g5
I00
sg12
(I01
I01
tp4247
sba(iModules.cell
Cell
p4248
(dp4249
g5
I00
sg12
(I01
I01
tp4250
sba(iModules.cell
Cell
p4251
(dp4252
g5
I00
sg12
(I01
I01
tp4253
sba(iModules.cell
Cell
p4254
(dp4255
g5
I00
sg12
(I01
I01
tp4256
sba(iModules.cell
Cell
p4257
(dp4258
g5
I00
sg12
(I01
I01
tp4259
sba(iModules.cell
Cell
p4260
(dp4261
g5
I00
sg12
(I01
I01
tp4262
sba(iModules.cell
Cell
p4263
(dp4264
g5
I00
sg12
(I01
I01
tp4265
sba(iModules.cell
Cell
p4266
(dp4267
g5
I00
sg12
(I01
I01
tp4268
sba(iModules.cell
Cell
p4269
(dp4270
g5
I00
sg12
(I01
I01
tp4271
sba(iModules.cell
Cell
p4272
(dp4273
g5
I00
sg12
(I01
I01
tp4274
sba(iModules.cell
Cell
p4275
(dp4276
g5
I00
sg12
(I01
I01
tp4277
sba(iModules.cell
Newt
p4278
(dp4279
g596
g597
sg5
I00
sg598
(iModules.cell
Cell
p4280
(dp4281
g5
I00
sg12
(I01
I01
tp4282
sbsg602
g603
sba(iModules.cell
Cell
p4283
(dp4284
g5
I00
sg260
I01
sg12
(I01
I01
tp4285
sba(iModules.cell
Cell
p4286
(dp4287
g5
I00
sg260
I01
sg12
(I01
I01
tp4288
sba(iModules.cell
Cell
p4289
(dp4290
g5
I00
sg260
I01
sg12
(I01
I01
tp4291
sba(iModules.cell
Cell
p4292
(dp4293
g5
I00
sg260
I01
sg12
(I01
I01
tp4294
sba(iModules.cell
Cell
p4295
(dp4296
g5
I00
sg260
I01
sg12
(I01
I01
tp4297
sba(iModules.cell
Cell
p4298
(dp4299
g5
I00
sg260
I01
sg12
(I01
I01
tp4300
sba(iModules.cell
Cell
p4301
(dp4302
g5
I00
sg260
I01
sg12
(I01
I01
tp4303
sba(iModules.cell
Cell
p4304
(dp4305
g5
I00
sg260
I01
sg12
(I01
I01
tp4306
sba(iModules.cell
Cell
p4307
(dp4308
g5
I00
sg260
I01
sg12
(I01
I01
tp4309
sba(iModules.cell
Cell
p4310
(dp4311
g5
I00
sg260
I01
sg12
(I01
I01
tp4312
sba(iModules.cell
Cell
p4313
(dp4314
g5
I00
sg260
I01
sg12
(I01
I01
tp4315
sba(iModules.cell
Cell
p4316
(dp4317
g5
I00
sg260
I01
sg12
(I01
I01
tp4318
sba(iModules.cell
Cell
p4319
(dp4320
g5
I00
sg260
I01
sg12
(I01
I01
tp4321
sba(iModules.cell
Cell
p4322
(dp4323
g5
I00
sg260
I01
sg12
(I01
I01
tp4324
sba(iModules.cell
Cell
p4325
(dp4326
g5
I00
sg260
I01
sg12
(I01
I01
tp4327
sba(iModules.cell
Cell
p4328
(dp4329
g5
I00
sg260
I01
sg12
(I01
I01
tp4330
sba(iModules.cell
Cell
p4331
(dp4332
g5
I00
sg260
I01
sg12
(I01
I01
tp4333
sba(iModules.cell
Cell
p4334
(dp4335
g5
I00
sg260
I01
sg12
(I01
I01
tp4336
sba(iModules.cell
Cell
p4337
(dp4338
g5
I00
sg260
I01
sg12
(I01
I01
tp4339
sba(iModules.cell
Cell
p4340
(dp4341
g5
I00
sg12
(I01
I01
tp4342
sba(iModules.cell
Cell
p4343
(dp4344
g5
I00
sg12
(I01
I01
tp4345
sba(iModules.cell
Cell
p4346
(dp4347
g5
I00
sg12
(I01
I01
tp4348
sba(iModules.cell
Cell
p4349
(dp4350
g5
I00
sg12
(I01
I01
tp4351
sba(iModules.cell
Cell
p4352
(dp4353
g5
I00
sg12
(I01
I01
tp4354
sba(iModules.cell
Cell
p4355
(dp4356
g5
I00
sg12
(I01
I01
tp4357
sba(iModules.cell
Cell
p4358
(dp4359
g5
I00
sg12
(I01
I01
tp4360
sba(iModules.cell
Cell
p4361
(dp4362
g5
I00
sg12
(I01
I01
tp4363
sba(iModules.cell
Cell
p4364
(dp4365
g5
I00
sg12
(I01
I01
tp4366
sba(iModules.cell
Cell
p4367
(dp4368
g5
I00
sg12
(I01
I01
tp4369
sba(iModules.cell
Cell
p4370
(dp4371
g5
I00
sg12
(I01
I01
tp4372
sba(iModules.cell
Cell
p4373
(dp4374
g5
I00
sg12
(I01
I01
tp4375
sba(iModules.cell
Cell
p4376
(dp4377
g5
I00
sg12
(I01
I01
tp4378
sba(iModules.cell
Cell
p4379
(dp4380
g5
I00
sg12
(I01
I01
tp4381
sba(iModules.cell
Cell
p4382
(dp4383
g5
I00
sg12
(I01
I01
tp4384
sba(iModules.cell
Cell
p4385
(dp4386
g5
I00
sg12
(I01
I01
tp4387
sba(iModules.cell
Cell
p4388
(dp4389
g5
I00
sg12
(I01
I01
tp4390
sba(iModules.cell
Cell
p4391
(dp4392
g5
I00
sg12
(I01
I01
tp4393
sba(iModules.cell
Cell
p4394
(dp4395
g5
I00
sg12
(I00
I00
tp4396
sba(iModules.cell
Cell
p4397
(dp4398
g5
I00
sg12
(I00
I00
tp4399
sba(iModules.cell
Cell
p4400
(dp4401
g5
I00
sg12
(I00
I00
tp4402
sba(iModules.cell
Cell
p4403
(dp4404
g5
I00
sg12
(I00
I00
tp4405
sba(iModules.cell
Cell
p4406
(dp4407
g5
I00
sg12
(I00
I00
tp4408
sba(iModules.cell
Cell
p4409
(dp4410
g5
I00
sg12
(I00
I00
tp4411
sba(iModules.cell
Cell
p4412
(dp4413
g5
I00
sg12
(I00
I00
tp4414
sba(iModules.cell
Cell
p4415
(dp4416
g5
I00
sg12
(I00
I00
tp4417
sba(iModules.cell
Cell
p4418
(dp4419
g5
I00
sg12
(I00
I00
tp4420
sba(iModules.cell
Cell
p4421
(dp4422
g5
I00
sg12
(I00
I00
tp4423
sba(iModules.cell
Cell
p4424
(dp4425
g5
I00
sg12
(I00
I00
tp4426
sba(iModules.cell
Cell
p4427
(dp4428
g5
I00
sg12
(I00
I00
tp4429
sba(iModules.cell
Cell
p4430
(dp4431
g5
I00
sg12
(I00
I00
tp4432
sba(iModules.cell
Cell
p4433
(dp4434
g5
I00
sg12
(I00
I00
tp4435
sba(iModules.cell
Cell
p4436
(dp4437
g5
I00
sg12
(I00
I00
tp4438
sba(iModules.cell
Cell
p4439
(dp4440
g5
I00
sg12
(I00
I00
tp4441
sba(iModules.cell
Cell
p4442
(dp4443
g5
I00
sg12
(I00
I00
tp4444
sba(iModules.cell
Cell
p4445
(dp4446
g5
I00
sg12
(I00
I00
tp4447
sba(iModules.cell
Cell
p4448
(dp4449
g5
I00
sg12
(I00
I00
tp4450
sba(iModules.cell
Cell
p4451
(dp4452
g12
(I00
I00
tp4453
sbaa(lp4454
(iModules.cell
Cell
p4455
(dp4456
g5
I00
sg12
(I00
I00
tp4457
sba(iModules.cell
Cell
p4458
(dp4459
g5
I00
sg12
(I00
I00
tp4460
sba(iModules.cell
Cell
p4461
(dp4462
g5
I00
sg12
(I01
I01
tp4463
sba(iModules.cell
Cell
p4464
(dp4465
g5
I00
sg12
(I01
I01
tp4466
sba(iModules.cell
Cell
p4467
(dp4468
g5
I00
sg12
(I01
I01
tp4469
sba(iModules.cell
Cell
p4470
(dp4471
g5
I00
sg12
(I01
I01
tp4472
sba(iModules.cell
Cell
p4473
(dp4474
g5
I00
sg12
(I01
I01
tp4475
sba(iModules.cell
Cell
p4476
(dp4477
g5
I00
sg12
(I01
I01
tp4478
sba(iModules.cell
Cell
p4479
(dp4480
g5
I00
sg12
(I01
I01
tp4481
sba(iModules.cell
Cell
p4482
(dp4483
g5
I00
sg12
(I01
I01
tp4484
sba(iModules.cell
Cell
p4485
(dp4486
g5
I00
sg12
(I01
I01
tp4487
sba(iModules.cell
Cell
p4488
(dp4489
g5
I00
sg12
(I01
I01
tp4490
sba(iModules.cell
Newt
p4491
(dp4492
g596
g597
sg5
I00
sg598
(iModules.cell
Cell
p4493
(dp4494
g5
I00
sg12
(I01
I01
tp4495
sbsg602
g603
sba(iModules.cell
Cell
p4496
(dp4497
g5
I00
sg12
(I01
I01
tp4498
sba(iModules.cell
Cell
p4499
(dp4500
g5
I00
sg12
(I01
I01
tp4501
sba(iModules.cell
Cell
p4502
(dp4503
g5
I00
sg12
(I01
I01
tp4504
sba(iModules.cell
Cell
p4505
(dp4506
g5
I00
sg12
(I01
I01
tp4507
sba(iModules.cell
Cell
p4508
(dp4509
g5
I00
sg12
(I01
I01
tp4510
sba(iModules.cell
Cell
p4511
(dp4512
g5
I00
sg12
(I01
I01
tp4513
sba(iModules.cell
Cell
p4514
(dp4515
g5
I00
sg12
(I01
I01
tp4516
sba(iModules.cell
Cell
p4517
(dp4518
g5
I00
sg12
(I01
I01
tp4519
sba(iModules.cell
Cell
p4520
(dp4521
g5
I00
sg12
(I01
I01
tp4522
sba(iModules.cell
Cell
p4523
(dp4524
g5
I00
sg12
(I01
I01
tp4525
sba(iModules.cell
Cell
p4526
(dp4527
g5
I00
sg12
(I01
I01
tp4528
sba(iModules.cell
Cell
p4529
(dp4530
g5
I00
sg260
I01
sg12
(I01
I01
tp4531
sba(iModules.cell
Cell
p4532
(dp4533
g5
I00
sg260
I01
sg12
(I01
I01
tp4534
sba(iModules.cell
Cell
p4535
(dp4536
g5
I00
sg260
I01
sg12
(I01
I01
tp4537
sba(iModules.cell
Cell
p4538
(dp4539
g5
I00
sg260
I01
sg12
(I01
I01
tp4540
sba(iModules.cell
Cell
p4541
(dp4542
g5
I00
sg260
I01
sg12
(I01
I01
tp4543
sba(iModules.cell
Cell
p4544
(dp4545
g5
I00
sg260
I01
sg12
(I01
I01
tp4546
sba(iModules.cell
Cell
p4547
(dp4548
g5
I00
sg260
I01
sg12
(I01
I01
tp4549
sba(iModules.cell
Cell
p4550
(dp4551
g5
I00
sg260
I01
sg12
(I01
I01
tp4552
sba(iModules.cell
Cell
p4553
(dp4554
g5
I00
sg260
I01
sg12
(I01
I01
tp4555
sba(iModules.cell
Cell
p4556
(dp4557
g5
I00
sg260
I01
sg12
(I01
I01
tp4558
sba(iModules.cell
Cell
p4559
(dp4560
g5
I00
sg260
I01
sg12
(I01
I01
tp4561
sba(iModules.cell
Cell
p4562
(dp4563
g5
I00
sg260
I01
sg12
(I01
I01
tp4564
sba(iModules.cell
Cell
p4565
(dp4566
g5
I00
sg260
I01
sg12
(I01
I01
tp4567
sba(iModules.cell
Newt
p4568
(dp4569
g596
g597
sg5
I00
sg598
(iModules.cell
Cell
p4570
(dp4571
g5
I00
sg260
I01
sg12
(I01
I01
tp4572
sbsg602
g603
sba(iModules.cell
Cell
p4573
(dp4574
g5
I00
sg260
I01
sg12
(I01
I01
tp4575
sba(iModules.cell
Cell
p4576
(dp4577
g5
I00
sg260
I01
sg12
(I01
I01
tp4578
sba(iModules.cell
Cell
p4579
(dp4580
g5
I00
sg260
I01
sg12
(I01
I01
tp4581
sba(iModules.cell
Cell
p4582
(dp4583
g5
I00
sg260
I01
sg12
(I01
I01
tp4584
sba(iModules.cell
Cell
p4585
(dp4586
g5
I00
sg260
I01
sg12
(I01
I01
tp4587
sba(iModules.cell
Cell
p4588
(dp4589
g5
I00
sg12
(I01
I01
tp4590
sba(iModules.cell
Cell
p4591
(dp4592
g5
I00
sg12
(I01
I01
tp4593
sba(iModules.cell
Cell
p4594
(dp4595
g5
I00
sg12
(I01
I01
tp4596
sba(iModules.cell
Cell
p4597
(dp4598
g5
I00
sg12
(I01
I01
tp4599
sba(iModules.cell
Cell
p4600
(dp4601
g5
I00
sg12
(I01
I01
tp4602
sba(iModules.cell
Cell
p4603
(dp4604
g5
I00
sg12
(I01
I01
tp4605
sba(iModules.cell
Cell
p4606
(dp4607
g5
I00
sg12
(I01
I01
tp4608
sba(iModules.cell
Cell
p4609
(dp4610
g5
I00
sg12
(I01
I01
tp4611
sba(iModules.cell
Cell
p4612
(dp4613
g5
I00
sg12
(I01
I01
tp4614
sba(iModules.cell
Cell
p4615
(dp4616
g5
I00
sg12
(I01
I01
tp4617
sba(iModules.cell
Cell
p4618
(dp4619
g5
I00
sg12
(I01
I01
tp4620
sba(iModules.cell
Cell
p4621
(dp4622
g5
I00
sg12
(I01
I01
tp4623
sba(iModules.cell
Cell
p4624
(dp4625
g5
I00
sg12
(I01
I01
tp4626
sba(iModules.cell
Cell
p4627
(dp4628
g5
I00
sg12
(I01
I01
tp4629
sba(iModules.cell
Cell
p4630
(dp4631
g5
I00
sg12
(I01
I01
tp4632
sba(iModules.cell
Cell
p4633
(dp4634
g5
I00
sg12
(I01
I01
tp4635
sba(iModules.cell
Cell
p4636
(dp4637
g5
I00
sg12
(I01
I01
tp4638
sba(iModules.cell
Cell
p4639
(dp4640
g5
I00
sg12
(I01
I01
tp4641
sba(iModules.cell
Cell
p4642
(dp4643
g5
I00
sg12
(I00
I00
tp4644
sba(iModules.cell
Cell
p4645
(dp4646
g5
I00
sg12
(I00
I00
tp4647
sba(iModules.cell
Cell
p4648
(dp4649
g5
I00
sg12
(I00
I00
tp4650
sba(iModules.cell
Cell
p4651
(dp4652
g5
I00
sg12
(I00
I00
tp4653
sba(iModules.cell
Cell
p4654
(dp4655
g5
I00
sg12
(I00
I00
tp4656
sba(iModules.cell
Cell
p4657
(dp4658
g5
I00
sg12
(I00
I00
tp4659
sba(iModules.cell
Cell
p4660
(dp4661
g5
I00
sg12
(I00
I00
tp4662
sba(iModules.cell
Cell
p4663
(dp4664
g5
I00
sg12
(I00
I00
tp4665
sba(iModules.cell
Cell
p4666
(dp4667
g5
I00
sg12
(I00
I00
tp4668
sba(iModules.cell
Cell
p4669
(dp4670
g5
I00
sg12
(I00
I00
tp4671
sba(iModules.cell
Cell
p4672
(dp4673
g5
I00
sg12
(I00
I00
tp4674
sba(iModules.cell
Cell
p4675
(dp4676
g5
I00
sg12
(I00
I00
tp4677
sba(iModules.cell
Cell
p4678
(dp4679
g5
I00
sg12
(I00
I00
tp4680
sba(iModules.cell
Cell
p4681
(dp4682
g5
I00
sg12
(I00
I00
tp4683
sba(iModules.cell
Cell
p4684
(dp4685
g5
I00
sg12
(I00
I00
tp4686
sba(iModules.cell
Cell
p4687
(dp4688
g5
I00
sg12
(I00
I00
tp4689
sba(iModules.cell
Cell
p4690
(dp4691
g5
I00
sg12
(I00
I00
tp4692
sba(iModules.cell
Cell
p4693
(dp4694
g5
I00
sg12
(I00
I00
tp4695
sba(iModules.cell
Cell
p4696
(dp4697
g5
I00
sg12
(I00
I00
tp4698
sba(iModules.cell
Cell
p4699
(dp4700
g12
(I00
I00
tp4701
sbaa(lp4702
(iModules.cell
Cell
p4703
(dp4704
g5
I00
sg12
(I00
I00
tp4705
sba(iModules.cell
Cell
p4706
(dp4707
g5
I00
sg12
(I00
I00
tp4708
sba(iModules.cell
Cell
p4709
(dp4710
g5
I00
sg12
(I01
I01
tp4711
sba(iModules.cell
Cell
p4712
(dp4713
g5
I00
sg12
(I01
I01
tp4714
sba(iModules.cell
Cell
p4715
(dp4716
g5
I00
sg12
(I01
I01
tp4717
sba(iModules.cell
Cell
p4718
(dp4719
g5
I00
sg12
(I01
I01
tp4720
sba(iModules.cell
Cell
p4721
(dp4722
g5
I00
sg12
(I01
I01
tp4723
sba(iModules.cell
Cell
p4724
(dp4725
g5
I00
sg12
(I01
I01
tp4726
sba(iModules.cell
Cell
p4727
(dp4728
g5
I00
sg12
(I01
I01
tp4729
sba(iModules.cell
Cell
p4730
(dp4731
g5
I00
sg12
(I01
I01
tp4732
sba(iModules.cell
Cell
p4733
(dp4734
g5
I00
sg12
(I01
I01
tp4735
sba(iModules.cell
Cell
p4736
(dp4737
g5
I00
sg12
(I01
I01
tp4738
sba(iModules.cell
Cell
p4739
(dp4740
g5
I00
sg12
(I01
I01
tp4741
sba(iModules.cell
Cell
p4742
(dp4743
g5
I00
sg12
(I01
I01
tp4744
sba(iModules.cell
Cell
p4745
(dp4746
g5
I00
sg12
(I01
I01
tp4747
sba(iModules.cell
Cell
p4748
(dp4749
g5
I00
sg12
(I01
I01
tp4750
sba(iModules.cell
Cell
p4751
(dp4752
g5
I00
sg12
(I01
I01
tp4753
sba(iModules.cell
Cell
p4754
(dp4755
g5
I00
sg12
(I01
I01
tp4756
sba(iModules.cell
Cell
p4757
(dp4758
g5
I00
sg12
(I01
I01
tp4759
sba(iModules.cell
Cell
p4760
(dp4761
g5
I00
sg12
(I01
I01
tp4762
sba(iModules.cell
Cell
p4763
(dp4764
g5
I00
sg12
(I01
I01
tp4765
sba(iModules.cell
Cell
p4766
(dp4767
g5
I00
sg12
(I01
I01
tp4768
sba(iModules.cell
Cell
p4769
(dp4770
g5
I00
sg12
(I01
I01
tp4771
sba(iModules.cell
Cell
p4772
(dp4773
g5
I00
sg12
(I01
I01
tp4774
sba(iModules.cell
Cell
p4775
(dp4776
g5
I00
sg260
I01
sg12
(I01
I01
tp4777
sba(iModules.cell
Cell
p4778
(dp4779
g5
I00
sg260
I01
sg12
(I01
I01
tp4780
sba(iModules.cell
Cell
p4781
(dp4782
g5
I00
sg260
I01
sg12
(I01
I01
tp4783
sba(iModules.cell
Cell
p4784
(dp4785
g5
I00
sg260
I01
sg12
(I01
I01
tp4786
sba(iModules.cell
Newt
p4787
(dp4788
g596
g597
sg5
I00
sg598
(iModules.cell
Cell
p4789
(dp4790
g5
I00
sg260
I01
sg12
(I01
I01
tp4791
sbsg602
g603
sba(iModules.cell
Cell
p4792
(dp4793
g5
I00
sg260
I01
sg12
(I01
I01
tp4794
sba(iModules.cell
Cell
p4795
(dp4796
g5
I00
sg260
I01
sg12
(I01
I01
tp4797
sba(iModules.cell
Cell
p4798
(dp4799
g5
I00
sg260
I01
sg12
(I01
I01
tp4800
sba(iModules.cell
Cell
p4801
(dp4802
g5
I00
sg260
I01
sg12
(I01
I01
tp4803
sba(iModules.cell
Cell
p4804
(dp4805
g5
I00
sg260
I01
sg12
(I01
I01
tp4806
sba(iModules.cell
Cell
p4807
(dp4808
g5
I00
sg260
I01
sg12
(I01
I01
tp4809
sba(iModules.cell
Cell
p4810
(dp4811
g5
I00
sg260
I01
sg12
(I01
I01
tp4812
sba(iModules.cell
Cell
p4813
(dp4814
g5
I00
sg260
I01
sg12
(I01
I01
tp4815
sba(iModules.cell
Cell
p4816
(dp4817
g5
I00
sg260
I01
sg12
(I01
I01
tp4818
sba(iModules.cell
Cell
p4819
(dp4820
g5
I00
sg260
I01
sg12
(I01
I01
tp4821
sba(iModules.cell
Cell
p4822
(dp4823
g5
I00
sg260
I01
sg12
(I01
I01
tp4824
sba(iModules.cell
Cell
p4825
(dp4826
g5
I00
sg260
I01
sg12
(I01
I01
tp4827
sba(iModules.cell
Cell
p4828
(dp4829
g5
I00
sg260
I01
sg12
(I01
I01
tp4830
sba(iModules.cell
Cell
p4831
(dp4832
g5
I00
sg260
I01
sg12
(I01
I01
tp4833
sba(iModules.cell
Cell
p4834
(dp4835
g5
I00
sg12
(I01
I01
tp4836
sba(iModules.cell
Cell
p4837
(dp4838
g5
I00
sg12
(I01
I01
tp4839
sba(iModules.cell
Cell
p4840
(dp4841
g5
I00
sg12
(I01
I01
tp4842
sba(iModules.cell
Cell
p4843
(dp4844
g5
I00
sg12
(I01
I01
tp4845
sba(iModules.cell
Cell
p4846
(dp4847
g5
I00
sg12
(I01
I01
tp4848
sba(iModules.cell
Cell
p4849
(dp4850
g5
I00
sg12
(I01
I01
tp4851
sba(iModules.cell
Cell
p4852
(dp4853
g5
I00
sg12
(I01
I01
tp4854
sba(iModules.cell
Cell
p4855
(dp4856
g5
I00
sg12
(I01
I01
tp4857
sba(iModules.cell
Cell
p4858
(dp4859
g5
I00
sg12
(I01
I01
tp4860
sba(iModules.cell
Cell
p4861
(dp4862
g5
I00
sg12
(I01
I01
tp4863
sba(iModules.cell
Cell
p4864
(dp4865
g5
I00
sg12
(I01
I01
tp4866
sba(iModules.cell
Cell
p4867
(dp4868
g5
I00
sg12
(I01
I01
tp4869
sba(iModules.cell
Cell
p4870
(dp4871
g5
I00
sg12
(I01
I01
tp4872
sba(iModules.cell
Cell
p4873
(dp4874
g5
I00
sg12
(I01
I01
tp4875
sba(iModules.cell
Cell
p4876
(dp4877
g5
I00
sg12
(I01
I01
tp4878
sba(iModules.cell
Cell
p4879
(dp4880
g5
I00
sg12
(I01
I01
tp4881
sba(iModules.cell
Cell
p4882
(dp4883
g5
I00
sg12
(I01
I01
tp4884
sba(iModules.cell
Cell
p4885
(dp4886
g5
I00
sg12
(I01
I01
tp4887
sba(iModules.cell
Cell
p4888
(dp4889
g5
I00
sg12
(I00
I00
tp4890
sba(iModules.cell
Cell
p4891
(dp4892
g5
I00
sg12
(I00
I00
tp4893
sba(iModules.cell
Cell
p4894
(dp4895
g5
I00
sg12
(I00
I00
tp4896
sba(iModules.cell
Cell
p4897
(dp4898
g5
I00
sg12
(I00
I00
tp4899
sba(iModules.cell
Cell
p4900
(dp4901
g5
I00
sg12
(I00
I00
tp4902
sba(iModules.cell
Cell
p4903
(dp4904
g5
I00
sg12
(I00
I00
tp4905
sba(iModules.cell
Cell
p4906
(dp4907
g5
I00
sg12
(I00
I00
tp4908
sba(iModules.cell
Cell
p4909
(dp4910
g5
I00
sg12
(I00
I00
tp4911
sba(iModules.cell
Cell
p4912
(dp4913
g5
I00
sg12
(I00
I00
tp4914
sba(iModules.cell
Cell
p4915
(dp4916
g5
I00
sg12
(I00
I00
tp4917
sba(iModules.cell
Cell
p4918
(dp4919
g5
I00
sg12
(I00
I00
tp4920
sba(iModules.cell
Cell
p4921
(dp4922
g5
I00
sg12
(I00
I00
tp4923
sba(iModules.cell
Cell
p4924
(dp4925
g5
I00
sg12
(I00
I00
tp4926
sba(iModules.cell
Cell
p4927
(dp4928
g5
I00
sg12
(I00
I00
tp4929
sba(iModules.cell
Cell
p4930
(dp4931
g5
I00
sg12
(I00
I00
tp4932
sba(iModules.cell
Cell
p4933
(dp4934
g5
I00
sg12
(I00
I00
tp4935
sba(iModules.cell
Cell
p4936
(dp4937
g5
I00
sg12
(I00
I00
tp4938
sba(iModules.cell
Cell
p4939
(dp4940
g5
I00
sg12
(I00
I00
tp4941
sba(iModules.cell
Cell
p4942
(dp4943
g5
I00
sg12
(I00
I00
tp4944
sba(iModules.cell
Cell
p4945
(dp4946
g12
(I00
I00
tp4947
sbaa(lp4948
(iModules.cell
Cell
p4949
(dp4950
g5
I00
sg12
(I00
I00
tp4951
sba(iModules.cell
Cell
p4952
(dp4953
g5
I00
sg12
(I00
I00
tp4954
sba(iModules.cell
Cell
p4955
(dp4956
g5
I00
sg12
(I01
I01
tp4957
sba(iModules.cell
Cell
p4958
(dp4959
g5
I00
sg12
(I01
I01
tp4960
sba(iModules.cell
Cell
p4961
(dp4962
g5
I00
sg12
(I01
I01
tp4963
sba(iModules.cell
Cell
p4964
(dp4965
g5
I00
sg12
(I01
I01
tp4966
sba(iModules.cell
Cell
p4967
(dp4968
g5
I00
sg12
(I01
I01
tp4969
sba(iModules.cell
Cell
p4970
(dp4971
g5
I00
sg12
(I01
I01
tp4972
sba(iModules.cell
Cell
p4973
(dp4974
g5
I00
sg12
(I01
I01
tp4975
sba(iModules.cell
Cell
p4976
(dp4977
g5
I00
sg12
(I01
I01
tp4978
sba(iModules.cell
Cell
p4979
(dp4980
g5
I00
sg12
(I01
I01
tp4981
sba(iModules.cell
Cell
p4982
(dp4983
g5
I00
sg12
(I01
I01
tp4984
sba(iModules.cell
Cell
p4985
(dp4986
g5
I00
sg12
(I01
I01
tp4987
sba(iModules.cell
Cell
p4988
(dp4989
g5
I00
sg12
(I01
I01
tp4990
sba(iModules.cell
Cell
p4991
(dp4992
g5
I00
sg12
(I01
I01
tp4993
sba(iModules.cell
Cell
p4994
(dp4995
g5
I00
sg12
(I01
I01
tp4996
sba(iModules.cell
Cell
p4997
(dp4998
g5
I00
sg12
(I01
I01
tp4999
sba(iModules.cell
Cell
p5000
(dp5001
g5
I00
sg12
(I01
I01
tp5002
sba(iModules.cell
Cell
p5003
(dp5004
g5
I00
sg12
(I01
I01
tp5005
sba(iModules.cell
Cell
p5006
(dp5007
g5
I00
sg12
(I01
I01
tp5008
sba(iModules.cell
Cell
p5009
(dp5010
g5
I00
sg12
(I01
I01
tp5011
sba(iModules.cell
Cell
p5012
(dp5013
g5
I00
sg12
(I01
I01
tp5014
sba(iModules.cell
Cell
p5015
(dp5016
g5
I00
sg12
(I01
I01
tp5017
sba(iModules.cell
Cell
p5018
(dp5019
g5
I00
sg12
(I01
I01
tp5020
sba(iModules.cell
Cell
p5021
(dp5022
g5
I00
sg260
I01
sg12
(I01
I01
tp5023
sba(iModules.cell
Cell
p5024
(dp5025
g5
I00
sg260
I01
sg12
(I01
I01
tp5026
sba(iModules.cell
Cell
p5027
(dp5028
g5
I00
sg260
I01
sg12
(I01
I01
tp5029
sba(iModules.cell
Cell
p5030
(dp5031
g5
I00
sg260
I01
sg12
(I01
I01
tp5032
sba(iModules.cell
Cell
p5033
(dp5034
g5
I00
sg260
I01
sg12
(I01
I01
tp5035
sba(iModules.cell
Cell
p5036
(dp5037
g5
I00
sg260
I01
sg12
(I01
I01
tp5038
sba(iModules.cell
Cell
p5039
(dp5040
g5
I00
sg260
I01
sg12
(I01
I01
tp5041
sba(iModules.cell
Cell
p5042
(dp5043
g5
I00
sg260
I01
sg12
(I01
I01
tp5044
sba(iModules.cell
Cell
p5045
(dp5046
g5
I00
sg260
I01
sg12
(I01
I01
tp5047
sba(iModules.cell
Cell
p5048
(dp5049
g5
I00
sg260
I01
sg12
(I01
I01
tp5050
sba(iModules.cell
Cell
p5051
(dp5052
g5
I00
sg260
I01
sg12
(I01
I01
tp5053
sba(iModules.cell
Cell
p5054
(dp5055
g5
I00
sg260
I01
sg12
(I01
I01
tp5056
sba(iModules.cell
Cell
p5057
(dp5058
g5
I00
sg260
I01
sg12
(I01
I01
tp5059
sba(iModules.cell
Cell
p5060
(dp5061
g5
I00
sg260
I01
sg12
(I01
I01
tp5062
sba(iModules.cell
Cell
p5063
(dp5064
g5
I00
sg260
I01
sg12
(I01
I01
tp5065
sba(iModules.cell
Cell
p5066
(dp5067
g5
I00
sg260
I01
sg12
(I01
I01
tp5068
sba(iModules.cell
Cell
p5069
(dp5070
g5
I00
sg260
I01
sg12
(I01
I01
tp5071
sba(iModules.cell
Cell
p5072
(dp5073
g5
I00
sg260
I01
sg12
(I01
I01
tp5074
sba(iModules.cell
Cell
p5075
(dp5076
g5
I00
sg260
I01
sg12
(I01
I01
tp5077
sba(iModules.cell
Cell
p5078
(dp5079
g5
I00
sg12
(I01
I01
tp5080
sba(iModules.cell
Cell
p5081
(dp5082
g5
I00
sg12
(I01
I01
tp5083
sba(iModules.cell
Cell
p5084
(dp5085
g5
I00
sg12
(I01
I01
tp5086
sba(iModules.cell
Cell
p5087
(dp5088
g5
I00
sg12
(I01
I01
tp5089
sba(iModules.cell
Cell
p5090
(dp5091
g5
I00
sg12
(I01
I01
tp5092
sba(iModules.cell
Cell
p5093
(dp5094
g5
I00
sg12
(I01
I01
tp5095
sba(iModules.cell
Cell
p5096
(dp5097
g5
I00
sg12
(I01
I01
tp5098
sba(iModules.cell
Cell
p5099
(dp5100
g5
I00
sg12
(I01
I01
tp5101
sba(iModules.cell
Cell
p5102
(dp5103
g5
I00
sg12
(I01
I01
tp5104
sba(iModules.cell
Cell
p5105
(dp5106
g5
I00
sg12
(I01
I01
tp5107
sba(iModules.cell
Cell
p5108
(dp5109
g5
I00
sg12
(I01
I01
tp5110
sba(iModules.cell
Cell
p5111
(dp5112
g5
I00
sg12
(I01
I01
tp5113
sba(iModules.cell
Cell
p5114
(dp5115
g5
I00
sg12
(I01
I01
tp5116
sba(iModules.cell
Cell
p5117
(dp5118
g5
I00
sg12
(I01
I01
tp5119
sba(iModules.cell
Cell
p5120
(dp5121
g5
I00
sg12
(I01
I01
tp5122
sba(iModules.cell
Cell
p5123
(dp5124
g5
I00
sg12
(I01
I01
tp5125
sba(iModules.cell
Cell
p5126
(dp5127
g5
I00
sg12
(I01
I01
tp5128
sba(iModules.cell
Cell
p5129
(dp5130
g5
I00
sg12
(I01
I01
tp5131
sba(iModules.cell
Cell
p5132
(dp5133
g327
I00
sg5
I00
sg12
(I00
I00
tp5134
sg329
(lp5135
I20
aI61
asba(iModules.cell
Cell
p5136
(dp5137
g5
I00
sg12
(I00
I00
tp5138
sba(iModules.cell
Cell
p5139
(dp5140
g5
I00
sg12
(I00
I00
tp5141
sba(iModules.cell
Cell
p5142
(dp5143
g5
I00
sg12
(I00
I00
tp5144
sba(iModules.cell
Cell
p5145
(dp5146
g5
I00
sg12
(I00
I00
tp5147
sba(iModules.cell
Cell
p5148
(dp5149
g5
I00
sg12
(I00
I00
tp5150
sba(iModules.cell
Cell
p5151
(dp5152
g5
I00
sg12
(I00
I00
tp5153
sba(iModules.cell
Cell
p5154
(dp5155
g5
I00
sg12
(I00
I00
tp5156
sba(iModules.cell
Cell
p5157
(dp5158
g5
I00
sg12
(I00
I00
tp5159
sba(iModules.cell
Cell
p5160
(dp5161
g5
I00
sg12
(I00
I00
tp5162
sba(iModules.cell
Cell
p5163
(dp5164
g5
I00
sg12
(I00
I00
tp5165
sba(iModules.cell
Cell
p5166
(dp5167
g5
I00
sg12
(I00
I00
tp5168
sba(iModules.cell
Cell
p5169
(dp5170
g5
I00
sg12
(I00
I00
tp5171
sba(iModules.cell
Cell
p5172
(dp5173
g5
I00
sg12
(I00
I00
tp5174
sba(iModules.cell
Cell
p5175
(dp5176
g5
I00
sg12
(I00
I00
tp5177
sba(iModules.cell
Cell
p5178
(dp5179
g5
I00
sg12
(I00
I00
tp5180
sba(iModules.cell
Cell
p5181
(dp5182
g5
I00
sg12
(I00
I00
tp5183
sba(iModules.cell
Cell
p5184
(dp5185
g5
I00
sg12
(I00
I00
tp5186
sba(iModules.cell
Cell
p5187
(dp5188
g5
I00
sg12
(I00
I00
tp5189
sba(iModules.cell
Cell
p5190
(dp5191
g12
(I00
I00
tp5192
sbaa(lp5193
(iModules.cell
Cell
p5194
(dp5195
g5
I00
sg12
(I00
I00
tp5196
sba(iModules.cell
Cell
p5197
(dp5198
g5
I00
sg12
(I00
I00
tp5199
sba(iModules.cell
Cell
p5200
(dp5201
g5
I00
sg12
(I01
I01
tp5202
sba(iModules.cell
Cell
p5203
(dp5204
g5
I00
sg12
(I01
I01
tp5205
sba(iModules.cell
Cell
p5206
(dp5207
g5
I00
sg12
(I01
I01
tp5208
sba(iModules.cell
Cell
p5209
(dp5210
g5
I00
sg12
(I01
I01
tp5211
sba(iModules.cell
Cell
p5212
(dp5213
g5
I00
sg12
(I01
I01
tp5214
sba(iModules.cell
Cell
p5215
(dp5216
g5
I00
sg12
(I01
I01
tp5217
sba(iModules.cell
Cell
p5218
(dp5219
g5
I00
sg12
(I01
I01
tp5220
sba(iModules.cell
Cell
p5221
(dp5222
g5
I00
sg12
(I01
I01
tp5223
sba(iModules.cell
Cell
p5224
(dp5225
g5
I00
sg12
(I01
I01
tp5226
sba(iModules.cell
Cell
p5227
(dp5228
g5
I00
sg12
(I01
I01
tp5229
sba(iModules.cell
Cell
p5230
(dp5231
g5
I00
sg12
(I01
I01
tp5232
sba(iModules.cell
Cell
p5233
(dp5234
g5
I00
sg12
(I01
I01
tp5235
sba(iModules.cell
Cell
p5236
(dp5237
g5
I00
sg12
(I01
I01
tp5238
sba(iModules.cell
Cell
p5239
(dp5240
g5
I00
sg12
(I01
I01
tp5241
sba(iModules.cell
Cell
p5242
(dp5243
g5
I00
sg12
(I01
I01
tp5244
sba(iModules.cell
Cell
p5245
(dp5246
g5
I00
sg12
(I01
I01
tp5247
sba(iModules.cell
Cell
p5248
(dp5249
g5
I00
sg12
(I01
I01
tp5250
sba(iModules.cell
Cell
p5251
(dp5252
g5
I00
sg12
(I01
I01
tp5253
sba(iModules.cell
Cell
p5254
(dp5255
g5
I00
sg12
(I01
I01
tp5256
sba(iModules.cell
Cell
p5257
(dp5258
g5
I00
sg12
(I01
I01
tp5259
sba(iModules.cell
Cell
p5260
(dp5261
g5
I00
sg12
(I01
I01
tp5262
sba(iModules.cell
Cell
p5263
(dp5264
g5
I00
sg12
(I01
I01
tp5265
sba(iModules.cell
Cell
p5266
(dp5267
g5
I00
sg260
I01
sg12
(I01
I01
tp5268
sba(iModules.cell
Cell
p5269
(dp5270
g5
I00
sg260
I01
sg12
(I01
I01
tp5271
sba(iModules.cell
Cell
p5272
(dp5273
g5
I00
sg260
I01
sg12
(I01
I01
tp5274
sba(iModules.cell
Cell
p5275
(dp5276
g5
I00
sg260
I01
sg12
(I01
I01
tp5277
sba(iModules.cell
Cell
p5278
(dp5279
g5
I00
sg260
I01
sg12
(I01
I01
tp5280
sba(iModules.cell
Cell
p5281
(dp5282
g5
I00
sg260
I01
sg12
(I01
I01
tp5283
sba(iModules.cell
Cell
p5284
(dp5285
g5
I00
sg260
I01
sg12
(I01
I01
tp5286
sba(iModules.cell
Cell
p5287
(dp5288
g5
I00
sg260
I01
sg12
(I01
I01
tp5289
sba(iModules.cell
Cell
p5290
(dp5291
g5
I00
sg260
I01
sg12
(I01
I01
tp5292
sba(iModules.cell
Cell
p5293
(dp5294
g5
I00
sg260
I01
sg12
(I01
I01
tp5295
sba(iModules.cell
Cell
p5296
(dp5297
g5
I00
sg260
I01
sg12
(I01
I01
tp5298
sba(iModules.cell
Cell
p5299
(dp5300
g5
I00
sg260
I01
sg12
(I01
I01
tp5301
sba(iModules.cell
Cell
p5302
(dp5303
g5
I00
sg260
I01
sg12
(I01
I01
tp5304
sba(iModules.cell
Cell
p5305
(dp5306
g5
I00
sg260
I01
sg12
(I01
I01
tp5307
sba(iModules.cell
Cell
p5308
(dp5309
g5
I00
sg260
I01
sg12
(I01
I01
tp5310
sba(iModules.cell
Cell
p5311
(dp5312
g5
I00
sg260
I01
sg12
(I01
I01
tp5313
sba(iModules.cell
Cell
p5314
(dp5315
g5
I00
sg260
I01
sg12
(I01
I01
tp5316
sba(iModules.cell
Cell
p5317
(dp5318
g5
I00
sg260
I01
sg12
(I01
I01
tp5319
sba(iModules.cell
Cell
p5320
(dp5321
g5
I00
sg260
I01
sg12
(I01
I01
tp5322
sba(iModules.cell
Cell
p5323
(dp5324
g5
I00
sg12
(I01
I01
tp5325
sba(iModules.cell
Cell
p5326
(dp5327
g5
I00
sg12
(I01
I01
tp5328
sba(iModules.cell
Cell
p5329
(dp5330
g5
I00
sg12
(I01
I01
tp5331
sba(iModules.cell
Cell
p5332
(dp5333
g5
I00
sg12
(I01
I01
tp5334
sba(iModules.cell
Cell
p5335
(dp5336
g5
I00
sg12
(I01
I01
tp5337
sba(iModules.cell
Cell
p5338
(dp5339
g5
I00
sg12
(I01
I01
tp5340
sba(iModules.cell
Cell
p5341
(dp5342
g5
I00
sg12
(I01
I01
tp5343
sba(iModules.cell
Cell
p5344
(dp5345
g5
I00
sg12
(I01
I01
tp5346
sba(iModules.cell
Cell
p5347
(dp5348
g5
I00
sg12
(I01
I01
tp5349
sba(iModules.cell
Cell
p5350
(dp5351
g5
I00
sg12
(I01
I01
tp5352
sba(iModules.cell
Cell
p5353
(dp5354
g5
I00
sg12
(I01
I01
tp5355
sba(iModules.cell
Cell
p5356
(dp5357
g5
I00
sg12
(I01
I01
tp5358
sba(iModules.cell
Cell
p5359
(dp5360
g5
I00
sg12
(I01
I01
tp5361
sba(iModules.cell
Cell
p5362
(dp5363
g5
I00
sg12
(I01
I01
tp5364
sba(iModules.cell
Cell
p5365
(dp5366
g5
I00
sg12
(I01
I01
tp5367
sba(iModules.cell
Cell
p5368
(dp5369
g5
I00
sg12
(I01
I01
tp5370
sba(iModules.cell
Cell
p5371
(dp5372
g5
I00
sg12
(I01
I01
tp5373
sba(iModules.cell
Cell
p5374
(dp5375
g5
I00
sg12
(I01
I01
tp5376
sba(iModules.cell
Cell
p5377
(dp5378
g327
I00
sg5
I00
sg12
(I00
I00
tp5379
sg329
(lp5380
I21
aI61
asba(iModules.cell
Cell
p5381
(dp5382
g5
I00
sg12
(I00
I00
tp5383
sba(iModules.cell
Cell
p5384
(dp5385
g5
I00
sg12
(I00
I00
tp5386
sba(iModules.cell
Cell
p5387
(dp5388
g5
I00
sg12
(I00
I00
tp5389
sba(iModules.cell
Cell
p5390
(dp5391
g5
I00
sg12
(I00
I00
tp5392
sba(iModules.cell
Cell
p5393
(dp5394
g5
I00
sg12
(I00
I00
tp5395
sba(iModules.cell
Cell
p5396
(dp5397
g5
I00
sg12
(I00
I00
tp5398
sba(iModules.cell
Cell
p5399
(dp5400
g5
I00
sg12
(I00
I00
tp5401
sba(iModules.cell
Cell
p5402
(dp5403
g5
I00
sg12
(I00
I00
tp5404
sba(iModules.cell
Cell
p5405
(dp5406
g5
I00
sg12
(I00
I00
tp5407
sba(iModules.cell
Cell
p5408
(dp5409
g5
I00
sg12
(I00
I00
tp5410
sba(iModules.cell
Cell
p5411
(dp5412
g5
I00
sg12
(I00
I00
tp5413
sba(iModules.cell
Cell
p5414
(dp5415
g5
I00
sg12
(I00
I00
tp5416
sba(iModules.cell
Cell
p5417
(dp5418
g5
I00
sg12
(I00
I00
tp5419
sba(iModules.cell
Cell
p5420
(dp5421
g5
I00
sg12
(I00
I00
tp5422
sba(iModules.cell
Cell
p5423
(dp5424
g5
I00
sg12
(I00
I00
tp5425
sba(iModules.cell
Cell
p5426
(dp5427
g5
I00
sg12
(I00
I00
tp5428
sba(iModules.cell
Cell
p5429
(dp5430
g5
I00
sg12
(I00
I00
tp5431
sba(iModules.cell
Cell
p5432
(dp5433
g5
I00
sg12
(I00
I00
tp5434
sba(iModules.cell
Cell
p5435
(dp5436
g12
(I00
I00
tp5437
sbaa(lp5438
(iModules.cell
Cell
p5439
(dp5440
g5
I00
sg12
(I00
I00
tp5441
sba(iModules.cell
Cell
p5442
(dp5443
g5
I00
sg12
(I00
I00
tp5444
sba(iModules.cell
Cell
p5445
(dp5446
g5
I00
sg12
(I00
I00
tp5447
sba(iModules.cell
Cell
p5448
(dp5449
g5
I00
sg12
(I00
I00
tp5450
sba(iModules.cell
Cell
p5451
(dp5452
g5
I00
sg12
(I00
I00
tp5453
sba(iModules.cell
Cell
p5454
(dp5455
g5
I00
sg12
(I00
I00
tp5456
sba(iModules.cell
Cell
p5457
(dp5458
g5
I00
sg12
(I00
I00
tp5459
sba(iModules.cell
Cell
p5460
(dp5461
g5
I00
sg12
(I00
I00
tp5462
sba(iModules.cell
Cell
p5463
(dp5464
g5
I00
sg12
(I00
I00
tp5465
sba(iModules.cell
Cell
p5466
(dp5467
g5
I00
sg12
(I00
I00
tp5468
sba(iModules.cell
Cell
p5469
(dp5470
g327
I00
sg5
I00
sg12
(I00
I00
tp5471
sg329
(lp5472
I22
aI10
asba(iModules.cell
Cell
p5473
(dp5474
g327
I00
sg5
I00
sg12
(I00
I00
tp5475
sg329
(lp5476
I22
aI11
asba(iModules.cell
Cell
p5477
(dp5478
g327
I00
sg5
I00
sg12
(I00
I00
tp5479
sg329
(lp5480
I22
aI12
asba(iModules.cell
Cell
p5481
(dp5482
g327
I00
sg5
I00
sg12
(I00
I00
tp5483
sg329
(lp5484
I22
aI13
asba(iModules.cell
Cell
p5485
(dp5486
g327
I00
sg5
I00
sg12
(I00
I00
tp5487
sg329
(lp5488
I22
aI14
asba(iModules.cell
Cell
p5489
(dp5490
g327
I00
sg5
I00
sg12
(I00
I00
tp5491
sg329
(lp5492
I22
aI15
asba(iModules.cell
Cell
p5493
(dp5494
g5
I00
sg12
(I00
I00
tp5495
sba(iModules.cell
Cell
p5496
(dp5497
g5
I00
sg12
(I00
I00
tp5498
sba(iModules.cell
Cell
p5499
(dp5500
g327
I00
sg5
I00
sg12
(I00
I00
tp5501
sg329
(lp5502
I22
aI18
asba(iModules.cell
Cell
p5503
(dp5504
g327
I00
sg5
I00
sg12
(I00
I00
tp5505
sg329
(lp5506
I22
aI19
asba(iModules.cell
Cell
p5507
(dp5508
g327
I00
sg5
I00
sg12
(I00
I00
tp5509
sg329
(lp5510
I22
aI20
asba(iModules.cell
Cell
p5511
(dp5512
g327
I00
sg5
I00
sg12
(I00
I00
tp5513
sg329
(lp5514
I22
aI21
asba(iModules.cell
Cell
p5515
(dp5516
g327
I00
sg5
I00
sg12
(I00
I00
tp5517
sg329
(lp5518
I22
aI22
asba(iModules.cell
Cell
p5519
(dp5520
g327
I00
sg5
I00
sg12
(I00
I00
tp5521
sg329
(lp5522
I22
aI23
asba(iModules.cell
Cell
p5523
(dp5524
g327
I00
sg5
I00
sg260
I01
sg12
(I00
I00
tp5525
sg329
(lp5526
I22
aI24
asba(iModules.cell
Cell
p5527
(dp5528
g327
I00
sg5
I00
sg260
I01
sg12
(I00
I00
tp5529
sg329
(lp5530
I22
aI25
asba(iModules.cell
Cell
p5531
(dp5532
g327
I00
sg5
I00
sg260
I01
sg12
(I00
I00
tp5533
sg329
(lp5534
I22
aI26
asba(iModules.cell
Cell
p5535
(dp5536
g327
I00
sg5
I00
sg260
I01
sg12
(I00
I00
tp5537
sg329
(lp5538
I22
aI27
asba(iModules.cell
Cell
p5539
(dp5540
g327
I00
sg5
I00
sg260
I01
sg12
(I00
I00
tp5541
sg329
(lp5542
I22
aI28
asba(iModules.cell
Cell
p5543
(dp5544
g327
I00
sg5
I00
sg260
I01
sg12
(I00
I00
tp5545
sg329
(lp5546
I22
aI29
asba(iModules.cell
Cell
p5547
(dp5548
g327
I00
sg5
I00
sg260
I01
sg12
(I00
I00
tp5549
sg329
(lp5550
I22
aI30
asba(iModules.cell
Cell
p5551
(dp5552
g327
I00
sg5
I00
sg260
I01
sg12
(I00
I00
tp5553
sg329
(lp5554
I22
aI31
asba(iModules.cell
Cell
p5555
(dp5556
g327
I00
sg5
I00
sg260
I01
sg12
(I00
I00
tp5557
sg329
(lp5558
I22
aI32
asba(iModules.cell
Cell
p5559
(dp5560
g327
I00
sg5
I00
sg260
I01
sg12
(I00
I00
tp5561
sg329
(lp5562
I22
aI33
asba(iModules.cell
Cell
p5563
(dp5564
g327
I00
sg5
I00
sg260
I01
sg12
(I00
I00
tp5565
sg329
(lp5566
I22
aI34
asba(iModules.cell
Cell
p5567
(dp5568
g327
I00
sg5
I00
sg260
I01
sg12
(I00
I00
tp5569
sg329
(lp5570
I22
aI35
asba(iModules.cell
Cell
p5571
(dp5572
g327
I00
sg5
I00
sg260
I01
sg12
(I00
I00
tp5573
sg329
(lp5574
I22
aI36
asba(iModules.cell
Cell
p5575
(dp5576
g327
I00
sg5
I00
sg260
I01
sg12
(I00
I00
tp5577
sg329
(lp5578
I22
aI37
asba(iModules.cell
Cell
p5579
(dp5580
g327
I00
sg5
I00
sg260
I01
sg12
(I00
I00
tp5581
sg329
(lp5582
I22
aI38
asba(iModules.cell
Cell
p5583
(dp5584
g327
I00
sg5
I00
sg260
I01
sg12
(I00
I00
tp5585
sg329
(lp5586
I22
aI39
asba(iModules.cell
Cell
p5587
(dp5588
g327
I00
sg5
I00
sg260
I01
sg12
(I00
I00
tp5589
sg329
(lp5590
I22
aI40
asba(iModules.cell
Cell
p5591
(dp5592
g327
I00
sg5
I00
sg260
I01
sg12
(I00
I00
tp5593
sg329
(lp5594
I22
aI41
asba(iModules.cell
Cell
p5595
(dp5596
g327
I00
sg5
I00
sg260
I01
sg12
(I00
I00
tp5597
sg329
(lp5598
I22
aI42
asba(iModules.cell
Cell
p5599
(dp5600
g327
I00
sg5
I00
sg12
(I00
I00
tp5601
sg329
(lp5602
I22
aI43
asba(iModules.cell
Cell
p5603
(dp5604
g5
I00
sg12
(I00
I00
tp5605
sba(iModules.cell
Cell
p5606
(dp5607
g5
I00
sg12
(I00
I00
tp5608
sba(iModules.cell
Cell
p5609
(dp5610
g327
I00
sg5
I00
sg12
(I00
I00
tp5611
sg329
(lp5612
I22
aI46
asba(iModules.cell
Cell
p5613
(dp5614
g327
I00
sg5
I00
sg12
(I00
I00
tp5615
sg329
(lp5616
I22
aI47
asba(iModules.cell
Cell
p5617
(dp5618
g327
I00
sg5
I00
sg12
(I00
I00
tp5619
sg329
(lp5620
I22
aI48
asba(iModules.cell
Cell
p5621
(dp5622
g327
I00
sg5
I00
sg12
(I00
I00
tp5623
sg329
(lp5624
I22
aI49
asba(iModules.cell
Cell
p5625
(dp5626
g327
I00
sg5
I00
sg12
(I00
I00
tp5627
sg329
(lp5628
I22
aI50
asba(iModules.cell
Cell
p5629
(dp5630
g327
I00
sg5
I00
sg12
(I00
I00
tp5631
sg329
(lp5632
I22
aI51
asba(iModules.cell
Cell
p5633
(dp5634
g327
I00
sg5
I00
sg12
(I00
I00
tp5635
sg329
(lp5636
I22
aI52
asba(iModules.cell
Cell
p5637
(dp5638
g327
I00
sg5
I00
sg12
(I00
I00
tp5639
sg329
(lp5640
I22
aI53
asba(iModules.cell
Cell
p5641
(dp5642
g327
I00
sg5
I00
sg12
(I00
I00
tp5643
sg329
(lp5644
I22
aI54
asba(iModules.cell
Cell
p5645
(dp5646
g327
I00
sg5
I00
sg12
(I00
I00
tp5647
sg329
(lp5648
I22
aI55
asba(iModules.cell
Cell
p5649
(dp5650
g327
I00
sg5
I00
sg12
(I00
I00
tp5651
sg329
(lp5652
I22
aI56
asba(iModules.cell
Cell
p5653
(dp5654
g5
I00
sg12
(I00
I00
tp5655
sba(iModules.cell
Cell
p5656
(dp5657
g327
I00
sg5
I00
sg12
(I00
I00
tp5658
sg329
(lp5659
I22
aI58
asba(iModules.cell
Cell
p5660
(dp5661
g327
I00
sg5
I00
sg12
(I00
I00
tp5662
sg329
(lp5663
I22
aI59
asba(iModules.cell
Cell
p5664
(dp5665
g327
I00
sg5
I00
sg12
(I00
I00
tp5666
sg329
(lp5667
I22
aI60
asba(iModules.cell
Cell
p5668
(dp5669
g327
I00
sg5
I00
sg12
(I00
I00
tp5670
sg329
(lp5671
I22
aI61
asba(iModules.cell
Cell
p5672
(dp5673
g5
I00
sg12
(I00
I00
tp5674
sba(iModules.cell
Cell
p5675
(dp5676
g5
I00
sg12
(I00
I00
tp5677
sba(iModules.cell
Cell
p5678
(dp5679
g5
I00
sg12
(I00
I00
tp5680
sba(iModules.cell
Cell
p5681
(dp5682
g5
I00
sg12
(I00
I00
tp5683
sba(iModules.cell
Cell
p5684
(dp5685
g5
I00
sg12
(I00
I00
tp5686
sba(iModules.cell
Cell
p5687
(dp5688
g5
I00
sg12
(I00
I00
tp5689
sba(iModules.cell
Cell
p5690
(dp5691
g5
I00
sg12
(I00
I00
tp5692
sba(iModules.cell
Cell
p5693
(dp5694
g5
I00
sg12
(I00
I00
tp5695
sba(iModules.cell
Cell
p5696
(dp5697
g5
I00
sg12
(I00
I00
tp5698
sba(iModules.cell
Cell
p5699
(dp5700
g5
I00
sg12
(I00
I00
tp5701
sba(iModules.cell
Cell
p5702
(dp5703
g5
I00
sg12
(I00
I00
tp5704
sba(iModules.cell
Cell
p5705
(dp5706
g5
I00
sg12
(I00
I00
tp5707
sba(iModules.cell
Cell
p5708
(dp5709
g5
I00
sg12
(I00
I00
tp5710
sba(iModules.cell
Cell
p5711
(dp5712
g5
I00
sg12
(I00
I00
tp5713
sba(iModules.cell
Cell
p5714
(dp5715
g5
I00
sg12
(I00
I00
tp5716
sba(iModules.cell
Cell
p5717
(dp5718
g5
I00
sg12
(I00
I00
tp5719
sba(iModules.cell
Cell
p5720
(dp5721
g5
I00
sg12
(I00
I00
tp5722
sba(iModules.cell
Cell
p5723
(dp5724
g5
I00
sg12
(I00
I00
tp5725
sba(iModules.cell
Cell
p5726
(dp5727
g12
(I00
I00
tp5728
sbaa(lp5729
(iModules.cell
Cell
p5730
(dp5731
g12
(I00
I00
tp5732
sba(iModules.cell
Cell
p5733
(dp5734
g12
(I00
I00
tp5735
sba(iModules.cell
Cell
p5736
(dp5737
g12
(I00
I00
tp5738
sba(iModules.cell
Cell
p5739
(dp5740
g12
(I00
I00
tp5741
sba(iModules.cell
Cell
p5742
(dp5743
g12
(I00
I00
tp5744
sba(iModules.cell
Cell
p5745
(dp5746
g12
(I00
I00
tp5747
sba(iModules.cell
Cell
p5748
(dp5749
g12
(I00
I00
tp5750
sba(iModules.cell
Cell
p5751
(dp5752
g12
(I00
I00
tp5753
sba(iModules.cell
Cell
p5754
(dp5755
g12
(I00
I00
tp5756
sba(iModules.cell
Cell
p5757
(dp5758
g12
(I00
I00
tp5759
sba(iModules.cell
Cell
p5760
(dp5761
g12
(I00
I00
tp5762
sba(iModules.cell
Cell
p5763
(dp5764
g12
(I00
I00
tp5765
sba(iModules.cell
Cell
p5766
(dp5767
g12
(I00
I00
tp5768
sba(iModules.cell
Cell
p5769
(dp5770
g12
(I00
I00
tp5771
sba(iModules.cell
Cell
p5772
(dp5773
g12
(I00
I00
tp5774
sba(iModules.cell
Cell
p5775
(dp5776
g12
(I00
I00
tp5777
sba(iModules.cell
Cell
p5778
(dp5779
g12
(I00
I00
tp5780
sba(iModules.cell
Cell
p5781
(dp5782
g12
(I00
I00
tp5783
sba(iModules.cell
Cell
p5784
(dp5785
g12
(I00
I00
tp5786
sba(iModules.cell
Cell
p5787
(dp5788
g12
(I00
I00
tp5789
sba(iModules.cell
Cell
p5790
(dp5791
g12
(I00
I00
tp5792
sba(iModules.cell
Cell
p5793
(dp5794
g12
(I00
I00
tp5795
sba(iModules.cell
Cell
p5796
(dp5797
g12
(I00
I00
tp5798
sba(iModules.cell
Cell
p5799
(dp5800
g12
(I00
I00
tp5801
sba(iModules.cell
Cell
p5802
(dp5803
g12
(I00
I00
tp5804
sba(iModules.cell
Cell
p5805
(dp5806
g12
(I00
I00
tp5807
sba(iModules.cell
Cell
p5808
(dp5809
g12
(I00
I00
tp5810
sba(iModules.cell
Cell
p5811
(dp5812
g12
(I00
I00
tp5813
sba(iModules.cell
Cell
p5814
(dp5815
g12
(I00
I00
tp5816
sba(iModules.cell
Cell
p5817
(dp5818
g12
(I00
I00
tp5819
sba(iModules.cell
Cell
p5820
(dp5821
g12
(I00
I00
tp5822
sba(iModules.cell
Cell
p5823
(dp5824
g12
(I00
I00
tp5825
sba(iModules.cell
Cell
p5826
(dp5827
g12
(I00
I00
tp5828
sba(iModules.cell
Cell
p5829
(dp5830
g12
(I00
I00
tp5831
sba(iModules.cell
Cell
p5832
(dp5833
g12
(I00
I00
tp5834
sba(iModules.cell
Cell
p5835
(dp5836
g12
(I00
I00
tp5837
sba(iModules.cell
Cell
p5838
(dp5839
g12
(I00
I00
tp5840
sba(iModules.cell
Cell
p5841
(dp5842
g12
(I00
I00
tp5843
sba(iModules.cell
Cell
p5844
(dp5845
g12
(I00
I00
tp5846
sba(iModules.cell
Cell
p5847
(dp5848
g12
(I00
I00
tp5849
sba(iModules.cell
Cell
p5850
(dp5851
g12
(I00
I00
tp5852
sba(iModules.cell
Cell
p5853
(dp5854
g12
(I00
I00
tp5855
sba(iModules.cell
Cell
p5856
(dp5857
g12
(I00
I00
tp5858
sba(iModules.cell
Cell
p5859
(dp5860
g12
(I00
I00
tp5861
sba(iModules.cell
Cell
p5862
(dp5863
g12
(I00
I00
tp5864
sba(iModules.cell
Cell
p5865
(dp5866
g12
(I00
I00
tp5867
sba(iModules.cell
Cell
p5868
(dp5869
g12
(I00
I00
tp5870
sba(iModules.cell
Cell
p5871
(dp5872
g12
(I00
I00
tp5873
sba(iModules.cell
Cell
p5874
(dp5875
g12
(I00
I00
tp5876
sba(iModules.cell
Cell
p5877
(dp5878
g12
(I00
I00
tp5879
sba(iModules.cell
Cell
p5880
(dp5881
g12
(I00
I00
tp5882
sba(iModules.cell
Cell
p5883
(dp5884
g12
(I00
I00
tp5885
sba(iModules.cell
Cell
p5886
(dp5887
g12
(I00
I00
tp5888
sba(iModules.cell
Cell
p5889
(dp5890
g12
(I00
I00
tp5891
sba(iModules.cell
Cell
p5892
(dp5893
g12
(I00
I00
tp5894
sba(iModules.cell
Cell
p5895
(dp5896
g12
(I00
I00
tp5897
sba(iModules.cell
Cell
p5898
(dp5899
g12
(I00
I00
tp5900
sba(iModules.cell
Cell
p5901
(dp5902
g12
(I00
I00
tp5903
sba(iModules.cell
Cell
p5904
(dp5905
g12
(I00
I00
tp5906
sba(iModules.cell
Cell
p5907
(dp5908
g12
(I00
I00
tp5909
sba(iModules.cell
Cell
p5910
(dp5911
g12
(I00
I00
tp5912
sba(iModules.cell
Cell
p5913
(dp5914
g12
(I00
I00
tp5915
sba(iModules.cell
Cell
p5916
(dp5917
g12
(I00
I00
tp5918
sba(iModules.cell
Cell
p5919
(dp5920
g12
(I00
I00
tp5921
sba(iModules.cell
Cell
p5922
(dp5923
g12
(I00
I00
tp5924
sba(iModules.cell
Cell
p5925
(dp5926
g12
(I00
I00
tp5927
sba(iModules.cell
Cell
p5928
(dp5929
g12
(I00
I00
tp5930
sba(iModules.cell
Cell
p5931
(dp5932
g12
(I00
I00
tp5933
sba(iModules.cell
Cell
p5934
(dp5935
g12
(I00
I00
tp5936
sba(iModules.cell
Cell
p5937
(dp5938
g12
(I00
I00
tp5939
sba(iModules.cell
Cell
p5940
(dp5941
g12
(I00
I00
tp5942
sba(iModules.cell
Cell
p5943
(dp5944
g12
(I00
I00
tp5945
sba(iModules.cell
Cell
p5946
(dp5947
g12
(I00
I00
tp5948
sba(iModules.cell
Cell
p5949
(dp5950
g12
(I00
I00
tp5951
sba(iModules.cell
Cell
p5952
(dp5953
g12
(I00
I00
tp5954
sba(iModules.cell
Cell
p5955
(dp5956
g12
(I00
I00
tp5957
sba(iModules.cell
Cell
p5958
(dp5959
g12
(I00
I00
tp5960
sba(iModules.cell
Cell
p5961
(dp5962
g12
(I00
I00
tp5963
sba(iModules.cell
Cell
p5964
(dp5965
g12
(I00
I00
tp5966
sba(iModules.cell
Cell
p5967
(dp5968
g12
(I00
I00
tp5969
sba(iModules.cell
Cell
p5970
(dp5971
g12
(I00
I00
tp5972
sbaa(lp5973
(iModules.cell
Cell
p5974
(dp5975
g12
(I00
I00
tp5976
sba(iModules.cell
Cell
p5977
(dp5978
g12
(I00
I00
tp5979
sba(iModules.cell
Cell
p5980
(dp5981
g12
(I00
I00
tp5982
sba(iModules.cell
Cell
p5983
(dp5984
g12
(I00
I00
tp5985
sba(iModules.cell
Cell
p5986
(dp5987
g12
(I00
I00
tp5988
sba(iModules.cell
Cell
p5989
(dp5990
g12
(I00
I00
tp5991
sba(iModules.cell
Cell
p5992
(dp5993
g12
(I00
I00
tp5994
sba(iModules.cell
Cell
p5995
(dp5996
g12
(I00
I00
tp5997
sba(iModules.cell
Cell
p5998
(dp5999
g12
(I00
I00
tp6000
sba(iModules.cell
Cell
p6001
(dp6002
g12
(I00
I00
tp6003
sba(iModules.cell
Cell
p6004
(dp6005
g12
(I00
I00
tp6006
sba(iModules.cell
Cell
p6007
(dp6008
g12
(I00
I00
tp6009
sba(iModules.cell
Cell
p6010
(dp6011
g12
(I00
I00
tp6012
sba(iModules.cell
Cell
p6013
(dp6014
g12
(I00
I00
tp6015
sba(iModules.cell
Cell
p6016
(dp6017
g12
(I00
I00
tp6018
sba(iModules.cell
Cell
p6019
(dp6020
g12
(I00
I00
tp6021
sba(iModules.cell
Cell
p6022
(dp6023
g12
(I00
I00
tp6024
sba(iModules.cell
Cell
p6025
(dp6026
g12
(I00
I00
tp6027
sba(iModules.cell
Cell
p6028
(dp6029
g12
(I00
I00
tp6030
sba(iModules.cell
Cell
p6031
(dp6032
g12
(I00
I00
tp6033
sba(iModules.cell
Cell
p6034
(dp6035
g12
(I00
I00
tp6036
sba(iModules.cell
Cell
p6037
(dp6038
g12
(I00
I00
tp6039
sba(iModules.cell
Cell
p6040
(dp6041
g12
(I00
I00
tp6042
sba(iModules.cell
Cell
p6043
(dp6044
g12
(I00
I00
tp6045
sba(iModules.cell
Cell
p6046
(dp6047
g12
(I00
I00
tp6048
sba(iModules.cell
Cell
p6049
(dp6050
g12
(I00
I00
tp6051
sba(iModules.cell
Cell
p6052
(dp6053
g12
(I00
I00
tp6054
sba(iModules.cell
Cell
p6055
(dp6056
g12
(I00
I00
tp6057
sba(iModules.cell
Cell
p6058
(dp6059
g12
(I00
I00
tp6060
sba(iModules.cell
Cell
p6061
(dp6062
g12
(I00
I00
tp6063
sba(iModules.cell
Cell
p6064
(dp6065
g12
(I00
I00
tp6066
sba(iModules.cell
Cell
p6067
(dp6068
g12
(I00
I00
tp6069
sba(iModules.cell
Cell
p6070
(dp6071
g12
(I00
I00
tp6072
sba(iModules.cell
Cell
p6073
(dp6074
g12
(I00
I00
tp6075
sba(iModules.cell
Cell
p6076
(dp6077
g12
(I00
I00
tp6078
sba(iModules.cell
Cell
p6079
(dp6080
g12
(I00
I00
tp6081
sba(iModules.cell
Cell
p6082
(dp6083
g12
(I00
I00
tp6084
sba(iModules.cell
Cell
p6085
(dp6086
g12
(I00
I00
tp6087
sba(iModules.cell
Cell
p6088
(dp6089
g12
(I00
I00
tp6090
sba(iModules.cell
Cell
p6091
(dp6092
g12
(I00
I00
tp6093
sba(iModules.cell
Cell
p6094
(dp6095
g12
(I00
I00
tp6096
sba(iModules.cell
Cell
p6097
(dp6098
g12
(I00
I00
tp6099
sba(iModules.cell
Cell
p6100
(dp6101
g12
(I00
I00
tp6102
sba(iModules.cell
Cell
p6103
(dp6104
g12
(I00
I00
tp6105
sba(iModules.cell
Cell
p6106
(dp6107
g12
(I00
I00
tp6108
sba(iModules.cell
Cell
p6109
(dp6110
g12
(I00
I00
tp6111
sba(iModules.cell
Cell
p6112
(dp6113
g12
(I00
I00
tp6114
sba(iModules.cell
Cell
p6115
(dp6116
g12
(I00
I00
tp6117
sba(iModules.cell
Cell
p6118
(dp6119
g12
(I00
I00
tp6120
sba(iModules.cell
Cell
p6121
(dp6122
g12
(I00
I00
tp6123
sba(iModules.cell
Cell
p6124
(dp6125
g12
(I00
I00
tp6126
sba(iModules.cell
Cell
p6127
(dp6128
g12
(I00
I00
tp6129
sba(iModules.cell
Cell
p6130
(dp6131
g12
(I00
I00
tp6132
sba(iModules.cell
Cell
p6133
(dp6134
g12
(I00
I00
tp6135
sba(iModules.cell
Cell
p6136
(dp6137
g12
(I00
I00
tp6138
sba(iModules.cell
Cell
p6139
(dp6140
g12
(I00
I00
tp6141
sba(iModules.cell
Cell
p6142
(dp6143
g12
(I00
I00
tp6144
sba(iModules.cell
Cell
p6145
(dp6146
g12
(I00
I00
tp6147
sba(iModules.cell
Cell
p6148
(dp6149
g12
(I00
I00
tp6150
sba(iModules.cell
Cell
p6151
(dp6152
g12
(I00
I00
tp6153
sba(iModules.cell
Cell
p6154
(dp6155
g12
(I00
I00
tp6156
sba(iModules.cell
Cell
p6157
(dp6158
g12
(I00
I00
tp6159
sba(iModules.cell
Cell
p6160
(dp6161
g12
(I00
I00
tp6162
sba(iModules.cell
Cell
p6163
(dp6164
g12
(I00
I00
tp6165
sba(iModules.cell
Cell
p6166
(dp6167
g12
(I00
I00
tp6168
sba(iModules.cell
Cell
p6169
(dp6170
g12
(I00
I00
tp6171
sba(iModules.cell
Cell
p6172
(dp6173
g12
(I00
I00
tp6174
sba(iModules.cell
Cell
p6175
(dp6176
g12
(I00
I00
tp6177
sba(iModules.cell
Cell
p6178
(dp6179
g12
(I00
I00
tp6180
sba(iModules.cell
Cell
p6181
(dp6182
g12
(I00
I00
tp6183
sba(iModules.cell
Cell
p6184
(dp6185
g12
(I00
I00
tp6186
sba(iModules.cell
Cell
p6187
(dp6188
g12
(I00
I00
tp6189
sba(iModules.cell
Cell
p6190
(dp6191
g12
(I00
I00
tp6192
sba(iModules.cell
Cell
p6193
(dp6194
g12
(I00
I00
tp6195
sba(iModules.cell
Cell
p6196
(dp6197
g12
(I00
I00
tp6198
sba(iModules.cell
Cell
p6199
(dp6200
g12
(I00
I00
tp6201
sba(iModules.cell
Cell
p6202
(dp6203
g12
(I00
I00
tp6204
sba(iModules.cell
Cell
p6205
(dp6206
g12
(I00
I00
tp6207
sba(iModules.cell
Cell
p6208
(dp6209
g12
(I00
I00
tp6210
sba(iModules.cell
Cell
p6211
(dp6212
g12
(I00
I00
tp6213
sba(iModules.cell
Cell
p6214
(dp6215
g12
(I00
I00
tp6216
sbaa.