(lp0
(lp1
(iModules.cell
Cell
p2
(dp3
S'fov'
p4
I00
sS'pc'
p5
(lp6
I9
aI27
asS'turns'
p7
I1153
sS'hp'
p8
I30
sS'fval'
p9
I0
sS'visible'
p10
I00
sS'explored'
p11
I00
sS'sc'
p12
(lp13
I5
aI20
asS'type'
p14
(I00
I00
tp15
sba(iModules.cell
Cell
p16
(dp17
g10
I00
sg11
I00
sg14
(I00
I00
tp18
sg9
I0
sba(iModules.cell
Cell
p19
(dp20
g10
I00
sg11
I00
sg14
(I00
I00
tp21
sg9
I0
sba(iModules.cell
Cell
p22
(dp23
g10
I00
sg11
I00
sg14
(I00
I00
tp24
sg9
I0
sba(iModules.cell
Cell
p25
(dp26
g10
I00
sg11
I00
sg14
(I00
I00
tp27
sg9
I0
sba(iModules.cell
Cell
p28
(dp29
g10
I00
sg11
I00
sg14
(I00
I00
tp30
sg9
I0
sba(iModules.cell
Cell
p31
(dp32
g10
I00
sg11
I00
sg14
(I00
I00
tp33
sg9
I0
sba(iModules.cell
Cell
p34
(dp35
g10
I00
sg11
I00
sg14
(I00
I00
tp36
sg9
I0
sba(iModules.cell
Cell
p37
(dp38
g10
I00
sg11
I00
sg14
(I00
I00
tp39
sg9
I0
sba(iModules.cell
Cell
p40
(dp41
g10
I00
sg11
I00
sg14
(I00
I00
tp42
sg9
I0
sba(iModules.cell
Cell
p43
(dp44
g10
I00
sg11
I00
sg14
(I00
I00
tp45
sg9
I0
sba(iModules.cell
Cell
p46
(dp47
g10
I00
sg11
I00
sg14
(I00
I00
tp48
sg9
I0
sba(iModules.cell
Cell
p49
(dp50
g10
I00
sg11
I00
sg14
(I00
I00
tp51
sg9
I0
sba(iModules.cell
Cell
p52
(dp53
g10
I00
sg11
I00
sg14
(I00
I00
tp54
sg9
I0
sba(iModules.cell
Cell
p55
(dp56
g10
I00
sg11
I00
sg14
(I00
I00
tp57
sg9
I0
sba(iModules.cell
Cell
p58
(dp59
g10
I00
sg11
I00
sg14
(I00
I00
tp60
sg9
I0
sba(iModules.cell
Cell
p61
(dp62
g10
I00
sg11
I00
sg14
(I00
I00
tp63
sg9
I0
sba(iModules.cell
Cell
p64
(dp65
g10
I00
sg11
I00
sg14
(I00
I00
tp66
sg9
I0
sba(iModules.cell
Cell
p67
(dp68
g10
I00
sg11
I00
sg14
(I00
I00
tp69
sg9
I0
sba(iModules.cell
Cell
p70
(dp71
g10
I00
sg11
I00
sg14
(I00
I00
tp72
sg9
I0
sba(iModules.cell
Cell
p73
(dp74
g10
I00
sg11
I00
sg14
(I00
I00
tp75
sg9
I0
sba(iModules.cell
Cell
p76
(dp77
g10
I00
sg11
I00
sg14
(I00
I00
tp78
sg9
I0
sba(iModules.cell
Cell
p79
(dp80
g10
I00
sg11
I00
sg14
(I00
I00
tp81
sg9
I0
sba(iModules.cell
Cell
p82
(dp83
g10
I00
sg11
I00
sg14
(I00
I00
tp84
sg9
I0
sba(iModules.cell
Cell
p85
(dp86
g10
I00
sg11
I00
sg14
(I00
I00
tp87
sg9
I0
sba(iModules.cell
Cell
p88
(dp89
g10
I00
sg11
I00
sg14
(I00
I00
tp90
sg9
I0
sba(iModules.cell
Cell
p91
(dp92
g10
I00
sg11
I00
sg14
(I00
I00
tp93
sg9
I0
sba(iModules.cell
Cell
p94
(dp95
g10
I00
sg11
I00
sg14
(I00
I00
tp96
sg9
I0
sba(iModules.cell
Cell
p97
(dp98
g10
I00
sg11
I00
sg14
(I00
I00
tp99
sg9
I0
sba(iModules.cell
Cell
p100
(dp101
g10
I00
sg11
I00
sg14
(I00
I00
tp102
sg9
I0
sba(iModules.cell
Cell
p103
(dp104
g10
I00
sg11
I00
sg14
(I00
I00
tp105
sg9
I0
sba(iModules.cell
Cell
p106
(dp107
g10
I00
sg11
I00
sg14
(I00
I00
tp108
sg9
I0
sba(iModules.cell
Cell
p109
(dp110
g10
I00
sg11
I00
sg14
(I00
I00
tp111
sg9
I0
sba(iModules.cell
Cell
p112
(dp113
g10
I00
sg11
I00
sg14
(I00
I00
tp114
sg9
I0
sba(iModules.cell
Cell
p115
(dp116
g10
I00
sg11
I00
sg14
(I00
I00
tp117
sg9
I0
sba(iModules.cell
Cell
p118
(dp119
g10
I00
sg11
I00
sg14
(I00
I00
tp120
sg9
I0
sba(iModules.cell
Cell
p121
(dp122
g10
I00
sg11
I00
sg14
(I00
I00
tp123
sg9
I0
sba(iModules.cell
Cell
p124
(dp125
g10
I00
sg11
I00
sg14
(I00
I00
tp126
sg9
I0
sba(iModules.cell
Cell
p127
(dp128
g10
I00
sg11
I00
sg14
(I00
I00
tp129
sg9
I0
sba(iModules.cell
Cell
p130
(dp131
g10
I00
sg11
I00
sg14
(I00
I00
tp132
sg9
I0
sba(iModules.cell
Cell
p133
(dp134
g10
I00
sg11
I00
sg14
(I00
I00
tp135
sg9
I0
sba(iModules.cell
Cell
p136
(dp137
g10
I00
sg11
I00
sg14
(I00
I00
tp138
sg9
I0
sba(iModules.cell
Cell
p139
(dp140
g10
I00
sg11
I00
sg14
(I00
I00
tp141
sg9
I0
sba(iModules.cell
Cell
p142
(dp143
g10
I00
sg11
I00
sg14
(I00
I00
tp144
sg9
I0
sba(iModules.cell
Cell
p145
(dp146
g10
I00
sg11
I00
sg14
(I00
I00
tp147
sg9
I0
sba(iModules.cell
Cell
p148
(dp149
g10
I00
sg11
I00
sg14
(I00
I00
tp150
sg9
I0
sba(iModules.cell
Cell
p151
(dp152
g10
I00
sg11
I00
sg14
(I00
I00
tp153
sg9
I0
sba(iModules.cell
Cell
p154
(dp155
g10
I00
sg11
I00
sg14
(I00
I00
tp156
sg9
I0
sba(iModules.cell
Cell
p157
(dp158
g10
I00
sg11
I00
sg14
(I00
I00
tp159
sg9
I0
sba(iModules.cell
Cell
p160
(dp161
g10
I00
sg11
I00
sg14
(I00
I00
tp162
sg9
I0
sba(iModules.cell
Cell
p163
(dp164
g10
I00
sg11
I00
sg14
(I00
I00
tp165
sg9
I0
sba(iModules.cell
Cell
p166
(dp167
g10
I00
sg11
I00
sg14
(I00
I00
tp168
sg9
I0
sba(iModules.cell
Cell
p169
(dp170
g10
I00
sg11
I00
sg14
(I00
I00
tp171
sg9
I0
sba(iModules.cell
Cell
p172
(dp173
g10
I00
sg11
I00
sg14
(I00
I00
tp174
sg9
I0
sba(iModules.cell
Cell
p175
(dp176
g10
I00
sg11
I00
sg14
(I00
I00
tp177
sg9
I0
sba(iModules.cell
Cell
p178
(dp179
g10
I00
sg11
I00
sg14
(I00
I00
tp180
sg9
I0
sba(iModules.cell
Cell
p181
(dp182
g10
I00
sg11
I00
sg14
(I00
I00
tp183
sg9
I0
sba(iModules.cell
Cell
p184
(dp185
g10
I00
sg11
I00
sg14
(I00
I00
tp186
sg9
I0
sba(iModules.cell
Cell
p187
(dp188
g10
I00
sg11
I00
sg14
(I00
I00
tp189
sg9
I0
sba(iModules.cell
Cell
p190
(dp191
g10
I00
sg11
I00
sg14
(I00
I00
tp192
sg9
I0
sba(iModules.cell
Cell
p193
(dp194
g10
I00
sg11
I00
sg14
(I00
I00
tp195
sg9
I0
sba(iModules.cell
Cell
p196
(dp197
g10
I00
sg11
I00
sg14
(I00
I00
tp198
sg9
I0
sba(iModules.cell
Cell
p199
(dp200
g10
I00
sg11
I00
sg14
(I00
I00
tp201
sg9
I0
sba(iModules.cell
Cell
p202
(dp203
g10
I00
sg11
I00
sg14
(I00
I00
tp204
sg9
I0
sba(iModules.cell
Cell
p205
(dp206
g10
I00
sg11
I00
sg14
(I00
I00
tp207
sg9
I0
sba(iModules.cell
Cell
p208
(dp209
g10
I00
sg11
I00
sg14
(I00
I00
tp210
sg9
I0
sba(iModules.cell
Cell
p211
(dp212
g10
I00
sg11
I00
sg14
(I00
I00
tp213
sg9
I0
sba(iModules.cell
Cell
p214
(dp215
g10
I00
sg11
I00
sg14
(I00
I00
tp216
sg9
I0
sba(iModules.cell
Cell
p217
(dp218
g10
I00
sg11
I00
sg14
(I00
I00
tp219
sg9
I0
sba(iModules.cell
Cell
p220
(dp221
g10
I00
sg11
I00
sg14
(I00
I00
tp222
sg9
I0
sba(iModules.cell
Cell
p223
(dp224
g10
I00
sg11
I00
sg14
(I00
I00
tp225
sg9
I0
sba(iModules.cell
Cell
p226
(dp227
g10
I00
sg11
I00
sg14
(I00
I00
tp228
sg9
I0
sba(iModules.cell
Cell
p229
(dp230
g10
I00
sg11
I00
sg14
(I00
I00
tp231
sg9
I0
sba(iModules.cell
Cell
p232
(dp233
g10
I00
sg11
I00
sg14
(I00
I00
tp234
sg9
I0
sba(iModules.cell
Cell
p235
(dp236
g10
I00
sg11
I00
sg14
(I00
I00
tp237
sg9
I0
sba(iModules.cell
Cell
p238
(dp239
g10
I00
sg11
I00
sg14
(I00
I00
tp240
sg9
I0
sba(iModules.cell
Cell
p241
(dp242
g10
I00
sg11
I00
sg14
(I00
I00
tp243
sg9
I0
sba(iModules.cell
Cell
p244
(dp245
g10
I00
sg11
I00
sg14
(I00
I00
tp246
sg9
I0
sba(iModules.cell
Cell
p247
(dp248
g10
I00
sg11
I00
sg14
(I00
I00
tp249
sg9
I0
sba(iModules.cell
Cell
p250
(dp251
g10
I00
sg11
I00
sg14
(I00
I00
tp252
sg9
I0
sba(iModules.cell
Cell
p253
(dp254
g14
(I00
I00
tp255
sbaa(lp256
(iModules.cell
Cell
p257
(dp258
g10
I00
sg11
I00
sg14
(I00
I00
tp259
sg9
I0
sba(iModules.cell
Cell
p260
(dp261
g10
I00
sS'explored'
p262
I00
sg14
(I00
I00
tp263
sg9
I0
sba(iModules.cell
Cell
p264
(dp265
g10
I00
sg262
I00
sg14
(I00
I00
tp266
sg9
I0
sba(iModules.cell
Cell
p267
(dp268
g10
I00
sg262
I00
sg14
(I00
I00
tp269
sg9
I0
sba(iModules.cell
Cell
p270
(dp271
g10
I00
sg262
I00
sg14
(I00
I00
tp272
sg9
I0
sba(iModules.cell
Cell
p273
(dp274
g10
I00
sg262
I00
sg14
(I00
I00
tp275
sg9
I0
sba(iModules.cell
Cell
p276
(dp277
g10
I00
sg262
I00
sg14
(I00
I00
tp278
sg9
I0
sba(iModules.cell
Cell
p279
(dp280
g10
I00
sg262
I00
sg14
(I00
I00
tp281
sg9
I0
sba(iModules.cell
Cell
p282
(dp283
g10
I00
sg262
I00
sg14
(I00
I00
tp284
sg9
I0
sba(iModules.cell
Cell
p285
(dp286
g10
I00
sg262
I00
sg14
(I00
I00
tp287
sg9
I0
sba(iModules.cell
Cell
p288
(dp289
g10
I00
sg262
I00
sg14
(I00
I00
tp290
sg9
I0
sba(iModules.cell
Cell
p291
(dp292
g10
I00
sg262
I00
sg14
(I00
I00
tp293
sg9
I0
sba(iModules.cell
Cell
p294
(dp295
g10
I00
sg262
I00
sg14
(I00
I00
tp296
sg9
I0
sba(iModules.cell
Cell
p297
(dp298
g10
I00
sg262
I00
sg14
(I00
I00
tp299
sg9
I0
sba(iModules.cell
Cell
p300
(dp301
g10
I00
sg262
I00
sg14
(I00
I00
tp302
sg9
I0
sba(iModules.cell
Cell
p303
(dp304
g10
I00
sg262
I00
sg14
(I00
I00
tp305
sg9
I0
sba(iModules.cell
Cell
p306
(dp307
g10
I00
sg262
I00
sg14
(I00
I00
tp308
sg9
I0
sba(iModules.cell
Cell
p309
(dp310
g10
I00
sg262
I00
sg14
(I00
I00
tp311
sg9
I0
sba(iModules.cell
Cell
p312
(dp313
g10
I00
sg262
I00
sg14
(I00
I00
tp314
sg9
I0
sba(iModules.cell
Cell
p315
(dp316
g10
I00
sg262
I00
sg14
(I00
I00
tp317
sg9
I0
sba(iModules.cell
Cell
p318
(dp319
g10
I00
sg262
I00
sg14
(I00
I00
tp320
sg9
I0
sba(iModules.cell
Cell
p321
(dp322
g10
I00
sg262
I00
sg14
(I00
I00
tp323
sg9
I0
sba(iModules.cell
Cell
p324
(dp325
g10
I00
sg262
I00
sg14
(I00
I00
tp326
sg9
I0
sba(iModules.cell
Cell
p327
(dp328
g10
I00
sg262
I00
sg14
(I00
I00
tp329
sg9
I0
sba(iModules.cell
Cell
p330
(dp331
g10
I00
sg262
I00
sg14
(I00
I00
tp332
sg9
I0
sba(iModules.cell
Cell
p333
(dp334
g10
I00
sg262
I00
sg14
(I00
I00
tp335
sg9
I0
sba(iModules.cell
Cell
p336
(dp337
g10
I00
sg262
I00
sg14
(I00
I00
tp338
sg9
I0
sba(iModules.cell
Cell
p339
(dp340
g10
I00
sg262
I00
sg14
(I00
I00
tp341
sg9
I0
sba(iModules.cell
Cell
p342
(dp343
g10
I00
sg262
I00
sg14
(I00
I00
tp344
sg9
I0
sba(iModules.cell
Cell
p345
(dp346
g10
I00
sg262
I00
sg14
(I00
I00
tp347
sg9
I0
sba(iModules.cell
Cell
p348
(dp349
g10
I00
sg262
I00
sg14
(I00
I00
tp350
sg9
I0
sba(iModules.cell
Cell
p351
(dp352
g10
I00
sg262
I00
sg14
(I00
I00
tp353
sg9
I0
sba(iModules.cell
Cell
p354
(dp355
g10
I00
sg262
I00
sg14
(I00
I00
tp356
sg9
I0
sba(iModules.cell
Cell
p357
(dp358
g10
I00
sg262
I00
sg14
(I00
I00
tp359
sg9
I0
sba(iModules.cell
Cell
p360
(dp361
g10
I00
sg262
I00
sg14
(I00
I00
tp362
sg9
I0
sba(iModules.cell
Cell
p363
(dp364
g10
I00
sg262
I00
sg14
(I00
I00
tp365
sg9
I0
sba(iModules.cell
Cell
p366
(dp367
g10
I00
sg262
I00
sg14
(I00
I00
tp368
sg9
I0
sba(iModules.cell
Cell
p369
(dp370
g10
I00
sg262
I00
sg14
(I00
I00
tp371
sg9
I0
sba(iModules.cell
Cell
p372
(dp373
g10
I00
sg11
I00
sg14
(I00
I00
tp374
sg9
I0
sba(iModules.cell
Cell
p375
(dp376
g10
I00
sg11
I00
sg14
(I00
I00
tp377
sg9
I0
sba(iModules.cell
Cell
p378
(dp379
g10
I00
sg11
I00
sg14
(I00
I00
tp380
sg9
I0
sba(iModules.cell
Cell
p381
(dp382
g10
I00
sg11
I00
sg14
(I00
I00
tp383
sg9
I0
sba(iModules.cell
Cell
p384
(dp385
g10
I00
sg11
I00
sg14
(I00
I00
tp386
sg9
I0
sba(iModules.cell
Cell
p387
(dp388
g10
I00
sg11
I00
sg14
(I00
I00
tp389
sg9
I0
sba(iModules.cell
Cell
p390
(dp391
g10
I00
sg11
I00
sg14
(I00
I00
tp392
sg9
I0
sba(iModules.cell
Cell
p393
(dp394
g10
I00
sg11
I00
sg14
(I00
I00
tp395
sg9
I0
sba(iModules.cell
Cell
p396
(dp397
g10
I00
sg11
I00
sg14
(I00
I00
tp398
sg9
I0
sba(iModules.cell
Cell
p399
(dp400
g10
I00
sg11
I00
sg14
(I00
I00
tp401
sg9
I0
sba(iModules.cell
Cell
p402
(dp403
g10
I00
sg11
I00
sg14
(I00
I00
tp404
sg9
I0
sba(iModules.cell
Cell
p405
(dp406
g10
I00
sg11
I00
sg14
(I00
I00
tp407
sg9
I0
sba(iModules.cell
Cell
p408
(dp409
g10
I00
sg11
I00
sg14
(I00
I00
tp410
sg9
I0
sba(iModules.cell
Cell
p411
(dp412
g10
I00
sg11
I00
sg14
(I00
I00
tp413
sg9
I0
sba(iModules.cell
Cell
p414
(dp415
g10
I00
sg11
I00
sg14
(I00
I00
tp416
sg9
I0
sba(iModules.cell
Cell
p417
(dp418
g10
I00
sg11
I00
sg14
(I00
I00
tp419
sg9
I0
sba(iModules.cell
Cell
p420
(dp421
g10
I00
sg11
I00
sg14
(I00
I00
tp422
sg9
I0
sba(iModules.cell
Cell
p423
(dp424
g10
I00
sg11
I00
sg14
(I00
I00
tp425
sg9
I0
sba(iModules.cell
Cell
p426
(dp427
g10
I00
sg11
I00
sg14
(I00
I00
tp428
sg9
I0
sba(iModules.cell
Cell
p429
(dp430
g10
I00
sg11
I00
sg14
(I00
I00
tp431
sg9
I0
sba(iModules.cell
Cell
p432
(dp433
g10
I00
sg11
I00
sg14
(I00
I00
tp434
sg9
I0
sba(iModules.cell
Cell
p435
(dp436
g10
I00
sg11
I00
sg14
(I00
I00
tp437
sg9
I0
sba(iModules.cell
Cell
p438
(dp439
g10
I00
sg11
I00
sg14
(I00
I00
tp440
sg9
I0
sba(iModules.cell
Cell
p441
(dp442
g10
I00
sg11
I00
sg14
(I00
I00
tp443
sg9
I0
sba(iModules.cell
Cell
p444
(dp445
g10
I00
sg11
I00
sg14
(I00
I00
tp446
sg9
I0
sba(iModules.cell
Cell
p447
(dp448
g10
I00
sg11
I00
sg14
(I00
I00
tp449
sg9
I0
sba(iModules.cell
Cell
p450
(dp451
g10
I00
sg11
I00
sg14
(I00
I00
tp452
sg9
I0
sba(iModules.cell
Cell
p453
(dp454
g10
I00
sg11
I00
sg14
(I00
I00
tp455
sg9
I0
sba(iModules.cell
Cell
p456
(dp457
g10
I00
sg11
I00
sg14
(I00
I00
tp458
sg9
I0
sba(iModules.cell
Cell
p459
(dp460
g10
I00
sg11
I00
sg14
(I00
I00
tp461
sg9
I0
sba(iModules.cell
Cell
p462
(dp463
g10
I00
sg11
I00
sg14
(I00
I00
tp464
sg9
I0
sba(iModules.cell
Cell
p465
(dp466
g10
I00
sg11
I00
sg14
(I00
I00
tp467
sg9
I0
sba(iModules.cell
Cell
p468
(dp469
g10
I00
sg11
I00
sg14
(I00
I00
tp470
sg9
I0
sba(iModules.cell
Cell
p471
(dp472
g10
I00
sg11
I00
sg14
(I00
I00
tp473
sg9
I0
sba(iModules.cell
Cell
p474
(dp475
g10
I00
sg11
I00
sg14
(I00
I00
tp476
sg9
I0
sba(iModules.cell
Cell
p477
(dp478
g10
I00
sg11
I00
sg14
(I00
I00
tp479
sg9
I0
sba(iModules.cell
Cell
p480
(dp481
g10
I00
sg11
I00
sg14
(I00
I00
tp482
sg9
I0
sba(iModules.cell
Cell
p483
(dp484
g10
I00
sg11
I00
sg14
(I00
I00
tp485
sg9
I0
sba(iModules.cell
Cell
p486
(dp487
g10
I00
sg11
I00
sg14
(I00
I00
tp488
sg9
I0
sba(iModules.cell
Cell
p489
(dp490
g10
I00
sg11
I00
sg14
(I00
I00
tp491
sg9
I0
sba(iModules.cell
Cell
p492
(dp493
g10
I00
sg11
I00
sg14
(I00
I00
tp494
sg9
I0
sba(iModules.cell
Cell
p495
(dp496
g10
I00
sg11
I00
sg14
(I00
I00
tp497
sg9
I0
sba(iModules.cell
Cell
p498
(dp499
g14
(I00
I00
tp500
sbaa(lp501
(iModules.cell
Cell
p502
(dp503
g10
I00
sg11
I00
sg14
(I00
I00
tp504
sg9
I0
sba(iModules.cell
Cell
p505
(dp506
g10
I00
sg262
I00
sg14
(I00
I00
tp507
sg9
I0
sba(iModules.cell
Cell
p508
(dp509
g10
I00
sg262
I00
sg14
(I01
I01
tp510
sg9
I1
sba(iModules.cell
Cell
p511
(dp512
g10
I00
sg262
I00
sg14
(I01
I01
tp513
sg9
I1
sba(iModules.cell
Cell
p514
(dp515
g10
I00
sg262
I01
sg14
(I00
I00
I00
tp516
sg9
I0
sba(iModules.cell
Cell
p517
(dp518
g10
I00
sg262
I01
sg14
(I00
I00
I00
tp519
sg9
I0
sba(iModules.cell
Cell
p520
(dp521
g10
I00
sg262
I01
sg14
(I00
I00
I00
tp522
sg9
I0
sba(iModules.cell
Cell
p523
(dp524
g10
I00
sg262
I01
sg14
(I00
I00
I00
tp525
sg9
I0
sba(iModules.cell
Cell
p526
(dp527
g10
I00
sg262
I01
sg14
(I00
I00
I00
tp528
sg9
I0
sba(iModules.cell
Cell
p529
(dp530
g10
I00
sg262
I01
sg14
(I00
I00
I00
tp531
sg9
I0
sba(iModules.cell
Cell
p532
(dp533
g10
I00
sg262
I01
sg14
(I00
I00
I00
tp534
sg9
I0
sba(iModules.cell
Cell
p535
(dp536
g10
I00
sg262
I01
sg14
(I00
I00
I00
tp537
sg9
I0
sba(iModules.cell
Cell
p538
(dp539
g10
I00
sg262
I01
sg14
(I00
I00
I00
tp540
sg9
I0
sba(iModules.cell
Cell
p541
(dp542
g10
I00
sg262
I01
sg14
(I00
I00
I00
tp543
sg9
I0
sba(iModules.cell
Cell
p544
(dp545
g10
I00
sg262
I01
sg14
(I00
I00
I00
tp546
sg9
I0
sba(iModules.cell
Cell
p547
(dp548
g10
I00
sg262
I01
sg14
(I00
I00
I00
tp549
sg9
I0
sba(iModules.cell
Cell
p550
(dp551
g10
I00
sg262
I01
sg14
(I00
I00
I00
tp552
sg9
I0
sba(iModules.cell
Cell
p553
(dp554
g10
I00
sg262
I01
sg14
(I00
I00
I00
tp555
sg9
I0
sba(iModules.cell
Cell
p556
(dp557
g10
I00
sg262
I01
sg14
(I00
I00
I00
tp558
sg9
I0
sba(iModules.cell
Cell
p559
(dp560
g10
I00
sg262
I00
sg14
(I01
I01
tp561
sg9
I0
sba(iModules.cell
Cell
p562
(dp563
g10
I00
sg262
I00
sg14
(I01
I01
tp564
sg9
I0
sba(iModules.cell
Cell
p565
(dp566
g10
I00
sg262
I01
sg14
(I00
I00
I00
tp567
sg9
I0
sba(iModules.cell
Cell
p568
(dp569
g10
I00
sg262
I01
sg14
(I00
I00
I00
tp570
sg9
I0
sba(iModules.cell
Cell
p571
(dp572
g10
I00
sg262
I01
sg14
(I00
I00
I00
tp573
sg9
I0
sba(iModules.cell
Cell
p574
(dp575
g10
I00
sg262
I00
sg14
(I01
I01
tp576
sg9
I1
sba(iModules.cell
Cell
p577
(dp578
g10
I00
sg262
I00
sg14
(I01
I01
tp579
sg9
I1
sba(iModules.cell
Cell
p580
(dp581
g10
I00
sg262
I00
sg14
(I01
I01
tp582
sg9
I1
sba(iModules.cell
Cell
p583
(dp584
g10
I00
sg262
I00
sg14
(I01
I01
tp585
sg9
I1
sba(iModules.cell
Cell
p586
(dp587
g10
I00
sg262
I00
sg14
(I01
I01
tp588
sg9
I1
sba(iModules.cell
Cell
p589
(dp590
g10
I00
sg262
I00
sg14
(I01
I01
tp591
sg9
I1
sba(iModules.cell
Cell
p592
(dp593
g10
I00
sg262
I00
sg14
(I01
I01
tp594
sg9
I1
sba(iModules.cell
Cell
p595
(dp596
g10
I00
sg262
I00
sg14
(I01
I01
tp597
sg9
I1
sba(iModules.cell
Cell
p598
(dp599
g10
I00
sg262
I00
sg14
(I01
I01
tp600
sg9
I1
sba(iModules.cell
Cell
p601
(dp602
g10
I00
sg262
I00
sg14
(I01
I01
tp603
sg9
I1
sba(iModules.cell
Cell
p604
(dp605
g10
I00
sg262
I00
sg14
(I01
I01
tp606
sg9
I1
sba(iModules.cell
Cell
p607
(dp608
g10
I00
sg262
I00
sg14
(I01
I01
tp609
sg9
I1
sba(iModules.cell
Cell
p610
(dp611
g10
I00
sg262
I00
sg14
(I01
I01
tp612
sg9
I1
sba(iModules.cell
Cell
p613
(dp614
g10
I00
sg262
I00
sg14
(I01
I01
tp615
sg9
I1
sba(iModules.cell
Cell
p616
(dp617
g10
I00
sg11
I00
sg14
(I01
I01
tp618
sg9
I1
sba(iModules.cell
Cell
p619
(dp620
g10
I00
sg11
I00
sg14
(I01
I01
tp621
sg9
I1
sba(iModules.cell
Cell
p622
(dp623
g10
I00
sg11
I00
sg14
(I01
I01
tp624
sg9
I1
sba(iModules.cell
Cell
p625
(dp626
g10
I00
sg11
I00
sg14
(I01
I01
tp627
sg9
I1
sba(iModules.cell
Cell
p628
(dp629
g10
I00
sg11
I00
sg14
(I01
I01
tp630
sg9
I1
sba(iModules.cell
Cell
p631
(dp632
g10
I00
sg11
I00
sg14
(I01
I01
tp633
sg9
I1
sba(iModules.cell
Cell
p634
(dp635
g10
I00
sg11
I00
sg14
(I01
I01
tp636
sg9
I1
sba(iModules.cell
Cell
p637
(dp638
g10
I00
sg11
I00
sg14
(I01
I01
tp639
sg9
I1
sba(iModules.cell
Cell
p640
(dp641
g10
I00
sg11
I00
sg14
(I01
I01
tp642
sg9
I1
sba(iModules.cell
Cell
p643
(dp644
g10
I00
sg11
I00
sg14
(I01
I01
tp645
sg9
I1
sba(iModules.cell
Cell
p646
(dp647
g10
I00
sg11
I00
sg14
(I01
I01
tp648
sg9
I1
sba(iModules.cell
Cell
p649
(dp650
g10
I00
sg11
I00
sg14
(I01
I01
tp651
sg9
I1
sba(iModules.cell
Cell
p652
(dp653
g10
I00
sg11
I00
sg14
(I01
I01
tp654
sg9
I1
sba(iModules.cell
Cell
p655
(dp656
g10
I00
sg11
I00
sg14
(I01
I01
tp657
sg9
I1
sba(iModules.cell
Cell
p658
(dp659
g10
I00
sg11
I00
sg14
(I01
I01
tp660
sg9
I1
sba(iModules.cell
Cell
p661
(dp662
g10
I00
sg11
I00
sg14
(I01
I01
tp663
sg9
I1
sba(iModules.cell
Cell
p664
(dp665
g10
I00
sg11
I00
sg14
(I01
I01
tp666
sg9
I1
sba(iModules.cell
Cell
p667
(dp668
g10
I00
sg11
I00
sg14
(I01
I01
tp669
sg9
I1
sba(iModules.cell
Cell
p670
(dp671
g10
I00
sg11
I00
sg14
(I01
I01
tp672
sg9
I1
sba(iModules.cell
Cell
p673
(dp674
g10
I00
sg11
I00
sg14
(I01
I01
tp675
sg9
I1
sba(iModules.cell
Cell
p676
(dp677
g10
I00
sg11
I00
sg14
(I01
I01
tp678
sg9
I1
sba(iModules.cell
Cell
p679
(dp680
g10
I00
sg11
I00
sg14
(I01
I01
tp681
sg9
I1
sba(iModules.cell
Cell
p682
(dp683
g10
I00
sg11
I00
sg14
(I01
I01
tp684
sg9
I1
sba(iModules.cell
Cell
p685
(dp686
g10
I00
sg11
I00
sg14
(I00
I00
tp687
sg9
I0
sba(iModules.cell
Cell
p688
(dp689
g10
I00
sg11
I00
sg14
(I00
I00
tp690
sg9
I0
sba(iModules.cell
Cell
p691
(dp692
g10
I00
sg11
I00
sg14
(I00
I00
tp693
sg9
I0
sba(iModules.cell
Cell
p694
(dp695
g10
I00
sg11
I00
sg14
(I00
I00
tp696
sg9
I0
sba(iModules.cell
Cell
p697
(dp698
g10
I00
sg11
I00
sg14
(I00
I00
tp699
sg9
I0
sba(iModules.cell
Cell
p700
(dp701
g10
I00
sg11
I00
sg14
(I00
I00
tp702
sg9
I0
sba(iModules.cell
Cell
p703
(dp704
g10
I00
sg11
I00
sg14
(I00
I00
tp705
sg9
I0
sba(iModules.cell
Cell
p706
(dp707
g10
I00
sg11
I00
sg14
(I00
I00
tp708
sg9
I0
sba(iModules.cell
Cell
p709
(dp710
g10
I00
sg11
I00
sg14
(I00
I00
tp711
sg9
I0
sba(iModules.cell
Cell
p712
(dp713
g10
I00
sg11
I00
sg14
(I00
I00
tp714
sg9
I0
sba(iModules.cell
Cell
p715
(dp716
g10
I00
sg11
I00
sg14
(I00
I00
tp717
sg9
I0
sba(iModules.cell
Cell
p718
(dp719
g10
I00
sg11
I00
sg14
(I00
I00
tp720
sg9
I0
sba(iModules.cell
Cell
p721
(dp722
g10
I00
sg11
I00
sg14
(I00
I00
tp723
sg9
I0
sba(iModules.cell
Cell
p724
(dp725
g10
I00
sg11
I00
sg14
(I00
I00
tp726
sg9
I0
sba(iModules.cell
Cell
p727
(dp728
g10
I00
sg11
I00
sg14
(I00
I00
tp729
sg9
I0
sba(iModules.cell
Cell
p730
(dp731
g10
I00
sg11
I00
sg14
(I00
I00
tp732
sg9
I0
sba(iModules.cell
Cell
p733
(dp734
g10
I00
sg11
I00
sg14
(I00
I00
tp735
sg9
I0
sba(iModules.cell
Cell
p736
(dp737
g10
I00
sg11
I00
sg14
(I00
I00
tp738
sg9
I0
sba(iModules.cell
Cell
p739
(dp740
g10
I00
sg11
I00
sg14
(I00
I00
tp741
sg9
I0
sba(iModules.cell
Cell
p742
(dp743
g14
(I00
I00
tp744
sbaa(lp745
(iModules.cell
Cell
p746
(dp747
g10
I00
sg11
I00
sg14
(I00
I00
tp748
sg9
I0
sba(iModules.cell
Cell
p749
(dp750
g10
I00
sg262
I00
sg14
(I00
I00
tp751
sg9
I0
sba(iModules.cell
Cell
p752
(dp753
g10
I00
sg262
I00
sg14
(I01
I01
tp754
sg9
I1
sba(iModules.cell
Cell
p755
(dp756
g10
I00
sg262
I00
sg14
(I01
I01
tp757
sg9
I1
sba(iModules.cell
Cell
p758
(dp759
g10
I00
sg262
I01
sg14
(I00
I00
I00
tp760
sg9
I0
sba(iModules.cell
Cell
p761
(dp762
g10
I00
sg262
I01
sg14
(I01
I01
tp763
sg9
I0
sba(iModules.cell
Cell
p764
(dp765
g10
I00
sg262
I01
sg14
(I01
I01
tp766
sg9
I0
sba(iModules.cell
Cell
p767
(dp768
g10
I00
sg262
I01
sg14
(I01
I01
tp769
sg9
I0
sba(iModules.cell
Cell
p770
(dp771
g10
I00
sg262
I01
sg14
(I01
I01
tp772
sg9
I0
sba(iModules.cell
Cell
p773
(dp774
g10
I00
sg262
I01
sg14
(I01
I01
tp775
sg9
I0
sba(iModules.cell
Cell
p776
(dp777
g10
I00
sg262
I01
sg14
(I01
I01
tp778
sg9
I0
sba(iModules.cell
Cell
p779
(dp780
g10
I00
sg262
I01
sg14
(I01
I01
tp781
sg9
I0
sba(iModules.cell
Cell
p782
(dp783
g10
I00
sg262
I01
sg14
(I01
I01
tp784
sg9
I0
sba(iModules.cell
Cell
p785
(dp786
g10
I00
sg262
I01
sg14
(I01
I01
tp787
sg9
I0
sba(iModules.cell
Cell
p788
(dp789
g10
I00
sg262
I01
sg14
(I01
I01
tp790
sg9
I0
sba(iModules.cell
Cell
p791
(dp792
g10
I00
sg262
I01
sg14
(I01
I01
tp793
sg9
I0
sba(iModules.cell
Cell
p794
(dp795
g10
I00
sg262
I01
sg14
(I01
I01
tp796
sg9
I0
sba(iModules.cell
Cell
p797
(dp798
g10
I00
sg262
I01
sg14
(I01
I01
tp799
sg9
I0
sba(iModules.cell
Cell
p800
(dp801
g10
I00
sg262
I01
sg14
(I00
I00
I00
tp802
sg9
I0
sba(iModules.cell
Cell
p803
(dp804
g10
I00
sg262
I00
sg14
(I01
I01
tp805
sg9
I0
sba(iModules.cell
Cell
p806
(dp807
g10
I00
sg262
I00
sg14
(I01
I01
tp808
sg9
I0
sba(iModules.cell
Cell
p809
(dp810
g10
I00
sg262
I01
sg14
(I00
I00
I00
tp811
sg9
I0
sba(iModules.cell
Cell
p812
(dp813
S'visible'
p814
I00
sS'explored'
p815
I01
sS'type'
p816
(I01
I01
tp817
sS'fval'
p818
I0
sba(iModules.cell
Cell
p819
(dp820
g10
I00
sg262
I01
sg14
(I00
I00
I00
tp821
sg9
I0
sba(iModules.cell
Cell
p822
(dp823
g10
I00
sg262
I00
sg14
(I01
I01
tp824
sg9
I1
sba(iModules.cell
Cell
p825
(dp826
g10
I00
sg262
I00
sg14
(I01
I01
tp827
sg9
I1
sba(iModules.cell
Cell
p828
(dp829
g10
I00
sg262
I00
sg14
(I01
I01
tp830
sg9
I1
sba(iModules.cell
Cell
p831
(dp832
g10
I00
sg262
I00
sg14
(I01
I01
tp833
sg9
I1
sba(iModules.cell
Cell
p834
(dp835
g10
I00
sg262
I00
sg14
(I01
I01
tp836
sg9
I1
sba(iModules.cell
Cell
p837
(dp838
g10
I00
sg262
I00
sg14
(I01
I01
tp839
sg9
I1
sba(iModules.cell
Cell
p840
(dp841
g10
I00
sg262
I00
sg14
(I01
I01
tp842
sg9
I1
sba(iModules.cell
Cell
p843
(dp844
g10
I00
sg262
I00
sg14
(I01
I01
tp845
sg9
I1
sba(iModules.cell
Cell
p846
(dp847
g10
I00
sg262
I00
sg14
(I01
I01
tp848
sg9
I1
sba(iModules.cell
Cell
p849
(dp850
g10
I00
sg262
I00
sg14
(I01
I01
tp851
sg9
I1
sba(iModules.cell
Cell
p852
(dp853
g10
I00
sg262
I00
sg14
(I01
I01
tp854
sg9
I1
sba(iModules.cell
Cell
p855
(dp856
g10
I00
sg262
I00
sg14
(I01
I01
tp857
sg9
I1
sba(iModules.cell
Cell
p858
(dp859
g10
I00
sg262
I00
sg14
(I01
I01
tp860
sg9
I1
sba(iModules.cell
Cell
p861
(dp862
g10
I00
sg262
I00
sg14
(I01
I01
tp863
sg9
I1
sba(iModules.cell
Cell
p864
(dp865
g10
I00
sg11
I00
sg14
(I01
I01
tp866
sg9
I1
sba(iModules.cell
Cell
p867
(dp868
g10
I00
sg11
I00
sg14
(I01
I01
tp869
sg9
I1
sba(iModules.cell
Cell
p870
(dp871
g10
I00
sg11
I00
sg14
(I01
I01
tp872
sg9
I1
sba(iModules.cell
Cell
p873
(dp874
g10
I00
sg11
I00
sg14
(I01
I01
tp875
sg9
I1
sba(iModules.cell
Cell
p876
(dp877
g10
I00
sg11
I00
sg14
(I01
I01
tp878
sg9
I1
sba(iModules.cell
Cell
p879
(dp880
g10
I00
sg11
I00
sg14
(I01
I01
tp881
sg9
I1
sba(iModules.cell
Cell
p882
(dp883
g10
I00
sg11
I00
sg14
(I01
I01
tp884
sg9
I1
sba(iModules.cell
Cell
p885
(dp886
g10
I00
sg11
I00
sg14
(I01
I01
tp887
sg9
I1
sba(iModules.cell
Cell
p888
(dp889
g10
I00
sg11
I00
sg14
(I01
I01
tp890
sg9
I1
sba(iModules.cell
Cell
p891
(dp892
g10
I00
sg11
I00
sg14
(I01
I01
tp893
sg9
I1
sba(iModules.cell
Cell
p894
(dp895
g10
I00
sg11
I00
sg14
(I01
I01
tp896
sg9
I1
sba(iModules.cell
Cell
p897
(dp898
g10
I00
sg11
I00
sg14
(I01
I01
tp899
sg9
I1
sba(iModules.cell
Cell
p900
(dp901
g10
I00
sg11
I00
sg14
(I01
I01
tp902
sg9
I1
sba(iModules.cell
Cell
p903
(dp904
g10
I00
sg11
I00
sg14
(I01
I01
tp905
sg9
I1
sba(iModules.cell
Cell
p906
(dp907
g10
I00
sg11
I00
sg14
(I01
I01
tp908
sg9
I1
sba(iModules.cell
Cell
p909
(dp910
g10
I00
sg11
I00
sg14
(I01
I01
tp911
sg9
I1
sba(iModules.cell
Cell
p912
(dp913
g10
I00
sg11
I00
sg14
(I01
I01
tp914
sg9
I1
sba(iModules.cell
Cell
p915
(dp916
g10
I00
sg11
I00
sg14
(I01
I01
tp917
sg9
I1
sba(iModules.cell
Cell
p918
(dp919
g10
I00
sg11
I00
sg14
(I01
I01
tp920
sg9
I1
sba(iModules.cell
Cell
p921
(dp922
g10
I00
sg11
I00
sg14
(I01
I01
tp923
sg9
I1
sba(iModules.cell
Cell
p924
(dp925
g10
I00
sg11
I00
sg14
(I01
I01
tp926
sg9
I1
sba(iModules.cell
Cell
p927
(dp928
g10
I00
sg11
I00
sg14
(I01
I01
tp929
sg9
I1
sba(iModules.cell
Cell
p930
(dp931
g10
I00
sg11
I00
sg14
(I01
I01
tp932
sg9
I1
sba(iModules.cell
Cell
p933
(dp934
g10
I00
sg11
I00
sg14
(I00
I00
tp935
sg9
I0
sba(iModules.cell
Cell
p936
(dp937
g10
I00
sg11
I00
sg14
(I00
I00
tp938
sg9
I0
sba(iModules.cell
Cell
p939
(dp940
g10
I00
sg11
I00
sg14
(I00
I00
tp941
sg9
I0
sba(iModules.cell
Cell
p942
(dp943
g10
I00
sg11
I00
sg14
(I00
I00
tp944
sg9
I0
sba(iModules.cell
Cell
p945
(dp946
g10
I00
sg11
I00
sg14
(I00
I00
tp947
sg9
I0
sba(iModules.cell
Cell
p948
(dp949
g10
I00
sg11
I00
sg14
(I00
I00
tp950
sg9
I0
sba(iModules.cell
Cell
p951
(dp952
g10
I00
sg11
I00
sg14
(I00
I00
tp953
sg9
I0
sba(iModules.cell
Cell
p954
(dp955
g10
I00
sg11
I00
sg14
(I00
I00
tp956
sg9
I0
sba(iModules.cell
Cell
p957
(dp958
g10
I00
sg11
I00
sg14
(I00
I00
tp959
sg9
I0
sba(iModules.cell
Cell
p960
(dp961
g10
I00
sg11
I00
sg14
(I00
I00
tp962
sg9
I0
sba(iModules.cell
Cell
p963
(dp964
g10
I00
sg11
I00
sg14
(I00
I00
tp965
sg9
I0
sba(iModules.cell
Cell
p966
(dp967
g10
I00
sg11
I00
sg14
(I00
I00
tp968
sg9
I0
sba(iModules.cell
Cell
p969
(dp970
g10
I00
sg11
I00
sg14
(I00
I00
tp971
sg9
I0
sba(iModules.cell
Cell
p972
(dp973
g10
I00
sg11
I00
sg14
(I00
I00
tp974
sg9
I0
sba(iModules.cell
Cell
p975
(dp976
g10
I00
sg11
I00
sg14
(I00
I00
tp977
sg9
I0
sba(iModules.cell
Cell
p978
(dp979
g10
I00
sg11
I00
sg14
(I00
I00
tp980
sg9
I0
sba(iModules.cell
Cell
p981
(dp982
g10
I00
sg11
I00
sg14
(I00
I00
tp983
sg9
I0
sba(iModules.cell
Cell
p984
(dp985
g10
I00
sg11
I00
sg14
(I00
I00
tp986
sg9
I0
sba(iModules.cell
Cell
p987
(dp988
g10
I00
sg11
I00
sg14
(I00
I00
tp989
sg9
I0
sba(iModules.cell
Cell
p990
(dp991
g14
(I00
I00
tp992
sbaa(lp993
(iModules.cell
Cell
p994
(dp995
g10
I00
sg11
I00
sg14
(I00
I00
tp996
sg9
I0
sba(iModules.cell
Cell
p997
(dp998
g10
I00
sg262
I00
sg14
(I00
I00
tp999
sg9
I0
sba(iModules.cell
Cell
p1000
(dp1001
g10
I00
sg262
I00
sg14
(I01
I01
tp1002
sg9
I1
sba(iModules.cell
Cell
p1003
(dp1004
g10
I00
sg262
I00
sg14
(I01
I01
tp1005
sg9
I1
sba(iModules.cell
Cell
p1006
(dp1007
g10
I00
sg262
I01
sg14
(I00
I00
I00
tp1008
sg9
I0
sba(iModules.cell
Cell
p1009
(dp1010
g10
I00
sg262
I01
sg14
(I01
I01
tp1011
sg9
I0
sba(iModules.cell
Cell
p1012
(dp1013
g10
I00
sg262
I01
sg14
(I01
I01
tp1014
sg9
I0
sba(iModules.cell
Cell
p1015
(dp1016
g10
I00
sg262
I01
sg14
(I01
I01
tp1017
sg9
I0
sba(iModules.cell
Cell
p1018
(dp1019
g10
I00
sg262
I01
sg14
(I01
I01
tp1020
sg9
I0
sba(iModules.cell
Cell
p1021
(dp1022
g10
I00
sg262
I01
sg14
(I01
I01
tp1023
sg9
I0
sba(iModules.cell
Cell
p1024
(dp1025
g10
I00
sg262
I01
sg14
(I01
I01
tp1026
sg9
I0
sba(iModules.cell
Cell
p1027
(dp1028
g10
I00
sg262
I01
sg14
(I00
I00
I00
tp1029
sg9
I0
sba(iModules.cell
Cell
p1030
(dp1031
g10
I00
sg262
I01
sg14
(I01
I01
tp1032
sg9
I0
sba(iModules.cell
Cell
p1033
(dp1034
g10
I00
sg262
I01
sg14
(I01
I01
tp1035
sg9
I0
sba(iModules.cell
Cell
p1036
(dp1037
g10
I00
sg262
I01
sg14
(I01
I01
tp1038
sg9
I0
sba(iModules.cell
Cell
p1039
(dp1040
g10
I00
sg262
I01
sg14
(I01
I01
tp1041
sg9
I0
sba(iModules.cell
Cell
p1042
(dp1043
g10
I00
sg262
I01
sg14
(I01
I01
tp1044
sg9
I0
sba(iModules.cell
Cell
p1045
(dp1046
g10
I00
sg262
I01
sg14
(I01
I01
tp1047
sg9
I0
sba(iModules.cell
Cell
p1048
(dp1049
g10
I00
sg262
I01
sg14
(I00
I00
I00
tp1050
sg9
I0
sba(iModules.cell
Cell
p1051
(dp1052
g10
I00
sg262
I01
sg14
(I00
I00
I00
tp1053
sg9
I0
sba(iModules.cell
Cell
p1054
(dp1055
g10
I00
sg262
I01
sg14
(I00
I00
I00
tp1056
sg9
I0
sba(iModules.cell
Cell
p1057
(dp1058
g10
I00
sg262
I01
sg14
(I00
I00
I00
tp1059
sg9
I0
sba(iModules.cell
Cell
p1060
(dp1061
g10
I01
sg262
I01
sg14
(I01
I01
tp1062
sg9
I0
sba(iModules.cell
Cell
p1063
(dp1064
g10
I00
sg262
I01
sg14
(I00
I00
I00
tp1065
sg9
I0
sba(iModules.cell
Cell
p1066
(dp1067
g10
I00
sg262
I01
sg14
(I00
I00
I00
tp1068
sg9
I0
sba(iModules.cell
Cell
p1069
(dp1070
g10
I00
sg262
I01
sg14
(I00
I00
I00
tp1071
sg9
I0
sba(iModules.cell
Cell
p1072
(dp1073
g10
I00
sg262
I01
sg14
(I00
I00
I00
tp1074
sg9
I0
sba(iModules.cell
Cell
p1075
(dp1076
g10
I00
sg262
I00
sg14
(I01
I01
tp1077
sg9
I1
sba(iModules.cell
Cell
p1078
(dp1079
g10
I00
sg262
I00
sg14
(I01
I01
tp1080
sg9
I1
sba(iModules.cell
Cell
p1081
(dp1082
g10
I00
sg262
I00
sg14
(I01
I01
tp1083
sg9
I1
sba(iModules.cell
Cell
p1084
(dp1085
g10
I00
sg262
I00
sg14
(I01
I01
tp1086
sg9
I1
sba(iModules.cell
Cell
p1087
(dp1088
g10
I00
sg262
I00
sg14
(I01
I01
tp1089
sg9
I1
sba(iModules.cell
Cell
p1090
(dp1091
g10
I00
sg262
I00
sg14
(I01
I01
tp1092
sg9
I1
sba(iModules.cell
Cell
p1093
(dp1094
g10
I00
sg262
I00
sg14
(I01
I01
tp1095
sg9
I1
sba(iModules.cell
Cell
p1096
(dp1097
g10
I00
sg262
I00
sg14
(I01
I01
tp1098
sg9
I1
sba(iModules.cell
Cell
p1099
(dp1100
g10
I00
sg262
I00
sg14
(I01
I01
tp1101
sg9
I1
sba(iModules.cell
Cell
p1102
(dp1103
g10
I00
sg262
I00
sg14
(I01
I01
tp1104
sg9
I1
sba(iModules.cell
Cell
p1105
(dp1106
g10
I00
sg262
I00
sg14
(I01
I01
tp1107
sg9
I1
sba(iModules.cell
Cell
p1108
(dp1109
g10
I00
sg11
I00
sg14
(I01
I01
tp1110
sg9
I1
sba(iModules.cell
Cell
p1111
(dp1112
g10
I00
sg11
I00
sg14
(I01
I01
tp1113
sg9
I1
sba(iModules.cell
Cell
p1114
(dp1115
g10
I00
sg11
I00
sg14
(I01
I01
tp1116
sg9
I1
sba(iModules.cell
Cell
p1117
(dp1118
g10
I00
sg11
I00
sg14
(I01
I01
tp1119
sg9
I1
sba(iModules.cell
Cell
p1120
(dp1121
g10
I00
sg11
I00
sg14
(I01
I01
tp1122
sg9
I1
sba(iModules.cell
Cell
p1123
(dp1124
g10
I00
sg11
I00
sg14
(I01
I01
tp1125
sg9
I1
sba(iModules.cell
Cell
p1126
(dp1127
g10
I00
sg11
I00
sg14
(I01
I01
tp1128
sg9
I1
sba(iModules.cell
Cell
p1129
(dp1130
g10
I00
sg11
I00
sg14
(I01
I01
tp1131
sg9
I1
sba(iModules.cell
Cell
p1132
(dp1133
g10
I00
sg11
I00
sg14
(I01
I01
tp1134
sg9
I1
sba(iModules.cell
Cell
p1135
(dp1136
g10
I00
sg11
I00
sg14
(I01
I01
tp1137
sg9
I1
sba(iModules.cell
Cell
p1138
(dp1139
g10
I00
sg11
I00
sg14
(I01
I01
tp1140
sg9
I1
sba(iModules.cell
Cell
p1141
(dp1142
g10
I00
sg11
I00
sg14
(I01
I01
tp1143
sg9
I1
sba(iModules.cell
Cell
p1144
(dp1145
g10
I00
sg11
I00
sg14
(I01
I01
tp1146
sg9
I1
sba(iModules.cell
Cell
p1147
(dp1148
g10
I00
sg11
I00
sg14
(I01
I01
tp1149
sg9
I1
sba(iModules.cell
Cell
p1150
(dp1151
g10
I00
sg11
I00
sg14
(I01
I01
tp1152
sg9
I1
sba(iModules.cell
Cell
p1153
(dp1154
g10
I00
sg11
I00
sg14
(I01
I01
tp1155
sg9
I1
sba(iModules.cell
Cell
p1156
(dp1157
g10
I00
sg11
I00
sg14
(I01
I01
tp1158
sg9
I1
sba(iModules.cell
Cell
p1159
(dp1160
g10
I00
sg11
I00
sg14
(I01
I01
tp1161
sg9
I1
sba(iModules.cell
Cell
p1162
(dp1163
g10
I00
sg11
I00
sg14
(I01
I01
tp1164
sg9
I1
sba(iModules.cell
Cell
p1165
(dp1166
g10
I00
sg11
I00
sg14
(I01
I01
tp1167
sg9
I1
sba(iModules.cell
Cell
p1168
(dp1169
g10
I00
sg11
I00
sg14
(I01
I01
tp1170
sg9
I1
sba(iModules.cell
Cell
p1171
(dp1172
g10
I00
sg11
I00
sg14
(I01
I01
tp1173
sg9
I1
sba(iModules.cell
Cell
p1174
(dp1175
g10
I00
sg11
I00
sg14
(I01
I01
tp1176
sg9
I1
sba(iModules.cell
Cell
p1177
(dp1178
g10
I00
sg11
I00
sg14
(I00
I00
tp1179
sg9
I0
sba(iModules.cell
Cell
p1180
(dp1181
g10
I00
sg11
I00
sg14
(I00
I00
tp1182
sg9
I0
sba(iModules.cell
Cell
p1183
(dp1184
g10
I00
sg11
I00
sg14
(I00
I00
tp1185
sg9
I0
sba(iModules.cell
Cell
p1186
(dp1187
g10
I00
sg11
I00
sg14
(I00
I00
tp1188
sg9
I0
sba(iModules.cell
Cell
p1189
(dp1190
g10
I00
sg11
I00
sg14
(I00
I00
tp1191
sg9
I0
sba(iModules.cell
Cell
p1192
(dp1193
g10
I00
sg11
I00
sg14
(I00
I00
tp1194
sg9
I0
sba(iModules.cell
Cell
p1195
(dp1196
g10
I00
sg11
I00
sg14
(I00
I00
tp1197
sg9
I0
sba(iModules.cell
Cell
p1198
(dp1199
g10
I00
sg11
I00
sg14
(I00
I00
tp1200
sg9
I0
sba(iModules.cell
Cell
p1201
(dp1202
g10
I00
sg11
I00
sg14
(I00
I00
tp1203
sg9
I0
sba(iModules.cell
Cell
p1204
(dp1205
g10
I00
sg11
I00
sg14
(I00
I00
tp1206
sg9
I0
sba(iModules.cell
Cell
p1207
(dp1208
g10
I00
sg11
I00
sg14
(I00
I00
tp1209
sg9
I0
sba(iModules.cell
Cell
p1210
(dp1211
g10
I00
sg11
I00
sg14
(I00
I00
tp1212
sg9
I0
sba(iModules.cell
Cell
p1213
(dp1214
g10
I00
sg11
I00
sg14
(I00
I00
tp1215
sg9
I0
sba(iModules.cell
Cell
p1216
(dp1217
g10
I00
sg11
I00
sg14
(I00
I00
tp1218
sg9
I0
sba(iModules.cell
Cell
p1219
(dp1220
g10
I00
sg11
I00
sg14
(I00
I00
tp1221
sg9
I0
sba(iModules.cell
Cell
p1222
(dp1223
g10
I00
sg11
I00
sg14
(I00
I00
tp1224
sg9
I0
sba(iModules.cell
Cell
p1225
(dp1226
g10
I00
sg11
I00
sg14
(I00
I00
tp1227
sg9
I0
sba(iModules.cell
Cell
p1228
(dp1229
g10
I00
sg11
I00
sg14
(I00
I00
tp1230
sg9
I0
sba(iModules.cell
Cell
p1231
(dp1232
g10
I00
sg11
I00
sg14
(I00
I00
tp1233
sg9
I0
sba(iModules.cell
Cell
p1234
(dp1235
g14
(I00
I00
tp1236
sbaa(lp1237
(iModules.cell
Cell
p1238
(dp1239
g10
I00
sg11
I00
sg14
(I00
I00
tp1240
sg9
I0
sba(iModules.cell
Cell
p1241
(dp1242
g10
I00
sg262
I00
sg14
(I00
I00
tp1243
sg9
I0
sba(iModules.cell
Cell
p1244
(dp1245
g10
I00
sg262
I00
sg14
(I01
I01
tp1246
sg9
I1
sba(iModules.cell
Cell
p1247
(dp1248
g10
I00
sg262
I00
sg14
(I01
I01
tp1249
sg9
I1
sba(iModules.cell
Cell
p1250
(dp1251
g10
I00
sg262
I01
sg14
(I00
I00
I00
tp1252
sg9
I0
sba(iModules.cell
Cell
p1253
(dp1254
g10
I00
sg262
I01
sg14
(I00
I00
I00
tp1255
sg9
I0
sba(iModules.cell
Cell
p1256
(dp1257
g10
I00
sg262
I01
sg14
(I00
I00
I00
tp1258
sg9
I0
sba(iModules.cell
Cell
p1259
(dp1260
g10
I00
sg262
I01
sg14
(I00
I00
I00
tp1261
sg9
I0
sba(iModules.cell
Cell
p1262
(dp1263
g10
I00
sg262
I01
sg14
(I00
I00
I00
tp1264
sg9
I0
sba(iModules.cell
Cell
p1265
(dp1266
g10
I00
sg262
I01
sg14
(I00
I00
I00
tp1267
sg9
I0
sba(iModules.cell
Cell
p1268
(dp1269
g10
I00
sg262
I01
sg14
(I00
I00
I00
tp1270
sg9
I0
sba(iModules.cell
Cell
p1271
(dp1272
g10
I00
sg262
I01
sg14
(I00
I00
I00
tp1273
sg9
I0
sba(iModules.cell
Cell
p1274
(dp1275
g10
I00
sg262
I01
sg14
(I00
I00
I00
tp1276
sg9
I0
sba(iModules.cell
Cell
p1277
(dp1278
g10
I00
sg262
I01
sg14
(I00
I00
I00
tp1279
sg9
I0
sba(iModules.cell
Cell
p1280
(dp1281
g10
I00
sg262
I01
sg14
(I00
I00
I00
tp1282
sg9
I0
sba(iModules.cell
Cell
p1283
(dp1284
g10
I00
sg262
I01
sg14
(I01
I01
tp1285
sg9
I0
sba(iModules.cell
Cell
p1286
(dp1287
g10
I00
sg262
I01
sg14
(I01
I01
tp1288
sg9
I0
sba(iModules.cell
Cell
p1289
(dp1290
g10
I00
sg262
I01
sg14
(I01
I01
tp1291
sg9
I0
sba(iModules.cell
Cell
p1292
(dp1293
S'visible'
p1294
I00
sS'explored'
p1295
I01
sS'type'
p1296
(I01
I01
tp1297
sba(iModules.cell
Cell
p1298
(dp1299
g10
I00
sg262
I01
sg14
(I01
I01
tp1300
sg9
I0
sba(iModules.cell
Cell
p1301
(dp1302
g10
I00
sg262
I01
sg14
(I01
I01
tp1303
sg9
I0
sba(iModules.cell
Cell
p1304
(dp1305
g10
I00
sg262
I01
sg14
(I01
I01
tp1306
sg9
I0
sba(iModules.cell
Cell
p1307
(dp1308
g10
I01
sg262
I01
sg14
(I01
I01
tp1309
sg9
I0
sba(iModules.cell
Cell
p1310
(dp1311
g10
I01
sg262
I01
sg14
(I01
I01
tp1312
sg9
I0
sba(iModules.cell
Cell
p1313
(dp1314
g10
I00
sg262
I01
sg14
(I01
I01
tp1315
sg9
I0
sba(iModules.cell
Cell
p1316
(dp1317
g10
I00
sg262
I01
sg14
(I01
I01
tp1318
sg9
I0
sba(iModules.cell
Cell
p1319
(dp1320
g10
I00
sg262
I01
sg14
(I00
I00
I00
tp1321
sg9
I0
sba(iModules.cell
Cell
p1322
(dp1323
g10
I00
sg262
I00
sg14
(I01
I01
tp1324
sg9
I1
sba(iModules.cell
Cell
p1325
(dp1326
g10
I00
sg262
I00
sg14
(I01
I01
tp1327
sg9
I1
sba(iModules.cell
Cell
p1328
(dp1329
g10
I00
sg262
I00
sg14
(I01
I01
tp1330
sg9
I1
sba(iModules.cell
Cell
p1331
(dp1332
g10
I00
sg262
I00
sg14
(I01
I01
tp1333
sg9
I1
sba(iModules.cell
Cell
p1334
(dp1335
g10
I00
sg262
I00
sg14
(I01
I01
tp1336
sg9
I1
sba(iModules.cell
Cell
p1337
(dp1338
g10
I00
sg262
I00
sg14
(I01
I01
tp1339
sg9
I1
sba(iModules.cell
Cell
p1340
(dp1341
g10
I00
sg262
I00
sg14
(I01
I01
tp1342
sg9
I1
sba(iModules.cell
Cell
p1343
(dp1344
g10
I00
sg262
I00
sg14
(I01
I01
tp1345
sg9
I1
sba(iModules.cell
Cell
p1346
(dp1347
g10
I00
sg262
I00
sg14
(I01
I01
tp1348
sg9
I1
sba(iModules.cell
Cell
p1349
(dp1350
g10
I00
sg262
I00
sg14
(I01
I01
tp1351
sg9
I1
sba(iModules.cell
Cell
p1352
(dp1353
g10
I00
sg262
I00
sg14
(I01
I01
tp1354
sg9
I1
sba(iModules.cell
Cell
p1355
(dp1356
g10
I00
sg11
I00
sg14
(I01
I01
tp1357
sg9
I1
sba(iModules.cell
Cell
p1358
(dp1359
g10
I00
sg11
I00
sg14
(I01
I01
tp1360
sg9
I1
sba(iModules.cell
Cell
p1361
(dp1362
g10
I00
sg11
I00
sg14
(I01
I01
tp1363
sg9
I1
sba(iModules.cell
Cell
p1364
(dp1365
g10
I00
sg11
I00
sg14
(I01
I01
tp1366
sg9
I1
sba(iModules.cell
Cell
p1367
(dp1368
g10
I00
sg11
I00
sg14
(I01
I01
tp1369
sg9
I1
sba(iModules.cell
Cell
p1370
(dp1371
g10
I00
sg11
I00
sg14
(I01
I01
tp1372
sg9
I1
sba(iModules.cell
Cell
p1373
(dp1374
g10
I00
sg11
I00
sg14
(I01
I01
tp1375
sg9
I1
sba(iModules.cell
Cell
p1376
(dp1377
g10
I00
sg11
I00
sg14
(I01
I01
tp1378
sg9
I1
sba(iModules.cell
Cell
p1379
(dp1380
g10
I00
sg11
I00
sg14
(I01
I01
tp1381
sg9
I1
sba(iModules.cell
Cell
p1382
(dp1383
g10
I00
sg11
I00
sg14
(I01
I01
tp1384
sg9
I1
sba(iModules.cell
Cell
p1385
(dp1386
g10
I00
sg11
I00
sg14
(I01
I01
tp1387
sg9
I1
sba(iModules.cell
Cell
p1388
(dp1389
g10
I00
sg11
I00
sg14
(I01
I01
tp1390
sg9
I1
sba(iModules.cell
Cell
p1391
(dp1392
g10
I00
sg11
I00
sg14
(I01
I01
tp1393
sg9
I1
sba(iModules.cell
Cell
p1394
(dp1395
g10
I00
sg11
I00
sg14
(I01
I01
tp1396
sg9
I1
sba(iModules.cell
Cell
p1397
(dp1398
g10
I00
sg11
I00
sg14
(I01
I01
tp1399
sg9
I1
sba(iModules.cell
Cell
p1400
(dp1401
g10
I00
sg11
I00
sg14
(I01
I01
tp1402
sg9
I1
sba(iModules.cell
Cell
p1403
(dp1404
g10
I00
sg11
I00
sg14
(I01
I01
tp1405
sg9
I1
sba(iModules.cell
Cell
p1406
(dp1407
g10
I00
sg11
I00
sg14
(I01
I01
tp1408
sg9
I1
sba(iModules.cell
Cell
p1409
(dp1410
g10
I00
sg11
I00
sg14
(I01
I01
tp1411
sg9
I1
sba(iModules.cell
Cell
p1412
(dp1413
g10
I00
sg11
I00
sg14
(I01
I01
tp1414
sg9
I1
sba(iModules.cell
Cell
p1415
(dp1416
g10
I00
sg11
I00
sg14
(I01
I01
tp1417
sg9
I1
sba(iModules.cell
Cell
p1418
(dp1419
g10
I00
sg11
I00
sg14
(I01
I01
tp1420
sg9
I1
sba(iModules.cell
Cell
p1421
(dp1422
g10
I00
sg11
I00
sg14
(I01
I01
tp1423
sg9
I1
sba(iModules.cell
Cell
p1424
(dp1425
g10
I00
sg11
I00
sg14
(I00
I00
tp1426
sg9
I0
sba(iModules.cell
Cell
p1427
(dp1428
g10
I00
sg11
I00
sg14
(I00
I00
tp1429
sg9
I0
sba(iModules.cell
Cell
p1430
(dp1431
g10
I00
sg11
I00
sg14
(I00
I00
tp1432
sg9
I0
sba(iModules.cell
Cell
p1433
(dp1434
g10
I00
sg11
I00
sg14
(I00
I00
tp1435
sg9
I0
sba(iModules.cell
Cell
p1436
(dp1437
g10
I00
sg11
I00
sg14
(I00
I00
tp1438
sg9
I0
sba(iModules.cell
Cell
p1439
(dp1440
g10
I00
sg11
I00
sg14
(I00
I00
tp1441
sg9
I0
sba(iModules.cell
Cell
p1442
(dp1443
g10
I00
sg11
I00
sg14
(I00
I00
tp1444
sg9
I0
sba(iModules.cell
Cell
p1445
(dp1446
g10
I00
sg11
I00
sg14
(I00
I00
tp1447
sg9
I0
sba(iModules.cell
Cell
p1448
(dp1449
g10
I00
sg11
I00
sg14
(I00
I00
tp1450
sg9
I0
sba(iModules.cell
Cell
p1451
(dp1452
g10
I00
sg11
I00
sg14
(I00
I00
tp1453
sg9
I0
sba(iModules.cell
Cell
p1454
(dp1455
g10
I00
sg11
I00
sg14
(I00
I00
tp1456
sg9
I0
sba(iModules.cell
Cell
p1457
(dp1458
g10
I00
sg11
I00
sg14
(I00
I00
tp1459
sg9
I0
sba(iModules.cell
Cell
p1460
(dp1461
g10
I00
sg11
I00
sg14
(I00
I00
tp1462
sg9
I0
sba(iModules.cell
Cell
p1463
(dp1464
g10
I00
sg11
I00
sg14
(I00
I00
tp1465
sg9
I0
sba(iModules.cell
Cell
p1466
(dp1467
g10
I00
sg11
I00
sg14
(I00
I00
tp1468
sg9
I0
sba(iModules.cell
Cell
p1469
(dp1470
g10
I00
sg11
I00
sg14
(I00
I00
tp1471
sg9
I0
sba(iModules.cell
Cell
p1472
(dp1473
g10
I00
sg11
I00
sg14
(I00
I00
tp1474
sg9
I0
sba(iModules.cell
Cell
p1475
(dp1476
g10
I00
sg11
I00
sg14
(I00
I00
tp1477
sg9
I0
sba(iModules.cell
Cell
p1478
(dp1479
g10
I00
sg11
I00
sg14
(I00
I00
tp1480
sg9
I0
sba(iModules.cell
Cell
p1481
(dp1482
g14
(I00
I00
tp1483
sbaa(lp1484
(iModules.cell
Cell
p1485
(dp1486
g10
I00
sg11
I00
sg14
(I00
I00
tp1487
sg9
I0
sba(iModules.cell
Cell
p1488
(dp1489
g10
I00
sg262
I00
sg14
(I00
I00
tp1490
sg9
I0
sba(iModules.cell
Cell
p1491
(dp1492
g10
I00
sg262
I00
sg14
(I01
I01
tp1493
sg9
I1
sba(iModules.cell
Cell
p1494
(dp1495
g10
I00
sg262
I00
sg14
(I01
I01
tp1496
sg9
I1
sba(iModules.cell
Cell
p1497
(dp1498
g10
I00
sg262
I00
sg14
(I01
I01
tp1499
sg9
I1
sba(iModules.cell
Cell
p1500
(dp1501
g10
I00
sg262
I00
sg14
(I01
I01
tp1502
sg9
I1
sba(iModules.cell
Cell
p1503
(dp1504
g10
I00
sg262
I00
sg14
(I01
I01
tp1505
sg9
I1
sba(iModules.cell
Cell
p1506
(dp1507
g10
I00
sg262
I00
sg14
(I01
I01
tp1508
sg9
I1
sba(iModules.cell
Cell
p1509
(dp1510
g10
I00
sg262
I00
sg14
(I01
I01
tp1511
sg9
I1
sba(iModules.cell
Cell
p1512
(dp1513
g10
I00
sg262
I00
sg14
(I01
I01
tp1514
sg9
I1
sba(iModules.cell
Cell
p1515
(dp1516
g10
I00
sg262
I00
sg14
(I01
I01
tp1517
sg9
I1
sba(iModules.cell
Cell
p1518
(dp1519
g10
I00
sg262
I00
sg14
(I01
I01
tp1520
sg9
I1
sba(iModules.cell
Cell
p1521
(dp1522
g10
I00
sg262
I00
sg14
(I01
I01
tp1523
sg9
I1
sba(iModules.cell
Cell
p1524
(dp1525
g10
I00
sg262
I00
sg14
(I01
I01
tp1526
sg9
I1
sba(iModules.cell
Cell
p1527
(dp1528
S'lit'
p1529
I00
sg10
I00
sg262
I01
sg14
(I00
I00
I00
tp1530
sg9
I0
sba(iModules.cell
Cell
p1531
(dp1532
g1529
I00
sg10
I00
sg262
I01
sg14
(I00
I00
I00
tp1533
sg9
I0
sba(iModules.cell
Door
p1534
(dp1535
g1529
I00
sg1294
I00
sg1295
I01
sg1296
(I00
I00
tp1536
sS'opened'
p1537
I00
sba(iModules.cell
Cell
p1538
(dp1539
g1529
I00
sg10
I00
sg262
I01
sg14
(I00
I00
I00
tp1540
sg9
I0
sba(iModules.cell
Cell
p1541
(dp1542
g1529
I00
sS'visible'
p1543
I00
sS'explored'
p1544
I01
sS'type'
p1545
(I00
I00
I00
tp1546
sg818
I0
sba(iModules.cell
Cell
p1547
(dp1548
g10
I00
sg262
I01
sg14
(I01
I01
tp1549
sg9
I0
sba(iModules.cell
Cell
p1550
(dp1551
g10
I00
sg262
I01
sg14
(I01
I01
tp1552
sg9
I0
sba(iModules.cell
Cell
p1553
(dp1554
g10
I00
sg262
I01
sg14
(I01
I01
tp1555
sg9
I0
sba(iModules.cell
Cell
p1556
(dp1557
g10
I01
sg262
I01
sg14
(I01
I01
tp1558
sg9
I0
sba(iModules.cell
Cell
p1559
(dp1560
g10
I01
sg262
I01
sg14
(I01
I01
tp1561
sg9
I0
sba(iModules.cell
Cell
p1562
(dp1563
g10
I01
sg262
I01
sg14
(I01
I01
tp1564
sg9
I0
sba(iModules.cell
Cell
p1565
(dp1566
g10
I00
sg262
I01
sg14
(I01
I01
tp1567
sg9
I0
sba(iModules.cell
Cell
p1568
(dp1569
g10
I01
sg262
I01
sg14
(I00
I00
I00
tp1570
sg9
I0
sba(iModules.cell
Cell
p1571
(dp1572
g10
I01
sg262
I01
sg14
(I00
I00
I00
tp1573
sg9
I0
sba(iModules.cell
Cell
p1574
(dp1575
g10
I01
sg262
I01
sg14
(I00
I00
I00
tp1576
sg9
I0
sba(iModules.cell
Cell
p1577
(dp1578
g10
I01
sg262
I01
sg14
(I00
I00
I00
tp1579
sg9
I0
sba(iModules.cell
Cell
p1580
(dp1581
g10
I01
sg262
I01
sg14
(I00
I00
I00
tp1582
sg9
I0
sba(iModules.cell
Cell
p1583
(dp1584
g10
I01
sg262
I01
sg14
(I00
I00
I00
tp1585
sg9
I0
sba(iModules.cell
Cell
p1586
(dp1587
g10
I01
sg262
I01
sg14
(I00
I00
I00
tp1588
sg9
I0
sba(iModules.cell
Cell
p1589
(dp1590
g10
I00
sg262
I00
sg14
(I01
I01
tp1591
sg9
I1
sba(iModules.cell
Cell
p1592
(dp1593
g10
I00
sg262
I00
sg14
(I01
I01
tp1594
sg9
I1
sba(iModules.cell
Cell
p1595
(dp1596
g10
I00
sg262
I00
sg14
(I01
I01
tp1597
sg9
I1
sba(iModules.cell
Cell
p1598
(dp1599
g10
I00
sg262
I00
sg14
(I01
I01
tp1600
sg9
I1
sba(iModules.cell
Cell
p1601
(dp1602
g10
I00
sg262
I00
sg14
(I01
I01
tp1603
sg9
I1
sba(iModules.cell
Cell
p1604
(dp1605
g10
I00
sg11
I00
sg14
(I01
I01
tp1606
sg9
I1
sba(iModules.cell
Cell
p1607
(dp1608
g10
I00
sg11
I00
sg14
(I01
I01
tp1609
sg9
I1
sba(iModules.cell
Cell
p1610
(dp1611
g10
I00
sg11
I00
sg14
(I01
I01
tp1612
sg9
I1
sba(iModules.cell
Cell
p1613
(dp1614
g10
I00
sg11
I00
sg14
(I01
I01
tp1615
sg9
I1
sba(iModules.cell
Cell
p1616
(dp1617
g10
I00
sg11
I00
sg14
(I01
I01
tp1618
sg9
I1
sba(iModules.cell
Cell
p1619
(dp1620
g10
I00
sg11
I00
sg14
(I01
I01
tp1621
sg9
I1
sba(iModules.cell
Cell
p1622
(dp1623
g10
I00
sg11
I00
sg14
(I01
I01
tp1624
sg9
I1
sba(iModules.cell
Cell
p1625
(dp1626
g10
I00
sg11
I00
sg14
(I01
I01
tp1627
sg9
I1
sba(iModules.cell
Cell
p1628
(dp1629
g10
I00
sg11
I00
sg14
(I01
I01
tp1630
sg9
I1
sba(iModules.cell
Cell
p1631
(dp1632
g10
I00
sg11
I00
sg14
(I01
I01
tp1633
sg9
I1
sba(iModules.cell
Cell
p1634
(dp1635
g10
I00
sg11
I00
sg14
(I01
I01
tp1636
sg9
I1
sba(iModules.cell
Cell
p1637
(dp1638
g10
I00
sg11
I00
sg14
(I01
I01
tp1639
sg9
I1
sba(iModules.cell
Cell
p1640
(dp1641
g10
I00
sg11
I00
sg14
(I01
I01
tp1642
sg9
I1
sba(iModules.cell
Cell
p1643
(dp1644
g10
I00
sg11
I00
sg14
(I01
I01
tp1645
sg9
I1
sba(iModules.cell
Cell
p1646
(dp1647
g10
I00
sg11
I00
sg14
(I01
I01
tp1648
sg9
I1
sba(iModules.cell
Cell
p1649
(dp1650
g10
I00
sg11
I00
sg14
(I01
I01
tp1651
sg9
I1
sba(iModules.cell
Cell
p1652
(dp1653
g10
I00
sg11
I00
sg14
(I01
I01
tp1654
sg9
I1
sba(iModules.cell
Cell
p1655
(dp1656
g10
I00
sg11
I00
sg14
(I01
I01
tp1657
sg9
I1
sba(iModules.cell
Cell
p1658
(dp1659
g10
I00
sg11
I00
sg14
(I01
I01
tp1660
sg9
I1
sba(iModules.cell
Cell
p1661
(dp1662
g10
I00
sg11
I00
sg14
(I01
I01
tp1663
sg9
I1
sba(iModules.cell
Cell
p1664
(dp1665
g10
I00
sg11
I00
sg14
(I01
I01
tp1666
sg9
I1
sba(iModules.cell
Cell
p1667
(dp1668
g10
I00
sg11
I00
sg14
(I01
I01
tp1669
sg9
I1
sba(iModules.cell
Cell
p1670
(dp1671
g10
I00
sg11
I00
sg14
(I01
I01
tp1672
sg9
I1
sba(iModules.cell
Cell
p1673
(dp1674
g10
I00
sg11
I00
sg14
(I00
I00
tp1675
sg9
I0
sba(iModules.cell
Cell
p1676
(dp1677
g10
I00
sg11
I00
sg14
(I00
I00
tp1678
sg9
I0
sba(iModules.cell
Cell
p1679
(dp1680
g10
I00
sg11
I00
sg14
(I00
I00
tp1681
sg9
I0
sba(iModules.cell
Cell
p1682
(dp1683
g10
I00
sg11
I00
sg14
(I00
I00
tp1684
sg9
I0
sba(iModules.cell
Cell
p1685
(dp1686
g10
I00
sg11
I00
sg14
(I00
I00
tp1687
sg9
I0
sba(iModules.cell
Cell
p1688
(dp1689
g10
I00
sg11
I00
sg14
(I00
I00
tp1690
sg9
I0
sba(iModules.cell
Cell
p1691
(dp1692
g10
I00
sg11
I00
sg14
(I00
I00
tp1693
sg9
I0
sba(iModules.cell
Cell
p1694
(dp1695
g10
I00
sg11
I00
sg14
(I00
I00
tp1696
sg9
I0
sba(iModules.cell
Cell
p1697
(dp1698
g10
I00
sg11
I00
sg14
(I00
I00
tp1699
sg9
I0
sba(iModules.cell
Cell
p1700
(dp1701
g10
I00
sg11
I00
sg14
(I00
I00
tp1702
sg9
I0
sba(iModules.cell
Cell
p1703
(dp1704
g10
I00
sg11
I00
sg14
(I00
I00
tp1705
sg9
I0
sba(iModules.cell
Cell
p1706
(dp1707
g10
I00
sg11
I00
sg14
(I00
I00
tp1708
sg9
I0
sba(iModules.cell
Cell
p1709
(dp1710
g10
I00
sg11
I00
sg14
(I00
I00
tp1711
sg9
I0
sba(iModules.cell
Cell
p1712
(dp1713
g10
I00
sg11
I00
sg14
(I00
I00
tp1714
sg9
I0
sba(iModules.cell
Cell
p1715
(dp1716
g10
I00
sg11
I00
sg14
(I00
I00
tp1717
sg9
I0
sba(iModules.cell
Cell
p1718
(dp1719
g10
I00
sg11
I00
sg14
(I00
I00
tp1720
sg9
I0
sba(iModules.cell
Cell
p1721
(dp1722
g10
I00
sg11
I00
sg14
(I00
I00
tp1723
sg9
I0
sba(iModules.cell
Cell
p1724
(dp1725
g10
I00
sg11
I00
sg14
(I00
I00
tp1726
sg9
I0
sba(iModules.cell
Cell
p1727
(dp1728
g10
I00
sg11
I00
sg14
(I00
I00
tp1729
sg9
I0
sba(iModules.cell
Cell
p1730
(dp1731
g14
(I00
I00
tp1732
sbaa(lp1733
(iModules.cell
Cell
p1734
(dp1735
g10
I00
sg11
I00
sg14
(I00
I00
tp1736
sg9
I0
sba(iModules.cell
Cell
p1737
(dp1738
g10
I00
sg262
I00
sg14
(I00
I00
tp1739
sg9
I0
sba(iModules.cell
Cell
p1740
(dp1741
g10
I00
sg262
I00
sg14
(I01
I01
tp1742
sg9
I1
sba(iModules.cell
Cell
p1743
(dp1744
g10
I00
sg262
I00
sg14
(I01
I01
tp1745
sg9
I1
sba(iModules.cell
Cell
p1746
(dp1747
g10
I00
sg262
I00
sg14
(I01
I01
tp1748
sg9
I1
sba(iModules.cell
Cell
p1749
(dp1750
g10
I00
sg262
I00
sg14
(I01
I01
tp1751
sg9
I1
sba(iModules.cell
Cell
p1752
(dp1753
g10
I00
sg262
I00
sg14
(I01
I01
tp1754
sg9
I1
sba(iModules.cell
Cell
p1755
(dp1756
g10
I00
sg262
I00
sg14
(I01
I01
tp1757
sg9
I1
sba(iModules.cell
Cell
p1758
(dp1759
g10
I00
sg262
I00
sg14
(I01
I01
tp1760
sg9
I1
sba(iModules.cell
Cell
p1761
(dp1762
g10
I00
sg262
I00
sg14
(I01
I01
tp1763
sg9
I1
sba(iModules.cell
Cell
p1764
(dp1765
g10
I00
sg262
I00
sg14
(I01
I01
tp1766
sg9
I1
sba(iModules.cell
Cell
p1767
(dp1768
g10
I00
sg262
I00
sg14
(I01
I01
tp1769
sg9
I1
sba(iModules.cell
Cell
p1770
(dp1771
g10
I00
sg262
I00
sg14
(I01
I01
tp1772
sg9
I1
sba(iModules.cell
Cell
p1773
(dp1774
g10
I00
sg262
I00
sg14
(I01
I01
tp1775
sg9
I1
sba(iModules.cell
Cell
p1776
(dp1777
g1529
I00
sg10
I00
sg262
I01
sg14
(I00
I00
I00
tp1778
sg9
I0
sba(iModules.cell
Cell
p1779
(dp1780
g1529
I01
sg10
I00
sg262
I01
sg14
(I01
I01
tp1781
sg9
I0
sba(iModules.cell
Cell
p1782
(dp1783
g1529
I01
sg10
I00
sg262
I01
sg14
(I01
I01
tp1784
sg9
I0
sba(iModules.cell
Cell
p1785
(dp1786
g1529
I01
sg10
I00
sg262
I01
sg14
(I01
I01
tp1787
sg9
I0
sba(iModules.cell
Cell
p1788
(dp1789
g1529
I00
sg10
I00
sg262
I01
sg14
(I00
I00
I00
tp1790
sg9
I0
sba(iModules.cell
Cell
p1791
(dp1792
g10
I00
sg262
I01
sg14
(I01
I01
tp1793
sg9
I0
sba(iModules.cell
Cell
p1794
(dp1795
g10
I00
sg262
I01
sg14
(I01
I01
tp1796
sg9
I0
sba(iModules.cell
Cell
p1797
(dp1798
g10
I00
sg262
I01
sg14
(I01
I01
tp1799
sg9
I0
sba(iModules.cell
Cell
p1800
(dp1801
g10
I01
sg262
I01
sg14
(I01
I01
tp1802
sg9
I0
sba(iModules.cell
Cell
p1803
(dp1804
g10
I01
sg262
I01
sg14
(I01
I01
tp1805
sg9
I0
sba(iModules.cell
Cell
p1806
(dp1807
g10
I01
sg262
I01
sg14
(I01
I01
tp1808
sg9
I0
sba(iModules.cell
Cell
p1809
(dp1810
g10
I01
sg262
I01
sg14
(I01
I01
tp1811
sg9
I0
sba(iModules.cell
Cell
p1812
(dp1813
g10
I01
sg262
I01
sg14
(I00
I00
I00
tp1814
sg9
I0
sba(iModules.cell
Cell
p1815
(dp1816
g10
I01
sg262
I01
sg14
(I01
I01
tp1817
sg9
I0
sba(iModules.cell
Cell
p1818
(dp1819
g10
I01
sg262
I01
sg14
(I01
I01
tp1820
sg9
I0
sba(iModules.cell
Cell
p1821
(dp1822
g10
I01
sg262
I01
sg14
(I01
I01
tp1823
sg9
I0
sba(iModules.cell
Cell
p1824
(dp1825
g10
I01
sg262
I01
sg14
(I01
I01
tp1826
sg9
I0
sba(iModules.cell
Cell
p1827
(dp1828
g10
I01
sg262
I01
sg14
(I01
I01
tp1829
sg9
I0
sba(iModules.cell
Cell
p1830
(dp1831
g10
I01
sg262
I01
sg14
(I00
I00
I00
tp1832
sg9
I0
sba(iModules.cell
Cell
p1833
(dp1834
g10
I00
sg262
I00
sg14
(I01
I01
tp1835
sg9
I1
sba(iModules.cell
Cell
p1836
(dp1837
g10
I00
sg262
I00
sg14
(I01
I01
tp1838
sg9
I1
sba(iModules.cell
Cell
p1839
(dp1840
g10
I00
sg262
I00
sg14
(I01
I01
tp1841
sg9
I1
sba(iModules.cell
Cell
p1842
(dp1843
g10
I00
sg262
I00
sg14
(I01
I01
tp1844
sg9
I1
sba(iModules.cell
Cell
p1845
(dp1846
g10
I00
sg262
I00
sg14
(I01
I01
tp1847
sg9
I1
sba(iModules.cell
Cell
p1848
(dp1849
g10
I00
sg11
I00
sg14
(I01
I01
tp1850
sg9
I1
sba(iModules.cell
Cell
p1851
(dp1852
g10
I00
sg11
I00
sg14
(I01
I01
tp1853
sg9
I1
sba(iModules.cell
Cell
p1854
(dp1855
g10
I00
sg11
I00
sg14
(I01
I01
tp1856
sg9
I1
sba(iModules.cell
Cell
p1857
(dp1858
g10
I00
sg11
I00
sg14
(I01
I01
tp1859
sg9
I1
sba(iModules.cell
Cell
p1860
(dp1861
g10
I00
sg11
I00
sg14
(I01
I01
tp1862
sg9
I1
sba(iModules.cell
Cell
p1863
(dp1864
g10
I00
sg11
I00
sg14
(I01
I01
tp1865
sg9
I1
sba(iModules.cell
Cell
p1866
(dp1867
g10
I00
sg11
I00
sg14
(I01
I01
tp1868
sg9
I1
sba(iModules.cell
Cell
p1869
(dp1870
g10
I00
sg11
I00
sg14
(I01
I01
tp1871
sg9
I1
sba(iModules.cell
Cell
p1872
(dp1873
g10
I00
sg11
I00
sg14
(I01
I01
tp1874
sg9
I1
sba(iModules.cell
Cell
p1875
(dp1876
g10
I00
sg11
I00
sg14
(I01
I01
tp1877
sg9
I1
sba(iModules.cell
Cell
p1878
(dp1879
g10
I00
sg11
I00
sg14
(I01
I01
tp1880
sg9
I1
sba(iModules.cell
Cell
p1881
(dp1882
g10
I00
sg11
I00
sg14
(I01
I01
tp1883
sg9
I1
sba(iModules.cell
Cell
p1884
(dp1885
g10
I00
sg11
I00
sg14
(I01
I01
tp1886
sg9
I1
sba(iModules.cell
Cell
p1887
(dp1888
g10
I00
sg11
I00
sg14
(I01
I01
tp1889
sg9
I1
sba(iModules.cell
Cell
p1890
(dp1891
g10
I00
sg11
I00
sg14
(I01
I01
tp1892
sg9
I1
sba(iModules.cell
Cell
p1893
(dp1894
g10
I00
sg11
I00
sg14
(I01
I01
tp1895
sg9
I1
sba(iModules.cell
Cell
p1896
(dp1897
g10
I00
sg11
I00
sg14
(I01
I01
tp1898
sg9
I1
sba(iModules.cell
Cell
p1899
(dp1900
g10
I00
sg11
I00
sg14
(I01
I01
tp1901
sg9
I1
sba(iModules.cell
Cell
p1902
(dp1903
g10
I00
sg11
I00
sg14
(I01
I01
tp1904
sg9
I1
sba(iModules.cell
Cell
p1905
(dp1906
g10
I00
sg11
I00
sg14
(I01
I01
tp1907
sg9
I1
sba(iModules.cell
Cell
p1908
(dp1909
g10
I00
sg11
I00
sg14
(I01
I01
tp1910
sg9
I1
sba(iModules.cell
Cell
p1911
(dp1912
g10
I00
sg11
I00
sg14
(I01
I01
tp1913
sg9
I1
sba(iModules.cell
Cell
p1914
(dp1915
g10
I00
sg11
I00
sg14
(I01
I01
tp1916
sg9
I1
sba(iModules.cell
Cell
p1917
(dp1918
g10
I00
sg11
I00
sg14
(I00
I00
tp1919
sg9
I0
sba(iModules.cell
Cell
p1920
(dp1921
g10
I00
sg11
I00
sg14
(I00
I00
tp1922
sg9
I0
sba(iModules.cell
Cell
p1923
(dp1924
g10
I00
sg11
I00
sg14
(I00
I00
tp1925
sg9
I0
sba(iModules.cell
Cell
p1926
(dp1927
g10
I00
sg11
I00
sg14
(I00
I00
tp1928
sg9
I0
sba(iModules.cell
Cell
p1929
(dp1930
g10
I00
sg11
I00
sg14
(I00
I00
tp1931
sg9
I0
sba(iModules.cell
Cell
p1932
(dp1933
g10
I00
sg11
I00
sg14
(I00
I00
tp1934
sg9
I0
sba(iModules.cell
Cell
p1935
(dp1936
g10
I00
sg11
I00
sg14
(I00
I00
tp1937
sg9
I0
sba(iModules.cell
Cell
p1938
(dp1939
g10
I00
sg11
I00
sg14
(I00
I00
tp1940
sg9
I0
sba(iModules.cell
Cell
p1941
(dp1942
g10
I00
sg11
I00
sg14
(I00
I00
tp1943
sg9
I0
sba(iModules.cell
Cell
p1944
(dp1945
g10
I00
sg11
I00
sg14
(I00
I00
tp1946
sg9
I0
sba(iModules.cell
Cell
p1947
(dp1948
g10
I00
sg11
I00
sg14
(I00
I00
tp1949
sg9
I0
sba(iModules.cell
Cell
p1950
(dp1951
g10
I00
sg11
I00
sg14
(I00
I00
tp1952
sg9
I0
sba(iModules.cell
Cell
p1953
(dp1954
g10
I00
sg11
I00
sg14
(I00
I00
tp1955
sg9
I0
sba(iModules.cell
Cell
p1956
(dp1957
g10
I00
sg11
I00
sg14
(I00
I00
tp1958
sg9
I0
sba(iModules.cell
Cell
p1959
(dp1960
g10
I00
sg11
I00
sg14
(I00
I00
tp1961
sg9
I0
sba(iModules.cell
Cell
p1962
(dp1963
g10
I00
sg11
I00
sg14
(I00
I00
tp1964
sg9
I0
sba(iModules.cell
Cell
p1965
(dp1966
g10
I00
sg11
I00
sg14
(I00
I00
tp1967
sg9
I0
sba(iModules.cell
Cell
p1968
(dp1969
g10
I00
sg11
I00
sg14
(I00
I00
tp1970
sg9
I0
sba(iModules.cell
Cell
p1971
(dp1972
g10
I00
sg11
I00
sg14
(I00
I00
tp1973
sg9
I0
sba(iModules.cell
Cell
p1974
(dp1975
g14
(I00
I00
tp1976
sbaa(lp1977
(iModules.cell
Cell
p1978
(dp1979
g10
I00
sg11
I00
sg14
(I00
I00
tp1980
sg9
I0
sba(iModules.cell
Cell
p1981
(dp1982
g10
I00
sg262
I00
sg14
(I00
I00
tp1983
sg9
I0
sba(iModules.cell
Cell
p1984
(dp1985
g10
I00
sg262
I00
sg14
(I01
I01
tp1986
sg9
I1
sba(iModules.cell
Cell
p1987
(dp1988
g10
I00
sg262
I00
sg14
(I01
I01
tp1989
sg9
I1
sba(iModules.cell
Cell
p1990
(dp1991
g10
I00
sg262
I00
sg14
(I01
I01
tp1992
sg9
I1
sba(iModules.cell
Cell
p1993
(dp1994
g10
I00
sg262
I00
sg14
(I01
I01
tp1995
sg9
I1
sba(iModules.cell
Cell
p1996
(dp1997
g10
I00
sg262
I00
sg14
(I01
I01
tp1998
sg9
I1
sba(iModules.cell
Cell
p1999
(dp2000
g10
I00
sg262
I00
sg14
(I01
I01
tp2001
sg9
I1
sba(iModules.cell
Cell
p2002
(dp2003
g10
I00
sg262
I00
sg14
(I01
I01
tp2004
sg9
I1
sba(iModules.cell
Cell
p2005
(dp2006
g10
I00
sg262
I00
sg14
(I01
I01
tp2007
sg9
I1
sba(iModules.cell
Cell
p2008
(dp2009
g10
I00
sg262
I00
sg14
(I01
I01
tp2010
sg9
I1
sba(iModules.cell
Cell
p2011
(dp2012
g10
I00
sg262
I00
sg14
(I01
I01
tp2013
sg9
I1
sba(iModules.cell
Cell
p2014
(dp2015
g10
I00
sg262
I00
sg14
(I01
I01
tp2016
sg9
I1
sba(iModules.cell
Cell
p2017
(dp2018
g10
I00
sg262
I00
sg14
(I01
I01
tp2019
sg9
I1
sba(iModules.cell
Cell
p2020
(dp2021
g1529
I00
sg10
I00
sg262
I01
sg14
(I00
I00
I00
tp2022
sg9
I0
sba(iModules.cell
Cell
p2023
(dp2024
g1529
I01
sg10
I00
sg262
I01
sg14
(I01
I01
tp2025
sg9
I0
sba(iModules.cell
Cell
p2026
(dp2027
g1529
I01
sg10
I00
sg262
I01
sg14
(I01
I01
tp2028
sg9
I0
sba(iModules.cell
Cell
p2029
(dp2030
g1529
I01
sg10
I00
sg262
I01
sg14
(I01
I01
tp2031
sg9
I0
sba(iModules.cell
Cell
p2032
(dp2033
g1529
I00
sg10
I00
sg262
I01
sg14
(I00
I00
I00
tp2034
sg9
I0
sba(iModules.cell
Cell
p2035
(dp2036
g10
I00
sg262
I01
sg14
(I01
I01
tp2037
sg9
I0
sba(iModules.cell
Cell
p2038
(dp2039
g10
I00
sg262
I01
sg14
(I01
I01
tp2040
sg9
I0
sba(iModules.cell
Cell
p2041
(dp2042
g10
I00
sg262
I01
sg14
(I01
I01
tp2043
sg9
I0
sba(iModules.cell
Cell
p2044
(dp2045
g10
I01
sg262
I01
sg14
(I01
I01
tp2046
sg9
I0
sba(iModules.cell
Cell
p2047
(dp2048
g10
I01
sg262
I01
sg14
(I01
I01
tp2049
sg9
I0
sba(iModules.cell
Cell
p2050
(dp2051
g10
I01
sg262
I01
sg14
(I01
I01
tp2052
sg9
I0
sba(iModules.cell
Cell
p2053
(dp2054
g10
I01
sg262
I01
sg14
(I01
I01
tp2055
sg9
I0
sba(iModules.cell
Cell
p2056
(dp2057
g10
I01
sg262
I01
sg14
(I01
I01
tp2058
sg9
I0
sba(iModules.cell
Cell
p2059
(dp2060
g10
I01
sg262
I01
sg14
(I01
I01
tp2061
sg9
I0
sba(iModules.cell
Cell
p2062
(dp2063
g10
I01
sg262
I01
sg14
(I01
I01
tp2064
sg9
I0
sba(iModules.cell
Cell
p2065
(dp2066
g10
I01
sg262
I01
sg14
(I01
I01
tp2067
sg9
I0
sba(iModules.cell
Cell
p2068
(dp2069
g10
I01
sg262
I01
sg14
(I01
I01
tp2070
sg9
I0
sba(iModules.cell
Cell
p2071
(dp2072
g10
I01
sg262
I01
sg14
(I01
I01
tp2073
sg9
I0
sba(iModules.cell
Cell
p2074
(dp2075
g10
I01
sg262
I01
sg14
(I00
I00
I00
tp2076
sg9
I0
sba(iModules.cell
Cell
p2077
(dp2078
g10
I00
sg262
I00
sg14
(I01
I01
tp2079
sg9
I1
sba(iModules.cell
Cell
p2080
(dp2081
g10
I00
sg262
I00
sg14
(I01
I01
tp2082
sg9
I1
sba(iModules.cell
Cell
p2083
(dp2084
g10
I00
sg262
I00
sg14
(I01
I01
tp2085
sg9
I1
sba(iModules.cell
Cell
p2086
(dp2087
g10
I00
sg262
I00
sg14
(I01
I01
tp2088
sg9
I1
sba(iModules.cell
Cell
p2089
(dp2090
g10
I00
sg262
I00
sg14
(I01
I01
tp2091
sg9
I1
sba(iModules.cell
Cell
p2092
(dp2093
g10
I00
sg11
I00
sg14
(I01
I01
tp2094
sg9
I1
sba(iModules.cell
Cell
p2095
(dp2096
g10
I00
sg11
I00
sg14
(I01
I01
tp2097
sg9
I1
sba(iModules.cell
Cell
p2098
(dp2099
g10
I00
sg11
I00
sg14
(I01
I01
tp2100
sg9
I1
sba(iModules.cell
Cell
p2101
(dp2102
g10
I00
sg11
I00
sg14
(I01
I01
tp2103
sg9
I1
sba(iModules.cell
Cell
p2104
(dp2105
g10
I00
sg11
I00
sg14
(I01
I01
tp2106
sg9
I1
sba(iModules.cell
Cell
p2107
(dp2108
g10
I00
sg11
I00
sg14
(I01
I01
tp2109
sg9
I1
sba(iModules.cell
Cell
p2110
(dp2111
g10
I00
sg11
I00
sg14
(I01
I01
tp2112
sg9
I1
sba(iModules.cell
Cell
p2113
(dp2114
g10
I00
sg11
I00
sg14
(I01
I01
tp2115
sg9
I1
sba(iModules.cell
Cell
p2116
(dp2117
g10
I00
sg11
I00
sg14
(I01
I01
tp2118
sg9
I1
sba(iModules.cell
Cell
p2119
(dp2120
g10
I00
sg11
I00
sg14
(I01
I01
tp2121
sg9
I1
sba(iModules.cell
Cell
p2122
(dp2123
g10
I00
sg11
I00
sg14
(I01
I01
tp2124
sg9
I1
sba(iModules.cell
Cell
p2125
(dp2126
g10
I00
sg11
I00
sg14
(I01
I01
tp2127
sg9
I1
sba(iModules.cell
Cell
p2128
(dp2129
g10
I00
sg11
I00
sg14
(I01
I01
tp2130
sg9
I1
sba(iModules.cell
Cell
p2131
(dp2132
g10
I00
sg11
I00
sg14
(I01
I01
tp2133
sg9
I1
sba(iModules.cell
Cell
p2134
(dp2135
g10
I00
sg11
I00
sg14
(I01
I01
tp2136
sg9
I1
sba(iModules.cell
Cell
p2137
(dp2138
g10
I00
sg11
I00
sg14
(I01
I01
tp2139
sg9
I1
sba(iModules.cell
Cell
p2140
(dp2141
g10
I00
sg11
I00
sg14
(I01
I01
tp2142
sg9
I1
sba(iModules.cell
Cell
p2143
(dp2144
g10
I00
sg11
I00
sg14
(I01
I01
tp2145
sg9
I1
sba(iModules.cell
Cell
p2146
(dp2147
g10
I00
sg11
I00
sg14
(I01
I01
tp2148
sg9
I1
sba(iModules.cell
Cell
p2149
(dp2150
g10
I00
sg11
I00
sg14
(I01
I01
tp2151
sg9
I1
sba(iModules.cell
Cell
p2152
(dp2153
g10
I00
sg11
I00
sg14
(I01
I01
tp2154
sg9
I1
sba(iModules.cell
Cell
p2155
(dp2156
g10
I00
sg11
I00
sg14
(I01
I01
tp2157
sg9
I1
sba(iModules.cell
Cell
p2158
(dp2159
g10
I00
sg11
I00
sg14
(I01
I01
tp2160
sg9
I1
sba(iModules.cell
Cell
p2161
(dp2162
g10
I00
sg11
I00
sg14
(I00
I00
tp2163
sg9
I0
sba(iModules.cell
Cell
p2164
(dp2165
g10
I00
sg11
I00
sg14
(I00
I00
tp2166
sg9
I0
sba(iModules.cell
Cell
p2167
(dp2168
g10
I00
sg11
I00
sg14
(I00
I00
tp2169
sg9
I0
sba(iModules.cell
Cell
p2170
(dp2171
g10
I00
sg11
I00
sg14
(I00
I00
tp2172
sg9
I0
sba(iModules.cell
Cell
p2173
(dp2174
g10
I00
sg11
I00
sg14
(I00
I00
tp2175
sg9
I0
sba(iModules.cell
Cell
p2176
(dp2177
g10
I00
sg11
I00
sg14
(I00
I00
tp2178
sg9
I0
sba(iModules.cell
Cell
p2179
(dp2180
g10
I00
sg11
I00
sg14
(I00
I00
tp2181
sg9
I0
sba(iModules.cell
Cell
p2182
(dp2183
g10
I00
sg11
I00
sg14
(I00
I00
tp2184
sg9
I0
sba(iModules.cell
Cell
p2185
(dp2186
g10
I00
sg11
I00
sg14
(I00
I00
tp2187
sg9
I0
sba(iModules.cell
Cell
p2188
(dp2189
g10
I00
sg11
I00
sg14
(I00
I00
tp2190
sg9
I0
sba(iModules.cell
Cell
p2191
(dp2192
g10
I00
sg11
I00
sg14
(I00
I00
tp2193
sg9
I0
sba(iModules.cell
Cell
p2194
(dp2195
g10
I00
sg11
I00
sg14
(I00
I00
tp2196
sg9
I0
sba(iModules.cell
Cell
p2197
(dp2198
g10
I00
sg11
I00
sg14
(I00
I00
tp2199
sg9
I0
sba(iModules.cell
Cell
p2200
(dp2201
g10
I00
sg11
I00
sg14
(I00
I00
tp2202
sg9
I0
sba(iModules.cell
Cell
p2203
(dp2204
g10
I00
sg11
I00
sg14
(I00
I00
tp2205
sg9
I0
sba(iModules.cell
Cell
p2206
(dp2207
g10
I00
sg11
I00
sg14
(I00
I00
tp2208
sg9
I0
sba(iModules.cell
Cell
p2209
(dp2210
g10
I00
sg11
I00
sg14
(I00
I00
tp2211
sg9
I0
sba(iModules.cell
Cell
p2212
(dp2213
g10
I00
sg11
I00
sg14
(I00
I00
tp2214
sg9
I0
sba(iModules.cell
Cell
p2215
(dp2216
g10
I00
sg11
I00
sg14
(I00
I00
tp2217
sg9
I0
sba(iModules.cell
Cell
p2218
(dp2219
g14
(I00
I00
tp2220
sbaa(lp2221
(iModules.cell
Cell
p2222
(dp2223
g10
I00
sg11
I00
sg14
(I00
I00
tp2224
sg9
I0
sba(iModules.cell
Cell
p2225
(dp2226
g10
I00
sg262
I00
sg14
(I00
I00
tp2227
sg9
I0
sba(iModules.cell
Cell
p2228
(dp2229
g10
I00
sg262
I00
sg14
(I01
I01
tp2230
sg9
I1
sba(iModules.cell
Cell
p2231
(dp2232
g10
I00
sg262
I00
sg14
(I01
I01
tp2233
sg9
I1
sba(iModules.cell
Cell
p2234
(dp2235
g10
I00
sg262
I00
sg14
(I01
I01
tp2236
sg9
I1
sba(iModules.cell
Cell
p2237
(dp2238
g10
I00
sg262
I00
sg14
(I01
I01
tp2239
sg9
I1
sba(iModules.cell
Cell
p2240
(dp2241
g10
I00
sg262
I00
sg14
(I01
I01
tp2242
sg9
I1
sba(iModules.cell
Cell
p2243
(dp2244
g10
I00
sg262
I00
sg14
(I01
I01
tp2245
sg9
I1
sba(iModules.cell
Cell
p2246
(dp2247
g10
I00
sg262
I00
sg14
(I01
I01
tp2248
sg9
I1
sba(iModules.cell
Cell
p2249
(dp2250
g10
I00
sg262
I00
sg14
(I01
I01
tp2251
sg9
I1
sba(iModules.cell
Cell
p2252
(dp2253
g10
I00
sg262
I00
sg14
(I01
I01
tp2254
sg9
I1
sba(iModules.cell
Cell
p2255
(dp2256
g10
I00
sg262
I00
sg14
(I01
I01
tp2257
sg9
I1
sba(iModules.cell
Cell
p2258
(dp2259
g10
I00
sg262
I00
sg14
(I01
I01
tp2260
sg9
I1
sba(iModules.cell
Cell
p2261
(dp2262
g10
I00
sg262
I00
sg14
(I01
I01
tp2263
sg9
I1
sba(iModules.cell
Cell
p2264
(dp2265
g1529
I00
sg10
I00
sg262
I01
sg14
(I00
I00
I00
tp2266
sg9
I0
sba(iModules.cell
Cell
p2267
(dp2268
g1529
I00
sg10
I00
sg262
I01
sg14
(I00
I00
I00
tp2269
sg9
I0
sba(iModules.cell
Cell
p2270
(dp2271
g1529
I00
sg10
I00
sg262
I01
sg14
(I00
I00
I00
tp2272
sg9
I0
sba(iModules.cell
Cell
p2273
(dp2274
g1529
I00
sg10
I00
sg262
I01
sg14
(I00
I00
I00
tp2275
sg9
I0
sba(iModules.cell
Cell
p2276
(dp2277
g1529
I00
sg10
I00
sg262
I01
sg14
(I00
I00
I00
tp2278
sg9
I0
sba(iModules.cell
Cell
p2279
(dp2280
g10
I00
sg262
I01
sg14
(I00
I00
I00
tp2281
sg9
I0
sba(iModules.cell
Cell
p2282
(dp2283
g10
I00
sg262
I01
sg14
(I00
I00
I00
tp2284
sg9
I0
sba(iModules.cell
Cell
p2285
(dp2286
g10
I00
sg262
I01
sg14
(I00
I00
I00
tp2287
sg9
I0
sba(iModules.cell
Cell
p2288
(dp2289
g10
I00
sg262
I01
sg14
(I00
I00
I00
tp2290
sg9
I0
sba(iModules.cell
Cell
p2291
(dp2292
g10
I00
sg262
I01
sg14
(I00
I00
I00
tp2293
sg9
I0
sba(iModules.cell
Cell
p2294
(dp2295
g10
I00
sg262
I01
sg14
(I00
I00
I00
tp2296
sg9
I0
sba(iModules.cell
Cell
p2297
(dp2298
g10
I00
sg262
I01
sg14
(I00
I00
I00
tp2299
sg9
I0
sba(iModules.cell
Cell
p2300
(dp2301
g10
I01
sg262
I01
sg14
(I00
I00
I00
tp2302
sg9
I0
sba(iModules.cell
Cell
p2303
(dp2304
g10
I01
sg262
I01
sg14
(I01
I01
tp2305
sg9
I0
sba(iModules.cell
Cell
p2306
(dp2307
g10
I01
sg262
I01
sg14
(I01
I01
tp2308
sg9
I0
sba(iModules.cell
Cell
p2309
(dp2310
S'visible'
p2311
I01
sS'explored'
p2312
I01
sS'type'
p2313
(I01
I01
tp2314
sba(iModules.cell
Cell
p2315
(dp2316
g10
I01
sg262
I01
sg14
(I01
I01
tp2317
sg9
I0
sba(iModules.cell
Cell
p2318
(dp2319
g10
I01
sg262
I01
sg14
(I01
I01
tp2320
sg9
I0
sba(iModules.cell
Cell
p2321
(dp2322
g10
I01
sg262
I01
sg14
(I00
I00
I00
tp2323
sg9
I0
sba(iModules.cell
Cell
p2324
(dp2325
g10
I00
sg262
I00
sg14
(I01
I01
tp2326
sg9
I1
sba(iModules.cell
Cell
p2327
(dp2328
g10
I00
sg262
I00
sg14
(I01
I01
tp2329
sg9
I1
sba(iModules.cell
Cell
p2330
(dp2331
g10
I00
sg262
I00
sg14
(I01
I01
tp2332
sg9
I1
sba(iModules.cell
Cell
p2333
(dp2334
g10
I00
sg262
I00
sg14
(I01
I01
tp2335
sg9
I1
sba(iModules.cell
Cell
p2336
(dp2337
g10
I00
sg262
I00
sg14
(I01
I01
tp2338
sg9
I1
sba(iModules.cell
Cell
p2339
(dp2340
g10
I00
sg11
I00
sg14
(I01
I01
tp2341
sg9
I1
sba(iModules.cell
Cell
p2342
(dp2343
g10
I00
sg11
I00
sg14
(I01
I01
tp2344
sg9
I1
sba(iModules.cell
Cell
p2345
(dp2346
g10
I00
sg11
I00
sg14
(I01
I01
tp2347
sg9
I1
sba(iModules.cell
Cell
p2348
(dp2349
g10
I00
sg11
I00
sg14
(I01
I01
tp2350
sg9
I1
sba(iModules.cell
Cell
p2351
(dp2352
g10
I00
sg11
I00
sg14
(I01
I01
tp2353
sg9
I1
sba(iModules.cell
Cell
p2354
(dp2355
g10
I00
sg11
I00
sg14
(I01
I01
tp2356
sg9
I1
sba(iModules.cell
Cell
p2357
(dp2358
g10
I00
sg11
I00
sg14
(I01
I01
tp2359
sg9
I1
sba(iModules.cell
Cell
p2360
(dp2361
g10
I00
sg11
I00
sg14
(I01
I01
tp2362
sg9
I1
sba(iModules.cell
Cell
p2363
(dp2364
g10
I00
sg11
I00
sg14
(I01
I01
tp2365
sg9
I1
sba(iModules.cell
Cell
p2366
(dp2367
g10
I00
sg11
I00
sg14
(I01
I01
tp2368
sg9
I1
sba(iModules.cell
Cell
p2369
(dp2370
g10
I00
sg11
I00
sg14
(I01
I01
tp2371
sg9
I1
sba(iModules.cell
Cell
p2372
(dp2373
g10
I00
sg11
I00
sg14
(I01
I01
tp2374
sg9
I1
sba(iModules.cell
Cell
p2375
(dp2376
g10
I00
sg11
I00
sg14
(I01
I01
tp2377
sg9
I1
sba(iModules.cell
Cell
p2378
(dp2379
g10
I00
sg11
I00
sg14
(I01
I01
tp2380
sg9
I1
sba(iModules.cell
Cell
p2381
(dp2382
g10
I00
sg11
I00
sg14
(I01
I01
tp2383
sg9
I1
sba(iModules.cell
Cell
p2384
(dp2385
g10
I00
sg11
I00
sg14
(I01
I01
tp2386
sg9
I1
sba(iModules.cell
Cell
p2387
(dp2388
g10
I00
sg11
I00
sg14
(I01
I01
tp2389
sg9
I1
sba(iModules.cell
Cell
p2390
(dp2391
g10
I00
sg11
I00
sg14
(I01
I01
tp2392
sg9
I1
sba(iModules.cell
Cell
p2393
(dp2394
g10
I00
sg11
I00
sg14
(I01
I01
tp2395
sg9
I1
sba(iModules.cell
Cell
p2396
(dp2397
g10
I00
sg11
I00
sg14
(I01
I01
tp2398
sg9
I1
sba(iModules.cell
Cell
p2399
(dp2400
g10
I00
sg11
I00
sg14
(I01
I01
tp2401
sg9
I1
sba(iModules.cell
Cell
p2402
(dp2403
g10
I00
sg11
I00
sg14
(I01
I01
tp2404
sg9
I1
sba(iModules.cell
Cell
p2405
(dp2406
g10
I00
sg11
I00
sg14
(I01
I01
tp2407
sg9
I1
sba(iModules.cell
Cell
p2408
(dp2409
g10
I00
sg11
I00
sg14
(I00
I00
tp2410
sg9
I0
sba(iModules.cell
Cell
p2411
(dp2412
g10
I00
sg11
I00
sg14
(I00
I00
tp2413
sg9
I0
sba(iModules.cell
Cell
p2414
(dp2415
g10
I00
sg11
I00
sg14
(I00
I00
tp2416
sg9
I0
sba(iModules.cell
Cell
p2417
(dp2418
g10
I00
sg11
I00
sg14
(I00
I00
tp2419
sg9
I0
sba(iModules.cell
Cell
p2420
(dp2421
g10
I00
sg11
I00
sg14
(I00
I00
tp2422
sg9
I0
sba(iModules.cell
Cell
p2423
(dp2424
g10
I00
sg11
I00
sg14
(I00
I00
tp2425
sg9
I0
sba(iModules.cell
Cell
p2426
(dp2427
g10
I00
sg11
I00
sg14
(I00
I00
tp2428
sg9
I0
sba(iModules.cell
Cell
p2429
(dp2430
g10
I00
sg11
I00
sg14
(I00
I00
tp2431
sg9
I0
sba(iModules.cell
Cell
p2432
(dp2433
g10
I00
sg11
I00
sg14
(I00
I00
tp2434
sg9
I0
sba(iModules.cell
Cell
p2435
(dp2436
g10
I00
sg11
I00
sg14
(I00
I00
tp2437
sg9
I0
sba(iModules.cell
Cell
p2438
(dp2439
g10
I00
sg11
I00
sg14
(I00
I00
tp2440
sg9
I0
sba(iModules.cell
Cell
p2441
(dp2442
g10
I00
sg11
I00
sg14
(I00
I00
tp2443
sg9
I0
sba(iModules.cell
Cell
p2444
(dp2445
g10
I00
sg11
I00
sg14
(I00
I00
tp2446
sg9
I0
sba(iModules.cell
Cell
p2447
(dp2448
g10
I00
sg11
I00
sg14
(I00
I00
tp2449
sg9
I0
sba(iModules.cell
Cell
p2450
(dp2451
g10
I00
sg11
I00
sg14
(I00
I00
tp2452
sg9
I0
sba(iModules.cell
Cell
p2453
(dp2454
g10
I00
sg11
I00
sg14
(I00
I00
tp2455
sg9
I0
sba(iModules.cell
Cell
p2456
(dp2457
g10
I00
sg11
I00
sg14
(I00
I00
tp2458
sg9
I0
sba(iModules.cell
Cell
p2459
(dp2460
g10
I00
sg11
I00
sg14
(I00
I00
tp2461
sg9
I0
sba(iModules.cell
Cell
p2462
(dp2463
g10
I00
sg11
I00
sg14
(I00
I00
tp2464
sg9
I0
sba(iModules.cell
Cell
p2465
(dp2466
g14
(I00
I00
tp2467
sbaa(lp2468
(iModules.cell
Cell
p2469
(dp2470
g10
I00
sg11
I00
sg14
(I00
I00
tp2471
sg9
I0
sba(iModules.cell
Cell
p2472
(dp2473
g10
I00
sg262
I00
sg14
(I00
I00
tp2474
sg9
I0
sba(iModules.cell
Cell
p2475
(dp2476
g10
I00
sg262
I00
sg14
(I01
I01
tp2477
sg9
I1
sba(iModules.cell
Cell
p2478
(dp2479
g10
I00
sg262
I00
sg14
(I01
I01
tp2480
sg9
I1
sba(iModules.cell
Cell
p2481
(dp2482
g10
I00
sg262
I00
sg14
(I01
I01
tp2483
sg9
I1
sba(iModules.cell
Cell
p2484
(dp2485
g10
I00
sg262
I00
sg14
(I01
I01
tp2486
sg9
I1
sba(iModules.cell
Cell
p2487
(dp2488
g10
I00
sg262
I00
sg14
(I01
I01
tp2489
sg9
I1
sba(iModules.cell
Cell
p2490
(dp2491
g10
I00
sg262
I00
sg14
(I01
I01
tp2492
sg9
I1
sba(iModules.cell
Cell
p2493
(dp2494
g10
I00
sg262
I00
sg14
(I01
I01
tp2495
sg9
I1
sba(iModules.cell
Cell
p2496
(dp2497
g10
I00
sg262
I00
sg14
(I01
I01
tp2498
sg9
I1
sba(iModules.cell
Cell
p2499
(dp2500
g10
I00
sg262
I00
sg14
(I01
I01
tp2501
sg9
I1
sba(iModules.cell
Cell
p2502
(dp2503
g10
I00
sg262
I00
sg14
(I01
I01
tp2504
sg9
I1
sba(iModules.cell
Cell
p2505
(dp2506
g10
I00
sg262
I00
sg14
(I01
I01
tp2507
sg9
I1
sba(iModules.cell
Cell
p2508
(dp2509
g10
I00
sg262
I00
sg14
(I01
I01
tp2510
sg9
I1
sba(iModules.cell
Cell
p2511
(dp2512
g10
I00
sg262
I00
sg14
(I01
I01
tp2513
sg9
I1
sba(iModules.cell
Cell
p2514
(dp2515
g10
I00
sg262
I00
sg14
(I01
I01
tp2516
sg9
I1
sba(iModules.cell
Cell
p2517
(dp2518
g10
I00
sg262
I00
sg14
(I01
I01
tp2519
sg9
I1
sba(iModules.cell
Cell
p2520
(dp2521
g10
I00
sg262
I00
sg14
(I01
I01
tp2522
sg9
I1
sba(iModules.cell
Cell
p2523
(dp2524
g10
I00
sg262
I00
sg14
(I01
I01
tp2525
sg9
I1
sba(iModules.cell
Cell
p2526
(dp2527
g10
I00
sg262
I00
sg14
(I01
I01
tp2528
sg9
I1
sba(iModules.cell
Cell
p2529
(dp2530
g10
I00
sg262
I00
sg14
(I01
I01
tp2531
sg9
I1
sba(iModules.cell
Cell
p2532
(dp2533
g10
I00
sg262
I00
sg14
(I01
I01
tp2534
sg9
I1
sba(iModules.cell
Cell
p2535
(dp2536
g10
I00
sg262
I00
sg14
(I01
I01
tp2537
sg9
I1
sba(iModules.cell
Cell
p2538
(dp2539
g10
I00
sg262
I00
sg14
(I01
I01
tp2540
sg9
I1
sba(iModules.cell
Cell
p2541
(dp2542
g10
I01
sg262
I01
sg14
(I00
I00
I00
tp2543
sg9
I0
sba(iModules.cell
Cell
p2544
(dp2545
g10
I01
sg262
I01
sg14
(I01
I01
tp2546
sg9
I0
sba(iModules.cell
Cell
p2547
(dp2548
g10
I01
sg262
I01
sg14
(I01
I01
tp2549
sg9
I0
sba(iModules.cell
Cell
p2550
(dp2551
g10
I01
sg262
I01
sg14
(I01
I01
tp2552
sg9
I0
sba(iModules.cell
Cell
p2553
(dp2554
g10
I01
sg262
I01
sg14
(I01
I01
tp2555
sg9
I0
sba(iModules.cell
Cell
p2556
(dp2557
g10
I01
sg262
I01
sg14
(I01
I01
tp2558
sg9
I0
sba(iModules.cell
Cell
p2559
(dp2560
g10
I01
sg262
I01
sg14
(I01
I01
tp2561
sg9
I0
sba(iModules.cell
Cell
p2562
(dp2563
g10
I01
sg262
I01
sg14
(I01
I01
tp2564
sg9
I0
sba(iModules.cell
Cell
p2565
(dp2566
g10
I01
sg262
I01
sg14
(I00
I00
I00
tp2567
sg9
I0
sba(iModules.cell
Cell
p2568
(dp2569
g10
I00
sg262
I00
sg14
(I01
I01
tp2570
sg9
I1
sba(iModules.cell
Cell
p2571
(dp2572
g10
I00
sg262
I00
sg14
(I01
I01
tp2573
sg9
I1
sba(iModules.cell
Cell
p2574
(dp2575
g10
I00
sg262
I00
sg14
(I01
I01
tp2576
sg9
I1
sba(iModules.cell
Cell
p2577
(dp2578
g10
I00
sg262
I00
sg14
(I01
I01
tp2579
sg9
I1
sba(iModules.cell
Cell
p2580
(dp2581
g10
I00
sg262
I00
sg14
(I01
I01
tp2582
sg9
I1
sba(iModules.cell
Cell
p2583
(dp2584
g10
I00
sg11
I00
sg14
(I01
I01
tp2585
sg9
I1
sba(iModules.cell
Cell
p2586
(dp2587
g10
I00
sg11
I00
sg14
(I01
I01
tp2588
sg9
I1
sba(iModules.cell
Cell
p2589
(dp2590
g10
I00
sg11
I00
sg14
(I01
I01
tp2591
sg9
I1
sba(iModules.cell
Cell
p2592
(dp2593
g10
I00
sg11
I00
sg14
(I01
I01
tp2594
sg9
I1
sba(iModules.cell
Cell
p2595
(dp2596
g10
I00
sg11
I00
sg14
(I01
I01
tp2597
sg9
I1
sba(iModules.cell
Cell
p2598
(dp2599
g10
I00
sg11
I00
sg14
(I01
I01
tp2600
sg9
I1
sba(iModules.cell
Cell
p2601
(dp2602
g10
I00
sg11
I00
sg14
(I01
I01
tp2603
sg9
I1
sba(iModules.cell
Cell
p2604
(dp2605
g10
I00
sg11
I00
sg14
(I01
I01
tp2606
sg9
I1
sba(iModules.cell
Cell
p2607
(dp2608
g10
I00
sg11
I00
sg14
(I01
I01
tp2609
sg9
I1
sba(iModules.cell
Cell
p2610
(dp2611
g10
I00
sg11
I00
sg14
(I01
I01
tp2612
sg9
I1
sba(iModules.cell
Cell
p2613
(dp2614
g10
I00
sg11
I00
sg14
(I01
I01
tp2615
sg9
I1
sba(iModules.cell
Cell
p2616
(dp2617
g10
I00
sg11
I00
sg14
(I01
I01
tp2618
sg9
I1
sba(iModules.cell
Cell
p2619
(dp2620
g10
I00
sg11
I00
sg14
(I01
I01
tp2621
sg9
I1
sba(iModules.cell
Cell
p2622
(dp2623
g10
I00
sg11
I00
sg14
(I01
I01
tp2624
sg9
I1
sba(iModules.cell
Cell
p2625
(dp2626
g10
I00
sg11
I00
sg14
(I01
I01
tp2627
sg9
I1
sba(iModules.cell
Cell
p2628
(dp2629
g10
I00
sg11
I00
sg14
(I01
I01
tp2630
sg9
I1
sba(iModules.cell
Cell
p2631
(dp2632
g10
I00
sg11
I00
sg14
(I01
I01
tp2633
sg9
I1
sba(iModules.cell
Cell
p2634
(dp2635
g10
I00
sg11
I00
sg14
(I01
I01
tp2636
sg9
I1
sba(iModules.cell
Cell
p2637
(dp2638
g10
I00
sg11
I00
sg14
(I01
I01
tp2639
sg9
I1
sba(iModules.cell
Cell
p2640
(dp2641
g10
I00
sg11
I00
sg14
(I01
I01
tp2642
sg9
I1
sba(iModules.cell
Cell
p2643
(dp2644
g10
I00
sg11
I00
sg14
(I01
I01
tp2645
sg9
I1
sba(iModules.cell
Cell
p2646
(dp2647
g10
I00
sg11
I00
sg14
(I01
I01
tp2648
sg9
I1
sba(iModules.cell
Cell
p2649
(dp2650
g10
I00
sg11
I00
sg14
(I01
I01
tp2651
sg9
I1
sba(iModules.cell
Cell
p2652
(dp2653
g10
I00
sg11
I00
sg14
(I00
I00
tp2654
sg9
I0
sba(iModules.cell
Cell
p2655
(dp2656
g10
I00
sg11
I00
sg14
(I00
I00
tp2657
sg9
I0
sba(iModules.cell
Cell
p2658
(dp2659
g10
I00
sg11
I00
sg14
(I00
I00
tp2660
sg9
I0
sba(iModules.cell
Cell
p2661
(dp2662
g10
I00
sg11
I00
sg14
(I00
I00
tp2663
sg9
I0
sba(iModules.cell
Cell
p2664
(dp2665
g10
I00
sg11
I00
sg14
(I00
I00
tp2666
sg9
I0
sba(iModules.cell
Cell
p2667
(dp2668
g10
I00
sg11
I00
sg14
(I00
I00
tp2669
sg9
I0
sba(iModules.cell
Cell
p2670
(dp2671
g10
I00
sg11
I00
sg14
(I00
I00
tp2672
sg9
I0
sba(iModules.cell
Cell
p2673
(dp2674
g10
I00
sg11
I00
sg14
(I00
I00
tp2675
sg9
I0
sba(iModules.cell
Cell
p2676
(dp2677
g10
I00
sg11
I00
sg14
(I00
I00
tp2678
sg9
I0
sba(iModules.cell
Cell
p2679
(dp2680
g10
I00
sg11
I00
sg14
(I00
I00
tp2681
sg9
I0
sba(iModules.cell
Cell
p2682
(dp2683
g10
I00
sg11
I00
sg14
(I00
I00
tp2684
sg9
I0
sba(iModules.cell
Cell
p2685
(dp2686
g10
I00
sg11
I00
sg14
(I00
I00
tp2687
sg9
I0
sba(iModules.cell
Cell
p2688
(dp2689
g10
I00
sg11
I00
sg14
(I00
I00
tp2690
sg9
I0
sba(iModules.cell
Cell
p2691
(dp2692
g10
I00
sg11
I00
sg14
(I00
I00
tp2693
sg9
I0
sba(iModules.cell
Cell
p2694
(dp2695
g10
I00
sg11
I00
sg14
(I00
I00
tp2696
sg9
I0
sba(iModules.cell
Cell
p2697
(dp2698
g10
I00
sg11
I00
sg14
(I00
I00
tp2699
sg9
I0
sba(iModules.cell
Cell
p2700
(dp2701
g10
I00
sg11
I00
sg14
(I00
I00
tp2702
sg9
I0
sba(iModules.cell
Cell
p2703
(dp2704
g10
I00
sg11
I00
sg14
(I00
I00
tp2705
sg9
I0
sba(iModules.cell
Cell
p2706
(dp2707
g10
I00
sg11
I00
sg14
(I00
I00
tp2708
sg9
I0
sba(iModules.cell
Cell
p2709
(dp2710
g14
(I00
I00
tp2711
sbaa(lp2712
(iModules.cell
Cell
p2713
(dp2714
g10
I00
sg11
I00
sg14
(I00
I00
tp2715
sg9
I0
sba(iModules.cell
Cell
p2716
(dp2717
g10
I00
sg11
I00
sg14
(I00
I00
tp2718
sg9
I0
sba(iModules.cell
Cell
p2719
(dp2720
g10
I00
sg11
I00
sg14
(I01
I01
tp2721
sg9
I1
sba(iModules.cell
Cell
p2722
(dp2723
g10
I00
sg11
I00
sg14
(I01
I01
tp2724
sg9
I1
sba(iModules.cell
Cell
p2725
(dp2726
g10
I00
sg11
I00
sg14
(I01
I01
tp2727
sg9
I1
sba(iModules.cell
Cell
p2728
(dp2729
g10
I00
sg11
I00
sg14
(I01
I01
tp2730
sg9
I1
sba(iModules.cell
Cell
p2731
(dp2732
g10
I00
sg11
I00
sg14
(I01
I01
tp2733
sg9
I1
sba(iModules.cell
Cell
p2734
(dp2735
g10
I00
sg11
I00
sg14
(I01
I01
tp2736
sg9
I1
sba(iModules.cell
Cell
p2737
(dp2738
g10
I00
sg11
I00
sg14
(I01
I01
tp2739
sg9
I1
sba(iModules.cell
Cell
p2740
(dp2741
g10
I00
sg262
I00
sg14
(I01
I01
tp2742
sg9
I1
sba(iModules.cell
Cell
p2743
(dp2744
g10
I00
sg262
I00
sg14
(I01
I01
tp2745
sg9
I1
sba(iModules.cell
Cell
p2746
(dp2747
g10
I00
sg262
I00
sg14
(I01
I01
tp2748
sg9
I1
sba(iModules.cell
Cell
p2749
(dp2750
g10
I00
sg262
I00
sg14
(I01
I01
tp2751
sg9
I1
sba(iModules.cell
Cell
p2752
(dp2753
g10
I00
sg262
I00
sg14
(I01
I01
tp2754
sg9
I1
sba(iModules.cell
Cell
p2755
(dp2756
g10
I00
sg262
I00
sg14
(I01
I01
tp2757
sg9
I1
sba(iModules.cell
Cell
p2758
(dp2759
g10
I00
sg262
I00
sg14
(I01
I01
tp2760
sg9
I1
sba(iModules.cell
Cell
p2761
(dp2762
g10
I00
sg262
I00
sg14
(I01
I01
tp2763
sg9
I1
sba(iModules.cell
Cell
p2764
(dp2765
g10
I00
sg262
I00
sg14
(I01
I01
tp2766
sg9
I1
sba(iModules.cell
Cell
p2767
(dp2768
g10
I00
sg262
I00
sg14
(I01
I01
tp2769
sg9
I1
sba(iModules.cell
Cell
p2770
(dp2771
g10
I00
sg262
I00
sg14
(I01
I01
tp2772
sg9
I1
sba(iModules.cell
Cell
p2773
(dp2774
g10
I00
sg262
I00
sg14
(I01
I01
tp2775
sg9
I1
sba(iModules.cell
Cell
p2776
(dp2777
g10
I00
sg262
I00
sg14
(I01
I01
tp2778
sg9
I1
sba(iModules.cell
Cell
p2779
(dp2780
g10
I00
sg262
I00
sg14
(I01
I01
tp2781
sg9
I1
sba(iModules.cell
Cell
p2782
(dp2783
g10
I00
sg262
I00
sg14
(I01
I01
tp2784
sg9
I1
sba(iModules.cell
Cell
p2785
(dp2786
g10
I01
sg262
I01
sg14
(I00
I00
I00
tp2787
sg9
I0
sba(iModules.cell
Cell
p2788
(dp2789
g10
I01
sg262
I01
sg14
(I01
I01
tp2790
sg9
I0
sba(iModules.cell
Cell
p2791
(dp2792
g10
I01
sg262
I01
sg14
(I01
I01
tp2793
sg9
I0
sba(iModules.cell
Cell
p2794
(dp2795
g10
I01
sg262
I01
sg14
(I01
I01
tp2796
sg9
I0
sba(iModules.cell
Cell
p2797
(dp2798
g10
I01
sg262
I01
sg14
(I01
I01
tp2799
sg9
I0
sba(iModules.cell
Cell
p2800
(dp2801
g10
I01
sg262
I01
sg14
(I01
I01
tp2802
sg9
I0
sba(iModules.cell
Cell
p2803
(dp2804
g10
I01
sg262
I01
sg14
(I01
I01
tp2805
sg9
I0
sba(iModules.cell
Cell
p2806
(dp2807
g10
I01
sg262
I01
sg14
(I01
I01
tp2808
sg9
I0
sba(iModules.cell
Cell
p2809
(dp2810
g10
I01
sg262
I01
sg14
(I00
I00
I00
tp2811
sg9
I0
sba(iModules.cell
Cell
p2812
(dp2813
g10
I00
sg262
I00
sg14
(I01
I01
tp2814
sg9
I1
sba(iModules.cell
Cell
p2815
(dp2816
g10
I00
sg262
I00
sg14
(I01
I01
tp2817
sg9
I1
sba(iModules.cell
Cell
p2818
(dp2819
g10
I00
sg262
I00
sg14
(I01
I01
tp2820
sg9
I1
sba(iModules.cell
Cell
p2821
(dp2822
g10
I00
sg262
I00
sg14
(I01
I01
tp2823
sg9
I1
sba(iModules.cell
Cell
p2824
(dp2825
g10
I00
sg262
I00
sg14
(I01
I01
tp2826
sg9
I1
sba(iModules.cell
Cell
p2827
(dp2828
g10
I00
sg11
I00
sg14
(I01
I01
tp2829
sg9
I1
sba(iModules.cell
Cell
p2830
(dp2831
g10
I00
sg11
I00
sg14
(I01
I01
tp2832
sg9
I1
sba(iModules.cell
Cell
p2833
(dp2834
g10
I00
sg11
I00
sg14
(I01
I01
tp2835
sg9
I1
sba(iModules.cell
Cell
p2836
(dp2837
g10
I00
sg11
I00
sg14
(I01
I01
tp2838
sg9
I1
sba(iModules.cell
Cell
p2839
(dp2840
g10
I00
sg11
I00
sg14
(I01
I01
tp2841
sg9
I1
sba(iModules.cell
Cell
p2842
(dp2843
g10
I00
sg11
I00
sg14
(I01
I01
tp2844
sg9
I1
sba(iModules.cell
Cell
p2845
(dp2846
g10
I00
sg11
I00
sg14
(I01
I01
tp2847
sg9
I1
sba(iModules.cell
Cell
p2848
(dp2849
g10
I00
sg11
I00
sg14
(I01
I01
tp2850
sg9
I1
sba(iModules.cell
Cell
p2851
(dp2852
g10
I00
sg11
I00
sg14
(I01
I01
tp2853
sg9
I1
sba(iModules.cell
Cell
p2854
(dp2855
g10
I00
sg11
I00
sg14
(I01
I01
tp2856
sg9
I1
sba(iModules.cell
Cell
p2857
(dp2858
g10
I00
sg11
I00
sg14
(I01
I01
tp2859
sg9
I1
sba(iModules.cell
Cell
p2860
(dp2861
g10
I00
sg11
I00
sg14
(I01
I01
tp2862
sg9
I1
sba(iModules.cell
Cell
p2863
(dp2864
g10
I00
sg11
I00
sg14
(I01
I01
tp2865
sg9
I1
sba(iModules.cell
Cell
p2866
(dp2867
g10
I00
sg11
I00
sg14
(I01
I01
tp2868
sg9
I1
sba(iModules.cell
Cell
p2869
(dp2870
g10
I00
sg11
I00
sg14
(I01
I01
tp2871
sg9
I1
sba(iModules.cell
Cell
p2872
(dp2873
g10
I00
sg11
I00
sg14
(I01
I01
tp2874
sg9
I1
sba(iModules.cell
Cell
p2875
(dp2876
g10
I00
sg11
I00
sg14
(I01
I01
tp2877
sg9
I1
sba(iModules.cell
Cell
p2878
(dp2879
g10
I00
sg11
I00
sg14
(I01
I01
tp2880
sg9
I1
sba(iModules.cell
Cell
p2881
(dp2882
g10
I00
sg11
I00
sg14
(I01
I01
tp2883
sg9
I1
sba(iModules.cell
Cell
p2884
(dp2885
g10
I00
sg11
I00
sg14
(I01
I01
tp2886
sg9
I1
sba(iModules.cell
Cell
p2887
(dp2888
g10
I00
sg11
I00
sg14
(I01
I01
tp2889
sg9
I1
sba(iModules.cell
Cell
p2890
(dp2891
g10
I00
sg11
I00
sg14
(I01
I01
tp2892
sg9
I1
sba(iModules.cell
Cell
p2893
(dp2894
g10
I00
sg11
I00
sg14
(I01
I01
tp2895
sg9
I1
sba(iModules.cell
Cell
p2896
(dp2897
g10
I00
sg11
I00
sg14
(I00
I00
tp2898
sg9
I0
sba(iModules.cell
Cell
p2899
(dp2900
g10
I00
sg11
I00
sg14
(I00
I00
tp2901
sg9
I0
sba(iModules.cell
Cell
p2902
(dp2903
g10
I00
sg11
I00
sg14
(I00
I00
tp2904
sg9
I0
sba(iModules.cell
Cell
p2905
(dp2906
g10
I00
sg11
I00
sg14
(I00
I00
tp2907
sg9
I0
sba(iModules.cell
Cell
p2908
(dp2909
g10
I00
sg11
I00
sg14
(I00
I00
tp2910
sg9
I0
sba(iModules.cell
Cell
p2911
(dp2912
g10
I00
sg11
I00
sg14
(I00
I00
tp2913
sg9
I0
sba(iModules.cell
Cell
p2914
(dp2915
g10
I00
sg11
I00
sg14
(I00
I00
tp2916
sg9
I0
sba(iModules.cell
Cell
p2917
(dp2918
g10
I00
sg11
I00
sg14
(I00
I00
tp2919
sg9
I0
sba(iModules.cell
Cell
p2920
(dp2921
g10
I00
sg11
I00
sg14
(I00
I00
tp2922
sg9
I0
sba(iModules.cell
Cell
p2923
(dp2924
g10
I00
sg11
I00
sg14
(I00
I00
tp2925
sg9
I0
sba(iModules.cell
Cell
p2926
(dp2927
g10
I00
sg11
I00
sg14
(I00
I00
tp2928
sg9
I0
sba(iModules.cell
Cell
p2929
(dp2930
g10
I00
sg11
I00
sg14
(I00
I00
tp2931
sg9
I0
sba(iModules.cell
Cell
p2932
(dp2933
g10
I00
sg11
I00
sg14
(I00
I00
tp2934
sg9
I0
sba(iModules.cell
Cell
p2935
(dp2936
g10
I00
sg11
I00
sg14
(I00
I00
tp2937
sg9
I0
sba(iModules.cell
Cell
p2938
(dp2939
g10
I00
sg11
I00
sg14
(I00
I00
tp2940
sg9
I0
sba(iModules.cell
Cell
p2941
(dp2942
g10
I00
sg11
I00
sg14
(I00
I00
tp2943
sg9
I0
sba(iModules.cell
Cell
p2944
(dp2945
g10
I00
sg11
I00
sg14
(I00
I00
tp2946
sg9
I0
sba(iModules.cell
Cell
p2947
(dp2948
g10
I00
sg11
I00
sg14
(I00
I00
tp2949
sg9
I0
sba(iModules.cell
Cell
p2950
(dp2951
g10
I00
sg11
I00
sg14
(I00
I00
tp2952
sg9
I0
sba(iModules.cell
Cell
p2953
(dp2954
g14
(I00
I00
tp2955
sbaa(lp2956
(iModules.cell
Cell
p2957
(dp2958
g10
I00
sg11
I00
sg14
(I00
I00
tp2959
sg9
I0
sba(iModules.cell
Cell
p2960
(dp2961
g10
I00
sg11
I00
sg14
(I00
I00
tp2962
sg9
I0
sba(iModules.cell
Cell
p2963
(dp2964
g10
I00
sg11
I00
sg14
(I01
I01
tp2965
sg9
I1
sba(iModules.cell
Cell
p2966
(dp2967
g10
I00
sg11
I00
sg14
(I01
I01
tp2968
sg9
I1
sba(iModules.cell
Cell
p2969
(dp2970
g10
I00
sg11
I00
sg14
(I01
I01
tp2971
sg9
I1
sba(iModules.cell
Cell
p2972
(dp2973
g10
I00
sg11
I00
sg14
(I01
I01
tp2974
sg9
I1
sba(iModules.cell
Cell
p2975
(dp2976
g10
I00
sg11
I00
sg14
(I01
I01
tp2977
sg9
I1
sba(iModules.cell
Cell
p2978
(dp2979
g10
I00
sg11
I00
sg14
(I01
I01
tp2980
sg9
I1
sba(iModules.cell
Cell
p2981
(dp2982
g10
I00
sg11
I00
sg14
(I01
I01
tp2983
sg9
I1
sba(iModules.cell
Cell
p2984
(dp2985
g10
I00
sg262
I00
sg14
(I01
I01
tp2986
sg9
I1
sba(iModules.cell
Cell
p2987
(dp2988
g10
I00
sg262
I00
sg14
(I01
I01
tp2989
sg9
I1
sba(iModules.cell
Cell
p2990
(dp2991
g10
I00
sg262
I00
sg14
(I01
I01
tp2992
sg9
I1
sba(iModules.cell
Cell
p2993
(dp2994
g10
I00
sg262
I00
sg14
(I01
I01
tp2995
sg9
I1
sba(iModules.cell
Cell
p2996
(dp2997
g10
I00
sg262
I00
sg14
(I01
I01
tp2998
sg9
I1
sba(iModules.cell
Cell
p2999
(dp3000
g10
I00
sg262
I00
sg14
(I01
I01
tp3001
sg9
I1
sba(iModules.cell
Cell
p3002
(dp3003
g10
I00
sg262
I00
sg14
(I01
I01
tp3004
sg9
I1
sba(iModules.cell
Cell
p3005
(dp3006
g10
I00
sg262
I00
sg14
(I01
I01
tp3007
sg9
I1
sba(iModules.cell
Cell
p3008
(dp3009
g10
I00
sg262
I00
sg14
(I01
I01
tp3010
sg9
I1
sba(iModules.cell
Cell
p3011
(dp3012
g10
I00
sg262
I00
sg14
(I01
I01
tp3013
sg9
I1
sba(iModules.cell
Cell
p3014
(dp3015
g10
I00
sg262
I00
sg14
(I01
I01
tp3016
sg9
I1
sba(iModules.cell
Cell
p3017
(dp3018
g10
I00
sg262
I00
sg14
(I01
I01
tp3019
sg9
I1
sba(iModules.cell
Cell
p3020
(dp3021
g10
I00
sg262
I00
sg14
(I01
I01
tp3022
sg9
I1
sba(iModules.cell
Cell
p3023
(dp3024
g10
I00
sg262
I00
sg14
(I01
I01
tp3025
sg9
I1
sba(iModules.cell
Cell
p3026
(dp3027
g10
I00
sg262
I00
sg14
(I01
I01
tp3028
sg9
I1
sba(iModules.cell
Cell
p3029
(dp3030
g10
I01
sg262
I01
sg14
(I00
I00
I00
tp3031
sg9
I0
sba(iModules.cell
Cell
p3032
(dp3033
g10
I01
sg262
I01
sg14
(I00
I00
I00
tp3034
sg9
I0
sba(iModules.cell
Cell
p3035
(dp3036
g10
I01
sg262
I01
sg14
(I00
I00
I00
tp3037
sg9
I0
sba(iModules.cell
Cell
p3038
(dp3039
g10
I01
sg262
I01
sg14
(I00
I00
I00
tp3040
sg9
I0
sba(iModules.cell
Cell
p3041
(dp3042
g10
I01
sg262
I01
sg14
(I00
I00
I00
tp3043
sg9
I0
sba(iModules.cell
Cell
p3044
(dp3045
g10
I01
sg262
I01
sg14
(I00
I00
I00
tp3046
sg9
I0
sba(iModules.cell
Cell
p3047
(dp3048
g10
I01
sg262
I01
sg14
(I00
I00
I00
tp3049
sg9
I0
sba(iModules.cell
Cell
p3050
(dp3051
g10
I01
sg262
I01
sg14
(I00
I00
I00
tp3052
sg9
I0
sba(iModules.cell
Cell
p3053
(dp3054
g10
I01
sg262
I01
sg14
(I00
I00
I00
tp3055
sg9
I0
sba(iModules.cell
Cell
p3056
(dp3057
g10
I00
sg262
I00
sg14
(I01
I01
tp3058
sg9
I1
sba(iModules.cell
Cell
p3059
(dp3060
g10
I00
sg262
I00
sg14
(I01
I01
tp3061
sg9
I1
sba(iModules.cell
Cell
p3062
(dp3063
g10
I00
sg262
I00
sg14
(I01
I01
tp3064
sg9
I1
sba(iModules.cell
Cell
p3065
(dp3066
g10
I00
sg262
I00
sg14
(I01
I01
tp3067
sg9
I1
sba(iModules.cell
Cell
p3068
(dp3069
g10
I00
sg262
I00
sg14
(I01
I01
tp3070
sg9
I1
sba(iModules.cell
Cell
p3071
(dp3072
g10
I00
sg11
I00
sg14
(I01
I01
tp3073
sg9
I1
sba(iModules.cell
Cell
p3074
(dp3075
g10
I00
sg11
I00
sg14
(I01
I01
tp3076
sg9
I1
sba(iModules.cell
Cell
p3077
(dp3078
g10
I00
sg11
I00
sg14
(I01
I01
tp3079
sg9
I1
sba(iModules.cell
Cell
p3080
(dp3081
g10
I00
sg11
I00
sg14
(I01
I01
tp3082
sg9
I1
sba(iModules.cell
Cell
p3083
(dp3084
g10
I00
sg11
I00
sg14
(I01
I01
tp3085
sg9
I1
sba(iModules.cell
Cell
p3086
(dp3087
g10
I00
sg11
I00
sg14
(I01
I01
tp3088
sg9
I1
sba(iModules.cell
Cell
p3089
(dp3090
g10
I00
sg11
I00
sg14
(I01
I01
tp3091
sg9
I1
sba(iModules.cell
Cell
p3092
(dp3093
g10
I00
sg11
I00
sg14
(I01
I01
tp3094
sg9
I1
sba(iModules.cell
Cell
p3095
(dp3096
g10
I00
sg11
I00
sg14
(I01
I01
tp3097
sg9
I1
sba(iModules.cell
Cell
p3098
(dp3099
g10
I00
sg11
I00
sg14
(I01
I01
tp3100
sg9
I1
sba(iModules.cell
Cell
p3101
(dp3102
g10
I00
sg11
I00
sg14
(I01
I01
tp3103
sg9
I1
sba(iModules.cell
Cell
p3104
(dp3105
g10
I00
sg11
I00
sg14
(I01
I01
tp3106
sg9
I1
sba(iModules.cell
Cell
p3107
(dp3108
g10
I00
sg11
I00
sg14
(I01
I01
tp3109
sg9
I1
sba(iModules.cell
Cell
p3110
(dp3111
g10
I00
sg11
I00
sg14
(I01
I01
tp3112
sg9
I1
sba(iModules.cell
Cell
p3113
(dp3114
g10
I00
sg11
I00
sg14
(I01
I01
tp3115
sg9
I1
sba(iModules.cell
Cell
p3116
(dp3117
g10
I00
sg11
I00
sg14
(I01
I01
tp3118
sg9
I1
sba(iModules.cell
Cell
p3119
(dp3120
g10
I00
sg11
I00
sg14
(I01
I01
tp3121
sg9
I1
sba(iModules.cell
Cell
p3122
(dp3123
g10
I00
sg11
I00
sg14
(I01
I01
tp3124
sg9
I1
sba(iModules.cell
Cell
p3125
(dp3126
g10
I00
sg11
I00
sg14
(I01
I01
tp3127
sg9
I1
sba(iModules.cell
Cell
p3128
(dp3129
g10
I00
sg11
I00
sg14
(I01
I01
tp3130
sg9
I1
sba(iModules.cell
Cell
p3131
(dp3132
g10
I00
sg11
I00
sg14
(I01
I01
tp3133
sg9
I1
sba(iModules.cell
Cell
p3134
(dp3135
g10
I00
sg11
I00
sg14
(I01
I01
tp3136
sg9
I1
sba(iModules.cell
Cell
p3137
(dp3138
g10
I00
sg11
I00
sg14
(I01
I01
tp3139
sg9
I1
sba(iModules.cell
Cell
p3140
(dp3141
g10
I00
sg11
I00
sg14
(I00
I00
tp3142
sg9
I0
sba(iModules.cell
Cell
p3143
(dp3144
g10
I00
sg11
I00
sg14
(I00
I00
tp3145
sg9
I0
sba(iModules.cell
Cell
p3146
(dp3147
g10
I00
sg11
I00
sg14
(I00
I00
tp3148
sg9
I0
sba(iModules.cell
Cell
p3149
(dp3150
g10
I00
sg11
I00
sg14
(I00
I00
tp3151
sg9
I0
sba(iModules.cell
Cell
p3152
(dp3153
g10
I00
sg11
I00
sg14
(I00
I00
tp3154
sg9
I0
sba(iModules.cell
Cell
p3155
(dp3156
g10
I00
sg11
I00
sg14
(I00
I00
tp3157
sg9
I0
sba(iModules.cell
Cell
p3158
(dp3159
g10
I00
sg11
I00
sg14
(I00
I00
tp3160
sg9
I0
sba(iModules.cell
Cell
p3161
(dp3162
g10
I00
sg11
I00
sg14
(I00
I00
tp3163
sg9
I0
sba(iModules.cell
Cell
p3164
(dp3165
g10
I00
sg11
I00
sg14
(I00
I00
tp3166
sg9
I0
sba(iModules.cell
Cell
p3167
(dp3168
g10
I00
sg11
I00
sg14
(I00
I00
tp3169
sg9
I0
sba(iModules.cell
Cell
p3170
(dp3171
g10
I00
sg11
I00
sg14
(I00
I00
tp3172
sg9
I0
sba(iModules.cell
Cell
p3173
(dp3174
g10
I00
sg11
I00
sg14
(I00
I00
tp3175
sg9
I0
sba(iModules.cell
Cell
p3176
(dp3177
g10
I00
sg11
I00
sg14
(I00
I00
tp3178
sg9
I0
sba(iModules.cell
Cell
p3179
(dp3180
g10
I00
sg11
I00
sg14
(I00
I00
tp3181
sg9
I0
sba(iModules.cell
Cell
p3182
(dp3183
g10
I00
sg11
I00
sg14
(I00
I00
tp3184
sg9
I0
sba(iModules.cell
Cell
p3185
(dp3186
g10
I00
sg11
I00
sg14
(I00
I00
tp3187
sg9
I0
sba(iModules.cell
Cell
p3188
(dp3189
g10
I00
sg11
I00
sg14
(I00
I00
tp3190
sg9
I0
sba(iModules.cell
Cell
p3191
(dp3192
g10
I00
sg11
I00
sg14
(I00
I00
tp3193
sg9
I0
sba(iModules.cell
Cell
p3194
(dp3195
g10
I00
sg11
I00
sg14
(I00
I00
tp3196
sg9
I0
sba(iModules.cell
Cell
p3197
(dp3198
g14
(I00
I00
tp3199
sbaa(lp3200
(iModules.cell
Cell
p3201
(dp3202
g10
I00
sg11
I00
sg14
(I00
I00
tp3203
sg9
I0
sba(iModules.cell
Cell
p3204
(dp3205
g10
I00
sg11
I00
sg14
(I00
I00
tp3206
sg9
I0
sba(iModules.cell
Cell
p3207
(dp3208
g10
I00
sg11
I00
sg14
(I01
I01
tp3209
sg9
I1
sba(iModules.cell
Cell
p3210
(dp3211
g10
I00
sg11
I00
sg14
(I01
I01
tp3212
sg9
I1
sba(iModules.cell
Cell
p3213
(dp3214
g10
I00
sg11
I00
sg14
(I01
I01
tp3215
sg9
I1
sba(iModules.cell
Cell
p3216
(dp3217
g10
I00
sg11
I00
sg14
(I01
I01
tp3218
sg9
I1
sba(iModules.cell
Cell
p3219
(dp3220
g10
I00
sg11
I00
sg14
(I01
I01
tp3221
sg9
I1
sba(iModules.cell
Cell
p3222
(dp3223
g10
I00
sg11
I00
sg14
(I01
I01
tp3224
sg9
I1
sba(iModules.cell
Cell
p3225
(dp3226
g10
I00
sg11
I00
sg14
(I01
I01
tp3227
sg9
I1
sba(iModules.cell
Cell
p3228
(dp3229
g10
I00
sg262
I00
sg14
(I01
I01
tp3230
sg9
I1
sba(iModules.cell
Cell
p3231
(dp3232
g10
I00
sg262
I00
sg14
(I01
I01
tp3233
sg9
I1
sba(iModules.cell
Cell
p3234
(dp3235
g10
I00
sg262
I00
sg14
(I01
I01
tp3236
sg9
I1
sba(iModules.cell
Cell
p3237
(dp3238
g10
I00
sg262
I00
sg14
(I01
I01
tp3239
sg9
I1
sba(iModules.cell
Cell
p3240
(dp3241
g10
I00
sg262
I00
sg14
(I01
I01
tp3242
sg9
I1
sba(iModules.cell
Cell
p3243
(dp3244
g10
I00
sg262
I00
sg14
(I01
I01
tp3245
sg9
I1
sba(iModules.cell
Cell
p3246
(dp3247
g10
I00
sg262
I00
sg14
(I01
I01
tp3248
sg9
I1
sba(iModules.cell
Cell
p3249
(dp3250
g10
I00
sg262
I00
sg14
(I01
I01
tp3251
sg9
I1
sba(iModules.cell
Cell
p3252
(dp3253
g10
I00
sg262
I00
sg14
(I01
I01
tp3254
sg9
I1
sba(iModules.cell
Cell
p3255
(dp3256
g10
I00
sg262
I00
sg14
(I01
I01
tp3257
sg9
I1
sba(iModules.cell
Cell
p3258
(dp3259
g10
I00
sg262
I00
sg14
(I01
I01
tp3260
sg9
I1
sba(iModules.cell
Cell
p3261
(dp3262
g10
I00
sg262
I00
sg14
(I01
I01
tp3263
sg9
I1
sba(iModules.cell
Cell
p3264
(dp3265
g10
I00
sg262
I00
sg14
(I01
I01
tp3266
sg9
I1
sba(iModules.cell
Cell
p3267
(dp3268
g10
I00
sg262
I00
sg14
(I01
I01
tp3269
sg9
I1
sba(iModules.cell
Cell
p3270
(dp3271
g10
I00
sg262
I00
sg14
(I01
I01
tp3272
sg9
I1
sba(iModules.cell
Cell
p3273
(dp3274
g10
I00
sg262
I00
sg14
(I01
I01
tp3275
sg9
I1
sba(iModules.cell
Cell
p3276
(dp3277
g10
I00
sg262
I00
sg14
(I01
I01
tp3278
sg9
I1
sba(iModules.cell
Cell
p3279
(dp3280
g10
I00
sg262
I00
sg14
(I01
I01
tp3281
sg9
I1
sba(iModules.cell
Cell
p3282
(dp3283
g10
I00
sg262
I00
sg14
(I01
I01
tp3284
sg9
I1
sba(iModules.cell
Cell
p3285
(dp3286
g10
I00
sg262
I00
sg14
(I01
I01
tp3287
sg9
I1
sba(iModules.cell
Cell
p3288
(dp3289
g10
I00
sg262
I00
sg14
(I01
I01
tp3290
sg9
I1
sba(iModules.cell
Cell
p3291
(dp3292
g10
I00
sg262
I00
sg14
(I01
I01
tp3293
sg9
I1
sba(iModules.cell
Cell
p3294
(dp3295
g10
I00
sg262
I00
sg14
(I01
I01
tp3296
sg9
I1
sba(iModules.cell
Cell
p3297
(dp3298
g10
I00
sg262
I00
sg14
(I01
I01
tp3299
sg9
I1
sba(iModules.cell
Cell
p3300
(dp3301
g10
I00
sg262
I00
sg14
(I01
I01
tp3302
sg9
I1
sba(iModules.cell
Cell
p3303
(dp3304
g10
I00
sg262
I00
sg14
(I01
I01
tp3305
sg9
I1
sba(iModules.cell
Cell
p3306
(dp3307
g10
I00
sg262
I00
sg14
(I01
I01
tp3308
sg9
I1
sba(iModules.cell
Cell
p3309
(dp3310
g10
I00
sg262
I00
sg14
(I01
I01
tp3311
sg9
I1
sba(iModules.cell
Cell
p3312
(dp3313
g10
I00
sg262
I00
sg14
(I01
I01
tp3314
sg9
I1
sba(iModules.cell
Cell
p3315
(dp3316
g10
I00
sg11
I00
sg14
(I01
I01
tp3317
sg9
I1
sba(iModules.cell
Cell
p3318
(dp3319
g10
I00
sg11
I00
sg14
(I01
I01
tp3320
sg9
I1
sba(iModules.cell
Cell
p3321
(dp3322
g10
I00
sg11
I00
sg14
(I01
I01
tp3323
sg9
I1
sba(iModules.cell
Cell
p3324
(dp3325
g10
I00
sg11
I00
sg14
(I01
I01
tp3326
sg9
I1
sba(iModules.cell
Cell
p3327
(dp3328
g10
I00
sg11
I00
sg14
(I01
I01
tp3329
sg9
I1
sba(iModules.cell
Cell
p3330
(dp3331
g10
I00
sg11
I00
sg14
(I01
I01
tp3332
sg9
I1
sba(iModules.cell
Cell
p3333
(dp3334
g10
I00
sg11
I00
sg14
(I01
I01
tp3335
sg9
I1
sba(iModules.cell
Cell
p3336
(dp3337
g10
I00
sg11
I00
sg14
(I01
I01
tp3338
sg9
I1
sba(iModules.cell
Cell
p3339
(dp3340
g10
I00
sg11
I00
sg14
(I01
I01
tp3341
sg9
I1
sba(iModules.cell
Cell
p3342
(dp3343
g10
I00
sg11
I00
sg14
(I01
I01
tp3344
sg9
I1
sba(iModules.cell
Cell
p3345
(dp3346
g10
I00
sg11
I00
sg14
(I01
I01
tp3347
sg9
I1
sba(iModules.cell
Cell
p3348
(dp3349
g10
I00
sg11
I00
sg14
(I01
I01
tp3350
sg9
I1
sba(iModules.cell
Cell
p3351
(dp3352
g10
I00
sg11
I00
sg14
(I01
I01
tp3353
sg9
I1
sba(iModules.cell
Cell
p3354
(dp3355
g10
I00
sg11
I00
sg14
(I01
I01
tp3356
sg9
I1
sba(iModules.cell
Cell
p3357
(dp3358
g10
I00
sg11
I00
sg14
(I01
I01
tp3359
sg9
I1
sba(iModules.cell
Cell
p3360
(dp3361
g10
I00
sg11
I00
sg14
(I01
I01
tp3362
sg9
I1
sba(iModules.cell
Cell
p3363
(dp3364
g10
I00
sg11
I00
sg14
(I01
I01
tp3365
sg9
I1
sba(iModules.cell
Cell
p3366
(dp3367
g10
I00
sg11
I00
sg14
(I01
I01
tp3368
sg9
I1
sba(iModules.cell
Cell
p3369
(dp3370
g10
I00
sg11
I00
sg14
(I01
I01
tp3371
sg9
I1
sba(iModules.cell
Cell
p3372
(dp3373
g10
I00
sg11
I00
sg14
(I01
I01
tp3374
sg9
I1
sba(iModules.cell
Cell
p3375
(dp3376
g10
I00
sg11
I00
sg14
(I01
I01
tp3377
sg9
I1
sba(iModules.cell
Cell
p3378
(dp3379
g10
I00
sg11
I00
sg14
(I01
I01
tp3380
sg9
I1
sba(iModules.cell
Cell
p3381
(dp3382
g10
I00
sg11
I00
sg14
(I01
I01
tp3383
sg9
I1
sba(iModules.cell
Cell
p3384
(dp3385
g10
I00
sg11
I00
sg14
(I00
I00
tp3386
sg9
I0
sba(iModules.cell
Cell
p3387
(dp3388
g10
I00
sg11
I00
sg14
(I00
I00
tp3389
sg9
I0
sba(iModules.cell
Cell
p3390
(dp3391
g10
I00
sg11
I00
sg14
(I00
I00
tp3392
sg9
I0
sba(iModules.cell
Cell
p3393
(dp3394
g10
I00
sg11
I00
sg14
(I00
I00
tp3395
sg9
I0
sba(iModules.cell
Cell
p3396
(dp3397
g10
I00
sg11
I00
sg14
(I00
I00
tp3398
sg9
I0
sba(iModules.cell
Cell
p3399
(dp3400
g10
I00
sg11
I00
sg14
(I00
I00
tp3401
sg9
I0
sba(iModules.cell
Cell
p3402
(dp3403
g10
I00
sg11
I00
sg14
(I00
I00
tp3404
sg9
I0
sba(iModules.cell
Cell
p3405
(dp3406
g10
I00
sg11
I00
sg14
(I00
I00
tp3407
sg9
I0
sba(iModules.cell
Cell
p3408
(dp3409
g10
I00
sg11
I00
sg14
(I00
I00
tp3410
sg9
I0
sba(iModules.cell
Cell
p3411
(dp3412
g10
I00
sg11
I00
sg14
(I00
I00
tp3413
sg9
I0
sba(iModules.cell
Cell
p3414
(dp3415
g10
I00
sg11
I00
sg14
(I00
I00
tp3416
sg9
I0
sba(iModules.cell
Cell
p3417
(dp3418
g10
I00
sg11
I00
sg14
(I00
I00
tp3419
sg9
I0
sba(iModules.cell
Cell
p3420
(dp3421
g10
I00
sg11
I00
sg14
(I00
I00
tp3422
sg9
I0
sba(iModules.cell
Cell
p3423
(dp3424
g10
I00
sg11
I00
sg14
(I00
I00
tp3425
sg9
I0
sba(iModules.cell
Cell
p3426
(dp3427
g10
I00
sg11
I00
sg14
(I00
I00
tp3428
sg9
I0
sba(iModules.cell
Cell
p3429
(dp3430
g10
I00
sg11
I00
sg14
(I00
I00
tp3431
sg9
I0
sba(iModules.cell
Cell
p3432
(dp3433
g10
I00
sg11
I00
sg14
(I00
I00
tp3434
sg9
I0
sba(iModules.cell
Cell
p3435
(dp3436
g10
I00
sg11
I00
sg14
(I00
I00
tp3437
sg9
I0
sba(iModules.cell
Cell
p3438
(dp3439
g10
I00
sg11
I00
sg14
(I00
I00
tp3440
sg9
I0
sba(iModules.cell
Cell
p3441
(dp3442
g14
(I00
I00
tp3443
sbaa(lp3444
(iModules.cell
Cell
p3445
(dp3446
g10
I00
sg11
I00
sg14
(I00
I00
tp3447
sg9
I0
sba(iModules.cell
Cell
p3448
(dp3449
g10
I00
sg11
I00
sg14
(I00
I00
tp3450
sg9
I0
sba(iModules.cell
Cell
p3451
(dp3452
g10
I00
sg11
I00
sg14
(I01
I01
tp3453
sg9
I1
sba(iModules.cell
Cell
p3454
(dp3455
g10
I00
sg11
I00
sg14
(I01
I01
tp3456
sg9
I1
sba(iModules.cell
Cell
p3457
(dp3458
g10
I00
sg11
I00
sg14
(I01
I01
tp3459
sg9
I1
sba(iModules.cell
Cell
p3460
(dp3461
g10
I00
sg11
I00
sg14
(I01
I01
tp3462
sg9
I1
sba(iModules.cell
Cell
p3463
(dp3464
g10
I00
sg11
I00
sg14
(I01
I01
tp3465
sg9
I1
sba(iModules.cell
Cell
p3466
(dp3467
g10
I00
sg11
I00
sg14
(I01
I01
tp3468
sg9
I1
sba(iModules.cell
Cell
p3469
(dp3470
g10
I00
sg11
I00
sg14
(I01
I01
tp3471
sg9
I1
sba(iModules.cell
Cell
p3472
(dp3473
g10
I00
sg262
I00
sg14
(I01
I01
tp3474
sg9
I1
sba(iModules.cell
Cell
p3475
(dp3476
g10
I00
sg262
I00
sg14
(I01
I01
tp3477
sg9
I1
sba(iModules.cell
Cell
p3478
(dp3479
g10
I00
sg262
I00
sg14
(I01
I01
tp3480
sg9
I1
sba(iModules.cell
Cell
p3481
(dp3482
g10
I00
sg262
I00
sg14
(I01
I01
tp3483
sg9
I1
sba(iModules.cell
Cell
p3484
(dp3485
g10
I00
sg262
I00
sg14
(I01
I01
tp3486
sg9
I1
sba(iModules.cell
Cell
p3487
(dp3488
g10
I00
sg262
I00
sg14
(I01
I01
tp3489
sg9
I1
sba(iModules.cell
Cell
p3490
(dp3491
g10
I00
sg262
I00
sg14
(I01
I01
tp3492
sg9
I1
sba(iModules.cell
Cell
p3493
(dp3494
g10
I00
sg262
I00
sg14
(I01
I01
tp3495
sg9
I1
sba(iModules.cell
Cell
p3496
(dp3497
g10
I00
sg262
I00
sg14
(I01
I01
tp3498
sg9
I1
sba(iModules.cell
Cell
p3499
(dp3500
g10
I00
sg262
I00
sg14
(I01
I01
tp3501
sg9
I1
sba(iModules.cell
Cell
p3502
(dp3503
g10
I00
sg262
I00
sg14
(I01
I01
tp3504
sg9
I1
sba(iModules.cell
Cell
p3505
(dp3506
g10
I00
sg262
I00
sg14
(I01
I01
tp3507
sg9
I1
sba(iModules.cell
Cell
p3508
(dp3509
g10
I00
sg262
I00
sg14
(I01
I01
tp3510
sg9
I1
sba(iModules.cell
Cell
p3511
(dp3512
g10
I00
sg262
I00
sg14
(I01
I01
tp3513
sg9
I1
sba(iModules.cell
Cell
p3514
(dp3515
g10
I00
sg262
I00
sg14
(I01
I01
tp3516
sg9
I1
sba(iModules.cell
Cell
p3517
(dp3518
g10
I00
sg262
I00
sg14
(I01
I01
tp3519
sg9
I1
sba(iModules.cell
Cell
p3520
(dp3521
g10
I00
sg262
I00
sg14
(I01
I01
tp3522
sg9
I1
sba(iModules.cell
Cell
p3523
(dp3524
g10
I00
sg262
I00
sg14
(I01
I01
tp3525
sg9
I1
sba(iModules.cell
Cell
p3526
(dp3527
g10
I00
sg262
I00
sg14
(I01
I01
tp3528
sg9
I1
sba(iModules.cell
Cell
p3529
(dp3530
g10
I00
sg262
I00
sg14
(I01
I01
tp3531
sg9
I1
sba(iModules.cell
Cell
p3532
(dp3533
g10
I00
sg262
I00
sg14
(I01
I01
tp3534
sg9
I1
sba(iModules.cell
Cell
p3535
(dp3536
g10
I00
sg262
I00
sg14
(I01
I01
tp3537
sg9
I1
sba(iModules.cell
Cell
p3538
(dp3539
g10
I00
sg262
I00
sg14
(I01
I01
tp3540
sg9
I1
sba(iModules.cell
Cell
p3541
(dp3542
g10
I00
sg262
I00
sg14
(I01
I01
tp3543
sg9
I1
sba(iModules.cell
Cell
p3544
(dp3545
g10
I00
sg262
I00
sg14
(I01
I01
tp3546
sg9
I1
sba(iModules.cell
Cell
p3547
(dp3548
g10
I00
sg262
I00
sg14
(I01
I01
tp3549
sg9
I1
sba(iModules.cell
Cell
p3550
(dp3551
g10
I00
sg262
I00
sg14
(I01
I01
tp3552
sg9
I1
sba(iModules.cell
Cell
p3553
(dp3554
g10
I00
sg262
I00
sg14
(I01
I01
tp3555
sg9
I1
sba(iModules.cell
Cell
p3556
(dp3557
g10
I00
sg262
I00
sg14
(I01
I01
tp3558
sg9
I1
sba(iModules.cell
Cell
p3559
(dp3560
g10
I00
sg11
I00
sg14
(I01
I01
tp3561
sg9
I1
sba(iModules.cell
Cell
p3562
(dp3563
g10
I00
sg11
I00
sg14
(I01
I01
tp3564
sg9
I1
sba(iModules.cell
Cell
p3565
(dp3566
g10
I00
sg11
I00
sg14
(I01
I01
tp3567
sg9
I1
sba(iModules.cell
Cell
p3568
(dp3569
g10
I00
sg11
I00
sg14
(I01
I01
tp3570
sg9
I1
sba(iModules.cell
Cell
p3571
(dp3572
g10
I00
sg11
I00
sg14
(I01
I01
tp3573
sg9
I1
sba(iModules.cell
Cell
p3574
(dp3575
g10
I00
sg11
I00
sg14
(I01
I01
tp3576
sg9
I1
sba(iModules.cell
Cell
p3577
(dp3578
g10
I00
sg11
I00
sg14
(I01
I01
tp3579
sg9
I1
sba(iModules.cell
Cell
p3580
(dp3581
g10
I00
sg11
I00
sg14
(I01
I01
tp3582
sg9
I1
sba(iModules.cell
Cell
p3583
(dp3584
g10
I00
sg11
I00
sg14
(I01
I01
tp3585
sg9
I1
sba(iModules.cell
Cell
p3586
(dp3587
g10
I00
sg11
I00
sg14
(I01
I01
tp3588
sg9
I1
sba(iModules.cell
Cell
p3589
(dp3590
g10
I00
sg11
I00
sg14
(I01
I01
tp3591
sg9
I1
sba(iModules.cell
Cell
p3592
(dp3593
g10
I00
sg11
I00
sg14
(I01
I01
tp3594
sg9
I1
sba(iModules.cell
Cell
p3595
(dp3596
g10
I00
sg11
I00
sg14
(I01
I01
tp3597
sg9
I1
sba(iModules.cell
Cell
p3598
(dp3599
g10
I00
sg11
I00
sg14
(I01
I01
tp3600
sg9
I1
sba(iModules.cell
Cell
p3601
(dp3602
g10
I00
sg11
I00
sg14
(I01
I01
tp3603
sg9
I1
sba(iModules.cell
Cell
p3604
(dp3605
g10
I00
sg11
I00
sg14
(I01
I01
tp3606
sg9
I1
sba(iModules.cell
Cell
p3607
(dp3608
g10
I00
sg11
I00
sg14
(I01
I01
tp3609
sg9
I1
sba(iModules.cell
Cell
p3610
(dp3611
g10
I00
sg11
I00
sg14
(I01
I01
tp3612
sg9
I1
sba(iModules.cell
Cell
p3613
(dp3614
g10
I00
sg11
I00
sg14
(I01
I01
tp3615
sg9
I1
sba(iModules.cell
Cell
p3616
(dp3617
g10
I00
sg11
I00
sg14
(I01
I01
tp3618
sg9
I1
sba(iModules.cell
Cell
p3619
(dp3620
g10
I00
sg11
I00
sg14
(I01
I01
tp3621
sg9
I1
sba(iModules.cell
Cell
p3622
(dp3623
g10
I00
sg11
I00
sg14
(I01
I01
tp3624
sg9
I1
sba(iModules.cell
Cell
p3625
(dp3626
g10
I00
sg11
I00
sg14
(I01
I01
tp3627
sg9
I1
sba(iModules.cell
Cell
p3628
(dp3629
g10
I00
sg11
I00
sg14
(I00
I00
tp3630
sg9
I0
sba(iModules.cell
Cell
p3631
(dp3632
g10
I00
sg11
I00
sg14
(I00
I00
tp3633
sg9
I0
sba(iModules.cell
Cell
p3634
(dp3635
g10
I00
sg11
I00
sg14
(I00
I00
tp3636
sg9
I0
sba(iModules.cell
Cell
p3637
(dp3638
g10
I00
sg11
I00
sg14
(I00
I00
tp3639
sg9
I0
sba(iModules.cell
Cell
p3640
(dp3641
g10
I00
sg11
I00
sg14
(I00
I00
tp3642
sg9
I0
sba(iModules.cell
Cell
p3643
(dp3644
g10
I00
sg11
I00
sg14
(I00
I00
tp3645
sg9
I0
sba(iModules.cell
Cell
p3646
(dp3647
g10
I00
sg11
I00
sg14
(I00
I00
tp3648
sg9
I0
sba(iModules.cell
Cell
p3649
(dp3650
g10
I00
sg11
I00
sg14
(I00
I00
tp3651
sg9
I0
sba(iModules.cell
Cell
p3652
(dp3653
g10
I00
sg11
I00
sg14
(I00
I00
tp3654
sg9
I0
sba(iModules.cell
Cell
p3655
(dp3656
g10
I00
sg11
I00
sg14
(I00
I00
tp3657
sg9
I0
sba(iModules.cell
Cell
p3658
(dp3659
g10
I00
sg11
I00
sg14
(I00
I00
tp3660
sg9
I0
sba(iModules.cell
Cell
p3661
(dp3662
g10
I00
sg11
I00
sg14
(I00
I00
tp3663
sg9
I0
sba(iModules.cell
Cell
p3664
(dp3665
g10
I00
sg11
I00
sg14
(I00
I00
tp3666
sg9
I0
sba(iModules.cell
Cell
p3667
(dp3668
g10
I00
sg11
I00
sg14
(I00
I00
tp3669
sg9
I0
sba(iModules.cell
Cell
p3670
(dp3671
g10
I00
sg11
I00
sg14
(I00
I00
tp3672
sg9
I0
sba(iModules.cell
Cell
p3673
(dp3674
g10
I00
sg11
I00
sg14
(I00
I00
tp3675
sg9
I0
sba(iModules.cell
Cell
p3676
(dp3677
g10
I00
sg11
I00
sg14
(I00
I00
tp3678
sg9
I0
sba(iModules.cell
Cell
p3679
(dp3680
g10
I00
sg11
I00
sg14
(I00
I00
tp3681
sg9
I0
sba(iModules.cell
Cell
p3682
(dp3683
g10
I00
sg11
I00
sg14
(I00
I00
tp3684
sg9
I0
sba(iModules.cell
Cell
p3685
(dp3686
g14
(I00
I00
tp3687
sbaa(lp3688
(iModules.cell
Cell
p3689
(dp3690
g10
I00
sg11
I00
sg14
(I00
I00
tp3691
sg9
I0
sba(iModules.cell
Cell
p3692
(dp3693
g10
I00
sg11
I00
sg14
(I00
I00
tp3694
sg9
I0
sba(iModules.cell
Cell
p3695
(dp3696
g10
I00
sg11
I00
sg14
(I01
I01
tp3697
sg9
I1
sba(iModules.cell
Cell
p3698
(dp3699
g10
I00
sg11
I00
sg14
(I01
I01
tp3700
sg9
I1
sba(iModules.cell
Cell
p3701
(dp3702
g10
I00
sg11
I00
sg14
(I01
I01
tp3703
sg9
I1
sba(iModules.cell
Cell
p3704
(dp3705
g10
I00
sg11
I00
sg14
(I01
I01
tp3706
sg9
I1
sba(iModules.cell
Cell
p3707
(dp3708
g10
I00
sg11
I00
sg14
(I01
I01
tp3709
sg9
I1
sba(iModules.cell
Cell
p3710
(dp3711
g10
I00
sg11
I00
sg14
(I01
I01
tp3712
sg9
I1
sba(iModules.cell
Cell
p3713
(dp3714
g10
I00
sg11
I00
sg14
(I01
I01
tp3715
sg9
I1
sba(iModules.cell
Cell
p3716
(dp3717
g10
I00
sg11
I00
sg14
(I01
I01
tp3718
sg9
I1
sba(iModules.cell
Cell
p3719
(dp3720
g10
I00
sg11
I00
sg14
(I01
I01
tp3721
sg9
I1
sba(iModules.cell
Cell
p3722
(dp3723
g10
I00
sg11
I00
sg14
(I01
I01
tp3724
sg9
I1
sba(iModules.cell
Cell
p3725
(dp3726
g10
I00
sg11
I00
sg14
(I01
I01
tp3727
sg9
I1
sba(iModules.cell
Cell
p3728
(dp3729
g10
I00
sg11
I00
sg14
(I01
I01
tp3730
sg9
I1
sba(iModules.cell
Cell
p3731
(dp3732
g10
I00
sg11
I00
sg14
(I01
I01
tp3733
sg9
I1
sba(iModules.cell
Cell
p3734
(dp3735
g10
I00
sg11
I00
sg14
(I01
I01
tp3736
sg9
I1
sba(iModules.cell
Cell
p3737
(dp3738
g10
I00
sg11
I00
sg14
(I01
I01
tp3739
sg9
I1
sba(iModules.cell
Cell
p3740
(dp3741
g10
I00
sg11
I00
sg14
(I01
I01
tp3742
sg9
I1
sba(iModules.cell
Cell
p3743
(dp3744
g10
I00
sg11
I00
sg14
(I01
I01
tp3745
sg9
I1
sba(iModules.cell
Cell
p3746
(dp3747
g10
I00
sg262
I00
sg14
(I01
I01
tp3748
sg9
I1
sba(iModules.cell
Cell
p3749
(dp3750
g10
I00
sg262
I00
sg14
(I01
I01
tp3751
sg9
I1
sba(iModules.cell
Cell
p3752
(dp3753
g10
I00
sg262
I00
sg14
(I01
I01
tp3754
sg9
I1
sba(iModules.cell
Cell
p3755
(dp3756
g10
I00
sg262
I00
sg14
(I01
I01
tp3757
sg9
I1
sba(iModules.cell
Cell
p3758
(dp3759
g10
I00
sg262
I00
sg14
(I01
I01
tp3760
sg9
I1
sba(iModules.cell
Cell
p3761
(dp3762
g10
I00
sg262
I00
sg14
(I01
I01
tp3763
sg9
I1
sba(iModules.cell
Cell
p3764
(dp3765
g10
I00
sg262
I00
sg14
(I01
I01
tp3766
sg9
I1
sba(iModules.cell
Cell
p3767
(dp3768
g10
I00
sg262
I00
sg14
(I01
I01
tp3769
sg9
I1
sba(iModules.cell
Cell
p3770
(dp3771
g10
I00
sg262
I00
sg14
(I01
I01
tp3772
sg9
I1
sba(iModules.cell
Cell
p3773
(dp3774
g10
I00
sg262
I00
sg14
(I01
I01
tp3775
sg9
I1
sba(iModules.cell
Cell
p3776
(dp3777
g10
I00
sg262
I00
sg14
(I01
I01
tp3778
sg9
I1
sba(iModules.cell
Cell
p3779
(dp3780
g10
I00
sg262
I00
sg14
(I01
I01
tp3781
sg9
I1
sba(iModules.cell
Cell
p3782
(dp3783
g10
I00
sg262
I00
sg14
(I01
I01
tp3784
sg9
I1
sba(iModules.cell
Cell
p3785
(dp3786
g10
I00
sg262
I00
sg14
(I01
I01
tp3787
sg9
I1
sba(iModules.cell
Cell
p3788
(dp3789
g10
I00
sg262
I00
sg14
(I01
I01
tp3790
sg9
I1
sba(iModules.cell
Cell
p3791
(dp3792
g10
I00
sg262
I00
sg14
(I01
I01
tp3793
sg9
I1
sba(iModules.cell
Cell
p3794
(dp3795
g10
I00
sg262
I00
sg14
(I01
I01
tp3796
sg9
I1
sba(iModules.cell
Cell
p3797
(dp3798
g10
I00
sg262
I00
sg14
(I01
I01
tp3799
sg9
I1
sba(iModules.cell
Cell
p3800
(dp3801
g10
I00
sg262
I00
sg14
(I01
I01
tp3802
sg9
I1
sba(iModules.cell
Cell
p3803
(dp3804
g10
I00
sg11
I00
sg14
(I01
I01
tp3805
sg9
I1
sba(iModules.cell
Cell
p3806
(dp3807
g10
I00
sg11
I00
sg14
(I01
I01
tp3808
sg9
I1
sba(iModules.cell
Cell
p3809
(dp3810
g10
I00
sg11
I00
sg14
(I01
I01
tp3811
sg9
I1
sba(iModules.cell
Cell
p3812
(dp3813
g10
I00
sg11
I00
sg14
(I01
I01
tp3814
sg9
I1
sba(iModules.cell
Cell
p3815
(dp3816
g10
I00
sg11
I00
sg14
(I01
I01
tp3817
sg9
I1
sba(iModules.cell
Cell
p3818
(dp3819
g10
I00
sg11
I00
sg14
(I01
I01
tp3820
sg9
I1
sba(iModules.cell
Cell
p3821
(dp3822
g10
I00
sg11
I00
sg14
(I01
I01
tp3823
sg9
I1
sba(iModules.cell
Cell
p3824
(dp3825
g10
I00
sg11
I00
sg14
(I01
I01
tp3826
sg9
I1
sba(iModules.cell
Cell
p3827
(dp3828
g10
I00
sg11
I00
sg14
(I01
I01
tp3829
sg9
I1
sba(iModules.cell
Cell
p3830
(dp3831
g10
I00
sg11
I00
sg14
(I01
I01
tp3832
sg9
I1
sba(iModules.cell
Cell
p3833
(dp3834
g10
I00
sg11
I00
sg14
(I01
I01
tp3835
sg9
I1
sba(iModules.cell
Cell
p3836
(dp3837
g10
I00
sg11
I00
sg14
(I01
I01
tp3838
sg9
I1
sba(iModules.cell
Cell
p3839
(dp3840
g10
I00
sg11
I00
sg14
(I01
I01
tp3841
sg9
I1
sba(iModules.cell
Cell
p3842
(dp3843
g10
I00
sg11
I00
sg14
(I01
I01
tp3844
sg9
I1
sba(iModules.cell
Cell
p3845
(dp3846
g10
I00
sg11
I00
sg14
(I01
I01
tp3847
sg9
I1
sba(iModules.cell
Cell
p3848
(dp3849
g10
I00
sg11
I00
sg14
(I01
I01
tp3850
sg9
I1
sba(iModules.cell
Cell
p3851
(dp3852
g10
I00
sg11
I00
sg14
(I01
I01
tp3853
sg9
I1
sba(iModules.cell
Cell
p3854
(dp3855
g10
I00
sg11
I00
sg14
(I01
I01
tp3856
sg9
I1
sba(iModules.cell
Cell
p3857
(dp3858
g10
I00
sg11
I00
sg14
(I01
I01
tp3859
sg9
I1
sba(iModules.cell
Cell
p3860
(dp3861
g10
I00
sg11
I00
sg14
(I01
I01
tp3862
sg9
I1
sba(iModules.cell
Cell
p3863
(dp3864
g10
I00
sg11
I00
sg14
(I01
I01
tp3865
sg9
I1
sba(iModules.cell
Cell
p3866
(dp3867
g10
I00
sg11
I00
sg14
(I01
I01
tp3868
sg9
I1
sba(iModules.cell
Cell
p3869
(dp3870
g10
I00
sg11
I00
sg14
(I01
I01
tp3871
sg9
I1
sba(iModules.cell
Cell
p3872
(dp3873
g10
I00
sg11
I00
sg14
(I00
I00
tp3874
sg9
I0
sba(iModules.cell
Cell
p3875
(dp3876
g10
I00
sg11
I00
sg14
(I00
I00
tp3877
sg9
I0
sba(iModules.cell
Cell
p3878
(dp3879
g10
I00
sg11
I00
sg14
(I00
I00
tp3880
sg9
I0
sba(iModules.cell
Cell
p3881
(dp3882
g10
I00
sg11
I00
sg14
(I00
I00
tp3883
sg9
I0
sba(iModules.cell
Cell
p3884
(dp3885
g10
I00
sg11
I00
sg14
(I00
I00
tp3886
sg9
I0
sba(iModules.cell
Cell
p3887
(dp3888
g10
I00
sg11
I00
sg14
(I00
I00
tp3889
sg9
I0
sba(iModules.cell
Cell
p3890
(dp3891
g10
I00
sg11
I00
sg14
(I00
I00
tp3892
sg9
I0
sba(iModules.cell
Cell
p3893
(dp3894
g10
I00
sg11
I00
sg14
(I00
I00
tp3895
sg9
I0
sba(iModules.cell
Cell
p3896
(dp3897
g10
I00
sg11
I00
sg14
(I00
I00
tp3898
sg9
I0
sba(iModules.cell
Cell
p3899
(dp3900
g10
I00
sg11
I00
sg14
(I00
I00
tp3901
sg9
I0
sba(iModules.cell
Cell
p3902
(dp3903
g10
I00
sg11
I00
sg14
(I00
I00
tp3904
sg9
I0
sba(iModules.cell
Cell
p3905
(dp3906
g10
I00
sg11
I00
sg14
(I00
I00
tp3907
sg9
I0
sba(iModules.cell
Cell
p3908
(dp3909
g10
I00
sg11
I00
sg14
(I00
I00
tp3910
sg9
I0
sba(iModules.cell
Cell
p3911
(dp3912
g10
I00
sg11
I00
sg14
(I00
I00
tp3913
sg9
I0
sba(iModules.cell
Cell
p3914
(dp3915
g10
I00
sg11
I00
sg14
(I00
I00
tp3916
sg9
I0
sba(iModules.cell
Cell
p3917
(dp3918
g10
I00
sg11
I00
sg14
(I00
I00
tp3919
sg9
I0
sba(iModules.cell
Cell
p3920
(dp3921
g10
I00
sg11
I00
sg14
(I00
I00
tp3922
sg9
I0
sba(iModules.cell
Cell
p3923
(dp3924
g10
I00
sg11
I00
sg14
(I00
I00
tp3925
sg9
I0
sba(iModules.cell
Cell
p3926
(dp3927
g10
I00
sg11
I00
sg14
(I00
I00
tp3928
sg9
I0
sba(iModules.cell
Cell
p3929
(dp3930
g14
(I00
I00
tp3931
sbaa(lp3932
(iModules.cell
Cell
p3933
(dp3934
g10
I00
sg11
I00
sg14
(I00
I00
tp3935
sg9
I0
sba(iModules.cell
Cell
p3936
(dp3937
g10
I00
sg11
I00
sg14
(I00
I00
tp3938
sg9
I0
sba(iModules.cell
Cell
p3939
(dp3940
g10
I00
sg11
I00
sg14
(I01
I01
tp3941
sg9
I1
sba(iModules.cell
Cell
p3942
(dp3943
g10
I00
sg11
I00
sg14
(I01
I01
tp3944
sg9
I1
sba(iModules.cell
Cell
p3945
(dp3946
g10
I00
sg11
I00
sg14
(I01
I01
tp3947
sg9
I1
sba(iModules.cell
Cell
p3948
(dp3949
g10
I00
sg11
I00
sg14
(I01
I01
tp3950
sg9
I1
sba(iModules.cell
Cell
p3951
(dp3952
g10
I00
sg11
I00
sg14
(I01
I01
tp3953
sg9
I1
sba(iModules.cell
Cell
p3954
(dp3955
g10
I00
sg11
I00
sg14
(I01
I01
tp3956
sg9
I1
sba(iModules.cell
Cell
p3957
(dp3958
g10
I00
sg11
I00
sg14
(I01
I01
tp3959
sg9
I1
sba(iModules.cell
Cell
p3960
(dp3961
g10
I00
sg11
I00
sg14
(I01
I01
tp3962
sg9
I1
sba(iModules.cell
Cell
p3963
(dp3964
g10
I00
sg11
I00
sg14
(I01
I01
tp3965
sg9
I1
sba(iModules.cell
Cell
p3966
(dp3967
g10
I00
sg11
I00
sg14
(I01
I01
tp3968
sg9
I1
sba(iModules.cell
Cell
p3969
(dp3970
g10
I00
sg11
I00
sg14
(I01
I01
tp3971
sg9
I1
sba(iModules.cell
Cell
p3972
(dp3973
g10
I00
sg11
I00
sg14
(I01
I01
tp3974
sg9
I1
sba(iModules.cell
Cell
p3975
(dp3976
g10
I00
sg11
I00
sg14
(I01
I01
tp3977
sg9
I1
sba(iModules.cell
Cell
p3978
(dp3979
g10
I00
sg11
I00
sg14
(I01
I01
tp3980
sg9
I1
sba(iModules.cell
Cell
p3981
(dp3982
g10
I00
sg11
I00
sg14
(I01
I01
tp3983
sg9
I1
sba(iModules.cell
Cell
p3984
(dp3985
g10
I00
sg11
I00
sg14
(I01
I01
tp3986
sg9
I1
sba(iModules.cell
Cell
p3987
(dp3988
g10
I00
sg11
I00
sg14
(I01
I01
tp3989
sg9
I1
sba(iModules.cell
Cell
p3990
(dp3991
g10
I00
sg262
I00
sg14
(I01
I01
tp3992
sg9
I1
sba(iModules.cell
Cell
p3993
(dp3994
g10
I00
sg262
I00
sg14
(I01
I01
tp3995
sg9
I1
sba(iModules.cell
Cell
p3996
(dp3997
g10
I00
sg262
I00
sg14
(I01
I01
tp3998
sg9
I1
sba(iModules.cell
Cell
p3999
(dp4000
g10
I00
sg262
I00
sg14
(I01
I01
tp4001
sg9
I1
sba(iModules.cell
Cell
p4002
(dp4003
g10
I00
sg262
I00
sg14
(I01
I01
tp4004
sg9
I1
sba(iModules.cell
Cell
p4005
(dp4006
g10
I00
sg262
I00
sg14
(I01
I01
tp4007
sg9
I1
sba(iModules.cell
Cell
p4008
(dp4009
g10
I00
sg262
I00
sg14
(I01
I01
tp4010
sg9
I1
sba(iModules.cell
Cell
p4011
(dp4012
g10
I00
sg262
I00
sg14
(I01
I01
tp4013
sg9
I1
sba(iModules.cell
Cell
p4014
(dp4015
g10
I00
sg262
I00
sg14
(I01
I01
tp4016
sg9
I1
sba(iModules.cell
Cell
p4017
(dp4018
g10
I00
sg262
I00
sg14
(I01
I01
tp4019
sg9
I1
sba(iModules.cell
Cell
p4020
(dp4021
g10
I00
sg262
I00
sg14
(I01
I01
tp4022
sg9
I1
sba(iModules.cell
Cell
p4023
(dp4024
g10
I00
sg262
I00
sg14
(I01
I01
tp4025
sg9
I1
sba(iModules.cell
Cell
p4026
(dp4027
g10
I00
sg262
I00
sg14
(I01
I01
tp4028
sg9
I1
sba(iModules.cell
Cell
p4029
(dp4030
g10
I00
sg262
I00
sg14
(I01
I01
tp4031
sg9
I1
sba(iModules.cell
Cell
p4032
(dp4033
g10
I00
sg262
I00
sg14
(I01
I01
tp4034
sg9
I1
sba(iModules.cell
Cell
p4035
(dp4036
g10
I00
sg262
I00
sg14
(I01
I01
tp4037
sg9
I1
sba(iModules.cell
Cell
p4038
(dp4039
g10
I00
sg262
I00
sg14
(I01
I01
tp4040
sg9
I1
sba(iModules.cell
Cell
p4041
(dp4042
g10
I00
sg262
I00
sg14
(I01
I01
tp4043
sg9
I1
sba(iModules.cell
Cell
p4044
(dp4045
g10
I00
sg262
I00
sg14
(I01
I01
tp4046
sg9
I1
sba(iModules.cell
Cell
p4047
(dp4048
g10
I00
sg11
I00
sg14
(I01
I01
tp4049
sg9
I1
sba(iModules.cell
Cell
p4050
(dp4051
g10
I00
sg11
I00
sg14
(I01
I01
tp4052
sg9
I1
sba(iModules.cell
Cell
p4053
(dp4054
g10
I00
sg11
I00
sg14
(I01
I01
tp4055
sg9
I1
sba(iModules.cell
Cell
p4056
(dp4057
g10
I00
sg11
I00
sg14
(I01
I01
tp4058
sg9
I1
sba(iModules.cell
Cell
p4059
(dp4060
g10
I00
sg11
I00
sg14
(I01
I01
tp4061
sg9
I1
sba(iModules.cell
Cell
p4062
(dp4063
g10
I00
sg11
I00
sg14
(I01
I01
tp4064
sg9
I1
sba(iModules.cell
Cell
p4065
(dp4066
g10
I00
sg11
I00
sg14
(I01
I01
tp4067
sg9
I1
sba(iModules.cell
Cell
p4068
(dp4069
g10
I00
sg11
I00
sg14
(I01
I01
tp4070
sg9
I1
sba(iModules.cell
Cell
p4071
(dp4072
g10
I00
sg11
I00
sg14
(I01
I01
tp4073
sg9
I1
sba(iModules.cell
Cell
p4074
(dp4075
g10
I00
sg11
I00
sg14
(I01
I01
tp4076
sg9
I1
sba(iModules.cell
Cell
p4077
(dp4078
g10
I00
sg11
I00
sg14
(I01
I01
tp4079
sg9
I1
sba(iModules.cell
Cell
p4080
(dp4081
g10
I00
sg11
I00
sg14
(I01
I01
tp4082
sg9
I1
sba(iModules.cell
Cell
p4083
(dp4084
g10
I00
sg11
I00
sg14
(I01
I01
tp4085
sg9
I1
sba(iModules.cell
Cell
p4086
(dp4087
g10
I00
sg11
I00
sg14
(I01
I01
tp4088
sg9
I1
sba(iModules.cell
Cell
p4089
(dp4090
g10
I00
sg11
I00
sg14
(I01
I01
tp4091
sg9
I1
sba(iModules.cell
Cell
p4092
(dp4093
g10
I00
sg11
I00
sg14
(I01
I01
tp4094
sg9
I1
sba(iModules.cell
Cell
p4095
(dp4096
g10
I00
sg11
I00
sg14
(I01
I01
tp4097
sg9
I1
sba(iModules.cell
Cell
p4098
(dp4099
g10
I00
sg11
I00
sg14
(I01
I01
tp4100
sg9
I1
sba(iModules.cell
Cell
p4101
(dp4102
g10
I00
sg11
I00
sg14
(I01
I01
tp4103
sg9
I1
sba(iModules.cell
Cell
p4104
(dp4105
g10
I00
sg11
I00
sg14
(I01
I01
tp4106
sg9
I1
sba(iModules.cell
Cell
p4107
(dp4108
g10
I00
sg11
I00
sg14
(I01
I01
tp4109
sg9
I1
sba(iModules.cell
Cell
p4110
(dp4111
g10
I00
sg11
I00
sg14
(I01
I01
tp4112
sg9
I1
sba(iModules.cell
Cell
p4113
(dp4114
g10
I00
sg11
I00
sg14
(I01
I01
tp4115
sg9
I1
sba(iModules.cell
Cell
p4116
(dp4117
g10
I00
sg11
I00
sg14
(I00
I00
tp4118
sg9
I0
sba(iModules.cell
Cell
p4119
(dp4120
g10
I00
sg11
I00
sg14
(I00
I00
tp4121
sg9
I0
sba(iModules.cell
Cell
p4122
(dp4123
g10
I00
sg11
I00
sg14
(I00
I00
tp4124
sg9
I0
sba(iModules.cell
Cell
p4125
(dp4126
g10
I00
sg11
I00
sg14
(I00
I00
tp4127
sg9
I0
sba(iModules.cell
Cell
p4128
(dp4129
g10
I00
sg11
I00
sg14
(I00
I00
tp4130
sg9
I0
sba(iModules.cell
Cell
p4131
(dp4132
g10
I00
sg11
I00
sg14
(I00
I00
tp4133
sg9
I0
sba(iModules.cell
Cell
p4134
(dp4135
g10
I00
sg11
I00
sg14
(I00
I00
tp4136
sg9
I0
sba(iModules.cell
Cell
p4137
(dp4138
g10
I00
sg11
I00
sg14
(I00
I00
tp4139
sg9
I0
sba(iModules.cell
Cell
p4140
(dp4141
g10
I00
sg11
I00
sg14
(I00
I00
tp4142
sg9
I0
sba(iModules.cell
Cell
p4143
(dp4144
g10
I00
sg11
I00
sg14
(I00
I00
tp4145
sg9
I0
sba(iModules.cell
Cell
p4146
(dp4147
g10
I00
sg11
I00
sg14
(I00
I00
tp4148
sg9
I0
sba(iModules.cell
Cell
p4149
(dp4150
g10
I00
sg11
I00
sg14
(I00
I00
tp4151
sg9
I0
sba(iModules.cell
Cell
p4152
(dp4153
g10
I00
sg11
I00
sg14
(I00
I00
tp4154
sg9
I0
sba(iModules.cell
Cell
p4155
(dp4156
g10
I00
sg11
I00
sg14
(I00
I00
tp4157
sg9
I0
sba(iModules.cell
Cell
p4158
(dp4159
g10
I00
sg11
I00
sg14
(I00
I00
tp4160
sg9
I0
sba(iModules.cell
Cell
p4161
(dp4162
g10
I00
sg11
I00
sg14
(I00
I00
tp4163
sg9
I0
sba(iModules.cell
Cell
p4164
(dp4165
g10
I00
sg11
I00
sg14
(I00
I00
tp4166
sg9
I0
sba(iModules.cell
Cell
p4167
(dp4168
g10
I00
sg11
I00
sg14
(I00
I00
tp4169
sg9
I0
sba(iModules.cell
Cell
p4170
(dp4171
g10
I00
sg11
I00
sg14
(I00
I00
tp4172
sg9
I0
sba(iModules.cell
Cell
p4173
(dp4174
g14
(I00
I00
tp4175
sbaa(lp4176
(iModules.cell
Cell
p4177
(dp4178
g10
I00
sg11
I00
sg14
(I00
I00
tp4179
sg9
I0
sba(iModules.cell
Cell
p4180
(dp4181
g10
I00
sg11
I00
sg14
(I00
I00
tp4182
sg9
I0
sba(iModules.cell
Cell
p4183
(dp4184
g10
I00
sg11
I00
sg14
(I01
I01
tp4185
sg9
I1
sba(iModules.cell
Cell
p4186
(dp4187
g10
I00
sg11
I00
sg14
(I01
I01
tp4188
sg9
I1
sba(iModules.cell
Cell
p4189
(dp4190
g10
I00
sg11
I00
sg14
(I01
I01
tp4191
sg9
I1
sba(iModules.cell
Cell
p4192
(dp4193
g10
I00
sg11
I00
sg14
(I01
I01
tp4194
sg9
I1
sba(iModules.cell
Cell
p4195
(dp4196
g10
I00
sg11
I00
sg14
(I01
I01
tp4197
sg9
I1
sba(iModules.cell
Cell
p4198
(dp4199
g10
I00
sg11
I00
sg14
(I01
I01
tp4200
sg9
I1
sba(iModules.cell
Cell
p4201
(dp4202
g10
I00
sg11
I00
sg14
(I01
I01
tp4203
sg9
I1
sba(iModules.cell
Cell
p4204
(dp4205
g10
I00
sg11
I00
sg14
(I01
I01
tp4206
sg9
I1
sba(iModules.cell
Cell
p4207
(dp4208
g10
I00
sg11
I00
sg14
(I01
I01
tp4209
sg9
I1
sba(iModules.cell
Cell
p4210
(dp4211
g10
I00
sg11
I00
sg14
(I01
I01
tp4212
sg9
I1
sba(iModules.cell
Cell
p4213
(dp4214
g10
I00
sg11
I00
sg14
(I01
I01
tp4215
sg9
I1
sba(iModules.cell
Cell
p4216
(dp4217
g10
I00
sg11
I00
sg14
(I01
I01
tp4218
sg9
I1
sba(iModules.cell
Cell
p4219
(dp4220
g10
I00
sg11
I00
sg14
(I01
I01
tp4221
sg9
I1
sba(iModules.cell
Cell
p4222
(dp4223
g10
I00
sg11
I00
sg14
(I01
I01
tp4224
sg9
I1
sba(iModules.cell
Cell
p4225
(dp4226
g10
I00
sg11
I00
sg14
(I01
I01
tp4227
sg9
I1
sba(iModules.cell
Cell
p4228
(dp4229
g10
I00
sg11
I00
sg14
(I01
I01
tp4230
sg9
I1
sba(iModules.cell
Cell
p4231
(dp4232
g10
I00
sg11
I00
sg14
(I01
I01
tp4233
sg9
I1
sba(iModules.cell
Cell
p4234
(dp4235
g10
I00
sg262
I00
sg14
(I01
I01
tp4236
sg9
I1
sba(iModules.cell
Cell
p4237
(dp4238
g10
I00
sg262
I00
sg14
(I01
I01
tp4239
sg9
I1
sba(iModules.cell
Cell
p4240
(dp4241
g10
I00
sg262
I00
sg14
(I01
I01
tp4242
sg9
I1
sba(iModules.cell
Cell
p4243
(dp4244
g10
I00
sg262
I00
sg14
(I01
I01
tp4245
sg9
I1
sba(iModules.cell
Cell
p4246
(dp4247
g10
I00
sg262
I00
sg14
(I01
I01
tp4248
sg9
I1
sba(iModules.cell
Cell
p4249
(dp4250
g10
I00
sg262
I00
sg14
(I01
I01
tp4251
sg9
I1
sba(iModules.cell
Cell
p4252
(dp4253
g10
I00
sg262
I00
sg14
(I01
I01
tp4254
sg9
I1
sba(iModules.cell
Cell
p4255
(dp4256
g10
I00
sg262
I00
sg14
(I01
I01
tp4257
sg9
I1
sba(iModules.cell
Cell
p4258
(dp4259
g10
I00
sg262
I00
sg14
(I01
I01
tp4260
sg9
I1
sba(iModules.cell
Cell
p4261
(dp4262
g10
I00
sg262
I00
sg14
(I01
I01
tp4263
sg9
I1
sba(iModules.cell
Cell
p4264
(dp4265
g10
I00
sg262
I00
sg14
(I01
I01
tp4266
sg9
I1
sba(iModules.cell
Cell
p4267
(dp4268
g10
I00
sg262
I00
sg14
(I01
I01
tp4269
sg9
I1
sba(iModules.cell
Cell
p4270
(dp4271
g10
I00
sg262
I00
sg14
(I01
I01
tp4272
sg9
I1
sba(iModules.cell
Cell
p4273
(dp4274
g10
I00
sg262
I00
sg14
(I01
I01
tp4275
sg9
I1
sba(iModules.cell
Cell
p4276
(dp4277
g10
I00
sg262
I00
sg14
(I01
I01
tp4278
sg9
I1
sba(iModules.cell
Cell
p4279
(dp4280
g10
I00
sg262
I00
sg14
(I01
I01
tp4281
sg9
I1
sba(iModules.cell
Cell
p4282
(dp4283
g10
I00
sg262
I00
sg14
(I01
I01
tp4284
sg9
I1
sba(iModules.cell
Cell
p4285
(dp4286
g10
I00
sg262
I00
sg14
(I01
I01
tp4287
sg9
I1
sba(iModules.cell
Cell
p4288
(dp4289
g10
I00
sg262
I00
sg14
(I01
I01
tp4290
sg9
I1
sba(iModules.cell
Cell
p4291
(dp4292
g10
I00
sg11
I00
sg14
(I01
I01
tp4293
sg9
I1
sba(iModules.cell
Cell
p4294
(dp4295
g10
I00
sg11
I00
sg14
(I01
I01
tp4296
sg9
I1
sba(iModules.cell
Cell
p4297
(dp4298
g10
I00
sg11
I00
sg14
(I01
I01
tp4299
sg9
I1
sba(iModules.cell
Cell
p4300
(dp4301
g10
I00
sg11
I00
sg14
(I01
I01
tp4302
sg9
I1
sba(iModules.cell
Cell
p4303
(dp4304
g10
I00
sg11
I00
sg14
(I01
I01
tp4305
sg9
I1
sba(iModules.cell
Cell
p4306
(dp4307
g10
I00
sg11
I00
sg14
(I01
I01
tp4308
sg9
I1
sba(iModules.cell
Cell
p4309
(dp4310
g10
I00
sg11
I00
sg14
(I01
I01
tp4311
sg9
I1
sba(iModules.cell
Cell
p4312
(dp4313
g10
I00
sg11
I00
sg14
(I01
I01
tp4314
sg9
I1
sba(iModules.cell
Cell
p4315
(dp4316
g10
I00
sg11
I00
sg14
(I01
I01
tp4317
sg9
I1
sba(iModules.cell
Cell
p4318
(dp4319
g10
I00
sg11
I00
sg14
(I01
I01
tp4320
sg9
I1
sba(iModules.cell
Cell
p4321
(dp4322
g10
I00
sg11
I00
sg14
(I01
I01
tp4323
sg9
I1
sba(iModules.cell
Cell
p4324
(dp4325
g10
I00
sg11
I00
sg14
(I01
I01
tp4326
sg9
I1
sba(iModules.cell
Cell
p4327
(dp4328
g10
I00
sg11
I00
sg14
(I01
I01
tp4329
sg9
I1
sba(iModules.cell
Cell
p4330
(dp4331
g10
I00
sg11
I00
sg14
(I01
I01
tp4332
sg9
I1
sba(iModules.cell
Cell
p4333
(dp4334
g10
I00
sg11
I00
sg14
(I01
I01
tp4335
sg9
I1
sba(iModules.cell
Cell
p4336
(dp4337
g10
I00
sg11
I00
sg14
(I01
I01
tp4338
sg9
I1
sba(iModules.cell
Cell
p4339
(dp4340
g10
I00
sg11
I00
sg14
(I01
I01
tp4341
sg9
I1
sba(iModules.cell
Cell
p4342
(dp4343
g10
I00
sg11
I00
sg14
(I01
I01
tp4344
sg9
I1
sba(iModules.cell
Cell
p4345
(dp4346
g10
I00
sg11
I00
sg14
(I01
I01
tp4347
sg9
I1
sba(iModules.cell
Cell
p4348
(dp4349
g10
I00
sg11
I00
sg14
(I01
I01
tp4350
sg9
I1
sba(iModules.cell
Cell
p4351
(dp4352
g10
I00
sg11
I00
sg14
(I01
I01
tp4353
sg9
I1
sba(iModules.cell
Cell
p4354
(dp4355
g10
I00
sg11
I00
sg14
(I01
I01
tp4356
sg9
I1
sba(iModules.cell
Cell
p4357
(dp4358
g10
I00
sg11
I00
sg14
(I01
I01
tp4359
sg9
I1
sba(iModules.cell
Cell
p4360
(dp4361
g10
I00
sg11
I00
sg14
(I00
I00
tp4362
sg9
I0
sba(iModules.cell
Cell
p4363
(dp4364
g10
I00
sg11
I00
sg14
(I00
I00
tp4365
sg9
I0
sba(iModules.cell
Cell
p4366
(dp4367
g10
I00
sg11
I00
sg14
(I00
I00
tp4368
sg9
I0
sba(iModules.cell
Cell
p4369
(dp4370
g10
I00
sg11
I00
sg14
(I00
I00
tp4371
sg9
I0
sba(iModules.cell
Cell
p4372
(dp4373
g10
I00
sg11
I00
sg14
(I00
I00
tp4374
sg9
I0
sba(iModules.cell
Cell
p4375
(dp4376
g10
I00
sg11
I00
sg14
(I00
I00
tp4377
sg9
I0
sba(iModules.cell
Cell
p4378
(dp4379
g10
I00
sg11
I00
sg14
(I00
I00
tp4380
sg9
I0
sba(iModules.cell
Cell
p4381
(dp4382
g10
I00
sg11
I00
sg14
(I00
I00
tp4383
sg9
I0
sba(iModules.cell
Cell
p4384
(dp4385
g10
I00
sg11
I00
sg14
(I00
I00
tp4386
sg9
I0
sba(iModules.cell
Cell
p4387
(dp4388
g10
I00
sg11
I00
sg14
(I00
I00
tp4389
sg9
I0
sba(iModules.cell
Cell
p4390
(dp4391
g10
I00
sg11
I00
sg14
(I00
I00
tp4392
sg9
I0
sba(iModules.cell
Cell
p4393
(dp4394
g10
I00
sg11
I00
sg14
(I00
I00
tp4395
sg9
I0
sba(iModules.cell
Cell
p4396
(dp4397
g10
I00
sg11
I00
sg14
(I00
I00
tp4398
sg9
I0
sba(iModules.cell
Cell
p4399
(dp4400
g10
I00
sg11
I00
sg14
(I00
I00
tp4401
sg9
I0
sba(iModules.cell
Cell
p4402
(dp4403
g10
I00
sg11
I00
sg14
(I00
I00
tp4404
sg9
I0
sba(iModules.cell
Cell
p4405
(dp4406
g10
I00
sg11
I00
sg14
(I00
I00
tp4407
sg9
I0
sba(iModules.cell
Cell
p4408
(dp4409
g10
I00
sg11
I00
sg14
(I00
I00
tp4410
sg9
I0
sba(iModules.cell
Cell
p4411
(dp4412
g10
I00
sg11
I00
sg14
(I00
I00
tp4413
sg9
I0
sba(iModules.cell
Cell
p4414
(dp4415
g10
I00
sg11
I00
sg14
(I00
I00
tp4416
sg9
I0
sba(iModules.cell
Cell
p4417
(dp4418
g14
(I00
I00
tp4419
sbaa(lp4420
(iModules.cell
Cell
p4421
(dp4422
g10
I00
sg11
I00
sg14
(I00
I00
tp4423
sg9
I0
sba(iModules.cell
Cell
p4424
(dp4425
g10
I00
sg11
I00
sg14
(I00
I00
tp4426
sg9
I0
sba(iModules.cell
Cell
p4427
(dp4428
g10
I00
sg11
I00
sg14
(I01
I01
tp4429
sg9
I1
sba(iModules.cell
Cell
p4430
(dp4431
g10
I00
sg11
I00
sg14
(I01
I01
tp4432
sg9
I1
sba(iModules.cell
Cell
p4433
(dp4434
g10
I00
sg11
I00
sg14
(I01
I01
tp4435
sg9
I1
sba(iModules.cell
Cell
p4436
(dp4437
g10
I00
sg11
I00
sg14
(I01
I01
tp4438
sg9
I1
sba(iModules.cell
Cell
p4439
(dp4440
g10
I00
sg11
I00
sg14
(I01
I01
tp4441
sg9
I1
sba(iModules.cell
Cell
p4442
(dp4443
g10
I00
sg11
I00
sg14
(I01
I01
tp4444
sg9
I1
sba(iModules.cell
Cell
p4445
(dp4446
g10
I00
sg11
I00
sg14
(I01
I01
tp4447
sg9
I1
sba(iModules.cell
Cell
p4448
(dp4449
g10
I00
sg11
I00
sg14
(I01
I01
tp4450
sg9
I1
sba(iModules.cell
Cell
p4451
(dp4452
g10
I00
sg11
I00
sg14
(I01
I01
tp4453
sg9
I1
sba(iModules.cell
Cell
p4454
(dp4455
g10
I00
sg11
I00
sg14
(I01
I01
tp4456
sg9
I1
sba(iModules.cell
Cell
p4457
(dp4458
g10
I00
sg11
I00
sg14
(I01
I01
tp4459
sg9
I1
sba(iModules.cell
Cell
p4460
(dp4461
g10
I00
sg11
I00
sg14
(I01
I01
tp4462
sg9
I1
sba(iModules.cell
Cell
p4463
(dp4464
g10
I00
sg11
I00
sg14
(I01
I01
tp4465
sg9
I1
sba(iModules.cell
Cell
p4466
(dp4467
g10
I00
sg11
I00
sg14
(I01
I01
tp4468
sg9
I1
sba(iModules.cell
Cell
p4469
(dp4470
g10
I00
sg11
I00
sg14
(I01
I01
tp4471
sg9
I1
sba(iModules.cell
Cell
p4472
(dp4473
g10
I00
sg11
I00
sg14
(I01
I01
tp4474
sg9
I1
sba(iModules.cell
Cell
p4475
(dp4476
g10
I00
sg11
I00
sg14
(I01
I01
tp4477
sg9
I1
sba(iModules.cell
Cell
p4478
(dp4479
g10
I00
sg11
I00
sg14
(I01
I01
tp4480
sg9
I1
sba(iModules.cell
Cell
p4481
(dp4482
g10
I00
sg11
I00
sg14
(I01
I01
tp4483
sg9
I1
sba(iModules.cell
Cell
p4484
(dp4485
g10
I00
sg11
I00
sg14
(I01
I01
tp4486
sg9
I1
sba(iModules.cell
Cell
p4487
(dp4488
g10
I00
sg11
I00
sg14
(I01
I01
tp4489
sg9
I1
sba(iModules.cell
Cell
p4490
(dp4491
g10
I00
sg11
I00
sg14
(I01
I01
tp4492
sg9
I1
sba(iModules.cell
Cell
p4493
(dp4494
g10
I00
sg11
I00
sg14
(I01
I01
tp4495
sg9
I1
sba(iModules.cell
Cell
p4496
(dp4497
g10
I00
sg11
I00
sg14
(I01
I01
tp4498
sg9
I1
sba(iModules.cell
Cell
p4499
(dp4500
g10
I00
sg11
I00
sg14
(I01
I01
tp4501
sg9
I1
sba(iModules.cell
Cell
p4502
(dp4503
g10
I00
sg11
I00
sg14
(I01
I01
tp4504
sg9
I1
sba(iModules.cell
Cell
p4505
(dp4506
g10
I00
sg11
I00
sg14
(I01
I01
tp4507
sg9
I1
sba(iModules.cell
Cell
p4508
(dp4509
g10
I00
sg11
I00
sg14
(I01
I01
tp4510
sg9
I1
sba(iModules.cell
Cell
p4511
(dp4512
g10
I00
sg11
I00
sg14
(I01
I01
tp4513
sg9
I1
sba(iModules.cell
Cell
p4514
(dp4515
g10
I00
sg11
I00
sg14
(I01
I01
tp4516
sg9
I1
sba(iModules.cell
Cell
p4517
(dp4518
g10
I00
sg11
I00
sg14
(I01
I01
tp4519
sg9
I1
sba(iModules.cell
Cell
p4520
(dp4521
g10
I00
sg11
I00
sg14
(I01
I01
tp4522
sg9
I1
sba(iModules.cell
Cell
p4523
(dp4524
g10
I00
sg11
I00
sg14
(I01
I01
tp4525
sg9
I1
sba(iModules.cell
Cell
p4526
(dp4527
g10
I00
sg11
I00
sg14
(I01
I01
tp4528
sg9
I1
sba(iModules.cell
Cell
p4529
(dp4530
g10
I00
sg11
I00
sg14
(I01
I01
tp4531
sg9
I1
sba(iModules.cell
Cell
p4532
(dp4533
g10
I00
sg11
I00
sg14
(I01
I01
tp4534
sg9
I1
sba(iModules.cell
Cell
p4535
(dp4536
g10
I00
sg11
I00
sg14
(I01
I01
tp4537
sg9
I1
sba(iModules.cell
Cell
p4538
(dp4539
g10
I00
sg11
I00
sg14
(I01
I01
tp4540
sg9
I1
sba(iModules.cell
Cell
p4541
(dp4542
g10
I00
sg11
I00
sg14
(I01
I01
tp4543
sg9
I1
sba(iModules.cell
Cell
p4544
(dp4545
g10
I00
sg11
I00
sg14
(I01
I01
tp4546
sg9
I1
sba(iModules.cell
Cell
p4547
(dp4548
g10
I00
sg11
I00
sg14
(I01
I01
tp4549
sg9
I1
sba(iModules.cell
Cell
p4550
(dp4551
g10
I00
sg11
I00
sg14
(I01
I01
tp4552
sg9
I1
sba(iModules.cell
Cell
p4553
(dp4554
g10
I00
sg11
I00
sg14
(I01
I01
tp4555
sg9
I1
sba(iModules.cell
Cell
p4556
(dp4557
g10
I00
sg11
I00
sg14
(I01
I01
tp4558
sg9
I1
sba(iModules.cell
Cell
p4559
(dp4560
g10
I00
sg11
I00
sg14
(I01
I01
tp4561
sg9
I1
sba(iModules.cell
Cell
p4562
(dp4563
g10
I00
sg11
I00
sg14
(I01
I01
tp4564
sg9
I1
sba(iModules.cell
Cell
p4565
(dp4566
g10
I00
sg11
I00
sg14
(I01
I01
tp4567
sg9
I1
sba(iModules.cell
Cell
p4568
(dp4569
g10
I00
sg11
I00
sg14
(I01
I01
tp4570
sg9
I1
sba(iModules.cell
Cell
p4571
(dp4572
g10
I00
sg11
I00
sg14
(I01
I01
tp4573
sg9
I1
sba(iModules.cell
Cell
p4574
(dp4575
g10
I00
sg11
I00
sg14
(I01
I01
tp4576
sg9
I1
sba(iModules.cell
Cell
p4577
(dp4578
g10
I00
sg11
I00
sg14
(I01
I01
tp4579
sg9
I1
sba(iModules.cell
Cell
p4580
(dp4581
g10
I00
sg11
I00
sg14
(I01
I01
tp4582
sg9
I1
sba(iModules.cell
Cell
p4583
(dp4584
g10
I00
sg11
I00
sg14
(I01
I01
tp4585
sg9
I1
sba(iModules.cell
Cell
p4586
(dp4587
g10
I00
sg11
I00
sg14
(I01
I01
tp4588
sg9
I1
sba(iModules.cell
Cell
p4589
(dp4590
g10
I00
sg11
I00
sg14
(I01
I01
tp4591
sg9
I1
sba(iModules.cell
Cell
p4592
(dp4593
g10
I00
sg11
I00
sg14
(I01
I01
tp4594
sg9
I1
sba(iModules.cell
Cell
p4595
(dp4596
g10
I00
sg11
I00
sg14
(I01
I01
tp4597
sg9
I1
sba(iModules.cell
Cell
p4598
(dp4599
g10
I00
sg11
I00
sg14
(I01
I01
tp4600
sg9
I1
sba(iModules.cell
Cell
p4601
(dp4602
g10
I00
sg11
I00
sg14
(I01
I01
tp4603
sg9
I1
sba(iModules.cell
Cell
p4604
(dp4605
g10
I00
sg11
I00
sg14
(I00
I00
tp4606
sg9
I0
sba(iModules.cell
Cell
p4607
(dp4608
g10
I00
sg11
I00
sg14
(I00
I00
tp4609
sg9
I0
sba(iModules.cell
Cell
p4610
(dp4611
g10
I00
sg11
I00
sg14
(I00
I00
tp4612
sg9
I0
sba(iModules.cell
Cell
p4613
(dp4614
g10
I00
sg11
I00
sg14
(I00
I00
tp4615
sg9
I0
sba(iModules.cell
Cell
p4616
(dp4617
g10
I00
sg11
I00
sg14
(I00
I00
tp4618
sg9
I0
sba(iModules.cell
Cell
p4619
(dp4620
g10
I00
sg11
I00
sg14
(I00
I00
tp4621
sg9
I0
sba(iModules.cell
Cell
p4622
(dp4623
g10
I00
sg11
I00
sg14
(I00
I00
tp4624
sg9
I0
sba(iModules.cell
Cell
p4625
(dp4626
g10
I00
sg11
I00
sg14
(I00
I00
tp4627
sg9
I0
sba(iModules.cell
Cell
p4628
(dp4629
g10
I00
sg11
I00
sg14
(I00
I00
tp4630
sg9
I0
sba(iModules.cell
Cell
p4631
(dp4632
g10
I00
sg11
I00
sg14
(I00
I00
tp4633
sg9
I0
sba(iModules.cell
Cell
p4634
(dp4635
g10
I00
sg11
I00
sg14
(I00
I00
tp4636
sg9
I0
sba(iModules.cell
Cell
p4637
(dp4638
g10
I00
sg11
I00
sg14
(I00
I00
tp4639
sg9
I0
sba(iModules.cell
Cell
p4640
(dp4641
g10
I00
sg11
I00
sg14
(I00
I00
tp4642
sg9
I0
sba(iModules.cell
Cell
p4643
(dp4644
g10
I00
sg11
I00
sg14
(I00
I00
tp4645
sg9
I0
sba(iModules.cell
Cell
p4646
(dp4647
g10
I00
sg11
I00
sg14
(I00
I00
tp4648
sg9
I0
sba(iModules.cell
Cell
p4649
(dp4650
g10
I00
sg11
I00
sg14
(I00
I00
tp4651
sg9
I0
sba(iModules.cell
Cell
p4652
(dp4653
g10
I00
sg11
I00
sg14
(I00
I00
tp4654
sg9
I0
sba(iModules.cell
Cell
p4655
(dp4656
g10
I00
sg11
I00
sg14
(I00
I00
tp4657
sg9
I0
sba(iModules.cell
Cell
p4658
(dp4659
g10
I00
sg11
I00
sg14
(I00
I00
tp4660
sg9
I0
sba(iModules.cell
Cell
p4661
(dp4662
g14
(I00
I00
tp4663
sbaa(lp4664
(iModules.cell
Cell
p4665
(dp4666
g10
I00
sg11
I00
sg14
(I00
I00
tp4667
sg9
I0
sba(iModules.cell
Cell
p4668
(dp4669
g10
I00
sg11
I00
sg14
(I00
I00
tp4670
sg9
I0
sba(iModules.cell
Cell
p4671
(dp4672
g10
I00
sg11
I00
sg14
(I01
I01
tp4673
sg9
I1
sba(iModules.cell
Cell
p4674
(dp4675
g10
I00
sg11
I00
sg14
(I01
I01
tp4676
sg9
I1
sba(iModules.cell
Cell
p4677
(dp4678
g10
I00
sg11
I00
sg14
(I01
I01
tp4679
sg9
I1
sba(iModules.cell
Cell
p4680
(dp4681
g10
I00
sg11
I00
sg14
(I01
I01
tp4682
sg9
I1
sba(iModules.cell
Cell
p4683
(dp4684
g10
I00
sg11
I00
sg14
(I01
I01
tp4685
sg9
I1
sba(iModules.cell
Cell
p4686
(dp4687
g10
I00
sg11
I00
sg14
(I01
I01
tp4688
sg9
I1
sba(iModules.cell
Cell
p4689
(dp4690
g10
I00
sg11
I00
sg14
(I01
I01
tp4691
sg9
I1
sba(iModules.cell
Cell
p4692
(dp4693
g10
I00
sg11
I00
sg14
(I01
I01
tp4694
sg9
I1
sba(iModules.cell
Cell
p4695
(dp4696
g10
I00
sg11
I00
sg14
(I01
I01
tp4697
sg9
I1
sba(iModules.cell
Cell
p4698
(dp4699
g10
I00
sg11
I00
sg14
(I01
I01
tp4700
sg9
I1
sba(iModules.cell
Cell
p4701
(dp4702
g10
I00
sg11
I00
sg14
(I01
I01
tp4703
sg9
I1
sba(iModules.cell
Cell
p4704
(dp4705
g10
I00
sg11
I00
sg14
(I01
I01
tp4706
sg9
I1
sba(iModules.cell
Cell
p4707
(dp4708
g10
I00
sg11
I00
sg14
(I01
I01
tp4709
sg9
I1
sba(iModules.cell
Cell
p4710
(dp4711
g10
I00
sg11
I00
sg14
(I01
I01
tp4712
sg9
I1
sba(iModules.cell
Cell
p4713
(dp4714
g10
I00
sg11
I00
sg14
(I01
I01
tp4715
sg9
I1
sba(iModules.cell
Cell
p4716
(dp4717
g10
I00
sg11
I00
sg14
(I01
I01
tp4718
sg9
I1
sba(iModules.cell
Cell
p4719
(dp4720
g10
I00
sg11
I00
sg14
(I01
I01
tp4721
sg9
I1
sba(iModules.cell
Cell
p4722
(dp4723
g10
I00
sg11
I00
sg14
(I01
I01
tp4724
sg9
I1
sba(iModules.cell
Cell
p4725
(dp4726
g10
I00
sg11
I00
sg14
(I01
I01
tp4727
sg9
I1
sba(iModules.cell
Cell
p4728
(dp4729
g10
I00
sg11
I00
sg14
(I01
I01
tp4730
sg9
I1
sba(iModules.cell
Cell
p4731
(dp4732
g10
I00
sg11
I00
sg14
(I01
I01
tp4733
sg9
I1
sba(iModules.cell
Cell
p4734
(dp4735
g10
I00
sg11
I00
sg14
(I01
I01
tp4736
sg9
I1
sba(iModules.cell
Cell
p4737
(dp4738
g10
I00
sg11
I00
sg14
(I01
I01
tp4739
sg9
I1
sba(iModules.cell
Cell
p4740
(dp4741
g10
I00
sg11
I00
sg14
(I01
I01
tp4742
sg9
I1
sba(iModules.cell
Cell
p4743
(dp4744
g10
I00
sg11
I00
sg14
(I01
I01
tp4745
sg9
I1
sba(iModules.cell
Cell
p4746
(dp4747
g10
I00
sg11
I00
sg14
(I01
I01
tp4748
sg9
I1
sba(iModules.cell
Cell
p4749
(dp4750
g10
I00
sg11
I00
sg14
(I01
I01
tp4751
sg9
I1
sba(iModules.cell
Cell
p4752
(dp4753
g10
I00
sg11
I00
sg14
(I01
I01
tp4754
sg9
I1
sba(iModules.cell
Cell
p4755
(dp4756
g10
I00
sg11
I00
sg14
(I01
I01
tp4757
sg9
I1
sba(iModules.cell
Cell
p4758
(dp4759
g10
I00
sg11
I00
sg14
(I01
I01
tp4760
sg9
I1
sba(iModules.cell
Cell
p4761
(dp4762
g10
I00
sg11
I00
sg14
(I01
I01
tp4763
sg9
I1
sba(iModules.cell
Cell
p4764
(dp4765
g10
I00
sg11
I00
sg14
(I01
I01
tp4766
sg9
I1
sba(iModules.cell
Cell
p4767
(dp4768
g10
I00
sg11
I00
sg14
(I01
I01
tp4769
sg9
I1
sba(iModules.cell
Cell
p4770
(dp4771
g10
I00
sg11
I00
sg14
(I01
I01
tp4772
sg9
I1
sba(iModules.cell
Cell
p4773
(dp4774
g10
I00
sg11
I00
sg14
(I01
I01
tp4775
sg9
I1
sba(iModules.cell
Cell
p4776
(dp4777
g10
I00
sg11
I00
sg14
(I01
I01
tp4778
sg9
I1
sba(iModules.cell
Cell
p4779
(dp4780
g10
I00
sg11
I00
sg14
(I01
I01
tp4781
sg9
I1
sba(iModules.cell
Cell
p4782
(dp4783
g10
I00
sg11
I00
sg14
(I01
I01
tp4784
sg9
I1
sba(iModules.cell
Cell
p4785
(dp4786
g10
I00
sg11
I00
sg14
(I01
I01
tp4787
sg9
I1
sba(iModules.cell
Cell
p4788
(dp4789
g10
I00
sg11
I00
sg14
(I01
I01
tp4790
sg9
I1
sba(iModules.cell
Cell
p4791
(dp4792
g10
I00
sg11
I00
sg14
(I01
I01
tp4793
sg9
I1
sba(iModules.cell
Cell
p4794
(dp4795
g10
I00
sg11
I00
sg14
(I01
I01
tp4796
sg9
I1
sba(iModules.cell
Cell
p4797
(dp4798
g10
I00
sg11
I00
sg14
(I01
I01
tp4799
sg9
I1
sba(iModules.cell
Cell
p4800
(dp4801
g10
I00
sg11
I00
sg14
(I01
I01
tp4802
sg9
I1
sba(iModules.cell
Cell
p4803
(dp4804
g10
I00
sg11
I00
sg14
(I01
I01
tp4805
sg9
I1
sba(iModules.cell
Cell
p4806
(dp4807
g10
I00
sg11
I00
sg14
(I01
I01
tp4808
sg9
I1
sba(iModules.cell
Cell
p4809
(dp4810
g10
I00
sg11
I00
sg14
(I01
I01
tp4811
sg9
I1
sba(iModules.cell
Cell
p4812
(dp4813
g10
I00
sg11
I00
sg14
(I01
I01
tp4814
sg9
I1
sba(iModules.cell
Cell
p4815
(dp4816
g10
I00
sg11
I00
sg14
(I01
I01
tp4817
sg9
I1
sba(iModules.cell
Cell
p4818
(dp4819
g10
I00
sg11
I00
sg14
(I01
I01
tp4820
sg9
I1
sba(iModules.cell
Cell
p4821
(dp4822
g10
I00
sg11
I00
sg14
(I01
I01
tp4823
sg9
I1
sba(iModules.cell
Cell
p4824
(dp4825
g10
I00
sg11
I00
sg14
(I01
I01
tp4826
sg9
I1
sba(iModules.cell
Cell
p4827
(dp4828
g10
I00
sg11
I00
sg14
(I01
I01
tp4829
sg9
I1
sba(iModules.cell
Cell
p4830
(dp4831
g10
I00
sg11
I00
sg14
(I01
I01
tp4832
sg9
I1
sba(iModules.cell
Cell
p4833
(dp4834
g10
I00
sg11
I00
sg14
(I01
I01
tp4835
sg9
I1
sba(iModules.cell
Cell
p4836
(dp4837
g10
I00
sg11
I00
sg14
(I01
I01
tp4838
sg9
I1
sba(iModules.cell
Cell
p4839
(dp4840
g10
I00
sg11
I00
sg14
(I01
I01
tp4841
sg9
I1
sba(iModules.cell
Cell
p4842
(dp4843
g10
I00
sg11
I00
sg14
(I01
I01
tp4844
sg9
I1
sba(iModules.cell
Cell
p4845
(dp4846
g10
I00
sg11
I00
sg14
(I01
I01
tp4847
sg9
I1
sba(iModules.cell
Cell
p4848
(dp4849
g10
I00
sg11
I00
sg14
(I00
I00
tp4850
sg9
I0
sba(iModules.cell
Cell
p4851
(dp4852
g10
I00
sg11
I00
sg14
(I00
I00
tp4853
sg9
I0
sba(iModules.cell
Cell
p4854
(dp4855
g10
I00
sg11
I00
sg14
(I00
I00
tp4856
sg9
I0
sba(iModules.cell
Cell
p4857
(dp4858
g10
I00
sg11
I00
sg14
(I00
I00
tp4859
sg9
I0
sba(iModules.cell
Cell
p4860
(dp4861
g10
I00
sg11
I00
sg14
(I00
I00
tp4862
sg9
I0
sba(iModules.cell
Cell
p4863
(dp4864
g10
I00
sg11
I00
sg14
(I00
I00
tp4865
sg9
I0
sba(iModules.cell
Cell
p4866
(dp4867
g10
I00
sg11
I00
sg14
(I00
I00
tp4868
sg9
I0
sba(iModules.cell
Cell
p4869
(dp4870
g10
I00
sg11
I00
sg14
(I00
I00
tp4871
sg9
I0
sba(iModules.cell
Cell
p4872
(dp4873
g10
I00
sg11
I00
sg14
(I00
I00
tp4874
sg9
I0
sba(iModules.cell
Cell
p4875
(dp4876
g10
I00
sg11
I00
sg14
(I00
I00
tp4877
sg9
I0
sba(iModules.cell
Cell
p4878
(dp4879
g10
I00
sg11
I00
sg14
(I00
I00
tp4880
sg9
I0
sba(iModules.cell
Cell
p4881
(dp4882
g10
I00
sg11
I00
sg14
(I00
I00
tp4883
sg9
I0
sba(iModules.cell
Cell
p4884
(dp4885
g10
I00
sg11
I00
sg14
(I00
I00
tp4886
sg9
I0
sba(iModules.cell
Cell
p4887
(dp4888
g10
I00
sg11
I00
sg14
(I00
I00
tp4889
sg9
I0
sba(iModules.cell
Cell
p4890
(dp4891
g10
I00
sg11
I00
sg14
(I00
I00
tp4892
sg9
I0
sba(iModules.cell
Cell
p4893
(dp4894
g10
I00
sg11
I00
sg14
(I00
I00
tp4895
sg9
I0
sba(iModules.cell
Cell
p4896
(dp4897
g10
I00
sg11
I00
sg14
(I00
I00
tp4898
sg9
I0
sba(iModules.cell
Cell
p4899
(dp4900
g10
I00
sg11
I00
sg14
(I00
I00
tp4901
sg9
I0
sba(iModules.cell
Cell
p4902
(dp4903
g10
I00
sg11
I00
sg14
(I00
I00
tp4904
sg9
I0
sba(iModules.cell
Cell
p4905
(dp4906
g14
(I00
I00
tp4907
sbaa(lp4908
(iModules.cell
Cell
p4909
(dp4910
g10
I00
sg11
I00
sg14
(I00
I00
tp4911
sg9
I0
sba(iModules.cell
Cell
p4912
(dp4913
g10
I00
sg11
I00
sg14
(I00
I00
tp4914
sg9
I0
sba(iModules.cell
Cell
p4915
(dp4916
g10
I00
sg11
I00
sg14
(I01
I01
tp4917
sg9
I1
sba(iModules.cell
Cell
p4918
(dp4919
g10
I00
sg11
I00
sg14
(I01
I01
tp4920
sg9
I1
sba(iModules.cell
Cell
p4921
(dp4922
g10
I00
sg11
I00
sg14
(I01
I01
tp4923
sg9
I1
sba(iModules.cell
Cell
p4924
(dp4925
g10
I00
sg11
I00
sg14
(I01
I01
tp4926
sg9
I1
sba(iModules.cell
Cell
p4927
(dp4928
g10
I00
sg11
I00
sg14
(I01
I01
tp4929
sg9
I1
sba(iModules.cell
Cell
p4930
(dp4931
g10
I00
sg11
I00
sg14
(I01
I01
tp4932
sg9
I1
sba(iModules.cell
Cell
p4933
(dp4934
g10
I00
sg11
I00
sg14
(I01
I01
tp4935
sg9
I1
sba(iModules.cell
Cell
p4936
(dp4937
g10
I00
sg11
I00
sg14
(I01
I01
tp4938
sg9
I1
sba(iModules.cell
Cell
p4939
(dp4940
g10
I00
sg11
I00
sg14
(I01
I01
tp4941
sg9
I1
sba(iModules.cell
Cell
p4942
(dp4943
g10
I00
sg11
I00
sg14
(I01
I01
tp4944
sg9
I1
sba(iModules.cell
Cell
p4945
(dp4946
g10
I00
sg11
I00
sg14
(I01
I01
tp4947
sg9
I1
sba(iModules.cell
Cell
p4948
(dp4949
g10
I00
sg11
I00
sg14
(I01
I01
tp4950
sg9
I1
sba(iModules.cell
Cell
p4951
(dp4952
g10
I00
sg11
I00
sg14
(I01
I01
tp4953
sg9
I1
sba(iModules.cell
Cell
p4954
(dp4955
g10
I00
sg11
I00
sg14
(I01
I01
tp4956
sg9
I1
sba(iModules.cell
Cell
p4957
(dp4958
g10
I00
sg11
I00
sg14
(I01
I01
tp4959
sg9
I1
sba(iModules.cell
Cell
p4960
(dp4961
g10
I00
sg11
I00
sg14
(I01
I01
tp4962
sg9
I1
sba(iModules.cell
Cell
p4963
(dp4964
g10
I00
sg11
I00
sg14
(I01
I01
tp4965
sg9
I1
sba(iModules.cell
Cell
p4966
(dp4967
g10
I00
sg11
I00
sg14
(I01
I01
tp4968
sg9
I1
sba(iModules.cell
Cell
p4969
(dp4970
g10
I00
sg11
I00
sg14
(I01
I01
tp4971
sg9
I1
sba(iModules.cell
Cell
p4972
(dp4973
g10
I00
sg11
I00
sg14
(I01
I01
tp4974
sg9
I1
sba(iModules.cell
Cell
p4975
(dp4976
g10
I00
sg11
I00
sg14
(I01
I01
tp4977
sg9
I1
sba(iModules.cell
Cell
p4978
(dp4979
g10
I00
sg11
I00
sg14
(I01
I01
tp4980
sg9
I1
sba(iModules.cell
Cell
p4981
(dp4982
g10
I00
sg11
I00
sg14
(I01
I01
tp4983
sg9
I1
sba(iModules.cell
Cell
p4984
(dp4985
g10
I00
sg11
I00
sg14
(I01
I01
tp4986
sg9
I1
sba(iModules.cell
Cell
p4987
(dp4988
g10
I00
sg11
I00
sg14
(I01
I01
tp4989
sg9
I1
sba(iModules.cell
Cell
p4990
(dp4991
g10
I00
sg11
I00
sg14
(I01
I01
tp4992
sg9
I1
sba(iModules.cell
Cell
p4993
(dp4994
g10
I00
sg11
I00
sg14
(I01
I01
tp4995
sg9
I1
sba(iModules.cell
Cell
p4996
(dp4997
g10
I00
sg11
I00
sg14
(I01
I01
tp4998
sg9
I1
sba(iModules.cell
Cell
p4999
(dp5000
g10
I00
sg11
I00
sg14
(I01
I01
tp5001
sg9
I1
sba(iModules.cell
Cell
p5002
(dp5003
g10
I00
sg11
I00
sg14
(I01
I01
tp5004
sg9
I1
sba(iModules.cell
Cell
p5005
(dp5006
g10
I00
sg11
I00
sg14
(I01
I01
tp5007
sg9
I1
sba(iModules.cell
Cell
p5008
(dp5009
g10
I00
sg11
I00
sg14
(I01
I01
tp5010
sg9
I1
sba(iModules.cell
Cell
p5011
(dp5012
g10
I00
sg11
I00
sg14
(I01
I01
tp5013
sg9
I1
sba(iModules.cell
Cell
p5014
(dp5015
g10
I00
sg11
I00
sg14
(I01
I01
tp5016
sg9
I1
sba(iModules.cell
Cell
p5017
(dp5018
g10
I00
sg11
I00
sg14
(I01
I01
tp5019
sg9
I1
sba(iModules.cell
Cell
p5020
(dp5021
g10
I00
sg11
I00
sg14
(I01
I01
tp5022
sg9
I1
sba(iModules.cell
Cell
p5023
(dp5024
g10
I00
sg11
I00
sg14
(I01
I01
tp5025
sg9
I1
sba(iModules.cell
Cell
p5026
(dp5027
g10
I00
sg11
I00
sg14
(I01
I01
tp5028
sg9
I1
sba(iModules.cell
Cell
p5029
(dp5030
g10
I00
sg11
I00
sg14
(I01
I01
tp5031
sg9
I1
sba(iModules.cell
Cell
p5032
(dp5033
g10
I00
sg11
I00
sg14
(I01
I01
tp5034
sg9
I1
sba(iModules.cell
Cell
p5035
(dp5036
g10
I00
sg11
I00
sg14
(I01
I01
tp5037
sg9
I1
sba(iModules.cell
Cell
p5038
(dp5039
g10
I00
sg11
I00
sg14
(I01
I01
tp5040
sg9
I1
sba(iModules.cell
Cell
p5041
(dp5042
g10
I00
sg11
I00
sg14
(I01
I01
tp5043
sg9
I1
sba(iModules.cell
Cell
p5044
(dp5045
g10
I00
sg11
I00
sg14
(I01
I01
tp5046
sg9
I1
sba(iModules.cell
Cell
p5047
(dp5048
g10
I00
sg11
I00
sg14
(I01
I01
tp5049
sg9
I1
sba(iModules.cell
Cell
p5050
(dp5051
g10
I00
sg11
I00
sg14
(I01
I01
tp5052
sg9
I1
sba(iModules.cell
Cell
p5053
(dp5054
g10
I00
sg11
I00
sg14
(I01
I01
tp5055
sg9
I1
sba(iModules.cell
Cell
p5056
(dp5057
g10
I00
sg11
I00
sg14
(I01
I01
tp5058
sg9
I1
sba(iModules.cell
Cell
p5059
(dp5060
g10
I00
sg11
I00
sg14
(I01
I01
tp5061
sg9
I1
sba(iModules.cell
Cell
p5062
(dp5063
g10
I00
sg11
I00
sg14
(I01
I01
tp5064
sg9
I1
sba(iModules.cell
Cell
p5065
(dp5066
g10
I00
sg11
I00
sg14
(I01
I01
tp5067
sg9
I1
sba(iModules.cell
Cell
p5068
(dp5069
g10
I00
sg11
I00
sg14
(I01
I01
tp5070
sg9
I1
sba(iModules.cell
Cell
p5071
(dp5072
g10
I00
sg11
I00
sg14
(I01
I01
tp5073
sg9
I1
sba(iModules.cell
Cell
p5074
(dp5075
g10
I00
sg11
I00
sg14
(I01
I01
tp5076
sg9
I1
sba(iModules.cell
Cell
p5077
(dp5078
g10
I00
sg11
I00
sg14
(I01
I01
tp5079
sg9
I1
sba(iModules.cell
Cell
p5080
(dp5081
g10
I00
sg11
I00
sg14
(I01
I01
tp5082
sg9
I1
sba(iModules.cell
Cell
p5083
(dp5084
g10
I00
sg11
I00
sg14
(I01
I01
tp5085
sg9
I1
sba(iModules.cell
Cell
p5086
(dp5087
g10
I00
sg11
I00
sg14
(I01
I01
tp5088
sg9
I1
sba(iModules.cell
Cell
p5089
(dp5090
g10
I00
sg11
I00
sg14
(I01
I01
tp5091
sg9
I1
sba(iModules.cell
Cell
p5092
(dp5093
g10
I00
sg11
I00
sg14
(I00
I00
tp5094
sg9
I0
sba(iModules.cell
Cell
p5095
(dp5096
g10
I00
sg11
I00
sg14
(I00
I00
tp5097
sg9
I0
sba(iModules.cell
Cell
p5098
(dp5099
g10
I00
sg11
I00
sg14
(I00
I00
tp5100
sg9
I0
sba(iModules.cell
Cell
p5101
(dp5102
g10
I00
sg11
I00
sg14
(I00
I00
tp5103
sg9
I0
sba(iModules.cell
Cell
p5104
(dp5105
g10
I00
sg11
I00
sg14
(I00
I00
tp5106
sg9
I0
sba(iModules.cell
Cell
p5107
(dp5108
g10
I00
sg11
I00
sg14
(I00
I00
tp5109
sg9
I0
sba(iModules.cell
Cell
p5110
(dp5111
g10
I00
sg11
I00
sg14
(I00
I00
tp5112
sg9
I0
sba(iModules.cell
Cell
p5113
(dp5114
g10
I00
sg11
I00
sg14
(I00
I00
tp5115
sg9
I0
sba(iModules.cell
Cell
p5116
(dp5117
g10
I00
sg11
I00
sg14
(I00
I00
tp5118
sg9
I0
sba(iModules.cell
Cell
p5119
(dp5120
g10
I00
sg11
I00
sg14
(I00
I00
tp5121
sg9
I0
sba(iModules.cell
Cell
p5122
(dp5123
g10
I00
sg11
I00
sg14
(I00
I00
tp5124
sg9
I0
sba(iModules.cell
Cell
p5125
(dp5126
g10
I00
sg11
I00
sg14
(I00
I00
tp5127
sg9
I0
sba(iModules.cell
Cell
p5128
(dp5129
g10
I00
sg11
I00
sg14
(I00
I00
tp5130
sg9
I0
sba(iModules.cell
Cell
p5131
(dp5132
g10
I00
sg11
I00
sg14
(I00
I00
tp5133
sg9
I0
sba(iModules.cell
Cell
p5134
(dp5135
g10
I00
sg11
I00
sg14
(I00
I00
tp5136
sg9
I0
sba(iModules.cell
Cell
p5137
(dp5138
g10
I00
sg11
I00
sg14
(I00
I00
tp5139
sg9
I0
sba(iModules.cell
Cell
p5140
(dp5141
g10
I00
sg11
I00
sg14
(I00
I00
tp5142
sg9
I0
sba(iModules.cell
Cell
p5143
(dp5144
g10
I00
sg11
I00
sg14
(I00
I00
tp5145
sg9
I0
sba(iModules.cell
Cell
p5146
(dp5147
g10
I00
sg11
I00
sg14
(I00
I00
tp5148
sg9
I0
sba(iModules.cell
Cell
p5149
(dp5150
g14
(I00
I00
tp5151
sbaa(lp5152
(iModules.cell
Cell
p5153
(dp5154
g10
I00
sg11
I00
sg14
(I00
I00
tp5155
sg9
I0
sba(iModules.cell
Cell
p5156
(dp5157
g10
I00
sg11
I00
sg14
(I00
I00
tp5158
sg9
I0
sba(iModules.cell
Cell
p5159
(dp5160
g10
I00
sg11
I00
sg14
(I01
I01
tp5161
sg9
I1
sba(iModules.cell
Cell
p5162
(dp5163
g10
I00
sg11
I00
sg14
(I01
I01
tp5164
sg9
I1
sba(iModules.cell
Cell
p5165
(dp5166
g10
I00
sg11
I00
sg14
(I01
I01
tp5167
sg9
I1
sba(iModules.cell
Cell
p5168
(dp5169
g10
I00
sg11
I00
sg14
(I01
I01
tp5170
sg9
I1
sba(iModules.cell
Cell
p5171
(dp5172
g10
I00
sg11
I00
sg14
(I01
I01
tp5173
sg9
I1
sba(iModules.cell
Cell
p5174
(dp5175
g10
I00
sg11
I00
sg14
(I01
I01
tp5176
sg9
I1
sba(iModules.cell
Cell
p5177
(dp5178
g10
I00
sg11
I00
sg14
(I01
I01
tp5179
sg9
I1
sba(iModules.cell
Cell
p5180
(dp5181
g10
I00
sg11
I00
sg14
(I01
I01
tp5182
sg9
I1
sba(iModules.cell
Cell
p5183
(dp5184
g10
I00
sg11
I00
sg14
(I01
I01
tp5185
sg9
I1
sba(iModules.cell
Cell
p5186
(dp5187
g10
I00
sg11
I00
sg14
(I01
I01
tp5188
sg9
I1
sba(iModules.cell
Cell
p5189
(dp5190
g10
I00
sg11
I00
sg14
(I01
I01
tp5191
sg9
I1
sba(iModules.cell
Cell
p5192
(dp5193
g10
I00
sg11
I00
sg14
(I01
I01
tp5194
sg9
I1
sba(iModules.cell
Cell
p5195
(dp5196
g10
I00
sg11
I00
sg14
(I01
I01
tp5197
sg9
I1
sba(iModules.cell
Cell
p5198
(dp5199
g10
I00
sg11
I00
sg14
(I01
I01
tp5200
sg9
I1
sba(iModules.cell
Cell
p5201
(dp5202
g10
I00
sg11
I00
sg14
(I01
I01
tp5203
sg9
I1
sba(iModules.cell
Cell
p5204
(dp5205
g10
I00
sg11
I00
sg14
(I01
I01
tp5206
sg9
I1
sba(iModules.cell
Cell
p5207
(dp5208
g10
I00
sg11
I00
sg14
(I01
I01
tp5209
sg9
I1
sba(iModules.cell
Cell
p5210
(dp5211
g10
I00
sg11
I00
sg14
(I01
I01
tp5212
sg9
I1
sba(iModules.cell
Cell
p5213
(dp5214
g10
I00
sg11
I00
sg14
(I01
I01
tp5215
sg9
I1
sba(iModules.cell
Cell
p5216
(dp5217
g10
I00
sg11
I00
sg14
(I01
I01
tp5218
sg9
I1
sba(iModules.cell
Cell
p5219
(dp5220
g10
I00
sg11
I00
sg14
(I01
I01
tp5221
sg9
I1
sba(iModules.cell
Cell
p5222
(dp5223
g10
I00
sg11
I00
sg14
(I01
I01
tp5224
sg9
I1
sba(iModules.cell
Cell
p5225
(dp5226
g10
I00
sg11
I00
sg14
(I01
I01
tp5227
sg9
I1
sba(iModules.cell
Cell
p5228
(dp5229
g10
I00
sg11
I00
sg14
(I01
I01
tp5230
sg9
I1
sba(iModules.cell
Cell
p5231
(dp5232
g10
I00
sg11
I00
sg14
(I01
I01
tp5233
sg9
I1
sba(iModules.cell
Cell
p5234
(dp5235
g10
I00
sg11
I00
sg14
(I01
I01
tp5236
sg9
I1
sba(iModules.cell
Cell
p5237
(dp5238
g10
I00
sg11
I00
sg14
(I01
I01
tp5239
sg9
I1
sba(iModules.cell
Cell
p5240
(dp5241
g10
I00
sg11
I00
sg14
(I01
I01
tp5242
sg9
I1
sba(iModules.cell
Cell
p5243
(dp5244
g10
I00
sg11
I00
sg14
(I01
I01
tp5245
sg9
I1
sba(iModules.cell
Cell
p5246
(dp5247
g10
I00
sg11
I00
sg14
(I01
I01
tp5248
sg9
I1
sba(iModules.cell
Cell
p5249
(dp5250
g10
I00
sg11
I00
sg14
(I01
I01
tp5251
sg9
I1
sba(iModules.cell
Cell
p5252
(dp5253
g10
I00
sg11
I00
sg14
(I01
I01
tp5254
sg9
I1
sba(iModules.cell
Cell
p5255
(dp5256
g10
I00
sg11
I00
sg14
(I01
I01
tp5257
sg9
I1
sba(iModules.cell
Cell
p5258
(dp5259
g10
I00
sg11
I00
sg14
(I01
I01
tp5260
sg9
I1
sba(iModules.cell
Cell
p5261
(dp5262
g10
I00
sg11
I00
sg14
(I01
I01
tp5263
sg9
I1
sba(iModules.cell
Cell
p5264
(dp5265
g10
I00
sg11
I00
sg14
(I01
I01
tp5266
sg9
I1
sba(iModules.cell
Cell
p5267
(dp5268
g10
I00
sg11
I00
sg14
(I01
I01
tp5269
sg9
I1
sba(iModules.cell
Cell
p5270
(dp5271
g10
I00
sg11
I00
sg14
(I01
I01
tp5272
sg9
I1
sba(iModules.cell
Cell
p5273
(dp5274
g10
I00
sg11
I00
sg14
(I01
I01
tp5275
sg9
I1
sba(iModules.cell
Cell
p5276
(dp5277
g10
I00
sg11
I00
sg14
(I01
I01
tp5278
sg9
I1
sba(iModules.cell
Cell
p5279
(dp5280
g10
I00
sg11
I00
sg14
(I01
I01
tp5281
sg9
I1
sba(iModules.cell
Cell
p5282
(dp5283
g10
I00
sg11
I00
sg14
(I01
I01
tp5284
sg9
I1
sba(iModules.cell
Cell
p5285
(dp5286
g10
I00
sg11
I00
sg14
(I01
I01
tp5287
sg9
I1
sba(iModules.cell
Cell
p5288
(dp5289
g10
I00
sg11
I00
sg14
(I01
I01
tp5290
sg9
I1
sba(iModules.cell
Cell
p5291
(dp5292
g10
I00
sg11
I00
sg14
(I01
I01
tp5293
sg9
I1
sba(iModules.cell
Cell
p5294
(dp5295
g10
I00
sg11
I00
sg14
(I01
I01
tp5296
sg9
I1
sba(iModules.cell
Cell
p5297
(dp5298
g10
I00
sg11
I00
sg14
(I01
I01
tp5299
sg9
I1
sba(iModules.cell
Cell
p5300
(dp5301
g10
I00
sg11
I00
sg14
(I01
I01
tp5302
sg9
I1
sba(iModules.cell
Cell
p5303
(dp5304
g10
I00
sg11
I00
sg14
(I01
I01
tp5305
sg9
I1
sba(iModules.cell
Cell
p5306
(dp5307
g10
I00
sg11
I00
sg14
(I01
I01
tp5308
sg9
I1
sba(iModules.cell
Cell
p5309
(dp5310
g10
I00
sg11
I00
sg14
(I01
I01
tp5311
sg9
I1
sba(iModules.cell
Cell
p5312
(dp5313
g10
I00
sg11
I00
sg14
(I01
I01
tp5314
sg9
I1
sba(iModules.cell
Cell
p5315
(dp5316
g10
I00
sg11
I00
sg14
(I01
I01
tp5317
sg9
I1
sba(iModules.cell
Cell
p5318
(dp5319
g10
I00
sg11
I00
sg14
(I01
I01
tp5320
sg9
I1
sba(iModules.cell
Cell
p5321
(dp5322
g10
I00
sg11
I00
sg14
(I01
I01
tp5323
sg9
I1
sba(iModules.cell
Cell
p5324
(dp5325
g10
I00
sg11
I00
sg14
(I01
I01
tp5326
sg9
I1
sba(iModules.cell
Cell
p5327
(dp5328
g10
I00
sg11
I00
sg14
(I01
I01
tp5329
sg9
I1
sba(iModules.cell
Cell
p5330
(dp5331
g10
I00
sg11
I00
sg14
(I01
I01
tp5332
sg9
I1
sba(iModules.cell
Cell
p5333
(dp5334
g10
I00
sg11
I00
sg14
(I01
I01
tp5335
sg9
I1
sba(iModules.cell
Cell
p5336
(dp5337
g10
I00
sg11
I00
sg14
(I00
I00
tp5338
sg9
I0
sba(iModules.cell
Cell
p5339
(dp5340
g10
I00
sg11
I00
sg14
(I00
I00
tp5341
sg9
I0
sba(iModules.cell
Cell
p5342
(dp5343
g10
I00
sg11
I00
sg14
(I00
I00
tp5344
sg9
I0
sba(iModules.cell
Cell
p5345
(dp5346
g10
I00
sg11
I00
sg14
(I00
I00
tp5347
sg9
I0
sba(iModules.cell
Cell
p5348
(dp5349
g10
I00
sg11
I00
sg14
(I00
I00
tp5350
sg9
I0
sba(iModules.cell
Cell
p5351
(dp5352
g10
I00
sg11
I00
sg14
(I00
I00
tp5353
sg9
I0
sba(iModules.cell
Cell
p5354
(dp5355
g10
I00
sg11
I00
sg14
(I00
I00
tp5356
sg9
I0
sba(iModules.cell
Cell
p5357
(dp5358
g10
I00
sg11
I00
sg14
(I00
I00
tp5359
sg9
I0
sba(iModules.cell
Cell
p5360
(dp5361
g10
I00
sg11
I00
sg14
(I00
I00
tp5362
sg9
I0
sba(iModules.cell
Cell
p5363
(dp5364
g10
I00
sg11
I00
sg14
(I00
I00
tp5365
sg9
I0
sba(iModules.cell
Cell
p5366
(dp5367
g10
I00
sg11
I00
sg14
(I00
I00
tp5368
sg9
I0
sba(iModules.cell
Cell
p5369
(dp5370
g10
I00
sg11
I00
sg14
(I00
I00
tp5371
sg9
I0
sba(iModules.cell
Cell
p5372
(dp5373
g10
I00
sg11
I00
sg14
(I00
I00
tp5374
sg9
I0
sba(iModules.cell
Cell
p5375
(dp5376
g10
I00
sg11
I00
sg14
(I00
I00
tp5377
sg9
I0
sba(iModules.cell
Cell
p5378
(dp5379
g10
I00
sg11
I00
sg14
(I00
I00
tp5380
sg9
I0
sba(iModules.cell
Cell
p5381
(dp5382
g10
I00
sg11
I00
sg14
(I00
I00
tp5383
sg9
I0
sba(iModules.cell
Cell
p5384
(dp5385
g10
I00
sg11
I00
sg14
(I00
I00
tp5386
sg9
I0
sba(iModules.cell
Cell
p5387
(dp5388
g10
I00
sg11
I00
sg14
(I00
I00
tp5389
sg9
I0
sba(iModules.cell
Cell
p5390
(dp5391
g10
I00
sg11
I00
sg14
(I00
I00
tp5392
sg9
I0
sba(iModules.cell
Cell
p5393
(dp5394
g14
(I00
I00
tp5395
sbaa(lp5396
(iModules.cell
Cell
p5397
(dp5398
g10
I00
sg11
I00
sg14
(I00
I00
tp5399
sg9
I0
sba(iModules.cell
Cell
p5400
(dp5401
g10
I00
sg11
I00
sg14
(I00
I00
tp5402
sg9
I0
sba(iModules.cell
Cell
p5403
(dp5404
g10
I00
sg11
I00
sg14
(I00
I00
tp5405
sg9
I0
sba(iModules.cell
Cell
p5406
(dp5407
g10
I00
sg11
I00
sg14
(I00
I00
tp5408
sg9
I0
sba(iModules.cell
Cell
p5409
(dp5410
g10
I00
sg11
I00
sg14
(I00
I00
tp5411
sg9
I0
sba(iModules.cell
Cell
p5412
(dp5413
g10
I00
sg11
I00
sg14
(I00
I00
tp5414
sg9
I0
sba(iModules.cell
Cell
p5415
(dp5416
g10
I00
sg11
I00
sg14
(I00
I00
tp5417
sg9
I0
sba(iModules.cell
Cell
p5418
(dp5419
g10
I00
sg11
I00
sg14
(I00
I00
tp5420
sg9
I0
sba(iModules.cell
Cell
p5421
(dp5422
g10
I00
sg11
I00
sg14
(I00
I00
tp5423
sg9
I0
sba(iModules.cell
Cell
p5424
(dp5425
g10
I00
sg11
I00
sg14
(I00
I00
tp5426
sg9
I0
sba(iModules.cell
Cell
p5427
(dp5428
g10
I00
sg11
I00
sg14
(I00
I00
tp5429
sg9
I0
sba(iModules.cell
Cell
p5430
(dp5431
g10
I00
sg11
I00
sg14
(I00
I00
tp5432
sg9
I0
sba(iModules.cell
Cell
p5433
(dp5434
g10
I00
sg11
I00
sg14
(I00
I00
tp5435
sg9
I0
sba(iModules.cell
Cell
p5436
(dp5437
g10
I00
sg11
I00
sg14
(I00
I00
tp5438
sg9
I0
sba(iModules.cell
Cell
p5439
(dp5440
g10
I00
sg11
I00
sg14
(I00
I00
tp5441
sg9
I0
sba(iModules.cell
Cell
p5442
(dp5443
g10
I00
sg11
I00
sg14
(I00
I00
tp5444
sg9
I0
sba(iModules.cell
Cell
p5445
(dp5446
g10
I00
sg11
I00
sg14
(I00
I00
tp5447
sg9
I0
sba(iModules.cell
Cell
p5448
(dp5449
g10
I00
sg11
I00
sg14
(I00
I00
tp5450
sg9
I0
sba(iModules.cell
Cell
p5451
(dp5452
g10
I00
sg11
I00
sg14
(I00
I00
tp5453
sg9
I0
sba(iModules.cell
Cell
p5454
(dp5455
g10
I00
sg11
I00
sg14
(I00
I00
tp5456
sg9
I0
sba(iModules.cell
Cell
p5457
(dp5458
g10
I00
sg11
I00
sg14
(I00
I00
tp5459
sg9
I0
sba(iModules.cell
Cell
p5460
(dp5461
g10
I00
sg11
I00
sg14
(I00
I00
tp5462
sg9
I0
sba(iModules.cell
Cell
p5463
(dp5464
g10
I00
sg11
I00
sg14
(I00
I00
tp5465
sg9
I0
sba(iModules.cell
Cell
p5466
(dp5467
g10
I00
sg11
I00
sg14
(I00
I00
tp5468
sg9
I0
sba(iModules.cell
Cell
p5469
(dp5470
g10
I00
sg11
I00
sg14
(I00
I00
tp5471
sg9
I0
sba(iModules.cell
Cell
p5472
(dp5473
g10
I00
sg11
I00
sg14
(I00
I00
tp5474
sg9
I0
sba(iModules.cell
Cell
p5475
(dp5476
g10
I00
sg11
I00
sg14
(I00
I00
tp5477
sg9
I0
sba(iModules.cell
Cell
p5478
(dp5479
g10
I00
sg11
I00
sg14
(I00
I00
tp5480
sg9
I0
sba(iModules.cell
Cell
p5481
(dp5482
g10
I00
sg11
I00
sg14
(I00
I00
tp5483
sg9
I0
sba(iModules.cell
Cell
p5484
(dp5485
g10
I00
sg11
I00
sg14
(I00
I00
tp5486
sg9
I0
sba(iModules.cell
Cell
p5487
(dp5488
g10
I00
sg11
I00
sg14
(I00
I00
tp5489
sg9
I0
sba(iModules.cell
Cell
p5490
(dp5491
g10
I00
sg11
I00
sg14
(I00
I00
tp5492
sg9
I0
sba(iModules.cell
Cell
p5493
(dp5494
g10
I00
sg11
I00
sg14
(I00
I00
tp5495
sg9
I0
sba(iModules.cell
Cell
p5496
(dp5497
g10
I00
sg11
I00
sg14
(I00
I00
tp5498
sg9
I0
sba(iModules.cell
Cell
p5499
(dp5500
g10
I00
sg11
I00
sg14
(I00
I00
tp5501
sg9
I0
sba(iModules.cell
Cell
p5502
(dp5503
g10
I00
sg11
I00
sg14
(I00
I00
tp5504
sg9
I0
sba(iModules.cell
Cell
p5505
(dp5506
g10
I00
sg11
I00
sg14
(I00
I00
tp5507
sg9
I0
sba(iModules.cell
Cell
p5508
(dp5509
g10
I00
sg11
I00
sg14
(I00
I00
tp5510
sg9
I0
sba(iModules.cell
Cell
p5511
(dp5512
g10
I00
sg11
I00
sg14
(I00
I00
tp5513
sg9
I0
sba(iModules.cell
Cell
p5514
(dp5515
g10
I00
sg11
I00
sg14
(I00
I00
tp5516
sg9
I0
sba(iModules.cell
Cell
p5517
(dp5518
g10
I00
sg11
I00
sg14
(I00
I00
tp5519
sg9
I0
sba(iModules.cell
Cell
p5520
(dp5521
g10
I00
sg11
I00
sg14
(I00
I00
tp5522
sg9
I0
sba(iModules.cell
Cell
p5523
(dp5524
g10
I00
sg11
I00
sg14
(I00
I00
tp5525
sg9
I0
sba(iModules.cell
Cell
p5526
(dp5527
g10
I00
sg11
I00
sg14
(I00
I00
tp5528
sg9
I0
sba(iModules.cell
Cell
p5529
(dp5530
g10
I00
sg11
I00
sg14
(I00
I00
tp5531
sg9
I0
sba(iModules.cell
Cell
p5532
(dp5533
g10
I00
sg11
I00
sg14
(I00
I00
tp5534
sg9
I0
sba(iModules.cell
Cell
p5535
(dp5536
g10
I00
sg11
I00
sg14
(I00
I00
tp5537
sg9
I0
sba(iModules.cell
Cell
p5538
(dp5539
g10
I00
sg11
I00
sg14
(I00
I00
tp5540
sg9
I0
sba(iModules.cell
Cell
p5541
(dp5542
g10
I00
sg11
I00
sg14
(I00
I00
tp5543
sg9
I0
sba(iModules.cell
Cell
p5544
(dp5545
g10
I00
sg11
I00
sg14
(I00
I00
tp5546
sg9
I0
sba(iModules.cell
Cell
p5547
(dp5548
g10
I00
sg11
I00
sg14
(I00
I00
tp5549
sg9
I0
sba(iModules.cell
Cell
p5550
(dp5551
g10
I00
sg11
I00
sg14
(I00
I00
tp5552
sg9
I0
sba(iModules.cell
Cell
p5553
(dp5554
g10
I00
sg11
I00
sg14
(I00
I00
tp5555
sg9
I0
sba(iModules.cell
Cell
p5556
(dp5557
g10
I00
sg11
I00
sg14
(I00
I00
tp5558
sg9
I0
sba(iModules.cell
Cell
p5559
(dp5560
g10
I00
sg11
I00
sg14
(I00
I00
tp5561
sg9
I0
sba(iModules.cell
Cell
p5562
(dp5563
g10
I00
sg11
I00
sg14
(I00
I00
tp5564
sg9
I0
sba(iModules.cell
Cell
p5565
(dp5566
g10
I00
sg11
I00
sg14
(I00
I00
tp5567
sg9
I0
sba(iModules.cell
Cell
p5568
(dp5569
g10
I00
sg11
I00
sg14
(I00
I00
tp5570
sg9
I0
sba(iModules.cell
Cell
p5571
(dp5572
g10
I00
sg11
I00
sg14
(I00
I00
tp5573
sg9
I0
sba(iModules.cell
Cell
p5574
(dp5575
g10
I00
sg11
I00
sg14
(I00
I00
tp5576
sg9
I0
sba(iModules.cell
Cell
p5577
(dp5578
g10
I00
sg11
I00
sg14
(I00
I00
tp5579
sg9
I0
sba(iModules.cell
Cell
p5580
(dp5581
g10
I00
sg11
I00
sg14
(I00
I00
tp5582
sg9
I0
sba(iModules.cell
Cell
p5583
(dp5584
g10
I00
sg11
I00
sg14
(I00
I00
tp5585
sg9
I0
sba(iModules.cell
Cell
p5586
(dp5587
g10
I00
sg11
I00
sg14
(I00
I00
tp5588
sg9
I0
sba(iModules.cell
Cell
p5589
(dp5590
g10
I00
sg11
I00
sg14
(I00
I00
tp5591
sg9
I0
sba(iModules.cell
Cell
p5592
(dp5593
g10
I00
sg11
I00
sg14
(I00
I00
tp5594
sg9
I0
sba(iModules.cell
Cell
p5595
(dp5596
g10
I00
sg11
I00
sg14
(I00
I00
tp5597
sg9
I0
sba(iModules.cell
Cell
p5598
(dp5599
g10
I00
sg11
I00
sg14
(I00
I00
tp5600
sg9
I0
sba(iModules.cell
Cell
p5601
(dp5602
g10
I00
sg11
I00
sg14
(I00
I00
tp5603
sg9
I0
sba(iModules.cell
Cell
p5604
(dp5605
g10
I00
sg11
I00
sg14
(I00
I00
tp5606
sg9
I0
sba(iModules.cell
Cell
p5607
(dp5608
g10
I00
sg11
I00
sg14
(I00
I00
tp5609
sg9
I0
sba(iModules.cell
Cell
p5610
(dp5611
g10
I00
sg11
I00
sg14
(I00
I00
tp5612
sg9
I0
sba(iModules.cell
Cell
p5613
(dp5614
g10
I00
sg11
I00
sg14
(I00
I00
tp5615
sg9
I0
sba(iModules.cell
Cell
p5616
(dp5617
g10
I00
sg11
I00
sg14
(I00
I00
tp5618
sg9
I0
sba(iModules.cell
Cell
p5619
(dp5620
g10
I00
sg11
I00
sg14
(I00
I00
tp5621
sg9
I0
sba(iModules.cell
Cell
p5622
(dp5623
g10
I00
sg11
I00
sg14
(I00
I00
tp5624
sg9
I0
sba(iModules.cell
Cell
p5625
(dp5626
g10
I00
sg11
I00
sg14
(I00
I00
tp5627
sg9
I0
sba(iModules.cell
Cell
p5628
(dp5629
g10
I00
sg11
I00
sg14
(I00
I00
tp5630
sg9
I0
sba(iModules.cell
Cell
p5631
(dp5632
g10
I00
sg11
I00
sg14
(I00
I00
tp5633
sg9
I0
sba(iModules.cell
Cell
p5634
(dp5635
g10
I00
sg11
I00
sg14
(I00
I00
tp5636
sg9
I0
sba(iModules.cell
Cell
p5637
(dp5638
g14
(I00
I00
tp5639
sbaa(lp5640
(iModules.cell
Cell
p5641
(dp5642
g14
(I00
I00
tp5643
sba(iModules.cell
Cell
p5644
(dp5645
g14
(I00
I00
tp5646
sba(iModules.cell
Cell
p5647
(dp5648
g14
(I00
I00
tp5649
sba(iModules.cell
Cell
p5650
(dp5651
g14
(I00
I00
tp5652
sba(iModules.cell
Cell
p5653
(dp5654
g14
(I00
I00
tp5655
sba(iModules.cell
Cell
p5656
(dp5657
g14
(I00
I00
tp5658
sba(iModules.cell
Cell
p5659
(dp5660
g14
(I00
I00
tp5661
sba(iModules.cell
Cell
p5662
(dp5663
g14
(I00
I00
tp5664
sba(iModules.cell
Cell
p5665
(dp5666
g14
(I00
I00
tp5667
sba(iModules.cell
Cell
p5668
(dp5669
g14
(I00
I00
tp5670
sba(iModules.cell
Cell
p5671
(dp5672
g14
(I00
I00
tp5673
sba(iModules.cell
Cell
p5674
(dp5675
g14
(I00
I00
tp5676
sba(iModules.cell
Cell
p5677
(dp5678
g14
(I00
I00
tp5679
sba(iModules.cell
Cell
p5680
(dp5681
g14
(I00
I00
tp5682
sba(iModules.cell
Cell
p5683
(dp5684
g14
(I00
I00
tp5685
sba(iModules.cell
Cell
p5686
(dp5687
g14
(I00
I00
tp5688
sba(iModules.cell
Cell
p5689
(dp5690
g14
(I00
I00
tp5691
sba(iModules.cell
Cell
p5692
(dp5693
g14
(I00
I00
tp5694
sba(iModules.cell
Cell
p5695
(dp5696
g14
(I00
I00
tp5697
sba(iModules.cell
Cell
p5698
(dp5699
g14
(I00
I00
tp5700
sba(iModules.cell
Cell
p5701
(dp5702
g14
(I00
I00
tp5703
sba(iModules.cell
Cell
p5704
(dp5705
g14
(I00
I00
tp5706
sba(iModules.cell
Cell
p5707
(dp5708
g14
(I00
I00
tp5709
sba(iModules.cell
Cell
p5710
(dp5711
g14
(I00
I00
tp5712
sba(iModules.cell
Cell
p5713
(dp5714
g14
(I00
I00
tp5715
sba(iModules.cell
Cell
p5716
(dp5717
g14
(I00
I00
tp5718
sba(iModules.cell
Cell
p5719
(dp5720
g14
(I00
I00
tp5721
sba(iModules.cell
Cell
p5722
(dp5723
g14
(I00
I00
tp5724
sba(iModules.cell
Cell
p5725
(dp5726
g14
(I00
I00
tp5727
sba(iModules.cell
Cell
p5728
(dp5729
g14
(I00
I00
tp5730
sba(iModules.cell
Cell
p5731
(dp5732
g14
(I00
I00
tp5733
sba(iModules.cell
Cell
p5734
(dp5735
g14
(I00
I00
tp5736
sba(iModules.cell
Cell
p5737
(dp5738
g14
(I00
I00
tp5739
sba(iModules.cell
Cell
p5740
(dp5741
g14
(I00
I00
tp5742
sba(iModules.cell
Cell
p5743
(dp5744
g14
(I00
I00
tp5745
sba(iModules.cell
Cell
p5746
(dp5747
g14
(I00
I00
tp5748
sba(iModules.cell
Cell
p5749
(dp5750
g14
(I00
I00
tp5751
sba(iModules.cell
Cell
p5752
(dp5753
g14
(I00
I00
tp5754
sba(iModules.cell
Cell
p5755
(dp5756
g14
(I00
I00
tp5757
sba(iModules.cell
Cell
p5758
(dp5759
g14
(I00
I00
tp5760
sba(iModules.cell
Cell
p5761
(dp5762
g14
(I00
I00
tp5763
sba(iModules.cell
Cell
p5764
(dp5765
g14
(I00
I00
tp5766
sba(iModules.cell
Cell
p5767
(dp5768
g14
(I00
I00
tp5769
sba(iModules.cell
Cell
p5770
(dp5771
g14
(I00
I00
tp5772
sba(iModules.cell
Cell
p5773
(dp5774
g14
(I00
I00
tp5775
sba(iModules.cell
Cell
p5776
(dp5777
g14
(I00
I00
tp5778
sba(iModules.cell
Cell
p5779
(dp5780
g14
(I00
I00
tp5781
sba(iModules.cell
Cell
p5782
(dp5783
g14
(I00
I00
tp5784
sba(iModules.cell
Cell
p5785
(dp5786
g14
(I00
I00
tp5787
sba(iModules.cell
Cell
p5788
(dp5789
g14
(I00
I00
tp5790
sba(iModules.cell
Cell
p5791
(dp5792
g14
(I00
I00
tp5793
sba(iModules.cell
Cell
p5794
(dp5795
g14
(I00
I00
tp5796
sba(iModules.cell
Cell
p5797
(dp5798
g14
(I00
I00
tp5799
sba(iModules.cell
Cell
p5800
(dp5801
g14
(I00
I00
tp5802
sba(iModules.cell
Cell
p5803
(dp5804
g14
(I00
I00
tp5805
sba(iModules.cell
Cell
p5806
(dp5807
g14
(I00
I00
tp5808
sba(iModules.cell
Cell
p5809
(dp5810
g14
(I00
I00
tp5811
sba(iModules.cell
Cell
p5812
(dp5813
g14
(I00
I00
tp5814
sba(iModules.cell
Cell
p5815
(dp5816
g14
(I00
I00
tp5817
sba(iModules.cell
Cell
p5818
(dp5819
g14
(I00
I00
tp5820
sba(iModules.cell
Cell
p5821
(dp5822
g14
(I00
I00
tp5823
sba(iModules.cell
Cell
p5824
(dp5825
g14
(I00
I00
tp5826
sba(iModules.cell
Cell
p5827
(dp5828
g14
(I00
I00
tp5829
sba(iModules.cell
Cell
p5830
(dp5831
g14
(I00
I00
tp5832
sba(iModules.cell
Cell
p5833
(dp5834
g14
(I00
I00
tp5835
sba(iModules.cell
Cell
p5836
(dp5837
g14
(I00
I00
tp5838
sba(iModules.cell
Cell
p5839
(dp5840
g14
(I00
I00
tp5841
sba(iModules.cell
Cell
p5842
(dp5843
g14
(I00
I00
tp5844
sba(iModules.cell
Cell
p5845
(dp5846
g14
(I00
I00
tp5847
sba(iModules.cell
Cell
p5848
(dp5849
g14
(I00
I00
tp5850
sba(iModules.cell
Cell
p5851
(dp5852
g14
(I00
I00
tp5853
sba(iModules.cell
Cell
p5854
(dp5855
g14
(I00
I00
tp5856
sba(iModules.cell
Cell
p5857
(dp5858
g14
(I00
I00
tp5859
sba(iModules.cell
Cell
p5860
(dp5861
g14
(I00
I00
tp5862
sba(iModules.cell
Cell
p5863
(dp5864
g14
(I00
I00
tp5865
sba(iModules.cell
Cell
p5866
(dp5867
g14
(I00
I00
tp5868
sba(iModules.cell
Cell
p5869
(dp5870
g14
(I00
I00
tp5871
sba(iModules.cell
Cell
p5872
(dp5873
g14
(I00
I00
tp5874
sba(iModules.cell
Cell
p5875
(dp5876
g14
(I00
I00
tp5877
sba(iModules.cell
Cell
p5878
(dp5879
g14
(I00
I00
tp5880
sba(iModules.cell
Cell
p5881
(dp5882
g14
(I00
I00
tp5883
sbaa(lp5884
(iModules.cell
Cell
p5885
(dp5886
g14
(I00
I00
tp5887
sba(iModules.cell
Cell
p5888
(dp5889
g14
(I00
I00
tp5890
sba(iModules.cell
Cell
p5891
(dp5892
g14
(I00
I00
tp5893
sba(iModules.cell
Cell
p5894
(dp5895
g14
(I00
I00
tp5896
sba(iModules.cell
Cell
p5897
(dp5898
g14
(I00
I00
tp5899
sba(iModules.cell
Cell
p5900
(dp5901
g14
(I00
I00
tp5902
sba(iModules.cell
Cell
p5903
(dp5904
g14
(I00
I00
tp5905
sba(iModules.cell
Cell
p5906
(dp5907
g14
(I00
I00
tp5908
sba(iModules.cell
Cell
p5909
(dp5910
g14
(I00
I00
tp5911
sba(iModules.cell
Cell
p5912
(dp5913
g14
(I00
I00
tp5914
sba(iModules.cell
Cell
p5915
(dp5916
g14
(I00
I00
tp5917
sba(iModules.cell
Cell
p5918
(dp5919
g14
(I00
I00
tp5920
sba(iModules.cell
Cell
p5921
(dp5922
g14
(I00
I00
tp5923
sba(iModules.cell
Cell
p5924
(dp5925
g14
(I00
I00
tp5926
sba(iModules.cell
Cell
p5927
(dp5928
g14
(I00
I00
tp5929
sba(iModules.cell
Cell
p5930
(dp5931
g14
(I00
I00
tp5932
sba(iModules.cell
Cell
p5933
(dp5934
g14
(I00
I00
tp5935
sba(iModules.cell
Cell
p5936
(dp5937
g14
(I00
I00
tp5938
sba(iModules.cell
Cell
p5939
(dp5940
g14
(I00
I00
tp5941
sba(iModules.cell
Cell
p5942
(dp5943
g14
(I00
I00
tp5944
sba(iModules.cell
Cell
p5945
(dp5946
g14
(I00
I00
tp5947
sba(iModules.cell
Cell
p5948
(dp5949
g14
(I00
I00
tp5950
sba(iModules.cell
Cell
p5951
(dp5952
g14
(I00
I00
tp5953
sba(iModules.cell
Cell
p5954
(dp5955
g14
(I00
I00
tp5956
sba(iModules.cell
Cell
p5957
(dp5958
g14
(I00
I00
tp5959
sba(iModules.cell
Cell
p5960
(dp5961
g14
(I00
I00
tp5962
sba(iModules.cell
Cell
p5963
(dp5964
g14
(I00
I00
tp5965
sba(iModules.cell
Cell
p5966
(dp5967
g14
(I00
I00
tp5968
sba(iModules.cell
Cell
p5969
(dp5970
g14
(I00
I00
tp5971
sba(iModules.cell
Cell
p5972
(dp5973
g14
(I00
I00
tp5974
sba(iModules.cell
Cell
p5975
(dp5976
g14
(I00
I00
tp5977
sba(iModules.cell
Cell
p5978
(dp5979
g14
(I00
I00
tp5980
sba(iModules.cell
Cell
p5981
(dp5982
g14
(I00
I00
tp5983
sba(iModules.cell
Cell
p5984
(dp5985
g14
(I00
I00
tp5986
sba(iModules.cell
Cell
p5987
(dp5988
g14
(I00
I00
tp5989
sba(iModules.cell
Cell
p5990
(dp5991
g14
(I00
I00
tp5992
sba(iModules.cell
Cell
p5993
(dp5994
g14
(I00
I00
tp5995
sba(iModules.cell
Cell
p5996
(dp5997
g14
(I00
I00
tp5998
sba(iModules.cell
Cell
p5999
(dp6000
g14
(I00
I00
tp6001
sba(iModules.cell
Cell
p6002
(dp6003
g14
(I00
I00
tp6004
sba(iModules.cell
Cell
p6005
(dp6006
g14
(I00
I00
tp6007
sba(iModules.cell
Cell
p6008
(dp6009
g14
(I00
I00
tp6010
sba(iModules.cell
Cell
p6011
(dp6012
g14
(I00
I00
tp6013
sba(iModules.cell
Cell
p6014
(dp6015
g14
(I00
I00
tp6016
sba(iModules.cell
Cell
p6017
(dp6018
g14
(I00
I00
tp6019
sba(iModules.cell
Cell
p6020
(dp6021
g14
(I00
I00
tp6022
sba(iModules.cell
Cell
p6023
(dp6024
g14
(I00
I00
tp6025
sba(iModules.cell
Cell
p6026
(dp6027
g14
(I00
I00
tp6028
sba(iModules.cell
Cell
p6029
(dp6030
g14
(I00
I00
tp6031
sba(iModules.cell
Cell
p6032
(dp6033
g14
(I00
I00
tp6034
sba(iModules.cell
Cell
p6035
(dp6036
g14
(I00
I00
tp6037
sba(iModules.cell
Cell
p6038
(dp6039
g14
(I00
I00
tp6040
sba(iModules.cell
Cell
p6041
(dp6042
g14
(I00
I00
tp6043
sba(iModules.cell
Cell
p6044
(dp6045
g14
(I00
I00
tp6046
sba(iModules.cell
Cell
p6047
(dp6048
g14
(I00
I00
tp6049
sba(iModules.cell
Cell
p6050
(dp6051
g14
(I00
I00
tp6052
sba(iModules.cell
Cell
p6053
(dp6054
g14
(I00
I00
tp6055
sba(iModules.cell
Cell
p6056
(dp6057
g14
(I00
I00
tp6058
sba(iModules.cell
Cell
p6059
(dp6060
g14
(I00
I00
tp6061
sba(iModules.cell
Cell
p6062
(dp6063
g14
(I00
I00
tp6064
sba(iModules.cell
Cell
p6065
(dp6066
g14
(I00
I00
tp6067
sba(iModules.cell
Cell
p6068
(dp6069
g14
(I00
I00
tp6070
sba(iModules.cell
Cell
p6071
(dp6072
g14
(I00
I00
tp6073
sba(iModules.cell
Cell
p6074
(dp6075
g14
(I00
I00
tp6076
sba(iModules.cell
Cell
p6077
(dp6078
g14
(I00
I00
tp6079
sba(iModules.cell
Cell
p6080
(dp6081
g14
(I00
I00
tp6082
sba(iModules.cell
Cell
p6083
(dp6084
g14
(I00
I00
tp6085
sba(iModules.cell
Cell
p6086
(dp6087
g14
(I00
I00
tp6088
sba(iModules.cell
Cell
p6089
(dp6090
g14
(I00
I00
tp6091
sba(iModules.cell
Cell
p6092
(dp6093
g14
(I00
I00
tp6094
sba(iModules.cell
Cell
p6095
(dp6096
g14
(I00
I00
tp6097
sba(iModules.cell
Cell
p6098
(dp6099
g14
(I00
I00
tp6100
sba(iModules.cell
Cell
p6101
(dp6102
g14
(I00
I00
tp6103
sba(iModules.cell
Cell
p6104
(dp6105
g14
(I00
I00
tp6106
sba(iModules.cell
Cell
p6107
(dp6108
g14
(I00
I00
tp6109
sba(iModules.cell
Cell
p6110
(dp6111
g14
(I00
I00
tp6112
sba(iModules.cell
Cell
p6113
(dp6114
g14
(I00
I00
tp6115
sba(iModules.cell
Cell
p6116
(dp6117
g14
(I00
I00
tp6118
sba(iModules.cell
Cell
p6119
(dp6120
g14
(I00
I00
tp6121
sba(iModules.cell
Cell
p6122
(dp6123
g14
(I00
I00
tp6124
sba(iModules.cell
Cell
p6125
(dp6126
g14
(I00
I00
tp6127
sbaa.