(lp0
(lp1
(iModules.cell
Cell
p2
(dp3
S'visible'
p4
I00
sS'type'
p5
(I00
I00
tp6
sS'pc'
p7
(lp8
I14
aI60
asba(iModules.cell
Cell
p9
(dp10
g4
I00
sg5
(I00
I00
tp11
sba(iModules.cell
Cell
p12
(dp13
g4
I00
sg5
(I00
I00
tp14
sba(iModules.cell
Cell
p15
(dp16
g4
I00
sg5
(I00
I00
tp17
sba(iModules.cell
Cell
p18
(dp19
g4
I00
sg5
(I00
I00
tp20
sba(iModules.cell
Cell
p21
(dp22
g4
I00
sg5
(I00
I00
tp23
sba(iModules.cell
Cell
p24
(dp25
g4
I00
sg5
(I00
I00
tp26
sba(iModules.cell
Cell
p27
(dp28
g4
I00
sg5
(I00
I00
tp29
sba(iModules.cell
Cell
p30
(dp31
g4
I00
sg5
(I00
I00
tp32
sba(iModules.cell
Cell
p33
(dp34
g4
I00
sg5
(I00
I00
tp35
sba(iModules.cell
Cell
p36
(dp37
g4
I00
sg5
(I00
I00
tp38
sba(iModules.cell
Cell
p39
(dp40
g4
I00
sg5
(I00
I00
tp41
sba(iModules.cell
Cell
p42
(dp43
g4
I00
sg5
(I00
I00
tp44
sba(iModules.cell
Cell
p45
(dp46
g4
I00
sg5
(I00
I00
tp47
sba(iModules.cell
Cell
p48
(dp49
g4
I00
sg5
(I00
I00
tp50
sba(iModules.cell
Cell
p51
(dp52
g4
I00
sg5
(I00
I00
tp53
sba(iModules.cell
Cell
p54
(dp55
g4
I00
sg5
(I00
I00
tp56
sba(iModules.cell
Cell
p57
(dp58
g4
I00
sg5
(I00
I00
tp59
sba(iModules.cell
Cell
p60
(dp61
g4
I00
sg5
(I00
I00
tp62
sba(iModules.cell
Cell
p63
(dp64
g4
I00
sg5
(I00
I00
tp65
sba(iModules.cell
Cell
p66
(dp67
g4
I00
sg5
(I00
I00
tp68
sba(iModules.cell
Cell
p69
(dp70
g4
I00
sg5
(I00
I00
tp71
sba(iModules.cell
Cell
p72
(dp73
g4
I00
sg5
(I00
I00
tp74
sba(iModules.cell
Cell
p75
(dp76
g4
I00
sg5
(I00
I00
tp77
sba(iModules.cell
Cell
p78
(dp79
g4
I00
sg5
(I00
I00
tp80
sba(iModules.cell
Cell
p81
(dp82
g4
I00
sg5
(I00
I00
tp83
sba(iModules.cell
Cell
p84
(dp85
g4
I00
sg5
(I00
I00
tp86
sba(iModules.cell
Cell
p87
(dp88
g4
I00
sg5
(I00
I00
tp89
sba(iModules.cell
Cell
p90
(dp91
g4
I00
sg5
(I00
I00
tp92
sba(iModules.cell
Cell
p93
(dp94
g4
I00
sg5
(I00
I00
tp95
sba(iModules.cell
Cell
p96
(dp97
g4
I00
sg5
(I00
I00
tp98
sba(iModules.cell
Cell
p99
(dp100
g4
I00
sg5
(I00
I00
tp101
sba(iModules.cell
Cell
p102
(dp103
g4
I00
sg5
(I00
I00
tp104
sba(iModules.cell
Cell
p105
(dp106
g4
I00
sg5
(I00
I00
tp107
sba(iModules.cell
Cell
p108
(dp109
g4
I00
sg5
(I00
I00
tp110
sba(iModules.cell
Cell
p111
(dp112
g4
I00
sg5
(I00
I00
tp113
sba(iModules.cell
Cell
p114
(dp115
g4
I00
sg5
(I00
I00
tp116
sba(iModules.cell
Cell
p117
(dp118
g4
I00
sg5
(I00
I00
tp119
sba(iModules.cell
Cell
p120
(dp121
g4
I00
sg5
(I00
I00
tp122
sba(iModules.cell
Cell
p123
(dp124
g4
I00
sg5
(I00
I00
tp125
sba(iModules.cell
Cell
p126
(dp127
g4
I00
sg5
(I00
I00
tp128
sba(iModules.cell
Cell
p129
(dp130
g4
I00
sg5
(I00
I00
tp131
sba(iModules.cell
Cell
p132
(dp133
g4
I00
sg5
(I00
I00
tp134
sba(iModules.cell
Cell
p135
(dp136
g4
I00
sg5
(I00
I00
tp137
sba(iModules.cell
Cell
p138
(dp139
g4
I00
sg5
(I00
I00
tp140
sba(iModules.cell
Cell
p141
(dp142
g4
I00
sg5
(I00
I00
tp143
sba(iModules.cell
Cell
p144
(dp145
g4
I00
sg5
(I00
I00
tp146
sba(iModules.cell
Cell
p147
(dp148
g4
I00
sg5
(I00
I00
tp149
sba(iModules.cell
Cell
p150
(dp151
g4
I00
sg5
(I00
I00
tp152
sba(iModules.cell
Cell
p153
(dp154
g4
I00
sg5
(I00
I00
tp155
sba(iModules.cell
Cell
p156
(dp157
g4
I00
sg5
(I00
I00
tp158
sba(iModules.cell
Cell
p159
(dp160
g4
I00
sg5
(I00
I00
tp161
sba(iModules.cell
Cell
p162
(dp163
g4
I00
sg5
(I00
I00
tp164
sba(iModules.cell
Cell
p165
(dp166
g4
I00
sg5
(I00
I00
tp167
sba(iModules.cell
Cell
p168
(dp169
g4
I00
sg5
(I00
I00
tp170
sba(iModules.cell
Cell
p171
(dp172
g4
I00
sg5
(I00
I00
tp173
sba(iModules.cell
Cell
p174
(dp175
g4
I00
sg5
(I00
I00
tp176
sba(iModules.cell
Cell
p177
(dp178
g4
I00
sg5
(I00
I00
tp179
sba(iModules.cell
Cell
p180
(dp181
g4
I00
sg5
(I00
I00
tp182
sba(iModules.cell
Cell
p183
(dp184
g4
I00
sg5
(I00
I00
tp185
sba(iModules.cell
Cell
p186
(dp187
g4
I00
sg5
(I00
I00
tp188
sba(iModules.cell
Cell
p189
(dp190
g4
I00
sg5
(I00
I00
tp191
sba(iModules.cell
Cell
p192
(dp193
g4
I00
sg5
(I00
I00
tp194
sba(iModules.cell
Cell
p195
(dp196
g4
I00
sg5
(I00
I00
tp197
sba(iModules.cell
Cell
p198
(dp199
g4
I00
sg5
(I00
I00
tp200
sba(iModules.cell
Cell
p201
(dp202
g4
I00
sg5
(I00
I00
tp203
sba(iModules.cell
Cell
p204
(dp205
g4
I00
sg5
(I00
I00
tp206
sba(iModules.cell
Cell
p207
(dp208
g4
I00
sg5
(I00
I00
tp209
sba(iModules.cell
Cell
p210
(dp211
g4
I00
sg5
(I00
I00
tp212
sba(iModules.cell
Cell
p213
(dp214
g4
I00
sg5
(I00
I00
tp215
sba(iModules.cell
Cell
p216
(dp217
g4
I00
sg5
(I00
I00
tp218
sba(iModules.cell
Cell
p219
(dp220
g4
I00
sg5
(I00
I00
tp221
sba(iModules.cell
Cell
p222
(dp223
g4
I00
sg5
(I00
I00
tp224
sba(iModules.cell
Cell
p225
(dp226
g4
I00
sg5
(I00
I00
tp227
sba(iModules.cell
Cell
p228
(dp229
g4
I00
sg5
(I00
I00
tp230
sba(iModules.cell
Cell
p231
(dp232
g4
I00
sg5
(I00
I00
tp233
sba(iModules.cell
Cell
p234
(dp235
g4
I00
sg5
(I00
I00
tp236
sba(iModules.cell
Cell
p237
(dp238
g4
I00
sg5
(I00
I00
tp239
sba(iModules.cell
Cell
p240
(dp241
g4
I00
sg5
(I00
I00
tp242
sba(iModules.cell
Cell
p243
(dp244
g4
I00
sg5
(I00
I00
tp245
sba(iModules.cell
Cell
p246
(dp247
g5
(I00
I00
tp248
sbaa(lp249
(iModules.cell
Cell
p250
(dp251
g4
I00
sg5
(I00
I00
tp252
sba(iModules.cell
Cell
p253
(dp254
g4
I00
sS'explored'
p255
I01
sg5
(I00
I00
tp256
sba(iModules.cell
Cell
p257
(dp258
g4
I00
sg255
I01
sg5
(I00
I00
tp259
sba(iModules.cell
Cell
p260
(dp261
g4
I00
sg255
I01
sg5
(I00
I00
tp262
sba(iModules.cell
Cell
p263
(dp264
g4
I00
sg255
I01
sg5
(I00
I00
tp265
sba(iModules.cell
Cell
p266
(dp267
g4
I00
sg255
I01
sg5
(I00
I00
tp268
sba(iModules.cell
Cell
p269
(dp270
g4
I00
sg255
I01
sg5
(I00
I00
tp271
sba(iModules.cell
Cell
p272
(dp273
g4
I00
sg255
I01
sg5
(I00
I00
tp274
sba(iModules.cell
Cell
p275
(dp276
g4
I00
sg255
I01
sg5
(I00
I00
tp277
sba(iModules.cell
Cell
p278
(dp279
g4
I00
sg255
I01
sg5
(I00
I00
tp280
sba(iModules.cell
Cell
p281
(dp282
g4
I00
sg255
I01
sg5
(I00
I00
tp283
sba(iModules.cell
Cell
p284
(dp285
g4
I00
sg255
I01
sg5
(I00
I00
tp286
sba(iModules.cell
Cell
p287
(dp288
g4
I00
sg255
I01
sg5
(I00
I00
tp289
sba(iModules.cell
Cell
p290
(dp291
g4
I00
sg255
I01
sg5
(I00
I00
tp292
sba(iModules.cell
Cell
p293
(dp294
g4
I00
sg255
I01
sg5
(I00
I00
tp295
sba(iModules.cell
Cell
p296
(dp297
g4
I00
sg255
I01
sg5
(I00
I00
tp298
sba(iModules.cell
Cell
p299
(dp300
g4
I00
sg255
I01
sg5
(I00
I00
tp301
sba(iModules.cell
Cell
p302
(dp303
g4
I00
sg255
I01
sg5
(I00
I00
tp304
sba(iModules.cell
Cell
p305
(dp306
g4
I00
sg255
I01
sg5
(I00
I00
tp307
sba(iModules.cell
Cell
p308
(dp309
g4
I00
sg255
I01
sg5
(I00
I00
tp310
sba(iModules.cell
Cell
p311
(dp312
g4
I00
sg255
I01
sg5
(I00
I00
tp313
sba(iModules.cell
Cell
p314
(dp315
g4
I00
sg255
I01
sg5
(I00
I00
tp316
sba(iModules.cell
Cell
p317
(dp318
g4
I00
sg255
I01
sg5
(I00
I00
tp319
sba(iModules.cell
Cell
p320
(dp321
g4
I00
sg255
I01
sg5
(I00
I00
tp322
sba(iModules.cell
Cell
p323
(dp324
g4
I00
sg255
I01
sg5
(I00
I00
tp325
sba(iModules.cell
Cell
p326
(dp327
g4
I00
sg255
I01
sg5
(I00
I00
tp328
sba(iModules.cell
Cell
p329
(dp330
g4
I00
sg255
I01
sg5
(I00
I00
tp331
sba(iModules.cell
Cell
p332
(dp333
g4
I00
sg255
I01
sg5
(I00
I00
tp334
sba(iModules.cell
Cell
p335
(dp336
g4
I00
sg255
I01
sg5
(I00
I00
tp337
sba(iModules.cell
Cell
p338
(dp339
g4
I00
sg255
I01
sg5
(I00
I00
tp340
sba(iModules.cell
Cell
p341
(dp342
g4
I00
sg255
I01
sg5
(I00
I00
tp343
sba(iModules.cell
Cell
p344
(dp345
g4
I00
sg255
I01
sg5
(I00
I00
tp346
sba(iModules.cell
Cell
p347
(dp348
g4
I00
sg5
(I00
I00
tp349
sba(iModules.cell
Cell
p350
(dp351
g4
I00
sg5
(I00
I00
tp352
sba(iModules.cell
Cell
p353
(dp354
g4
I00
sg5
(I00
I00
tp355
sba(iModules.cell
Cell
p356
(dp357
g4
I00
sg5
(I00
I00
tp358
sba(iModules.cell
Cell
p359
(dp360
g4
I00
sg5
(I00
I00
tp361
sba(iModules.cell
Cell
p362
(dp363
g4
I00
sg5
(I00
I00
tp364
sba(iModules.cell
Cell
p365
(dp366
g4
I00
sg5
(I00
I00
tp367
sba(iModules.cell
Cell
p368
(dp369
g4
I00
sg5
(I00
I00
tp370
sba(iModules.cell
Cell
p371
(dp372
g4
I00
sg5
(I00
I00
tp373
sba(iModules.cell
Cell
p374
(dp375
g4
I00
sg5
(I00
I00
tp376
sba(iModules.cell
Cell
p377
(dp378
g4
I00
sg5
(I00
I00
tp379
sba(iModules.cell
Cell
p380
(dp381
g4
I00
sg5
(I00
I00
tp382
sba(iModules.cell
Cell
p383
(dp384
g4
I00
sg5
(I00
I00
tp385
sba(iModules.cell
Cell
p386
(dp387
g4
I00
sg5
(I00
I00
tp388
sba(iModules.cell
Cell
p389
(dp390
g4
I00
sg5
(I00
I00
tp391
sba(iModules.cell
Cell
p392
(dp393
g4
I00
sg5
(I00
I00
tp394
sba(iModules.cell
Cell
p395
(dp396
g4
I00
sg5
(I00
I00
tp397
sba(iModules.cell
Cell
p398
(dp399
g4
I00
sg5
(I00
I00
tp400
sba(iModules.cell
Cell
p401
(dp402
g4
I00
sg5
(I00
I00
tp403
sba(iModules.cell
Cell
p404
(dp405
g4
I00
sg5
(I00
I00
tp406
sba(iModules.cell
Cell
p407
(dp408
g4
I00
sg5
(I00
I00
tp409
sba(iModules.cell
Cell
p410
(dp411
g4
I00
sg5
(I00
I00
tp412
sba(iModules.cell
Cell
p413
(dp414
g4
I00
sg5
(I00
I00
tp415
sba(iModules.cell
Cell
p416
(dp417
g4
I00
sg5
(I00
I00
tp418
sba(iModules.cell
Cell
p419
(dp420
g4
I00
sg5
(I00
I00
tp421
sba(iModules.cell
Cell
p422
(dp423
g4
I00
sg5
(I00
I00
tp424
sba(iModules.cell
Cell
p425
(dp426
g4
I00
sg5
(I00
I00
tp427
sba(iModules.cell
Cell
p428
(dp429
g4
I00
sg5
(I00
I00
tp430
sba(iModules.cell
Cell
p431
(dp432
g4
I00
sg5
(I00
I00
tp433
sba(iModules.cell
Cell
p434
(dp435
g4
I00
sg5
(I00
I00
tp436
sba(iModules.cell
Cell
p437
(dp438
g4
I00
sg5
(I00
I00
tp439
sba(iModules.cell
Cell
p440
(dp441
g4
I00
sg5
(I00
I00
tp442
sba(iModules.cell
Cell
p443
(dp444
g4
I00
sg5
(I00
I00
tp445
sba(iModules.cell
Cell
p446
(dp447
g4
I00
sg5
(I00
I00
tp448
sba(iModules.cell
Cell
p449
(dp450
g4
I00
sg5
(I00
I00
tp451
sba(iModules.cell
Cell
p452
(dp453
g4
I00
sg5
(I00
I00
tp454
sba(iModules.cell
Cell
p455
(dp456
g4
I00
sg5
(I00
I00
tp457
sba(iModules.cell
Cell
p458
(dp459
g4
I00
sg5
(I00
I00
tp460
sba(iModules.cell
Cell
p461
(dp462
g4
I00
sg5
(I00
I00
tp463
sba(iModules.cell
Cell
p464
(dp465
g4
I00
sg5
(I00
I00
tp466
sba(iModules.cell
Cell
p467
(dp468
g4
I00
sg5
(I00
I00
tp469
sba(iModules.cell
Cell
p470
(dp471
g4
I00
sg5
(I00
I00
tp472
sba(iModules.cell
Cell
p473
(dp474
g4
I00
sg5
(I00
I00
tp475
sba(iModules.cell
Cell
p476
(dp477
g4
I00
sg5
(I00
I00
tp478
sba(iModules.cell
Cell
p479
(dp480
g4
I00
sg5
(I00
I00
tp481
sba(iModules.cell
Cell
p482
(dp483
g4
I00
sg5
(I00
I00
tp484
sba(iModules.cell
Cell
p485
(dp486
g4
I00
sg5
(I00
I00
tp487
sba(iModules.cell
Cell
p488
(dp489
g4
I00
sg5
(I00
I00
tp490
sba(iModules.cell
Cell
p491
(dp492
g5
(I00
I00
tp493
sbaa(lp494
(iModules.cell
Cell
p495
(dp496
g4
I00
sg5
(I00
I00
tp497
sba(iModules.cell
Cell
p498
(dp499
g4
I00
sg255
I01
sg5
(I00
I00
tp500
sba(iModules.cell
Cell
p501
(dp502
g4
I00
sg255
I01
sg5
(I01
I01
tp503
sba(iModules.cell
Cell
p504
(dp505
g4
I00
sg255
I01
sg5
(I01
I01
tp506
sba(iModules.cell
Cell
p507
(dp508
g4
I00
sg255
I01
sg5
(I01
I01
tp509
sba(iModules.cell
Cell
p510
(dp511
g4
I00
sg255
I01
sg5
(I01
I01
tp512
sba(iModules.cell
Cell
p513
(dp514
g4
I00
sg255
I01
sg5
(I01
I01
tp515
sba(iModules.cell
Cell
p516
(dp517
g4
I00
sg255
I01
sg5
(I01
I01
tp518
sba(iModules.cell
Cell
p519
(dp520
g4
I00
sg255
I01
sg5
(I01
I01
tp521
sba(iModules.cell
Cell
p522
(dp523
g4
I00
sg255
I01
sg5
(I01
I01
tp524
sba(iModules.cell
Cell
p525
(dp526
g4
I00
sg255
I01
sg5
(I01
I01
tp527
sba(iModules.cell
Cell
p528
(dp529
g4
I00
sg255
I01
sg5
(I01
I01
tp530
sba(iModules.cell
Cell
p531
(dp532
g4
I00
sg255
I01
sg5
(I01
I01
tp533
sba(iModules.cell
Cell
p534
(dp535
g4
I00
sg255
I01
sg5
(I01
I01
tp536
sba(iModules.cell
Cell
p537
(dp538
g4
I00
sg255
I01
sg5
(I01
I01
tp539
sba(iModules.cell
Cell
p540
(dp541
g4
I00
sg255
I01
sg5
(I01
I01
tp542
sba(iModules.cell
Cell
p543
(dp544
g4
I00
sg255
I01
sg5
(I01
I01
tp545
sba(iModules.cell
Cell
p546
(dp547
g4
I00
sg255
I01
sg5
(I01
I01
tp548
sba(iModules.cell
Cell
p549
(dp550
g4
I00
sg255
I01
sg5
(I01
I01
tp551
sba(iModules.cell
Cell
p552
(dp553
g4
I00
sg255
I01
sg5
(I01
I01
tp554
sba(iModules.cell
Cell
p555
(dp556
g4
I00
sg255
I01
sg5
(I01
I01
tp557
sba(iModules.cell
Cell
p558
(dp559
g4
I00
sg255
I01
sg5
(I01
I01
tp560
sba(iModules.cell
Cell
p561
(dp562
g4
I00
sg255
I01
sg5
(I01
I01
tp563
sba(iModules.cell
Cell
p564
(dp565
g4
I00
sg255
I01
sg5
(I01
I01
tp566
sba(iModules.cell
Cell
p567
(dp568
g4
I00
sg255
I01
sg5
(I01
I01
tp569
sba(iModules.cell
Cell
p570
(dp571
g4
I00
sg255
I01
sg5
(I01
I01
tp572
sba(iModules.cell
Cell
p573
(dp574
g4
I00
sg255
I01
sg5
(I01
I01
tp575
sba(iModules.cell
Cell
p576
(dp577
g4
I00
sg255
I01
sg5
(I01
I01
tp578
sba(iModules.cell
Cell
p579
(dp580
g4
I00
sg255
I01
sg5
(I01
I01
tp581
sba(iModules.cell
Cell
p582
(dp583
g4
I00
sg255
I01
sg5
(I01
I01
tp584
sba(iModules.cell
Cell
p585
(dp586
g4
I00
sg255
I01
sg5
(I01
I01
tp587
sba(iModules.cell
Cell
p588
(dp589
g4
I00
sg255
I01
sg5
(I01
I01
tp590
sba(iModules.cell
Cell
p591
(dp592
g4
I00
sg5
(I01
I01
tp593
sba(iModules.cell
Cell
p594
(dp595
g4
I00
sg5
(I01
I01
tp596
sba(iModules.cell
Cell
p597
(dp598
g4
I00
sg5
(I01
I01
tp599
sba(iModules.cell
Cell
p600
(dp601
g4
I00
sg5
(I01
I01
tp602
sba(iModules.cell
Cell
p603
(dp604
g4
I00
sg5
(I01
I01
tp605
sba(iModules.cell
Cell
p606
(dp607
g4
I00
sg5
(I01
I01
tp608
sba(iModules.cell
Cell
p609
(dp610
g4
I00
sg5
(I01
I01
tp611
sba(iModules.cell
Cell
p612
(dp613
g4
I00
sg5
(I01
I01
tp614
sba(iModules.cell
Cell
p615
(dp616
g4
I00
sg5
(I01
I01
tp617
sba(iModules.cell
Cell
p618
(dp619
g4
I00
sg5
(I01
I01
tp620
sba(iModules.cell
Cell
p621
(dp622
g4
I00
sg5
(I01
I01
tp623
sba(iModules.cell
Cell
p624
(dp625
g4
I00
sg5
(I01
I01
tp626
sba(iModules.cell
Cell
p627
(dp628
g4
I00
sg5
(I01
I01
tp629
sba(iModules.cell
Cell
p630
(dp631
g4
I00
sg5
(I01
I01
tp632
sba(iModules.cell
Cell
p633
(dp634
g4
I00
sg5
(I01
I01
tp635
sba(iModules.cell
Cell
p636
(dp637
g4
I00
sg5
(I01
I01
tp638
sba(iModules.cell
Cell
p639
(dp640
g4
I00
sg5
(I01
I01
tp641
sba(iModules.cell
Cell
p642
(dp643
g4
I00
sg5
(I01
I01
tp644
sba(iModules.cell
Cell
p645
(dp646
g4
I00
sg5
(I01
I01
tp647
sba(iModules.cell
Cell
p648
(dp649
g4
I00
sg5
(I01
I01
tp650
sba(iModules.cell
Cell
p651
(dp652
g4
I00
sg5
(I01
I01
tp653
sba(iModules.cell
Cell
p654
(dp655
g4
I00
sg5
(I01
I01
tp656
sba(iModules.cell
Cell
p657
(dp658
g4
I00
sg5
(I01
I01
tp659
sba(iModules.cell
Cell
p660
(dp661
g4
I00
sg5
(I01
I01
tp662
sba(iModules.cell
Cell
p663
(dp664
g4
I00
sg5
(I01
I01
tp665
sba(iModules.cell
Cell
p666
(dp667
g4
I00
sg5
(I01
I01
tp668
sba(iModules.cell
Cell
p669
(dp670
g4
I00
sg5
(I01
I01
tp671
sba(iModules.cell
Cell
p672
(dp673
g4
I00
sg5
(I01
I01
tp674
sba(iModules.cell
Cell
p675
(dp676
g4
I00
sg5
(I01
I01
tp677
sba(iModules.cell
Cell
p678
(dp679
g4
I00
sg5
(I00
I00
tp680
sba(iModules.cell
Cell
p681
(dp682
g4
I00
sg5
(I00
I00
tp683
sba(iModules.cell
Cell
p684
(dp685
g4
I00
sg5
(I00
I00
tp686
sba(iModules.cell
Cell
p687
(dp688
g4
I00
sg5
(I00
I00
tp689
sba(iModules.cell
Cell
p690
(dp691
g4
I00
sg5
(I00
I00
tp692
sba(iModules.cell
Cell
p693
(dp694
g4
I00
sg5
(I00
I00
tp695
sba(iModules.cell
Cell
p696
(dp697
g4
I00
sg5
(I00
I00
tp698
sba(iModules.cell
Cell
p699
(dp700
g4
I00
sg5
(I00
I00
tp701
sba(iModules.cell
Cell
p702
(dp703
g4
I00
sg5
(I00
I00
tp704
sba(iModules.cell
Cell
p705
(dp706
g4
I00
sg5
(I00
I00
tp707
sba(iModules.cell
Cell
p708
(dp709
g4
I00
sg5
(I00
I00
tp710
sba(iModules.cell
Cell
p711
(dp712
g4
I00
sg5
(I00
I00
tp713
sba(iModules.cell
Cell
p714
(dp715
g4
I00
sg5
(I00
I00
tp716
sba(iModules.cell
Cell
p717
(dp718
g4
I00
sg5
(I00
I00
tp719
sba(iModules.cell
Cell
p720
(dp721
g4
I00
sg5
(I00
I00
tp722
sba(iModules.cell
Cell
p723
(dp724
g4
I00
sg5
(I00
I00
tp725
sba(iModules.cell
Cell
p726
(dp727
g4
I00
sg5
(I00
I00
tp728
sba(iModules.cell
Cell
p729
(dp730
g4
I00
sg5
(I00
I00
tp731
sba(iModules.cell
Cell
p732
(dp733
g4
I00
sg5
(I00
I00
tp734
sba(iModules.cell
Cell
p735
(dp736
g5
(I00
I00
tp737
sbaa(lp738
(iModules.cell
Cell
p739
(dp740
g4
I00
sg5
(I00
I00
tp741
sba(iModules.cell
Cell
p742
(dp743
g4
I00
sg255
I01
sg5
(I00
I00
tp744
sba(iModules.cell
Cell
p745
(dp746
g4
I00
sg255
I01
sg5
(I01
I01
tp747
sba(iModules.cell
Cell
p748
(dp749
g4
I00
sg255
I01
sg5
(I01
I01
tp750
sba(iModules.cell
Cell
p751
(dp752
g4
I00
sg255
I01
sg5
(I01
I01
tp753
sba(iModules.cell
Cell
p754
(dp755
g4
I00
sg255
I01
sg5
(I01
I01
tp756
sba(iModules.cell
Cell
p757
(dp758
g4
I00
sg255
I01
sg5
(I01
I01
tp759
sba(iModules.cell
Cell
p760
(dp761
g4
I00
sg255
I01
sg5
(I01
I01
tp762
sba(iModules.cell
Cell
p763
(dp764
g4
I00
sg255
I01
sg5
(I01
I01
tp765
sba(iModules.cell
Cell
p766
(dp767
g4
I00
sg255
I01
sg5
(I01
I01
tp768
sba(iModules.cell
Cell
p769
(dp770
g4
I00
sg255
I01
sg5
(I01
I01
tp771
sba(iModules.cell
Cell
p772
(dp773
g4
I00
sg255
I01
sg5
(I01
I01
tp774
sba(iModules.cell
Cell
p775
(dp776
g4
I00
sg255
I01
sg5
(I01
I01
tp777
sba(iModules.cell
Cell
p778
(dp779
g4
I00
sg255
I01
sg5
(I01
I01
tp780
sba(iModules.cell
Cell
p781
(dp782
g4
I00
sg255
I01
sg5
(I01
I01
tp783
sba(iModules.cell
Cell
p784
(dp785
g4
I00
sg255
I01
sg5
(I01
I01
tp786
sba(iModules.cell
Cell
p787
(dp788
g4
I00
sg255
I01
sg5
(I01
I01
tp789
sba(iModules.cell
Cell
p790
(dp791
g4
I00
sg255
I01
sg5
(I01
I01
tp792
sba(iModules.cell
Cell
p793
(dp794
g4
I00
sg255
I01
sg5
(I01
I01
tp795
sba(iModules.cell
Cell
p796
(dp797
g4
I00
sg255
I01
sg5
(I01
I01
tp798
sba(iModules.cell
Cell
p799
(dp800
g4
I00
sg255
I01
sg5
(I01
I01
tp801
sba(iModules.cell
Cell
p802
(dp803
g4
I00
sg255
I01
sg5
(I01
I01
tp804
sba(iModules.cell
Cell
p805
(dp806
g4
I00
sg255
I01
sg5
(I01
I01
tp807
sba(iModules.cell
Cell
p808
(dp809
g4
I00
sg255
I01
sg5
(I01
I01
tp810
sba(iModules.cell
Cell
p811
(dp812
g4
I00
sg255
I01
sg5
(I01
I01
tp813
sba(iModules.cell
Cell
p814
(dp815
g4
I00
sg255
I01
sg5
(I01
I01
tp816
sba(iModules.cell
Cell
p817
(dp818
g4
I00
sg255
I01
sg5
(I01
I01
tp819
sba(iModules.cell
Cell
p820
(dp821
g4
I00
sg255
I01
sg5
(I01
I01
tp822
sba(iModules.cell
Cell
p823
(dp824
g4
I00
sg255
I01
sg5
(I01
I01
tp825
sba(iModules.cell
Cell
p826
(dp827
g4
I00
sg255
I01
sg5
(I01
I01
tp828
sba(iModules.cell
Cell
p829
(dp830
g4
I00
sg255
I01
sg5
(I01
I01
tp831
sba(iModules.cell
Cell
p832
(dp833
g4
I00
sg255
I01
sg5
(I01
I01
tp834
sba(iModules.cell
Cell
p835
(dp836
g4
I00
sg5
(I01
I01
tp837
sba(iModules.cell
Cell
p838
(dp839
g4
I00
sg5
(I01
I01
tp840
sba(iModules.cell
Cell
p841
(dp842
g4
I00
sg5
(I01
I01
tp843
sba(iModules.cell
Cell
p844
(dp845
g4
I00
sg5
(I01
I01
tp846
sba(iModules.cell
Cell
p847
(dp848
g4
I00
sg5
(I01
I01
tp849
sba(iModules.cell
Cell
p850
(dp851
g4
I00
sg5
(I01
I01
tp852
sba(iModules.cell
Cell
p853
(dp854
g4
I00
sg5
(I01
I01
tp855
sba(iModules.cell
Cell
p856
(dp857
g4
I00
sg5
(I01
I01
tp858
sba(iModules.cell
Cell
p859
(dp860
g4
I00
sg5
(I01
I01
tp861
sba(iModules.cell
Cell
p862
(dp863
g4
I00
sg5
(I01
I01
tp864
sba(iModules.cell
Cell
p865
(dp866
g4
I00
sg5
(I01
I01
tp867
sba(iModules.cell
Cell
p868
(dp869
g4
I00
sg5
(I01
I01
tp870
sba(iModules.cell
Cell
p871
(dp872
g4
I00
sg5
(I01
I01
tp873
sba(iModules.cell
Cell
p874
(dp875
g4
I00
sg5
(I01
I01
tp876
sba(iModules.cell
Cell
p877
(dp878
g4
I00
sg5
(I01
I01
tp879
sba(iModules.cell
Cell
p880
(dp881
g4
I00
sg5
(I01
I01
tp882
sba(iModules.cell
Cell
p883
(dp884
g4
I00
sg5
(I01
I01
tp885
sba(iModules.cell
Cell
p886
(dp887
g4
I00
sg5
(I01
I01
tp888
sba(iModules.cell
Cell
p889
(dp890
g4
I00
sg5
(I01
I01
tp891
sba(iModules.cell
Cell
p892
(dp893
g4
I00
sg5
(I01
I01
tp894
sba(iModules.cell
Cell
p895
(dp896
g4
I00
sg5
(I01
I01
tp897
sba(iModules.cell
Cell
p898
(dp899
g4
I00
sg5
(I01
I01
tp900
sba(iModules.cell
Cell
p901
(dp902
g4
I00
sg5
(I01
I01
tp903
sba(iModules.cell
Cell
p904
(dp905
g4
I00
sg5
(I01
I01
tp906
sba(iModules.cell
Cell
p907
(dp908
g4
I00
sg5
(I01
I01
tp909
sba(iModules.cell
Cell
p910
(dp911
g4
I00
sg5
(I01
I01
tp912
sba(iModules.cell
Cell
p913
(dp914
g4
I00
sg5
(I01
I01
tp915
sba(iModules.cell
Cell
p916
(dp917
g4
I00
sg5
(I01
I01
tp918
sba(iModules.cell
Cell
p919
(dp920
g4
I00
sg5
(I01
I01
tp921
sba(iModules.cell
Cell
p922
(dp923
g4
I00
sg5
(I00
I00
tp924
sba(iModules.cell
Cell
p925
(dp926
g4
I00
sg5
(I00
I00
tp927
sba(iModules.cell
Cell
p928
(dp929
g4
I00
sg5
(I00
I00
tp930
sba(iModules.cell
Cell
p931
(dp932
g4
I00
sg5
(I00
I00
tp933
sba(iModules.cell
Cell
p934
(dp935
g4
I00
sg5
(I00
I00
tp936
sba(iModules.cell
Cell
p937
(dp938
g4
I00
sg5
(I00
I00
tp939
sba(iModules.cell
Cell
p940
(dp941
g4
I00
sg5
(I00
I00
tp942
sba(iModules.cell
Cell
p943
(dp944
g4
I00
sg5
(I00
I00
tp945
sba(iModules.cell
Cell
p946
(dp947
g4
I00
sg5
(I00
I00
tp948
sba(iModules.cell
Cell
p949
(dp950
g4
I00
sg5
(I00
I00
tp951
sba(iModules.cell
Cell
p952
(dp953
g4
I00
sg5
(I00
I00
tp954
sba(iModules.cell
Cell
p955
(dp956
g4
I00
sg5
(I00
I00
tp957
sba(iModules.cell
Cell
p958
(dp959
g4
I00
sg5
(I00
I00
tp960
sba(iModules.cell
Cell
p961
(dp962
g4
I00
sg5
(I00
I00
tp963
sba(iModules.cell
Cell
p964
(dp965
g4
I00
sg5
(I00
I00
tp966
sba(iModules.cell
Cell
p967
(dp968
g4
I00
sg5
(I00
I00
tp969
sba(iModules.cell
Cell
p970
(dp971
g4
I00
sg5
(I00
I00
tp972
sba(iModules.cell
Cell
p973
(dp974
g4
I00
sg5
(I00
I00
tp975
sba(iModules.cell
Cell
p976
(dp977
g4
I00
sg5
(I00
I00
tp978
sba(iModules.cell
Cell
p979
(dp980
g5
(I00
I00
tp981
sbaa(lp982
(iModules.cell
Cell
p983
(dp984
g4
I00
sg5
(I00
I00
tp985
sba(iModules.cell
Cell
p986
(dp987
g4
I00
sg255
I01
sg5
(I00
I00
tp988
sba(iModules.cell
Cell
p989
(dp990
g4
I00
sg255
I01
sg5
(I01
I01
tp991
sba(iModules.cell
Cell
p992
(dp993
g4
I00
sg255
I01
sg5
(I01
I01
tp994
sba(iModules.cell
Cell
p995
(dp996
g4
I00
sg255
I01
sg5
(I01
I01
tp997
sba(iModules.cell
Cell
p998
(dp999
g4
I00
sg255
I01
sg5
(I01
I01
tp1000
sba(iModules.cell
Cell
p1001
(dp1002
g4
I00
sg255
I01
sg5
(I01
I01
tp1003
sba(iModules.cell
Cell
p1004
(dp1005
g4
I00
sg255
I01
sg5
(I01
I01
tp1006
sba(iModules.cell
Cell
p1007
(dp1008
g4
I00
sg255
I01
sg5
(I01
I01
tp1009
sba(iModules.cell
Cell
p1010
(dp1011
g4
I00
sg255
I01
sg5
(I01
I01
tp1012
sba(iModules.cell
Cell
p1013
(dp1014
g4
I00
sg255
I01
sg5
(I01
I01
tp1015
sba(iModules.cell
Cell
p1016
(dp1017
g4
I00
sg255
I01
sg5
(I01
I01
tp1018
sba(iModules.cell
Cell
p1019
(dp1020
g4
I00
sg255
I01
sg5
(I01
I01
tp1021
sba(iModules.cell
Cell
p1022
(dp1023
g4
I00
sg255
I01
sg5
(I01
I01
tp1024
sba(iModules.cell
Cell
p1025
(dp1026
g4
I00
sg255
I01
sg5
(I01
I01
tp1027
sba(iModules.cell
Cell
p1028
(dp1029
g4
I00
sg255
I01
sg5
(I01
I01
tp1030
sba(iModules.cell
Cell
p1031
(dp1032
g4
I00
sg255
I01
sg5
(I01
I01
tp1033
sba(iModules.cell
Cell
p1034
(dp1035
g4
I00
sg255
I01
sg5
(I01
I01
tp1036
sba(iModules.cell
Cell
p1037
(dp1038
g4
I00
sg255
I01
sg5
(I01
I01
tp1039
sba(iModules.cell
Cell
p1040
(dp1041
g4
I00
sg255
I01
sg5
(I01
I01
tp1042
sba(iModules.cell
Cell
p1043
(dp1044
g4
I00
sg255
I01
sg5
(I01
I01
tp1045
sba(iModules.cell
Cell
p1046
(dp1047
g4
I00
sg255
I01
sg5
(I01
I01
tp1048
sba(iModules.cell
Cell
p1049
(dp1050
g4
I00
sg255
I01
sg5
(I01
I01
tp1051
sba(iModules.cell
Cell
p1052
(dp1053
g4
I00
sg255
I01
sg5
(I01
I01
tp1054
sba(iModules.cell
Cell
p1055
(dp1056
g4
I00
sg255
I01
sg5
(I01
I01
tp1057
sba(iModules.cell
Cell
p1058
(dp1059
g4
I00
sg255
I01
sg5
(I01
I01
tp1060
sba(iModules.cell
Cell
p1061
(dp1062
g4
I00
sg255
I01
sg5
(I01
I01
tp1063
sba(iModules.cell
Cell
p1064
(dp1065
g4
I00
sg255
I01
sg5
(I01
I01
tp1066
sba(iModules.cell
Cell
p1067
(dp1068
g4
I00
sg255
I01
sg5
(I01
I01
tp1069
sba(iModules.cell
Cell
p1070
(dp1071
g4
I00
sg255
I01
sg5
(I01
I01
tp1072
sba(iModules.cell
Cell
p1073
(dp1074
g4
I00
sg255
I01
sg5
(I01
I01
tp1075
sba(iModules.cell
Cell
p1076
(dp1077
g4
I00
sg255
I01
sg5
(I01
I01
tp1078
sba(iModules.cell
Cell
p1079
(dp1080
g4
I00
sg5
(I01
I01
tp1081
sba(iModules.cell
Cell
p1082
(dp1083
g4
I00
sg5
(I01
I01
tp1084
sba(iModules.cell
Cell
p1085
(dp1086
g4
I00
sg5
(I01
I01
tp1087
sba(iModules.cell
Cell
p1088
(dp1089
g4
I00
sg5
(I01
I01
tp1090
sba(iModules.cell
Cell
p1091
(dp1092
g4
I00
sg5
(I01
I01
tp1093
sba(iModules.cell
Cell
p1094
(dp1095
g4
I00
sg5
(I01
I01
tp1096
sba(iModules.cell
Cell
p1097
(dp1098
g4
I00
sg5
(I01
I01
tp1099
sba(iModules.cell
Cell
p1100
(dp1101
g4
I00
sg5
(I01
I01
tp1102
sba(iModules.cell
Cell
p1103
(dp1104
g4
I00
sg5
(I01
I01
tp1105
sba(iModules.cell
Cell
p1106
(dp1107
g4
I00
sg5
(I01
I01
tp1108
sba(iModules.cell
Cell
p1109
(dp1110
g4
I00
sg5
(I01
I01
tp1111
sba(iModules.cell
Cell
p1112
(dp1113
g4
I00
sg5
(I01
I01
tp1114
sba(iModules.cell
Cell
p1115
(dp1116
g4
I00
sg5
(I01
I01
tp1117
sba(iModules.cell
Cell
p1118
(dp1119
g4
I00
sg5
(I01
I01
tp1120
sba(iModules.cell
Cell
p1121
(dp1122
g4
I00
sg5
(I01
I01
tp1123
sba(iModules.cell
Cell
p1124
(dp1125
g4
I00
sg5
(I01
I01
tp1126
sba(iModules.cell
Cell
p1127
(dp1128
g4
I00
sg5
(I01
I01
tp1129
sba(iModules.cell
Cell
p1130
(dp1131
g4
I00
sg5
(I01
I01
tp1132
sba(iModules.cell
Cell
p1133
(dp1134
g4
I00
sg5
(I01
I01
tp1135
sba(iModules.cell
Cell
p1136
(dp1137
g4
I00
sg5
(I01
I01
tp1138
sba(iModules.cell
Cell
p1139
(dp1140
g4
I00
sg5
(I01
I01
tp1141
sba(iModules.cell
Cell
p1142
(dp1143
g4
I00
sg5
(I01
I01
tp1144
sba(iModules.cell
Cell
p1145
(dp1146
g4
I00
sg5
(I01
I01
tp1147
sba(iModules.cell
Cell
p1148
(dp1149
g4
I00
sg5
(I01
I01
tp1150
sba(iModules.cell
Cell
p1151
(dp1152
g4
I00
sg5
(I01
I01
tp1153
sba(iModules.cell
Cell
p1154
(dp1155
g4
I00
sg5
(I01
I01
tp1156
sba(iModules.cell
Cell
p1157
(dp1158
g4
I00
sg5
(I01
I01
tp1159
sba(iModules.cell
Cell
p1160
(dp1161
g4
I00
sg5
(I01
I01
tp1162
sba(iModules.cell
Cell
p1163
(dp1164
g4
I00
sg5
(I01
I01
tp1165
sba(iModules.cell
Cell
p1166
(dp1167
g4
I00
sg5
(I00
I00
tp1168
sba(iModules.cell
Cell
p1169
(dp1170
g4
I00
sg5
(I00
I00
tp1171
sba(iModules.cell
Cell
p1172
(dp1173
g4
I00
sg5
(I00
I00
tp1174
sba(iModules.cell
Cell
p1175
(dp1176
g4
I00
sg5
(I00
I00
tp1177
sba(iModules.cell
Cell
p1178
(dp1179
g4
I00
sg5
(I00
I00
tp1180
sba(iModules.cell
Cell
p1181
(dp1182
g4
I00
sg5
(I00
I00
tp1183
sba(iModules.cell
Cell
p1184
(dp1185
g4
I00
sg5
(I00
I00
tp1186
sba(iModules.cell
Cell
p1187
(dp1188
g4
I00
sg5
(I00
I00
tp1189
sba(iModules.cell
Cell
p1190
(dp1191
g4
I00
sg5
(I00
I00
tp1192
sba(iModules.cell
Cell
p1193
(dp1194
g4
I00
sg5
(I00
I00
tp1195
sba(iModules.cell
Cell
p1196
(dp1197
g4
I00
sg5
(I00
I00
tp1198
sba(iModules.cell
Cell
p1199
(dp1200
g4
I00
sg5
(I00
I00
tp1201
sba(iModules.cell
Cell
p1202
(dp1203
g4
I00
sg5
(I00
I00
tp1204
sba(iModules.cell
Cell
p1205
(dp1206
g4
I00
sg5
(I00
I00
tp1207
sba(iModules.cell
Cell
p1208
(dp1209
g4
I00
sg5
(I00
I00
tp1210
sba(iModules.cell
Cell
p1211
(dp1212
g4
I00
sg5
(I00
I00
tp1213
sba(iModules.cell
Cell
p1214
(dp1215
g4
I00
sg5
(I00
I00
tp1216
sba(iModules.cell
Cell
p1217
(dp1218
g4
I00
sg5
(I00
I00
tp1219
sba(iModules.cell
Cell
p1220
(dp1221
g4
I00
sg5
(I00
I00
tp1222
sba(iModules.cell
Cell
p1223
(dp1224
g5
(I00
I00
tp1225
sbaa(lp1226
(iModules.cell
Cell
p1227
(dp1228
g4
I00
sg5
(I00
I00
tp1229
sba(iModules.cell
Cell
p1230
(dp1231
g4
I00
sg255
I01
sg5
(I00
I00
tp1232
sba(iModules.cell
Cell
p1233
(dp1234
g4
I00
sg255
I01
sg5
(I01
I01
tp1235
sba(iModules.cell
Cell
p1236
(dp1237
g4
I00
sg255
I01
sg5
(I01
I01
tp1238
sba(iModules.cell
Cell
p1239
(dp1240
g4
I00
sg255
I01
sg5
(I01
I01
tp1241
sba(iModules.cell
Cell
p1242
(dp1243
g4
I00
sg255
I01
sg5
(I01
I01
tp1244
sba(iModules.cell
Cell
p1245
(dp1246
g4
I00
sg255
I01
sg5
(I01
I01
tp1247
sba(iModules.cell
Cell
p1248
(dp1249
g4
I00
sg255
I01
sg5
(I01
I01
tp1250
sba(iModules.cell
Cell
p1251
(dp1252
g4
I00
sg255
I01
sg5
(I01
I01
tp1253
sba(iModules.cell
Cell
p1254
(dp1255
g4
I00
sg255
I01
sg5
(I01
I01
tp1256
sba(iModules.cell
Cell
p1257
(dp1258
g4
I00
sg255
I01
sg5
(I01
I01
tp1259
sba(iModules.cell
Cell
p1260
(dp1261
g4
I00
sg255
I01
sg5
(I01
I01
tp1262
sba(iModules.cell
Cell
p1263
(dp1264
g4
I00
sg255
I01
sg5
(I01
I01
tp1265
sba(iModules.cell
Cell
p1266
(dp1267
g4
I00
sg255
I01
sg5
(I01
I01
tp1268
sba(iModules.cell
Cell
p1269
(dp1270
g4
I00
sg255
I01
sg5
(I01
I01
tp1271
sba(iModules.cell
Cell
p1272
(dp1273
g4
I00
sg255
I01
sg5
(I01
I01
tp1274
sba(iModules.cell
Cell
p1275
(dp1276
g4
I00
sg255
I01
sg5
(I01
I01
tp1277
sba(iModules.cell
Cell
p1278
(dp1279
g4
I00
sg255
I01
sg5
(I01
I01
tp1280
sba(iModules.cell
Cell
p1281
(dp1282
g4
I00
sg255
I01
sg5
(I01
I01
tp1283
sba(iModules.cell
Cell
p1284
(dp1285
g4
I00
sg255
I01
sg5
(I01
I01
tp1286
sba(iModules.cell
Cell
p1287
(dp1288
g4
I00
sg255
I01
sg5
(I01
I01
tp1289
sba(iModules.cell
Cell
p1290
(dp1291
g4
I00
sg255
I01
sg5
(I01
I01
tp1292
sba(iModules.cell
Cell
p1293
(dp1294
g4
I00
sg255
I01
sg5
(I01
I01
tp1295
sba(iModules.cell
Cell
p1296
(dp1297
g4
I00
sg255
I01
sg5
(I01
I01
tp1298
sba(iModules.cell
Cell
p1299
(dp1300
g4
I00
sg255
I01
sg5
(I01
I01
tp1301
sba(iModules.cell
Cell
p1302
(dp1303
g4
I00
sg255
I01
sg5
(I01
I01
tp1304
sba(iModules.cell
Cell
p1305
(dp1306
g4
I00
sg255
I01
sg5
(I01
I01
tp1307
sba(iModules.cell
Cell
p1308
(dp1309
g4
I00
sg255
I01
sg5
(I01
I01
tp1310
sba(iModules.cell
Cell
p1311
(dp1312
g4
I00
sg255
I01
sg5
(I01
I01
tp1313
sba(iModules.cell
Cell
p1314
(dp1315
g4
I00
sg255
I01
sg5
(I01
I01
tp1316
sba(iModules.cell
Cell
p1317
(dp1318
g4
I00
sg255
I01
sg5
(I01
I01
tp1319
sba(iModules.cell
Cell
p1320
(dp1321
g4
I00
sg255
I01
sg5
(I01
I01
tp1322
sba(iModules.cell
Cell
p1323
(dp1324
g4
I00
sg5
(I01
I01
tp1325
sba(iModules.cell
Cell
p1326
(dp1327
g4
I00
sg5
(I01
I01
tp1328
sba(iModules.cell
Cell
p1329
(dp1330
g4
I00
sg5
(I01
I01
tp1331
sba(iModules.cell
Cell
p1332
(dp1333
g4
I00
sg5
(I01
I01
tp1334
sba(iModules.cell
Cell
p1335
(dp1336
g4
I00
sg5
(I01
I01
tp1337
sba(iModules.cell
Cell
p1338
(dp1339
g4
I00
sg5
(I01
I01
tp1340
sba(iModules.cell
Cell
p1341
(dp1342
g4
I00
sg5
(I01
I01
tp1343
sba(iModules.cell
Cell
p1344
(dp1345
g4
I00
sg5
(I01
I01
tp1346
sba(iModules.cell
Cell
p1347
(dp1348
g4
I00
sg5
(I01
I01
tp1349
sba(iModules.cell
Cell
p1350
(dp1351
g4
I00
sg5
(I01
I01
tp1352
sba(iModules.cell
Cell
p1353
(dp1354
g4
I00
sg5
(I01
I01
tp1355
sba(iModules.cell
Cell
p1356
(dp1357
g4
I00
sg5
(I01
I01
tp1358
sba(iModules.cell
Cell
p1359
(dp1360
g4
I00
sg5
(I01
I01
tp1361
sba(iModules.cell
Cell
p1362
(dp1363
g4
I00
sg5
(I01
I01
tp1364
sba(iModules.cell
Cell
p1365
(dp1366
g4
I00
sg5
(I01
I01
tp1367
sba(iModules.cell
Cell
p1368
(dp1369
g4
I00
sg5
(I01
I01
tp1370
sba(iModules.cell
Cell
p1371
(dp1372
g4
I00
sg5
(I01
I01
tp1373
sba(iModules.cell
Cell
p1374
(dp1375
g4
I00
sg5
(I01
I01
tp1376
sba(iModules.cell
Cell
p1377
(dp1378
g4
I00
sg5
(I01
I01
tp1379
sba(iModules.cell
Cell
p1380
(dp1381
g4
I01
sg255
I01
sg5
(I01
I01
tp1382
sba(iModules.cell
Cell
p1383
(dp1384
g4
I01
sg255
I01
sg5
(I01
I01
tp1385
sba(iModules.cell
Cell
p1386
(dp1387
g4
I01
sg255
I01
sg5
(I01
I01
tp1388
sba(iModules.cell
Cell
p1389
(dp1390
g4
I01
sg255
I01
sg5
(I01
I01
tp1391
sba(iModules.cell
Cell
p1392
(dp1393
g4
I01
sg255
I01
sg5
(I01
I01
tp1394
sba(iModules.cell
Cell
p1395
(dp1396
g4
I01
sg255
I01
sg5
(I01
I01
tp1397
sba(iModules.cell
Cell
p1398
(dp1399
g4
I01
sg255
I01
sg5
(I01
I01
tp1400
sba(iModules.cell
Cell
p1401
(dp1402
g4
I01
sg255
I01
sg5
(I01
I01
tp1403
sba(iModules.cell
Cell
p1404
(dp1405
g4
I01
sg255
I01
sg5
(I01
I01
tp1406
sba(iModules.cell
Cell
p1407
(dp1408
g4
I01
sg255
I01
sg5
(I01
I01
tp1409
sba(iModules.cell
Cell
p1410
(dp1411
g4
I01
sg255
I01
sg5
(I00
I00
tp1412
sba(iModules.cell
Cell
p1413
(dp1414
g4
I00
sg5
(I00
I00
tp1415
sba(iModules.cell
Cell
p1416
(dp1417
g4
I00
sg5
(I00
I00
tp1418
sba(iModules.cell
Cell
p1419
(dp1420
g4
I00
sg5
(I00
I00
tp1421
sba(iModules.cell
Cell
p1422
(dp1423
g4
I00
sg5
(I00
I00
tp1424
sba(iModules.cell
Cell
p1425
(dp1426
g4
I00
sg5
(I00
I00
tp1427
sba(iModules.cell
Cell
p1428
(dp1429
g4
I00
sg5
(I00
I00
tp1430
sba(iModules.cell
Cell
p1431
(dp1432
g4
I00
sg5
(I00
I00
tp1433
sba(iModules.cell
Cell
p1434
(dp1435
g4
I00
sg5
(I00
I00
tp1436
sba(iModules.cell
Cell
p1437
(dp1438
g4
I00
sg5
(I00
I00
tp1439
sba(iModules.cell
Cell
p1440
(dp1441
g4
I00
sg5
(I00
I00
tp1442
sba(iModules.cell
Cell
p1443
(dp1444
g4
I00
sg5
(I00
I00
tp1445
sba(iModules.cell
Cell
p1446
(dp1447
g4
I00
sg5
(I00
I00
tp1448
sba(iModules.cell
Cell
p1449
(dp1450
g4
I00
sg5
(I00
I00
tp1451
sba(iModules.cell
Cell
p1452
(dp1453
g4
I00
sg5
(I00
I00
tp1454
sba(iModules.cell
Cell
p1455
(dp1456
g4
I00
sg5
(I00
I00
tp1457
sba(iModules.cell
Cell
p1458
(dp1459
g4
I00
sg5
(I00
I00
tp1460
sba(iModules.cell
Cell
p1461
(dp1462
g4
I00
sg5
(I00
I00
tp1463
sba(iModules.cell
Cell
p1464
(dp1465
g4
I00
sg5
(I00
I00
tp1466
sba(iModules.cell
Cell
p1467
(dp1468
g5
(I00
I00
tp1469
sbaa(lp1470
(iModules.cell
Cell
p1471
(dp1472
g4
I00
sg5
(I00
I00
tp1473
sba(iModules.cell
Cell
p1474
(dp1475
g4
I00
sg255
I01
sg5
(I00
I00
tp1476
sba(iModules.cell
Cell
p1477
(dp1478
g4
I00
sg255
I01
sg5
(I01
I01
tp1479
sba(iModules.cell
Cell
p1480
(dp1481
g4
I00
sg255
I01
sg5
(I01
I01
tp1482
sba(iModules.cell
Cell
p1483
(dp1484
g4
I00
sg255
I01
sg5
(I01
I01
tp1485
sba(iModules.cell
Cell
p1486
(dp1487
g4
I00
sg255
I01
sg5
(I01
I01
tp1488
sba(iModules.cell
Cell
p1489
(dp1490
g4
I00
sg255
I01
sg5
(I01
I01
tp1491
sba(iModules.cell
Cell
p1492
(dp1493
g4
I00
sg255
I01
sg5
(I01
I01
tp1494
sba(iModules.cell
Cell
p1495
(dp1496
g4
I00
sg255
I01
sg5
(I01
I01
tp1497
sba(iModules.cell
Cell
p1498
(dp1499
g4
I00
sg255
I01
sg5
(I01
I01
tp1500
sba(iModules.cell
Cell
p1501
(dp1502
g4
I00
sg255
I01
sg5
(I01
I01
tp1503
sba(iModules.cell
Cell
p1504
(dp1505
g4
I00
sg255
I01
sg5
(I01
I01
tp1506
sba(iModules.cell
Cell
p1507
(dp1508
g4
I00
sg255
I01
sg5
(I01
I01
tp1509
sba(iModules.cell
Cell
p1510
(dp1511
g4
I00
sg255
I01
sg5
(I01
I01
tp1512
sba(iModules.cell
Cell
p1513
(dp1514
g4
I00
sg255
I01
sg5
(I01
I01
tp1515
sba(iModules.cell
Cell
p1516
(dp1517
g4
I00
sg255
I01
sg5
(I01
I01
tp1518
sba(iModules.cell
Cell
p1519
(dp1520
g4
I00
sg255
I01
sg5
(I01
I01
tp1521
sba(iModules.cell
Cell
p1522
(dp1523
g4
I00
sg255
I01
sg5
(I01
I01
tp1524
sba(iModules.cell
Cell
p1525
(dp1526
g4
I00
sg255
I01
sg5
(I01
I01
tp1527
sba(iModules.cell
Cell
p1528
(dp1529
g4
I00
sg255
I01
sg5
(I01
I01
tp1530
sba(iModules.cell
Cell
p1531
(dp1532
g4
I00
sg255
I01
sg5
(I01
I01
tp1533
sba(iModules.cell
Cell
p1534
(dp1535
g4
I00
sg255
I01
sg5
(I01
I01
tp1536
sba(iModules.cell
Cell
p1537
(dp1538
g4
I00
sg255
I01
sg5
(I01
I01
tp1539
sba(iModules.cell
Cell
p1540
(dp1541
g4
I00
sg255
I01
sg5
(I01
I01
tp1542
sba(iModules.cell
Cell
p1543
(dp1544
g4
I00
sg255
I01
sg5
(I01
I01
tp1545
sba(iModules.cell
Cell
p1546
(dp1547
g4
I00
sg255
I01
sg5
(I01
I01
tp1548
sba(iModules.cell
Cell
p1549
(dp1550
g4
I00
sg255
I01
sg5
(I01
I01
tp1551
sba(iModules.cell
Cell
p1552
(dp1553
g4
I00
sg255
I01
sg5
(I01
I01
tp1554
sba(iModules.cell
Cell
p1555
(dp1556
g4
I00
sg255
I01
sg5
(I01
I01
tp1557
sba(iModules.cell
Cell
p1558
(dp1559
g4
I00
sg255
I01
sg5
(I01
I01
tp1560
sba(iModules.cell
Cell
p1561
(dp1562
g4
I00
sg255
I01
sg5
(I01
I01
tp1563
sba(iModules.cell
Cell
p1564
(dp1565
g4
I00
sg255
I01
sg5
(I01
I01
tp1566
sba(iModules.cell
Cell
p1567
(dp1568
g4
I00
sg255
I01
sg5
(I01
I01
tp1569
sba(iModules.cell
Cell
p1570
(dp1571
g4
I00
sg255
I01
sg5
(I01
I01
tp1572
sba(iModules.cell
Cell
p1573
(dp1574
g4
I00
sg255
I01
sg5
(I01
I01
tp1575
sba(iModules.cell
Cell
p1576
(dp1577
g4
I00
sg255
I01
sg5
(I01
I01
tp1578
sba(iModules.cell
Cell
p1579
(dp1580
g4
I00
sg255
I01
sg5
(I01
I01
tp1581
sba(iModules.cell
Cell
p1582
(dp1583
g4
I00
sg255
I01
sg5
(I01
I01
tp1584
sba(iModules.cell
Cell
p1585
(dp1586
g4
I00
sg255
I01
sg5
(I01
I01
tp1587
sba(iModules.cell
Cell
p1588
(dp1589
g4
I00
sg255
I01
sg5
(I01
I01
tp1590
sba(iModules.cell
Cell
p1591
(dp1592
g4
I00
sg255
I01
sg5
(I01
I01
tp1593
sba(iModules.cell
Cell
p1594
(dp1595
g4
I00
sg255
I01
sg5
(I01
I01
tp1596
sba(iModules.cell
Cell
p1597
(dp1598
g4
I00
sg255
I01
sg5
(I01
I01
tp1599
sba(iModules.cell
Cell
p1600
(dp1601
g4
I00
sg255
I01
sg5
(I01
I01
tp1602
sba(iModules.cell
Cell
p1603
(dp1604
g4
I00
sg255
I01
sg5
(I01
I01
tp1605
sba(iModules.cell
Cell
p1606
(dp1607
g4
I00
sg255
I01
sg5
(I01
I01
tp1608
sba(iModules.cell
Cell
p1609
(dp1610
g4
I00
sg255
I01
sg5
(I01
I01
tp1611
sba(iModules.cell
Cell
p1612
(dp1613
g4
I00
sg255
I01
sg5
(I01
I01
tp1614
sba(iModules.cell
Cell
p1615
(dp1616
g4
I00
sg255
I01
sg5
(I01
I01
tp1617
sba(iModules.cell
Cell
p1618
(dp1619
g4
I00
sg255
I01
sg5
(I01
I01
tp1620
sba(iModules.cell
Cell
p1621
(dp1622
g4
I00
sg255
I01
sg5
(I01
I01
tp1623
sba(iModules.cell
Cell
p1624
(dp1625
g4
I01
sg255
I01
sg5
(I01
I01
tp1626
sba(iModules.cell
Cell
p1627
(dp1628
g4
I01
sg255
I01
sg5
(I01
I01
tp1629
sba(iModules.cell
Cell
p1630
(dp1631
g4
I01
sg255
I01
sg5
(I01
I01
tp1632
sba(iModules.cell
Cell
p1633
(dp1634
g4
I01
sg255
I01
sg5
(I01
I01
tp1635
sba(iModules.cell
Cell
p1636
(dp1637
g4
I01
sg255
I01
sg5
(I01
I01
tp1638
sba(iModules.cell
Cell
p1639
(dp1640
g4
I01
sg255
I01
sg5
(I01
I01
tp1641
sba(iModules.cell
Cell
p1642
(dp1643
g4
I01
sg255
I01
sg5
(I01
I01
tp1644
sba(iModules.cell
Cell
p1645
(dp1646
g4
I01
sg255
I01
sg5
(I01
I01
tp1647
sba(iModules.cell
Cell
p1648
(dp1649
g4
I01
sg255
I01
sg5
(I01
I01
tp1650
sba(iModules.cell
Cell
p1651
(dp1652
g4
I01
sg255
I01
sg5
(I01
I01
tp1653
sba(iModules.cell
Cell
p1654
(dp1655
g4
I01
sg255
I01
sg5
(I00
I00
tp1656
sba(iModules.cell
Cell
p1657
(dp1658
g4
I00
sg5
(I00
I00
tp1659
sba(iModules.cell
Cell
p1660
(dp1661
g4
I00
sg5
(I00
I00
tp1662
sba(iModules.cell
Cell
p1663
(dp1664
g4
I00
sg5
(I00
I00
tp1665
sba(iModules.cell
Cell
p1666
(dp1667
g4
I00
sg5
(I00
I00
tp1668
sba(iModules.cell
Cell
p1669
(dp1670
g4
I00
sg5
(I00
I00
tp1671
sba(iModules.cell
Cell
p1672
(dp1673
g4
I00
sg5
(I00
I00
tp1674
sba(iModules.cell
Cell
p1675
(dp1676
g4
I00
sg5
(I00
I00
tp1677
sba(iModules.cell
Cell
p1678
(dp1679
g4
I00
sg5
(I00
I00
tp1680
sba(iModules.cell
Cell
p1681
(dp1682
g4
I00
sg5
(I00
I00
tp1683
sba(iModules.cell
Cell
p1684
(dp1685
g4
I00
sg5
(I00
I00
tp1686
sba(iModules.cell
Cell
p1687
(dp1688
g4
I00
sg5
(I00
I00
tp1689
sba(iModules.cell
Cell
p1690
(dp1691
g4
I00
sg5
(I00
I00
tp1692
sba(iModules.cell
Cell
p1693
(dp1694
g4
I00
sg5
(I00
I00
tp1695
sba(iModules.cell
Cell
p1696
(dp1697
g4
I00
sg5
(I00
I00
tp1698
sba(iModules.cell
Cell
p1699
(dp1700
g4
I00
sg5
(I00
I00
tp1701
sba(iModules.cell
Cell
p1702
(dp1703
g4
I00
sg5
(I00
I00
tp1704
sba(iModules.cell
Cell
p1705
(dp1706
g4
I00
sg5
(I00
I00
tp1707
sba(iModules.cell
Cell
p1708
(dp1709
g4
I00
sg5
(I00
I00
tp1710
sba(iModules.cell
Cell
p1711
(dp1712
g5
(I00
I00
tp1713
sbaa(lp1714
(iModules.cell
Cell
p1715
(dp1716
g4
I00
sg5
(I00
I00
tp1717
sba(iModules.cell
Cell
p1718
(dp1719
g4
I00
sg255
I01
sg5
(I00
I00
tp1720
sba(iModules.cell
Cell
p1721
(dp1722
g4
I00
sg255
I01
sg5
(I01
I01
tp1723
sba(iModules.cell
Cell
p1724
(dp1725
g4
I00
sg255
I01
sg5
(I01
I01
tp1726
sba(iModules.cell
Cell
p1727
(dp1728
g4
I00
sg255
I01
sg5
(I01
I01
tp1729
sba(iModules.cell
Cell
p1730
(dp1731
g4
I00
sg255
I01
sg5
(I01
I01
tp1732
sba(iModules.cell
Cell
p1733
(dp1734
g4
I00
sg255
I01
sg5
(I01
I01
tp1735
sba(iModules.cell
Cell
p1736
(dp1737
g4
I00
sg255
I01
sg5
(I01
I01
tp1738
sba(iModules.cell
Cell
p1739
(dp1740
g4
I00
sg255
I01
sg5
(I01
I01
tp1741
sba(iModules.cell
Cell
p1742
(dp1743
g4
I00
sg255
I01
sg5
(I01
I01
tp1744
sba(iModules.cell
Cell
p1745
(dp1746
g4
I00
sg255
I01
sg5
(I01
I01
tp1747
sba(iModules.cell
Cell
p1748
(dp1749
g4
I00
sg255
I01
sg5
(I01
I01
tp1750
sba(iModules.cell
Cell
p1751
(dp1752
g4
I00
sg255
I01
sg5
(I01
I01
tp1753
sba(iModules.cell
Cell
p1754
(dp1755
g4
I00
sg255
I01
sg5
(I01
I01
tp1756
sba(iModules.cell
Cell
p1757
(dp1758
g4
I00
sg255
I01
sg5
(I01
I01
tp1759
sba(iModules.cell
Cell
p1760
(dp1761
g4
I00
sg255
I01
sg5
(I01
I01
tp1762
sba(iModules.cell
Cell
p1763
(dp1764
g4
I00
sg255
I01
sg5
(I01
I01
tp1765
sba(iModules.cell
Cell
p1766
(dp1767
g4
I00
sg255
I01
sg5
(I01
I01
tp1768
sba(iModules.cell
Cell
p1769
(dp1770
g4
I00
sg255
I01
sg5
(I01
I01
tp1771
sba(iModules.cell
Cell
p1772
(dp1773
g4
I00
sg255
I01
sg5
(I01
I01
tp1774
sba(iModules.cell
Cell
p1775
(dp1776
g4
I00
sg255
I01
sg5
(I01
I01
tp1777
sba(iModules.cell
Cell
p1778
(dp1779
g4
I00
sg255
I01
sg5
(I01
I01
tp1780
sba(iModules.cell
Cell
p1781
(dp1782
g4
I00
sg255
I01
sg5
(I01
I01
tp1783
sba(iModules.cell
Cell
p1784
(dp1785
g4
I00
sg255
I01
sg5
(I01
I01
tp1786
sba(iModules.cell
Cell
p1787
(dp1788
g4
I00
sg255
I01
sg5
(I01
I01
tp1789
sba(iModules.cell
Cell
p1790
(dp1791
g4
I00
sg255
I01
sg5
(I01
I01
tp1792
sba(iModules.cell
Cell
p1793
(dp1794
g4
I00
sg255
I01
sg5
(I01
I01
tp1795
sba(iModules.cell
Cell
p1796
(dp1797
g4
I00
sg255
I01
sg5
(I01
I01
tp1798
sba(iModules.cell
Cell
p1799
(dp1800
g4
I00
sg255
I01
sg5
(I01
I01
tp1801
sba(iModules.cell
Cell
p1802
(dp1803
g4
I00
sg255
I01
sg5
(I01
I01
tp1804
sba(iModules.cell
Cell
p1805
(dp1806
g4
I00
sg255
I01
sg5
(I01
I01
tp1807
sba(iModules.cell
Cell
p1808
(dp1809
g4
I00
sg255
I01
sg5
(I01
I01
tp1810
sba(iModules.cell
Cell
p1811
(dp1812
g4
I00
sg255
I01
sg5
(I01
I01
tp1813
sba(iModules.cell
Cell
p1814
(dp1815
g4
I00
sg255
I01
sg5
(I01
I01
tp1816
sba(iModules.cell
Cell
p1817
(dp1818
g4
I00
sg255
I01
sg5
(I01
I01
tp1819
sba(iModules.cell
Cell
p1820
(dp1821
g4
I00
sg255
I01
sg5
(I01
I01
tp1822
sba(iModules.cell
Cell
p1823
(dp1824
g4
I00
sg255
I01
sg5
(I01
I01
tp1825
sba(iModules.cell
Cell
p1826
(dp1827
g4
I00
sg255
I01
sg5
(I01
I01
tp1828
sba(iModules.cell
Cell
p1829
(dp1830
g4
I00
sg255
I01
sg5
(I01
I01
tp1831
sba(iModules.cell
Cell
p1832
(dp1833
g4
I00
sg255
I01
sg5
(I01
I01
tp1834
sba(iModules.cell
Cell
p1835
(dp1836
g4
I00
sg255
I01
sg5
(I01
I01
tp1837
sba(iModules.cell
Cell
p1838
(dp1839
g4
I00
sg255
I01
sg5
(I01
I01
tp1840
sba(iModules.cell
Cell
p1841
(dp1842
g4
I00
sg255
I01
sg5
(I01
I01
tp1843
sba(iModules.cell
Cell
p1844
(dp1845
g4
I00
sg255
I01
sg5
(I01
I01
tp1846
sba(iModules.cell
Cell
p1847
(dp1848
g4
I00
sg255
I01
sg5
(I01
I01
tp1849
sba(iModules.cell
Cell
p1850
(dp1851
g4
I00
sg255
I01
sg5
(I01
I01
tp1852
sba(iModules.cell
Cell
p1853
(dp1854
g4
I00
sg255
I01
sg5
(I01
I01
tp1855
sba(iModules.cell
Cell
p1856
(dp1857
g4
I00
sg255
I01
sg5
(I01
I01
tp1858
sba(iModules.cell
Cell
p1859
(dp1860
g4
I00
sg255
I01
sg5
(I01
I01
tp1861
sba(iModules.cell
Cell
p1862
(dp1863
g4
I00
sg255
I01
sg5
(I01
I01
tp1864
sba(iModules.cell
Cell
p1865
(dp1866
g4
I00
sg255
I01
sg5
(I01
I01
tp1867
sba(iModules.cell
Cell
p1868
(dp1869
g4
I01
sg255
I01
sg5
(I01
I01
tp1870
sba(iModules.cell
Cell
p1871
(dp1872
g4
I01
sg255
I01
sg5
(I01
I01
tp1873
sba(iModules.cell
Cell
p1874
(dp1875
g4
I01
sg255
I01
sg5
(I01
I01
tp1876
sba(iModules.cell
Cell
p1877
(dp1878
g4
I01
sg255
I01
sg5
(I01
I01
tp1879
sba(iModules.cell
Cell
p1880
(dp1881
g4
I01
sg255
I01
sg5
(I01
I01
tp1882
sba(iModules.cell
Cell
p1883
(dp1884
g4
I01
sg255
I01
sg5
(I01
I01
tp1885
sba(iModules.cell
Cell
p1886
(dp1887
g4
I01
sg255
I01
sg5
(I01
I01
tp1888
sba(iModules.cell
Cell
p1889
(dp1890
g4
I01
sg255
I01
sg5
(I01
I01
tp1891
sba(iModules.cell
Cell
p1892
(dp1893
g4
I01
sg255
I01
sg5
(I01
I01
tp1894
sba(iModules.cell
Cell
p1895
(dp1896
g4
I01
sg255
I01
sg5
(I01
I01
tp1897
sba(iModules.cell
Cell
p1898
(dp1899
g4
I01
sg255
I01
sg5
(I00
I00
tp1900
sba(iModules.cell
Cell
p1901
(dp1902
g4
I00
sg5
(I00
I00
tp1903
sba(iModules.cell
Cell
p1904
(dp1905
g4
I00
sg5
(I00
I00
tp1906
sba(iModules.cell
Cell
p1907
(dp1908
g4
I00
sg5
(I00
I00
tp1909
sba(iModules.cell
Cell
p1910
(dp1911
g4
I00
sg5
(I00
I00
tp1912
sba(iModules.cell
Cell
p1913
(dp1914
g4
I00
sg5
(I00
I00
tp1915
sba(iModules.cell
Cell
p1916
(dp1917
g4
I00
sg5
(I00
I00
tp1918
sba(iModules.cell
Cell
p1919
(dp1920
g4
I00
sg5
(I00
I00
tp1921
sba(iModules.cell
Cell
p1922
(dp1923
g4
I00
sg5
(I00
I00
tp1924
sba(iModules.cell
Cell
p1925
(dp1926
g4
I00
sg5
(I00
I00
tp1927
sba(iModules.cell
Cell
p1928
(dp1929
g4
I00
sg5
(I00
I00
tp1930
sba(iModules.cell
Cell
p1931
(dp1932
g4
I00
sg5
(I00
I00
tp1933
sba(iModules.cell
Cell
p1934
(dp1935
g4
I00
sg5
(I00
I00
tp1936
sba(iModules.cell
Cell
p1937
(dp1938
g4
I00
sg5
(I00
I00
tp1939
sba(iModules.cell
Cell
p1940
(dp1941
g4
I00
sg5
(I00
I00
tp1942
sba(iModules.cell
Cell
p1943
(dp1944
g4
I00
sg5
(I00
I00
tp1945
sba(iModules.cell
Cell
p1946
(dp1947
g4
I00
sg5
(I00
I00
tp1948
sba(iModules.cell
Cell
p1949
(dp1950
g4
I00
sg5
(I00
I00
tp1951
sba(iModules.cell
Cell
p1952
(dp1953
g4
I00
sg5
(I00
I00
tp1954
sba(iModules.cell
Cell
p1955
(dp1956
g5
(I00
I00
tp1957
sbaa(lp1958
(iModules.cell
Cell
p1959
(dp1960
g4
I00
sg5
(I00
I00
tp1961
sba(iModules.cell
Cell
p1962
(dp1963
g4
I00
sg255
I01
sg5
(I00
I00
tp1964
sba(iModules.cell
Cell
p1965
(dp1966
g4
I00
sg255
I01
sg5
(I01
I01
tp1967
sba(iModules.cell
Cell
p1968
(dp1969
g4
I00
sg255
I01
sg5
(I01
I01
tp1970
sba(iModules.cell
Cell
p1971
(dp1972
g4
I00
sg255
I01
sg5
(I01
I01
tp1973
sba(iModules.cell
Cell
p1974
(dp1975
g4
I00
sg255
I01
sg5
(I01
I01
tp1976
sba(iModules.cell
Cell
p1977
(dp1978
g4
I00
sg255
I01
sg5
(I01
I01
tp1979
sba(iModules.cell
Cell
p1980
(dp1981
g4
I00
sg255
I01
sg5
(I01
I01
tp1982
sba(iModules.cell
Cell
p1983
(dp1984
g4
I00
sg255
I01
sg5
(I01
I01
tp1985
sba(iModules.cell
Cell
p1986
(dp1987
g4
I00
sg255
I01
sg5
(I01
I01
tp1988
sba(iModules.cell
Cell
p1989
(dp1990
g4
I00
sg255
I01
sg5
(I01
I01
tp1991
sba(iModules.cell
Cell
p1992
(dp1993
g4
I00
sg255
I01
sg5
(I01
I01
tp1994
sba(iModules.cell
Cell
p1995
(dp1996
g4
I00
sg255
I01
sg5
(I01
I01
tp1997
sba(iModules.cell
Cell
p1998
(dp1999
g4
I00
sg255
I01
sg5
(I01
I01
tp2000
sba(iModules.cell
Cell
p2001
(dp2002
g4
I00
sg255
I01
sg5
(I01
I01
tp2003
sba(iModules.cell
Cell
p2004
(dp2005
g4
I00
sg255
I01
sg5
(I01
I01
tp2006
sba(iModules.cell
Cell
p2007
(dp2008
g4
I00
sg255
I01
sg5
(I01
I01
tp2009
sba(iModules.cell
Cell
p2010
(dp2011
g4
I00
sg255
I01
sg5
(I01
I01
tp2012
sba(iModules.cell
Cell
p2013
(dp2014
g4
I00
sg255
I01
sg5
(I01
I01
tp2015
sba(iModules.cell
Cell
p2016
(dp2017
g4
I00
sg255
I01
sg5
(I01
I01
tp2018
sba(iModules.cell
Cell
p2019
(dp2020
g4
I00
sg255
I01
sg5
(I01
I01
tp2021
sba(iModules.cell
Cell
p2022
(dp2023
g4
I00
sg255
I01
sg5
(I01
I01
tp2024
sba(iModules.cell
Cell
p2025
(dp2026
g4
I00
sg255
I01
sg5
(I01
I01
tp2027
sba(iModules.cell
Cell
p2028
(dp2029
g4
I00
sg255
I01
sg5
(I01
I01
tp2030
sba(iModules.cell
Cell
p2031
(dp2032
g4
I00
sg255
I01
sg5
(I01
I01
tp2033
sba(iModules.cell
Cell
p2034
(dp2035
g4
I00
sg255
I01
sg5
(I01
I01
tp2036
sba(iModules.cell
Cell
p2037
(dp2038
g4
I00
sg255
I01
sg5
(I01
I01
tp2039
sba(iModules.cell
Cell
p2040
(dp2041
g4
I00
sg255
I01
sg5
(I01
I01
tp2042
sba(iModules.cell
Cell
p2043
(dp2044
g4
I00
sg255
I01
sg5
(I01
I01
tp2045
sba(iModules.cell
Cell
p2046
(dp2047
g4
I00
sg255
I01
sg5
(I01
I01
tp2048
sba(iModules.cell
Cell
p2049
(dp2050
g4
I00
sg255
I01
sg5
(I01
I01
tp2051
sba(iModules.cell
Cell
p2052
(dp2053
g4
I00
sg255
I01
sg5
(I01
I01
tp2054
sba(iModules.cell
Cell
p2055
(dp2056
g4
I00
sg255
I01
sg5
(I01
I01
tp2057
sba(iModules.cell
Cell
p2058
(dp2059
g4
I00
sg255
I01
sg5
(I01
I01
tp2060
sba(iModules.cell
Cell
p2061
(dp2062
g4
I00
sg255
I01
sg5
(I01
I01
tp2063
sba(iModules.cell
Cell
p2064
(dp2065
g4
I00
sg255
I01
sg5
(I01
I01
tp2066
sba(iModules.cell
Cell
p2067
(dp2068
g4
I00
sg255
I01
sg5
(I01
I01
tp2069
sba(iModules.cell
Cell
p2070
(dp2071
g4
I00
sg255
I01
sg5
(I01
I01
tp2072
sba(iModules.cell
Cell
p2073
(dp2074
g4
I00
sg255
I01
sg5
(I01
I01
tp2075
sba(iModules.cell
Cell
p2076
(dp2077
g4
I00
sg255
I01
sg5
(I01
I01
tp2078
sba(iModules.cell
Cell
p2079
(dp2080
g4
I00
sg255
I01
sg5
(I01
I01
tp2081
sba(iModules.cell
Cell
p2082
(dp2083
g4
I00
sg255
I01
sg5
(I01
I01
tp2084
sba(iModules.cell
Cell
p2085
(dp2086
g4
I00
sg255
I01
sg5
(I01
I01
tp2087
sba(iModules.cell
Cell
p2088
(dp2089
g4
I00
sg255
I01
sg5
(I01
I01
tp2090
sba(iModules.cell
Cell
p2091
(dp2092
g4
I00
sg255
I01
sg5
(I01
I01
tp2093
sba(iModules.cell
Cell
p2094
(dp2095
g4
I00
sg255
I01
sg5
(I01
I01
tp2096
sba(iModules.cell
Cell
p2097
(dp2098
g4
I00
sg255
I01
sg5
(I01
I01
tp2099
sba(iModules.cell
Cell
p2100
(dp2101
g4
I00
sg255
I01
sg5
(I01
I01
tp2102
sba(iModules.cell
Cell
p2103
(dp2104
g4
I00
sg255
I01
sg5
(I01
I01
tp2105
sba(iModules.cell
Cell
p2106
(dp2107
g4
I00
sg255
I01
sg5
(I01
I01
tp2108
sba(iModules.cell
Cell
p2109
(dp2110
g4
I00
sg255
I01
sg5
(I01
I01
tp2111
sba(iModules.cell
Cell
p2112
(dp2113
g4
I01
sg255
I01
sg5
(I01
I01
tp2114
sba(iModules.cell
Cell
p2115
(dp2116
g4
I01
sg255
I01
sg5
(I01
I01
tp2117
sba(iModules.cell
Cell
p2118
(dp2119
g4
I01
sg255
I01
sg5
(I01
I01
tp2120
sba(iModules.cell
Cell
p2121
(dp2122
g4
I01
sg255
I01
sg5
(I01
I01
tp2123
sba(iModules.cell
Cell
p2124
(dp2125
g4
I01
sg255
I01
sg5
(I01
I01
tp2126
sba(iModules.cell
Cell
p2127
(dp2128
g4
I01
sg255
I01
sg5
(I01
I01
tp2129
sba(iModules.cell
Cell
p2130
(dp2131
g4
I01
sg255
I01
sg5
(I01
I01
tp2132
sba(iModules.cell
Cell
p2133
(dp2134
g4
I01
sg255
I01
sg5
(I01
I01
tp2135
sba(iModules.cell
Cell
p2136
(dp2137
g4
I01
sg255
I01
sg5
(I01
I01
tp2138
sba(iModules.cell
Cell
p2139
(dp2140
g4
I01
sg255
I01
sg5
(I01
I01
tp2141
sba(iModules.cell
Cell
p2142
(dp2143
g4
I01
sg255
I01
sg5
(I00
I00
tp2144
sba(iModules.cell
Cell
p2145
(dp2146
g4
I00
sg5
(I00
I00
tp2147
sba(iModules.cell
Cell
p2148
(dp2149
g4
I00
sg5
(I00
I00
tp2150
sba(iModules.cell
Cell
p2151
(dp2152
g4
I00
sg5
(I00
I00
tp2153
sba(iModules.cell
Cell
p2154
(dp2155
g4
I00
sg5
(I00
I00
tp2156
sba(iModules.cell
Cell
p2157
(dp2158
g4
I00
sg5
(I00
I00
tp2159
sba(iModules.cell
Cell
p2160
(dp2161
g4
I00
sg5
(I00
I00
tp2162
sba(iModules.cell
Cell
p2163
(dp2164
g4
I00
sg5
(I00
I00
tp2165
sba(iModules.cell
Cell
p2166
(dp2167
g4
I00
sg5
(I00
I00
tp2168
sba(iModules.cell
Cell
p2169
(dp2170
g4
I00
sg5
(I00
I00
tp2171
sba(iModules.cell
Cell
p2172
(dp2173
g4
I00
sg5
(I00
I00
tp2174
sba(iModules.cell
Cell
p2175
(dp2176
g4
I00
sg5
(I00
I00
tp2177
sba(iModules.cell
Cell
p2178
(dp2179
g4
I00
sg5
(I00
I00
tp2180
sba(iModules.cell
Cell
p2181
(dp2182
g4
I00
sg5
(I00
I00
tp2183
sba(iModules.cell
Cell
p2184
(dp2185
g4
I00
sg5
(I00
I00
tp2186
sba(iModules.cell
Cell
p2187
(dp2188
g4
I00
sg5
(I00
I00
tp2189
sba(iModules.cell
Cell
p2190
(dp2191
g4
I00
sg5
(I00
I00
tp2192
sba(iModules.cell
Cell
p2193
(dp2194
g4
I00
sg5
(I00
I00
tp2195
sba(iModules.cell
Cell
p2196
(dp2197
g4
I00
sg5
(I00
I00
tp2198
sba(iModules.cell
Cell
p2199
(dp2200
g5
(I00
I00
tp2201
sbaa(lp2202
(iModules.cell
Cell
p2203
(dp2204
g4
I00
sg5
(I00
I00
tp2205
sba(iModules.cell
Cell
p2206
(dp2207
g4
I00
sg255
I01
sg5
(I00
I00
tp2208
sba(iModules.cell
Cell
p2209
(dp2210
g4
I00
sg255
I01
sg5
(I01
I01
tp2211
sba(iModules.cell
Cell
p2212
(dp2213
g4
I00
sg255
I01
sg5
(I01
I01
tp2214
sba(iModules.cell
Cell
p2215
(dp2216
g4
I00
sg255
I01
sg5
(I01
I01
tp2217
sba(iModules.cell
Cell
p2218
(dp2219
g4
I00
sg255
I01
sg5
(I01
I01
tp2220
sba(iModules.cell
Cell
p2221
(dp2222
g4
I00
sg255
I01
sg5
(I01
I01
tp2223
sba(iModules.cell
Cell
p2224
(dp2225
g4
I00
sg255
I01
sg5
(I01
I01
tp2226
sba(iModules.cell
Cell
p2227
(dp2228
g4
I00
sg255
I01
sg5
(I01
I01
tp2229
sba(iModules.cell
Cell
p2230
(dp2231
g4
I00
sg255
I01
sg5
(I01
I01
tp2232
sba(iModules.cell
Cell
p2233
(dp2234
g4
I00
sg255
I01
sg5
(I01
I01
tp2235
sba(iModules.cell
Cell
p2236
(dp2237
g4
I00
sg255
I01
sg5
(I01
I01
tp2238
sba(iModules.cell
Cell
p2239
(dp2240
g4
I00
sg255
I01
sg5
(I01
I01
tp2241
sba(iModules.cell
Cell
p2242
(dp2243
g4
I00
sg255
I01
sg5
(I01
I01
tp2244
sba(iModules.cell
Cell
p2245
(dp2246
g4
I00
sg255
I01
sg5
(I01
I01
tp2247
sba(iModules.cell
Cell
p2248
(dp2249
g4
I00
sg255
I01
sg5
(I01
I01
tp2250
sba(iModules.cell
Cell
p2251
(dp2252
g4
I00
sg255
I01
sg5
(I01
I01
tp2253
sba(iModules.cell
Cell
p2254
(dp2255
g4
I00
sg255
I01
sg5
(I01
I01
tp2256
sba(iModules.cell
Cell
p2257
(dp2258
g4
I00
sg255
I01
sg5
(I01
I01
tp2259
sba(iModules.cell
Cell
p2260
(dp2261
g4
I00
sg255
I01
sg5
(I01
I01
tp2262
sba(iModules.cell
Cell
p2263
(dp2264
g4
I00
sg255
I01
sg5
(I01
I01
tp2265
sS'undercell'
p2266
(iModules.cell
Mob
p2267
(dp2268
S'char'
p2269
S'M'
p2270
sg4
I01
sg2266
g2263
sS'name'
p2271
S'Mob'
p2272
sg255
I01
sbsba(iModules.cell
Cell
p2273
(dp2274
g4
I00
sg255
I01
sg5
(I01
I01
tp2275
sba(iModules.cell
Door
p2276
(dp2277
g4
I00
sg255
I01
sg5
(I01
I01
tp2278
sS'opened'
p2279
I01
sba(iModules.cell
Cell
p2280
(dp2281
g4
I00
sg255
I01
sg5
(I01
I01
tp2282
sba(iModules.cell
Cell
p2283
(dp2284
g4
I00
sg255
I01
sg5
(I01
I01
tp2285
sba(iModules.cell
Cell
p2286
(dp2287
g4
I00
sg255
I01
sg5
(I01
I01
tp2288
sba(iModules.cell
Cell
p2289
(dp2290
g4
I00
sg255
I01
sg5
(I01
I01
tp2291
sba(iModules.cell
Cell
p2292
(dp2293
g4
I00
sg255
I01
sg5
(I01
I01
tp2294
sba(iModules.cell
Cell
p2295
(dp2296
g4
I00
sg255
I01
sg5
(I01
I01
tp2297
sba(iModules.cell
Cell
p2298
(dp2299
g4
I00
sg255
I01
sg5
(I01
I01
tp2300
sba(iModules.cell
Cell
p2301
(dp2302
g4
I00
sg255
I01
sg5
(I01
I01
tp2303
sba(iModules.cell
Cell
p2304
(dp2305
g4
I00
sg255
I01
sg5
(I01
I01
tp2306
sba(iModules.cell
Cell
p2307
(dp2308
g4
I00
sg255
I01
sg5
(I01
I01
tp2309
sba(iModules.cell
Cell
p2310
(dp2311
g4
I00
sg255
I01
sg5
(I01
I01
tp2312
sba(iModules.cell
Cell
p2313
(dp2314
g4
I00
sg255
I01
sg5
(I01
I01
tp2315
sba(iModules.cell
Cell
p2316
(dp2317
g4
I00
sg255
I01
sg5
(I01
I01
tp2318
sba(iModules.cell
Cell
p2319
(dp2320
g4
I00
sg255
I01
sg5
(I01
I01
tp2321
sba(iModules.cell
Cell
p2322
(dp2323
g4
I00
sg255
I01
sg5
(I01
I01
tp2324
sba(iModules.cell
Cell
p2325
(dp2326
g4
I00
sg255
I01
sg5
(I01
I01
tp2327
sba(iModules.cell
Cell
p2328
(dp2329
g4
I00
sg255
I01
sg5
(I01
I01
tp2330
sba(iModules.cell
Cell
p2331
(dp2332
g4
I00
sg255
I01
sg5
(I01
I01
tp2333
sba(iModules.cell
Cell
p2334
(dp2335
g4
I00
sg255
I01
sg5
(I01
I01
tp2336
sba(iModules.cell
Cell
p2337
(dp2338
g4
I00
sg255
I01
sg5
(I01
I01
tp2339
sba(iModules.cell
Cell
p2340
(dp2341
g4
I00
sg255
I01
sg5
(I01
I01
tp2342
sba(iModules.cell
Cell
p2343
(dp2344
g4
I00
sg255
I01
sg5
(I01
I01
tp2345
sba(iModules.cell
Cell
p2346
(dp2347
g4
I00
sg255
I01
sg5
(I01
I01
tp2348
sba(iModules.cell
Cell
p2349
(dp2350
g4
I00
sg255
I01
sg5
(I01
I01
tp2351
sba(iModules.cell
Cell
p2352
(dp2353
g4
I00
sg255
I01
sg5
(I01
I01
tp2354
sba(iModules.cell
Cell
p2355
(dp2356
g4
I00
sg255
I01
sg5
(I01
I01
tp2357
sba(iModules.cell
Cell
p2358
(dp2359
g4
I00
sg255
I01
sg5
(I01
I01
tp2360
sba(iModules.cell
Cell
p2361
(dp2362
g4
I00
sg255
I01
sg5
(I01
I01
tp2363
sba(iModules.cell
Cell
p2364
(dp2365
g4
I01
sg255
I01
sg5
(I01
I01
tp2366
sba(iModules.cell
Cell
p2367
(dp2368
g4
I01
sg255
I01
sg5
(I01
I01
tp2369
sba(iModules.cell
Cell
p2370
(dp2371
g4
I01
sg255
I01
sg5
(I01
I01
tp2372
sba(iModules.cell
Cell
p2373
(dp2374
g4
I01
sg255
I01
sg5
(I01
I01
tp2375
sba(iModules.cell
Cell
p2376
(dp2377
g4
I01
sg255
I01
sg5
(I01
I01
tp2378
sba(iModules.cell
Cell
p2379
(dp2380
g4
I01
sg255
I01
sg5
(I01
I01
tp2381
sba(iModules.cell
Cell
p2382
(dp2383
g4
I01
sg255
I01
sg5
(I01
I01
tp2384
sba(iModules.cell
Cell
p2385
(dp2386
g4
I01
sg255
I01
sg5
(I01
I01
tp2387
sba(iModules.cell
Cell
p2388
(dp2389
g4
I01
sg255
I01
sg5
(I01
I01
tp2390
sba(iModules.cell
Cell
p2391
(dp2392
g4
I01
sg255
I01
sg5
(I01
I01
tp2393
sba(iModules.cell
Cell
p2394
(dp2395
g4
I01
sg255
I01
sg5
(I00
I00
tp2396
sba(iModules.cell
Cell
p2397
(dp2398
g4
I00
sg5
(I00
I00
tp2399
sba(iModules.cell
Cell
p2400
(dp2401
g4
I00
sg5
(I00
I00
tp2402
sba(iModules.cell
Cell
p2403
(dp2404
g4
I00
sg5
(I00
I00
tp2405
sba(iModules.cell
Cell
p2406
(dp2407
g4
I00
sg5
(I00
I00
tp2408
sba(iModules.cell
Cell
p2409
(dp2410
g4
I00
sg5
(I00
I00
tp2411
sba(iModules.cell
Cell
p2412
(dp2413
g4
I00
sg5
(I00
I00
tp2414
sba(iModules.cell
Cell
p2415
(dp2416
g4
I00
sg5
(I00
I00
tp2417
sba(iModules.cell
Cell
p2418
(dp2419
g4
I00
sg5
(I00
I00
tp2420
sba(iModules.cell
Cell
p2421
(dp2422
g4
I00
sg5
(I00
I00
tp2423
sba(iModules.cell
Cell
p2424
(dp2425
g4
I00
sg5
(I00
I00
tp2426
sba(iModules.cell
Cell
p2427
(dp2428
g4
I00
sg5
(I00
I00
tp2429
sba(iModules.cell
Cell
p2430
(dp2431
g4
I00
sg5
(I00
I00
tp2432
sba(iModules.cell
Cell
p2433
(dp2434
g4
I00
sg5
(I00
I00
tp2435
sba(iModules.cell
Cell
p2436
(dp2437
g4
I00
sg5
(I00
I00
tp2438
sba(iModules.cell
Cell
p2439
(dp2440
g4
I00
sg5
(I00
I00
tp2441
sba(iModules.cell
Cell
p2442
(dp2443
g4
I00
sg5
(I00
I00
tp2444
sba(iModules.cell
Cell
p2445
(dp2446
g4
I00
sg5
(I00
I00
tp2447
sba(iModules.cell
Cell
p2448
(dp2449
g4
I00
sg5
(I00
I00
tp2450
sba(iModules.cell
Cell
p2451
(dp2452
g5
(I00
I00
tp2453
sbaa(lp2454
(iModules.cell
Cell
p2455
(dp2456
g4
I00
sg5
(I00
I00
tp2457
sba(iModules.cell
Cell
p2458
(dp2459
g4
I00
sg255
I01
sg5
(I00
I00
tp2460
sba(iModules.cell
Cell
p2461
(dp2462
g4
I00
sg255
I01
sg5
(I01
I01
tp2463
sba(iModules.cell
Cell
p2464
(dp2465
g4
I00
sg255
I01
sg5
(I01
I01
tp2466
sba(iModules.cell
Cell
p2467
(dp2468
g4
I00
sg255
I01
sg5
(I01
I01
tp2469
sba(iModules.cell
Cell
p2470
(dp2471
g4
I00
sg255
I01
sg5
(I01
I01
tp2472
sba(iModules.cell
Cell
p2473
(dp2474
g4
I00
sg255
I01
sg5
(I01
I01
tp2475
sba(iModules.cell
Cell
p2476
(dp2477
g4
I00
sg255
I01
sg5
(I01
I01
tp2478
sba(iModules.cell
Cell
p2479
(dp2480
g4
I00
sg255
I01
sg5
(I01
I01
tp2481
sba(iModules.cell
Cell
p2482
(dp2483
g4
I00
sg255
I01
sg5
(I01
I01
tp2484
sba(iModules.cell
Cell
p2485
(dp2486
g4
I00
sg255
I01
sg5
(I01
I01
tp2487
sba(iModules.cell
Cell
p2488
(dp2489
g4
I00
sg255
I01
sg5
(I01
I01
tp2490
sba(iModules.cell
Cell
p2491
(dp2492
g4
I00
sg255
I01
sg5
(I01
I01
tp2493
sba(iModules.cell
Cell
p2494
(dp2495
g4
I00
sg255
I01
sg5
(I01
I01
tp2496
sba(iModules.cell
Cell
p2497
(dp2498
g4
I00
sg255
I01
sg5
(I01
I01
tp2499
sba(iModules.cell
Cell
p2500
(dp2501
g4
I00
sg255
I01
sg5
(I01
I01
tp2502
sba(iModules.cell
Cell
p2503
(dp2504
g4
I00
sg255
I01
sg5
(I01
I01
tp2505
sba(iModules.cell
Cell
p2506
(dp2507
g4
I00
sg255
I01
sg5
(I01
I01
tp2508
sba(iModules.cell
Cell
p2509
(dp2510
g4
I00
sg255
I01
sg5
(I01
I01
tp2511
sba(iModules.cell
Cell
p2512
(dp2513
g4
I00
sg255
I01
sg5
(I01
I01
tp2514
sba(iModules.cell
Cell
p2515
(dp2516
g4
I00
sg255
I01
sg5
(I01
I01
tp2517
sba(iModules.cell
Cell
p2518
(dp2519
g4
I00
sg255
I01
sg5
(I01
I01
tp2520
sba(iModules.cell
Cell
p2521
(dp2522
g4
I00
sg255
I01
sg5
(I01
I01
tp2523
sba(iModules.cell
Cell
p2524
(dp2525
g4
I00
sg255
I01
sg5
(I01
I01
tp2526
sba(iModules.cell
Cell
p2527
(dp2528
g4
I00
sg255
I01
sg5
(I01
I01
tp2529
sba(iModules.cell
Cell
p2530
(dp2531
g4
I00
sg255
I01
sg5
(I01
I01
tp2532
sba(iModules.cell
Cell
p2533
(dp2534
g4
I00
sg255
I01
sg5
(I01
I01
tp2535
sba(iModules.cell
Cell
p2536
(dp2537
g4
I00
sg255
I01
sg5
(I01
I01
tp2538
sba(iModules.cell
Cell
p2539
(dp2540
g4
I00
sg255
I01
sg5
(I01
I01
tp2541
sba(iModules.cell
Cell
p2542
(dp2543
g4
I00
sg255
I01
sg5
(I01
I01
tp2544
sba(iModules.cell
Cell
p2545
(dp2546
g4
I00
sg255
I01
sg5
(I01
I01
tp2547
sba(iModules.cell
Cell
p2548
(dp2549
g4
I00
sg255
I01
sg5
(I01
I01
tp2550
sba(iModules.cell
Cell
p2551
(dp2552
g4
I00
sg255
I01
sg5
(I01
I01
tp2553
sba(iModules.cell
Cell
p2554
(dp2555
g4
I00
sg255
I01
sg5
(I01
I01
tp2556
sba(iModules.cell
Cell
p2557
(dp2558
g4
I00
sg255
I01
sg5
(I01
I01
tp2559
sba(iModules.cell
Cell
p2560
(dp2561
g4
I00
sg255
I01
sg5
(I01
I01
tp2562
sba(iModules.cell
Cell
p2563
(dp2564
g4
I00
sg255
I01
sg5
(I01
I01
tp2565
sba(iModules.cell
Cell
p2566
(dp2567
g4
I00
sg255
I01
sg5
(I01
I01
tp2568
sba(iModules.cell
Cell
p2569
(dp2570
g4
I00
sg255
I01
sg5
(I01
I01
tp2571
sba(iModules.cell
Cell
p2572
(dp2573
g4
I00
sg255
I01
sg5
(I01
I01
tp2574
sba(iModules.cell
Cell
p2575
(dp2576
g4
I00
sg255
I01
sg5
(I01
I01
tp2577
sba(iModules.cell
Cell
p2578
(dp2579
g4
I00
sg255
I01
sg5
(I01
I01
tp2580
sba(iModules.cell
Cell
p2581
(dp2582
g4
I00
sg255
I01
sg5
(I01
I01
tp2583
sba(iModules.cell
Cell
p2584
(dp2585
g4
I00
sg255
I01
sg5
(I01
I01
tp2586
sba(iModules.cell
Cell
p2587
(dp2588
g4
I00
sg255
I01
sg5
(I01
I01
tp2589
sba(iModules.cell
Cell
p2590
(dp2591
g4
I00
sg255
I01
sg5
(I01
I01
tp2592
sba(iModules.cell
Cell
p2593
(dp2594
g4
I00
sg255
I01
sg5
(I01
I01
tp2595
sba(iModules.cell
Cell
p2596
(dp2597
g4
I00
sg255
I01
sg5
(I01
I01
tp2598
sba(iModules.cell
Cell
p2599
(dp2600
g4
I00
sg255
I01
sg5
(I01
I01
tp2601
sba(iModules.cell
Cell
p2602
(dp2603
g4
I00
sg255
I01
sg5
(I01
I01
tp2604
sba(iModules.cell
Cell
p2605
(dp2606
g4
I00
sg255
I01
sg5
(I01
I01
tp2607
sba(iModules.cell
Cell
p2608
(dp2609
g4
I01
sg255
I01
sg5
(I01
I01
tp2610
sba(iModules.cell
Cell
p2611
(dp2612
g4
I01
sg255
I01
sg5
(I01
I01
tp2613
sba(iModules.cell
Cell
p2614
(dp2615
g4
I01
sg255
I01
sg5
(I01
I01
tp2616
sba(iModules.cell
Cell
p2617
(dp2618
g4
I01
sg255
I01
sg5
(I01
I01
tp2619
sba(iModules.cell
Cell
p2620
(dp2621
g4
I01
sg255
I01
sg5
(I01
I01
tp2622
sba(iModules.cell
Cell
p2623
(dp2624
g4
I01
sg255
I01
sg5
(I01
I01
tp2625
sba(iModules.cell
Cell
p2626
(dp2627
g4
I01
sg255
I01
sg5
(I01
I01
tp2628
sba(iModules.cell
Cell
p2629
(dp2630
g4
I01
sg255
I01
sg5
(I01
I01
tp2631
sba(iModules.cell
Cell
p2632
(dp2633
g4
I01
sg255
I01
sg5
(I01
I01
tp2634
sba(iModules.cell
Cell
p2635
(dp2636
g4
I01
sg255
I01
sg5
(I01
I01
tp2637
sba(iModules.cell
Cell
p2638
(dp2639
g4
I01
sg255
I01
sg5
(I00
I00
tp2640
sba(iModules.cell
Cell
p2641
(dp2642
g4
I00
sg5
(I00
I00
tp2643
sba(iModules.cell
Cell
p2644
(dp2645
g4
I00
sg5
(I00
I00
tp2646
sba(iModules.cell
Cell
p2647
(dp2648
g4
I00
sg5
(I00
I00
tp2649
sba(iModules.cell
Cell
p2650
(dp2651
g4
I00
sg5
(I00
I00
tp2652
sba(iModules.cell
Cell
p2653
(dp2654
g4
I00
sg5
(I00
I00
tp2655
sba(iModules.cell
Cell
p2656
(dp2657
g4
I00
sg5
(I00
I00
tp2658
sba(iModules.cell
Cell
p2659
(dp2660
g4
I00
sg5
(I00
I00
tp2661
sba(iModules.cell
Cell
p2662
(dp2663
g4
I00
sg5
(I00
I00
tp2664
sba(iModules.cell
Cell
p2665
(dp2666
g4
I00
sg5
(I00
I00
tp2667
sba(iModules.cell
Cell
p2668
(dp2669
g4
I00
sg5
(I00
I00
tp2670
sba(iModules.cell
Cell
p2671
(dp2672
g4
I00
sg5
(I00
I00
tp2673
sba(iModules.cell
Cell
p2674
(dp2675
g4
I00
sg5
(I00
I00
tp2676
sba(iModules.cell
Cell
p2677
(dp2678
g4
I00
sg5
(I00
I00
tp2679
sba(iModules.cell
Cell
p2680
(dp2681
g4
I00
sg5
(I00
I00
tp2682
sba(iModules.cell
Cell
p2683
(dp2684
g4
I00
sg5
(I00
I00
tp2685
sba(iModules.cell
Cell
p2686
(dp2687
g4
I00
sg5
(I00
I00
tp2688
sba(iModules.cell
Cell
p2689
(dp2690
g4
I00
sg5
(I00
I00
tp2691
sba(iModules.cell
Cell
p2692
(dp2693
g4
I00
sg5
(I00
I00
tp2694
sba(iModules.cell
Cell
p2695
(dp2696
g5
(I00
I00
tp2697
sbaa(lp2698
(iModules.cell
Cell
p2699
(dp2700
g4
I00
sg5
(I00
I00
tp2701
sba(iModules.cell
Cell
p2702
(dp2703
g4
I00
sg255
I01
sg5
(I00
I00
tp2704
sba(iModules.cell
Cell
p2705
(dp2706
g4
I00
sg255
I01
sg5
(I01
I01
tp2707
sba(iModules.cell
Cell
p2708
(dp2709
g4
I00
sg255
I01
sg5
(I01
I01
tp2710
sba(iModules.cell
Cell
p2711
(dp2712
g4
I00
sg255
I01
sg5
(I01
I01
tp2713
sba(iModules.cell
Cell
p2714
(dp2715
g4
I00
sg255
I01
sg5
(I01
I01
tp2716
sba(iModules.cell
Cell
p2717
(dp2718
g4
I00
sg255
I01
sg5
(I01
I01
tp2719
sba(iModules.cell
Cell
p2720
(dp2721
g4
I00
sg255
I01
sg5
(I01
I01
tp2722
sba(iModules.cell
Cell
p2723
(dp2724
g4
I00
sg255
I01
sg5
(I01
I01
tp2725
sba(iModules.cell
Cell
p2726
(dp2727
g4
I00
sg255
I01
sg5
(I01
I01
tp2728
sba(iModules.cell
Cell
p2729
(dp2730
g4
I00
sg255
I01
sg5
(I01
I01
tp2731
sba(iModules.cell
Cell
p2732
(dp2733
g4
I00
sg255
I01
sg5
(I01
I01
tp2734
sba(iModules.cell
Cell
p2735
(dp2736
g4
I00
sg255
I01
sg5
(I01
I01
tp2737
sba(iModules.cell
Cell
p2738
(dp2739
g4
I00
sg255
I01
sg5
(I01
I01
tp2740
sba(iModules.cell
Cell
p2741
(dp2742
g4
I00
sg255
I01
sg5
(I01
I01
tp2743
sba(iModules.cell
Cell
p2744
(dp2745
g4
I00
sg255
I01
sg5
(I01
I01
tp2746
sba(iModules.cell
Cell
p2747
(dp2748
g4
I00
sg255
I01
sg5
(I01
I01
tp2749
sba(iModules.cell
Cell
p2750
(dp2751
g4
I00
sg255
I01
sg5
(I01
I01
tp2752
sba(iModules.cell
Cell
p2753
(dp2754
g4
I00
sg255
I01
sg5
(I01
I01
tp2755
sba(iModules.cell
Cell
p2756
(dp2757
g4
I00
sg255
I01
sg5
(I01
I01
tp2758
sba(iModules.cell
Cell
p2759
(dp2760
g4
I00
sg255
I01
sg5
(I01
I01
tp2761
sba(iModules.cell
Cell
p2762
(dp2763
g4
I00
sg255
I01
sg5
(I01
I01
tp2764
sba(iModules.cell
Cell
p2765
(dp2766
g4
I00
sg255
I01
sg5
(I01
I01
tp2767
sba(iModules.cell
Cell
p2768
(dp2769
g4
I00
sg255
I01
sg5
(I01
I01
tp2770
sba(iModules.cell
Cell
p2771
(dp2772
g4
I00
sg255
I01
sg5
(I01
I01
tp2773
sba(iModules.cell
Cell
p2774
(dp2775
g4
I00
sg255
I01
sg5
(I01
I01
tp2776
sba(iModules.cell
Cell
p2777
(dp2778
g4
I00
sg255
I01
sg5
(I01
I01
tp2779
sba(iModules.cell
Cell
p2780
(dp2781
g4
I00
sg255
I01
sg5
(I01
I01
tp2782
sba(iModules.cell
Cell
p2783
(dp2784
g4
I00
sg255
I01
sg5
(I01
I01
tp2785
sba(iModules.cell
Cell
p2786
(dp2787
g4
I00
sg255
I01
sg5
(I01
I01
tp2788
sba(iModules.cell
Cell
p2789
(dp2790
g4
I00
sg255
I01
sg5
(I01
I01
tp2791
sba(iModules.cell
Cell
p2792
(dp2793
g4
I00
sg255
I01
sg5
(I01
I01
tp2794
sba(iModules.cell
Cell
p2795
(dp2796
g4
I00
sg255
I01
sg5
(I01
I01
tp2797
sba(iModules.cell
Cell
p2798
(dp2799
g4
I00
sg255
I01
sg5
(I01
I01
tp2800
sba(iModules.cell
Cell
p2801
(dp2802
g4
I00
sg255
I01
sg5
(I01
I01
tp2803
sba(iModules.cell
Cell
p2804
(dp2805
g4
I00
sg255
I01
sg5
(I01
I01
tp2806
sba(iModules.cell
Cell
p2807
(dp2808
g4
I00
sg255
I01
sg5
(I01
I01
tp2809
sba(iModules.cell
Cell
p2810
(dp2811
g4
I00
sg255
I01
sg5
(I01
I01
tp2812
sba(iModules.cell
Cell
p2813
(dp2814
g4
I00
sg255
I01
sg5
(I01
I01
tp2815
sba(iModules.cell
Cell
p2816
(dp2817
g4
I00
sg255
I01
sg5
(I01
I01
tp2818
sba(iModules.cell
Cell
p2819
(dp2820
g4
I00
sg255
I01
sg5
(I01
I01
tp2821
sba(iModules.cell
Cell
p2822
(dp2823
g4
I00
sg255
I01
sg5
(I01
I01
tp2824
sba(iModules.cell
Cell
p2825
(dp2826
g4
I00
sg255
I01
sg5
(I01
I01
tp2827
sba(iModules.cell
Cell
p2828
(dp2829
g4
I00
sg255
I01
sg5
(I01
I01
tp2830
sba(iModules.cell
Cell
p2831
(dp2832
g4
I00
sg255
I01
sg5
(I01
I01
tp2833
sba(iModules.cell
Cell
p2834
(dp2835
g4
I00
sg255
I01
sg5
(I01
I01
tp2836
sba(iModules.cell
Cell
p2837
(dp2838
g4
I00
sg255
I01
sg5
(I01
I01
tp2839
sba(iModules.cell
Cell
p2840
(dp2841
g4
I00
sg255
I01
sg5
(I01
I01
tp2842
sba(iModules.cell
Cell
p2843
(dp2844
g4
I00
sg255
I01
sg5
(I01
I01
tp2845
sba(iModules.cell
Cell
p2846
(dp2847
g4
I00
sg255
I01
sg5
(I01
I01
tp2848
sba(iModules.cell
Cell
p2849
(dp2850
g4
I00
sg255
I01
sg5
(I01
I01
tp2851
sba(iModules.cell
Cell
p2852
(dp2853
g4
I01
sg255
I01
sg5
(I01
I01
tp2854
sba(iModules.cell
Cell
p2855
(dp2856
g4
I01
sg255
I01
sg5
(I01
I01
tp2857
sba(iModules.cell
Cell
p2858
(dp2859
g4
I01
sg255
I01
sg5
(I01
I01
tp2860
sba(iModules.cell
Cell
p2861
(dp2862
g4
I01
sg255
I01
sg5
(I01
I01
tp2863
sba(iModules.cell
Cell
p2864
(dp2865
g4
I01
sg255
I01
sg5
(I01
I01
tp2866
sba(iModules.cell
Cell
p2867
(dp2868
g4
I01
sg255
I01
sg5
(I01
I01
tp2869
sba(iModules.cell
Cell
p2870
(dp2871
g4
I01
sg255
I01
sg5
(I01
I01
tp2872
sba(iModules.cell
Cell
p2873
(dp2874
g4
I01
sg255
I01
sg5
(I01
I01
tp2875
sba(iModules.cell
Cell
p2876
(dp2877
g4
I01
sg255
I01
sg5
(I01
I01
tp2878
sba(iModules.cell
Cell
p2879
(dp2880
g4
I01
sg255
I01
sg5
(I01
I01
tp2881
sba(iModules.cell
Cell
p2882
(dp2883
g4
I01
sg255
I01
sg5
(I00
I00
tp2884
sba(iModules.cell
Cell
p2885
(dp2886
g4
I00
sg5
(I00
I00
tp2887
sba(iModules.cell
Cell
p2888
(dp2889
g4
I00
sg5
(I00
I00
tp2890
sba(iModules.cell
Cell
p2891
(dp2892
g4
I00
sg5
(I00
I00
tp2893
sba(iModules.cell
Cell
p2894
(dp2895
g4
I00
sg5
(I00
I00
tp2896
sba(iModules.cell
Cell
p2897
(dp2898
g4
I00
sg5
(I00
I00
tp2899
sba(iModules.cell
Cell
p2900
(dp2901
g4
I00
sg5
(I00
I00
tp2902
sba(iModules.cell
Cell
p2903
(dp2904
g4
I00
sg5
(I00
I00
tp2905
sba(iModules.cell
Cell
p2906
(dp2907
g4
I00
sg5
(I00
I00
tp2908
sba(iModules.cell
Cell
p2909
(dp2910
g4
I00
sg5
(I00
I00
tp2911
sba(iModules.cell
Cell
p2912
(dp2913
g4
I00
sg5
(I00
I00
tp2914
sba(iModules.cell
Cell
p2915
(dp2916
g4
I00
sg5
(I00
I00
tp2917
sba(iModules.cell
Cell
p2918
(dp2919
g4
I00
sg5
(I00
I00
tp2920
sba(iModules.cell
Cell
p2921
(dp2922
g4
I00
sg5
(I00
I00
tp2923
sba(iModules.cell
Cell
p2924
(dp2925
g4
I00
sg5
(I00
I00
tp2926
sba(iModules.cell
Cell
p2927
(dp2928
g4
I00
sg5
(I00
I00
tp2929
sba(iModules.cell
Cell
p2930
(dp2931
g4
I00
sg5
(I00
I00
tp2932
sba(iModules.cell
Cell
p2933
(dp2934
g4
I00
sg5
(I00
I00
tp2935
sba(iModules.cell
Cell
p2936
(dp2937
g4
I00
sg5
(I00
I00
tp2938
sba(iModules.cell
Cell
p2939
(dp2940
g5
(I00
I00
tp2941
sbaa(lp2942
(iModules.cell
Cell
p2943
(dp2944
g4
I00
sg5
(I00
I00
tp2945
sba(iModules.cell
Cell
p2946
(dp2947
g4
I00
sg255
I01
sg5
(I00
I00
tp2948
sba(iModules.cell
Cell
p2949
(dp2950
g4
I00
sg255
I01
sg5
(I01
I01
tp2951
sba(iModules.cell
Cell
p2952
(dp2953
g4
I00
sg255
I01
sg5
(I01
I01
tp2954
sba(iModules.cell
Cell
p2955
(dp2956
g4
I00
sg255
I01
sg5
(I01
I01
tp2957
sba(iModules.cell
Cell
p2958
(dp2959
g4
I00
sg255
I01
sg5
(I01
I01
tp2960
sba(iModules.cell
Cell
p2961
(dp2962
g4
I00
sg255
I01
sg5
(I01
I01
tp2963
sba(iModules.cell
Cell
p2964
(dp2965
g4
I00
sg255
I01
sg5
(I01
I01
tp2966
sba(iModules.cell
Cell
p2967
(dp2968
g4
I00
sg255
I01
sg5
(I01
I01
tp2969
sba(iModules.cell
Cell
p2970
(dp2971
g4
I00
sg255
I01
sg5
(I01
I01
tp2972
sba(iModules.cell
Cell
p2973
(dp2974
g4
I00
sg255
I01
sg5
(I01
I01
tp2975
sba(iModules.cell
Cell
p2976
(dp2977
g4
I00
sg255
I01
sg5
(I01
I01
tp2978
sba(iModules.cell
Cell
p2979
(dp2980
g4
I00
sg255
I01
sg5
(I01
I01
tp2981
sba(iModules.cell
Mob
p2982
(dp2983
g2269
S'M'
p2984
sg4
I01
sg2266
(iModules.cell
Mob
p2985
(dp2986
g2269
g2984
sg4
I00
sg2266
g2982
sg2271
S'Mob'
p2987
sg255
I01
sbsg2271
g2987
sg255
I01
sba(iModules.cell
Cell
p2988
(dp2989
g4
I00
sg255
I01
sg5
(I01
I01
tp2990
sba(iModules.cell
Mob
p2991
(dp2992
g2269
g2984
sg4
I01
sg2266
(iModules.cell
Mob
p2993
(dp2994
g2269
g2984
sg4
I00
sg2266
g2991
sg2271
g2987
sg255
I01
sbsg2271
g2987
sg255
I01
sba(iModules.cell
Cell
p2995
(dp2996
g4
I00
sg255
I01
sg5
(I01
I01
tp2997
sba(iModules.cell
Cell
p2998
(dp2999
g4
I00
sg255
I01
sg5
(I01
I01
tp3000
sba(iModules.cell
Cell
p3001
(dp3002
g4
I00
sg255
I01
sg5
(I01
I01
tp3003
sba(iModules.cell
Cell
p3004
(dp3005
g4
I00
sg255
I01
sg5
(I01
I01
tp3006
sba(iModules.cell
Cell
p3007
(dp3008
g4
I00
sg255
I01
sg5
(I01
I01
tp3009
sba(iModules.cell
Cell
p3010
(dp3011
g4
I00
sg255
I01
sg5
(I01
I01
tp3012
sba(iModules.cell
Cell
p3013
(dp3014
g4
I00
sg255
I01
sg5
(I01
I01
tp3015
sba(iModules.cell
Cell
p3016
(dp3017
g4
I00
sg255
I01
sg5
(I01
I01
tp3018
sba(iModules.cell
Cell
p3019
(dp3020
g4
I00
sg255
I01
sg5
(I01
I01
tp3021
sba(iModules.cell
Cell
p3022
(dp3023
g4
I00
sg255
I01
sg5
(I01
I01
tp3024
sba(iModules.cell
Cell
p3025
(dp3026
g4
I00
sg255
I01
sg5
(I01
I01
tp3027
sba(iModules.cell
Cell
p3028
(dp3029
g4
I00
sg255
I01
sg5
(I01
I01
tp3030
sba(iModules.cell
Cell
p3031
(dp3032
g4
I00
sg255
I01
sg5
(I01
I01
tp3033
sba(iModules.cell
Cell
p3034
(dp3035
g4
I00
sg255
I01
sg5
(I01
I01
tp3036
sba(iModules.cell
Cell
p3037
(dp3038
g4
I00
sg255
I01
sg5
(I01
I01
tp3039
sba(iModules.cell
Cell
p3040
(dp3041
g4
I00
sg255
I01
sg5
(I01
I01
tp3042
sba(iModules.cell
Cell
p3043
(dp3044
g4
I00
sg255
I01
sg5
(I01
I01
tp3045
sba(iModules.cell
Cell
p3046
(dp3047
g4
I00
sg255
I01
sg5
(I01
I01
tp3048
sba(iModules.cell
Cell
p3049
(dp3050
g4
I00
sg255
I01
sg5
(I01
I01
tp3051
sba(iModules.cell
Cell
p3052
(dp3053
g4
I00
sg255
I01
sg5
(I01
I01
tp3054
sba(iModules.cell
Cell
p3055
(dp3056
g4
I00
sg255
I01
sg5
(I01
I01
tp3057
sba(iModules.cell
Cell
p3058
(dp3059
g4
I00
sg255
I01
sg5
(I01
I01
tp3060
sba(iModules.cell
Cell
p3061
(dp3062
g4
I00
sg255
I01
sg5
(I01
I01
tp3063
sba(iModules.cell
Cell
p3064
(dp3065
g4
I00
sg255
I01
sg5
(I01
I01
tp3066
sba(iModules.cell
Cell
p3067
(dp3068
g4
I00
sg255
I01
sg5
(I01
I01
tp3069
sba(iModules.cell
Cell
p3070
(dp3071
g4
I00
sg255
I01
sg5
(I01
I01
tp3072
sba(iModules.cell
Cell
p3073
(dp3074
g4
I00
sg255
I01
sg5
(I01
I01
tp3075
sba(iModules.cell
Cell
p3076
(dp3077
g4
I00
sg255
I01
sg5
(I01
I01
tp3078
sba(iModules.cell
Cell
p3079
(dp3080
g4
I00
sg255
I01
sg5
(I01
I01
tp3081
sba(iModules.cell
Cell
p3082
(dp3083
g4
I00
sg255
I01
sg5
(I01
I01
tp3084
sba(iModules.cell
Cell
p3085
(dp3086
g4
I00
sg255
I01
sg5
(I01
I01
tp3087
sba(iModules.cell
Cell
p3088
(dp3089
g4
I00
sg255
I01
sg5
(I01
I01
tp3090
sba(iModules.cell
Cell
p3091
(dp3092
g4
I00
sg255
I01
sg5
(I01
I01
tp3093
sba(iModules.cell
Cell
p3094
(dp3095
g4
I00
sg255
I01
sg5
(I01
I01
tp3096
sba(iModules.cell
Cell
p3097
(dp3098
g4
I00
sg255
I01
sg5
(I01
I01
tp3099
sba(iModules.cell
Cell
p3100
(dp3101
g4
I01
sg255
I01
sg5
(I01
I01
tp3102
sba(iModules.cell
Cell
p3103
(dp3104
g4
I01
sg255
I01
sg5
(I01
I01
tp3105
sba(iModules.cell
Cell
p3106
(dp3107
g4
I01
sg255
I01
sg5
(I01
I01
tp3108
sba(iModules.cell
Cell
p3109
(dp3110
g4
I01
sg255
I01
sg5
(I01
I01
tp3111
sba(iModules.cell
Cell
p3112
(dp3113
g4
I01
sg255
I01
sg5
(I01
I01
tp3114
sba(iModules.cell
Cell
p3115
(dp3116
g4
I01
sg255
I01
sg5
(I01
I01
tp3117
sba(iModules.cell
Cell
p3118
(dp3119
g4
I01
sg255
I01
sg5
(I01
I01
tp3120
sba(iModules.cell
Cell
p3121
(dp3122
g4
I01
sg255
I01
sg5
(I01
I01
tp3123
sba(iModules.cell
Cell
p3124
(dp3125
g4
I01
sg255
I01
sg5
(I01
I01
tp3126
sba(iModules.cell
Cell
p3127
(dp3128
g4
I01
sg255
I01
sg5
(I01
I01
tp3129
sba(iModules.cell
Cell
p3130
(dp3131
g4
I01
sg255
I01
sg5
(I00
I00
tp3132
sba(iModules.cell
Cell
p3133
(dp3134
g4
I00
sg5
(I00
I00
tp3135
sba(iModules.cell
Cell
p3136
(dp3137
g4
I00
sg5
(I00
I00
tp3138
sba(iModules.cell
Cell
p3139
(dp3140
g4
I00
sg5
(I00
I00
tp3141
sba(iModules.cell
Cell
p3142
(dp3143
g4
I00
sg5
(I00
I00
tp3144
sba(iModules.cell
Cell
p3145
(dp3146
g4
I00
sg5
(I00
I00
tp3147
sba(iModules.cell
Cell
p3148
(dp3149
g4
I00
sg5
(I00
I00
tp3150
sba(iModules.cell
Cell
p3151
(dp3152
g4
I00
sg5
(I00
I00
tp3153
sba(iModules.cell
Cell
p3154
(dp3155
g4
I00
sg5
(I00
I00
tp3156
sba(iModules.cell
Cell
p3157
(dp3158
g4
I00
sg5
(I00
I00
tp3159
sba(iModules.cell
Cell
p3160
(dp3161
g4
I00
sg5
(I00
I00
tp3162
sba(iModules.cell
Cell
p3163
(dp3164
g4
I00
sg5
(I00
I00
tp3165
sba(iModules.cell
Cell
p3166
(dp3167
g4
I00
sg5
(I00
I00
tp3168
sba(iModules.cell
Cell
p3169
(dp3170
g4
I00
sg5
(I00
I00
tp3171
sba(iModules.cell
Cell
p3172
(dp3173
g4
I00
sg5
(I00
I00
tp3174
sba(iModules.cell
Cell
p3175
(dp3176
g4
I00
sg5
(I00
I00
tp3177
sba(iModules.cell
Cell
p3178
(dp3179
g4
I00
sg5
(I00
I00
tp3180
sba(iModules.cell
Cell
p3181
(dp3182
g4
I00
sg5
(I00
I00
tp3183
sba(iModules.cell
Cell
p3184
(dp3185
g4
I00
sg5
(I00
I00
tp3186
sba(iModules.cell
Cell
p3187
(dp3188
g5
(I00
I00
tp3189
sbaa(lp3190
(iModules.cell
Cell
p3191
(dp3192
g4
I00
sg5
(I00
I00
tp3193
sba(iModules.cell
Cell
p3194
(dp3195
g4
I00
sg255
I01
sg5
(I00
I00
tp3196
sba(iModules.cell
Cell
p3197
(dp3198
g4
I00
sg255
I01
sg5
(I01
I01
tp3199
sba(iModules.cell
Cell
p3200
(dp3201
g4
I00
sg255
I01
sg5
(I01
I01
tp3202
sba(iModules.cell
Cell
p3203
(dp3204
g4
I00
sg255
I01
sg5
(I01
I01
tp3205
sba(iModules.cell
Cell
p3206
(dp3207
g4
I00
sg255
I01
sg5
(I01
I01
tp3208
sba(iModules.cell
Cell
p3209
(dp3210
g4
I00
sg255
I01
sg5
(I01
I01
tp3211
sba(iModules.cell
Cell
p3212
(dp3213
g4
I00
sg255
I01
sg5
(I01
I01
tp3214
sba(iModules.cell
Cell
p3215
(dp3216
g4
I00
sg255
I01
sg5
(I01
I01
tp3217
sba(iModules.cell
Cell
p3218
(dp3219
g4
I00
sg255
I01
sg5
(I01
I01
tp3220
sba(iModules.cell
Cell
p3221
(dp3222
g4
I00
sg255
I01
sg5
(I01
I01
tp3223
sba(iModules.cell
Cell
p3224
(dp3225
g4
I00
sg255
I01
sg5
(I01
I01
tp3226
sba(iModules.cell
Cell
p3227
(dp3228
g4
I00
sg255
I01
sg5
(I01
I01
tp3229
sba(iModules.cell
Cell
p3230
(dp3231
g4
I00
sg255
I01
sg5
(I01
I01
tp3232
sba(iModules.cell
Cell
p3233
(dp3234
g4
I00
sg255
I01
sg5
(I01
I01
tp3235
sg2266
(iModules.cell
Mob
p3236
(dp3237
g2269
g2984
sg4
I01
sg2266
g3233
sg2271
g2987
sg255
I01
sbsba(iModules.cell
Cell
p3238
(dp3239
g4
I00
sg255
I01
sg5
(I01
I01
tp3240
sba(iModules.cell
Cell
p3241
(dp3242
g4
I00
sg255
I01
sg5
(I01
I01
tp3243
sg2266
(iModules.cell
Mob
p3244
(dp3245
g2269
g2984
sg4
I01
sg2266
g3241
sg2271
g2987
sg255
I01
sbsba(iModules.cell
Cell
p3246
(dp3247
g4
I00
sg255
I01
sg5
(I01
I01
tp3248
sba(iModules.cell
Mob
p3249
(dp3250
g2269
g2984
sg4
I01
sg2266
(iModules.cell
Mob
p3251
(dp3252
g2269
g2984
sg4
I00
sg2266
g3249
sg2271
g2987
sg255
I01
sbsg2271
g2987
sg255
I01
sba(iModules.cell
Cell
p3253
(dp3254
g4
I00
sg255
I01
sg5
(I01
I01
tp3255
sba(iModules.cell
Cell
p3256
(dp3257
g4
I00
sg255
I01
sg5
(I01
I01
tp3258
sba(iModules.cell
Cell
p3259
(dp3260
g4
I00
sg255
I01
sg5
(I01
I01
tp3261
sba(iModules.cell
Cell
p3262
(dp3263
g4
I00
sg255
I01
sg5
(I01
I01
tp3264
sba(iModules.cell
Cell
p3265
(dp3266
g4
I00
sg255
I01
sg5
(I01
I01
tp3267
sba(iModules.cell
Cell
p3268
(dp3269
g4
I00
sg255
I01
sg5
(I01
I01
tp3270
sba(iModules.cell
Cell
p3271
(dp3272
g4
I00
sg255
I01
sg5
(I01
I01
tp3273
sba(iModules.cell
Cell
p3274
(dp3275
g4
I00
sg255
I01
sg5
(I01
I01
tp3276
sba(iModules.cell
Cell
p3277
(dp3278
g4
I00
sg255
I01
sg5
(I01
I01
tp3279
sba(iModules.cell
Cell
p3280
(dp3281
g4
I00
sg255
I01
sg5
(I01
I01
tp3282
sba(iModules.cell
Cell
p3283
(dp3284
g4
I00
sg255
I01
sg5
(I01
I01
tp3285
sba(iModules.cell
Cell
p3286
(dp3287
g4
I00
sg255
I01
sg5
(I01
I01
tp3288
sba(iModules.cell
Cell
p3289
(dp3290
g4
I00
sg255
I01
sg5
(I01
I01
tp3291
sba(iModules.cell
Cell
p3292
(dp3293
g4
I00
sg255
I01
sg5
(I01
I01
tp3294
sba(iModules.cell
Cell
p3295
(dp3296
g4
I00
sg255
I01
sg5
(I01
I01
tp3297
sba(iModules.cell
Cell
p3298
(dp3299
g4
I00
sg255
I01
sg5
(I01
I01
tp3300
sba(iModules.cell
Cell
p3301
(dp3302
g4
I00
sg255
I01
sg5
(I01
I01
tp3303
sba(iModules.cell
Cell
p3304
(dp3305
g4
I00
sg255
I01
sg5
(I01
I01
tp3306
sba(iModules.cell
Cell
p3307
(dp3308
g4
I00
sg255
I01
sg5
(I01
I01
tp3309
sba(iModules.cell
Cell
p3310
(dp3311
g4
I00
sg255
I01
sg5
(I01
I01
tp3312
sba(iModules.cell
Cell
p3313
(dp3314
g4
I00
sg255
I01
sg5
(I01
I01
tp3315
sba(iModules.cell
Cell
p3316
(dp3317
g4
I00
sg255
I01
sg5
(I01
I01
tp3318
sba(iModules.cell
Cell
p3319
(dp3320
g4
I00
sg255
I01
sg5
(I01
I01
tp3321
sba(iModules.cell
Cell
p3322
(dp3323
g4
I00
sg255
I01
sg5
(I01
I01
tp3324
sba(iModules.cell
Cell
p3325
(dp3326
g4
I00
sg255
I01
sg5
(I01
I01
tp3327
sba(iModules.cell
Cell
p3328
(dp3329
g4
I00
sg255
I01
sg5
(I01
I01
tp3330
sba(iModules.cell
Cell
p3331
(dp3332
g4
I00
sg255
I01
sg5
(I01
I01
tp3333
sba(iModules.cell
Cell
p3334
(dp3335
g4
I00
sg255
I01
sg5
(I01
I01
tp3336
sba(iModules.cell
Cell
p3337
(dp3338
g4
I00
sg255
I01
sg5
(I01
I01
tp3339
sba(iModules.cell
Cell
p3340
(dp3341
g4
I00
sg255
I01
sg5
(I01
I01
tp3342
sba(iModules.cell
Cell
p3343
(dp3344
g4
I00
sg255
I01
sg5
(I01
I01
tp3345
sba(iModules.cell
Cell
p3346
(dp3347
g4
I00
sg255
I01
sg5
(I01
I01
tp3348
sba(iModules.cell
Cell
p3349
(dp3350
g4
I01
sg255
I01
sg5
(I01
I01
tp3351
sba(iModules.cell
Cell
p3352
(dp3353
g4
I01
sg255
I01
sg5
(I01
I01
tp3354
sba(iModules.cell
Cell
p3355
(dp3356
g4
I01
sg255
I01
sg5
(I01
I01
tp3357
sba(iModules.cell
Cell
p3358
(dp3359
g4
I01
sg255
I01
sg5
(I01
I01
tp3360
sba(iModules.cell
Cell
p3361
(dp3362
g4
I01
sg255
I01
sg5
(I01
I01
tp3363
sba(iModules.cell
Cell
p3364
(dp3365
g4
I01
sg255
I01
sg5
(I01
I01
tp3366
sba(iModules.cell
Cell
p3367
(dp3368
g4
I01
sg255
I01
sg5
(I01
I01
tp3369
sba(iModules.cell
Cell
p3370
(dp3371
g4
I01
sg255
I01
sg5
(I01
I01
tp3372
sba(iModules.cell
Cell
p3373
(dp3374
g4
I01
sg255
I01
sg5
(I01
I01
tp3375
sba(iModules.cell
Cell
p3376
(dp3377
g4
I01
sg255
I01
sg5
(I01
I01
tp3378
sba(iModules.cell
Cell
p3379
(dp3380
g4
I01
sg255
I01
sg5
(I00
I00
tp3381
sba(iModules.cell
Cell
p3382
(dp3383
g4
I00
sg5
(I00
I00
tp3384
sba(iModules.cell
Cell
p3385
(dp3386
g4
I00
sg5
(I00
I00
tp3387
sba(iModules.cell
Cell
p3388
(dp3389
g4
I00
sg5
(I00
I00
tp3390
sba(iModules.cell
Cell
p3391
(dp3392
g4
I00
sg5
(I00
I00
tp3393
sba(iModules.cell
Cell
p3394
(dp3395
g4
I00
sg5
(I00
I00
tp3396
sba(iModules.cell
Cell
p3397
(dp3398
g4
I00
sg5
(I00
I00
tp3399
sba(iModules.cell
Cell
p3400
(dp3401
g4
I00
sg5
(I00
I00
tp3402
sba(iModules.cell
Cell
p3403
(dp3404
g4
I00
sg5
(I00
I00
tp3405
sba(iModules.cell
Cell
p3406
(dp3407
g4
I00
sg5
(I00
I00
tp3408
sba(iModules.cell
Cell
p3409
(dp3410
g4
I00
sg5
(I00
I00
tp3411
sba(iModules.cell
Cell
p3412
(dp3413
g4
I00
sg5
(I00
I00
tp3414
sba(iModules.cell
Cell
p3415
(dp3416
g4
I00
sg5
(I00
I00
tp3417
sba(iModules.cell
Cell
p3418
(dp3419
g4
I00
sg5
(I00
I00
tp3420
sba(iModules.cell
Cell
p3421
(dp3422
g4
I00
sg5
(I00
I00
tp3423
sba(iModules.cell
Cell
p3424
(dp3425
g4
I00
sg5
(I00
I00
tp3426
sba(iModules.cell
Cell
p3427
(dp3428
g4
I00
sg5
(I00
I00
tp3429
sba(iModules.cell
Cell
p3430
(dp3431
g4
I00
sg5
(I00
I00
tp3432
sba(iModules.cell
Cell
p3433
(dp3434
g4
I00
sg5
(I00
I00
tp3435
sba(iModules.cell
Cell
p3436
(dp3437
g5
(I00
I00
tp3438
sbaa(lp3439
(iModules.cell
Cell
p3440
(dp3441
g4
I00
sg5
(I00
I00
tp3442
sba(iModules.cell
Cell
p3443
(dp3444
g4
I00
sg255
I01
sg5
(I00
I00
tp3445
sba(iModules.cell
Cell
p3446
(dp3447
g4
I00
sg255
I01
sg5
(I01
I01
tp3448
sba(iModules.cell
Cell
p3449
(dp3450
g4
I00
sg255
I01
sg5
(I01
I01
tp3451
sba(iModules.cell
Cell
p3452
(dp3453
g4
I00
sg255
I01
sg5
(I01
I01
tp3454
sba(iModules.cell
Cell
p3455
(dp3456
g4
I00
sg255
I01
sg5
(I01
I01
tp3457
sba(iModules.cell
Cell
p3458
(dp3459
g4
I00
sg255
I01
sg5
(I01
I01
tp3460
sba(iModules.cell
Cell
p3461
(dp3462
g4
I00
sg255
I01
sg5
(I01
I01
tp3463
sba(iModules.cell
Cell
p3464
(dp3465
g4
I00
sg255
I01
sg5
(I01
I01
tp3466
sba(iModules.cell
Cell
p3467
(dp3468
g4
I00
sg255
I01
sg5
(I01
I01
tp3469
sba(iModules.cell
Cell
p3470
(dp3471
g4
I00
sg255
I01
sg5
(I01
I01
tp3472
sba(iModules.cell
Cell
p3473
(dp3474
g4
I00
sg255
I01
sg5
(I01
I01
tp3475
sba(iModules.cell
Cell
p3476
(dp3477
g4
I00
sg255
I01
sg5
(I01
I01
tp3478
sba(iModules.cell
Cell
p3479
(dp3480
g4
I00
sg255
I01
sg5
(I01
I01
tp3481
sba(iModules.cell
Cell
p3482
(dp3483
g4
I00
sg255
I01
sg5
(I01
I01
tp3484
sba(iModules.cell
Cell
p3485
(dp3486
g4
I00
sg255
I01
sg5
(I01
I01
tp3487
sba(iModules.cell
Cell
p3488
(dp3489
g4
I00
sg255
I01
sg5
(I01
I01
tp3490
sba(iModules.cell
Cell
p3491
(dp3492
g4
I00
sg255
I01
sg5
(I01
I01
tp3493
sba(iModules.cell
Cell
p3494
(dp3495
g4
I00
sg255
I01
sg5
(I01
I01
tp3496
sba(iModules.cell
Cell
p3497
(dp3498
g4
I00
sg255
I01
sg5
(I01
I01
tp3499
sba(iModules.cell
Cell
p3500
(dp3501
g4
I00
sg255
I01
sg5
(I01
I01
tp3502
sba(iModules.cell
Cell
p3503
(dp3504
g4
I00
sg255
I01
sg5
(I01
I01
tp3505
sba(iModules.cell
Cell
p3506
(dp3507
g4
I00
sg255
I01
sg5
(I01
I01
tp3508
sba(iModules.cell
Cell
p3509
(dp3510
g4
I00
sg255
I01
sg5
(I01
I01
tp3511
sba(iModules.cell
Cell
p3512
(dp3513
g4
I00
sg255
I01
sg5
(I01
I01
tp3514
sba(iModules.cell
Cell
p3515
(dp3516
g4
I00
sg255
I01
sg5
(I01
I01
tp3517
sba(iModules.cell
Cell
p3518
(dp3519
g4
I00
sg255
I01
sg5
(I01
I01
tp3520
sba(iModules.cell
Cell
p3521
(dp3522
g4
I00
sg255
I01
sg5
(I01
I01
tp3523
sba(iModules.cell
Cell
p3524
(dp3525
g4
I00
sg255
I01
sg5
(I01
I01
tp3526
sba(iModules.cell
Cell
p3527
(dp3528
g4
I00
sg255
I01
sg5
(I01
I01
tp3529
sba(iModules.cell
Cell
p3530
(dp3531
g4
I00
sg255
I01
sg5
(I01
I01
tp3532
sba(iModules.cell
Cell
p3533
(dp3534
g4
I00
sg255
I01
sg5
(I01
I01
tp3535
sba(iModules.cell
Cell
p3536
(dp3537
g4
I00
sg255
I01
sg5
(I01
I01
tp3538
sba(iModules.cell
Cell
p3539
(dp3540
g4
I00
sg255
I01
sg5
(I01
I01
tp3541
sba(iModules.cell
Cell
p3542
(dp3543
g4
I00
sg255
I01
sg5
(I01
I01
tp3544
sba(iModules.cell
Cell
p3545
(dp3546
g4
I00
sg255
I01
sg5
(I01
I01
tp3547
sba(iModules.cell
Cell
p3548
(dp3549
g4
I00
sg255
I01
sg5
(I01
I01
tp3550
sba(iModules.cell
Cell
p3551
(dp3552
g4
I00
sg255
I01
sg5
(I01
I01
tp3553
sba(iModules.cell
Cell
p3554
(dp3555
g4
I00
sg255
I01
sg5
(I01
I01
tp3556
sba(iModules.cell
Cell
p3557
(dp3558
g4
I00
sg255
I01
sg5
(I01
I01
tp3559
sba(iModules.cell
Cell
p3560
(dp3561
g4
I00
sg255
I01
sg5
(I01
I01
tp3562
sba(iModules.cell
Cell
p3563
(dp3564
g4
I00
sg255
I01
sg5
(I01
I01
tp3565
sba(iModules.cell
Cell
p3566
(dp3567
g4
I00
sg255
I01
sg5
(I01
I01
tp3568
sba(iModules.cell
Cell
p3569
(dp3570
g4
I00
sg255
I01
sg5
(I01
I01
tp3571
sba(iModules.cell
Cell
p3572
(dp3573
g4
I00
sg255
I01
sg5
(I01
I01
tp3574
sba(iModules.cell
Cell
p3575
(dp3576
g4
I00
sg255
I01
sg5
(I01
I01
tp3577
sba(iModules.cell
Cell
p3578
(dp3579
g4
I00
sg255
I01
sg5
(I01
I01
tp3580
sba(iModules.cell
Cell
p3581
(dp3582
g4
I00
sg255
I01
sg5
(I01
I01
tp3583
sba(iModules.cell
Cell
p3584
(dp3585
g4
I00
sg255
I01
sg5
(I01
I01
tp3586
sba(iModules.cell
Cell
p3587
(dp3588
g4
I00
sg255
I01
sg5
(I01
I01
tp3589
sba(iModules.cell
Cell
p3590
(dp3591
g4
I00
sg255
I01
sg5
(I01
I01
tp3592
sba(iModules.cell
Cell
p3593
(dp3594
g4
I01
sg255
I01
sg5
(I01
I01
tp3595
sba(iModules.cell
Cell
p3596
(dp3597
g4
I01
sg255
I01
sg5
(I01
I01
tp3598
sba(iModules.cell
Cell
p3599
(dp3600
g4
I01
sg255
I01
sg5
(I01
I01
tp3601
sba(iModules.cell
Cell
p3602
(dp3603
g4
I01
sg255
I01
sg5
(I01
I01
tp3604
sba(iModules.cell
Cell
p3605
(dp3606
g4
I01
sg255
I01
sg5
(I01
I01
tp3607
sba(iModules.cell
Cell
p3608
(dp3609
g4
I01
sg255
I01
sg5
(I01
I01
tp3610
sba(iModules.cell
Cell
p3611
(dp3612
g4
I01
sg255
I01
sg5
(I01
I01
tp3613
sba(iModules.cell
Cell
p3614
(dp3615
g4
I01
sg255
I01
sg5
(I01
I01
tp3616
sba(iModules.cell
Cell
p3617
(dp3618
g4
I01
sg255
I01
sg5
(I01
I01
tp3619
sba(iModules.cell
Cell
p3620
(dp3621
g4
I01
sg255
I01
sg5
(I01
I01
tp3622
sba(iModules.cell
Cell
p3623
(dp3624
g4
I01
sg255
I01
sg5
(I00
I00
tp3625
sba(iModules.cell
Cell
p3626
(dp3627
g4
I00
sg5
(I00
I00
tp3628
sba(iModules.cell
Cell
p3629
(dp3630
g4
I00
sg5
(I00
I00
tp3631
sba(iModules.cell
Cell
p3632
(dp3633
g4
I00
sg5
(I00
I00
tp3634
sba(iModules.cell
Cell
p3635
(dp3636
g4
I00
sg5
(I00
I00
tp3637
sba(iModules.cell
Cell
p3638
(dp3639
g4
I00
sg5
(I00
I00
tp3640
sba(iModules.cell
Cell
p3641
(dp3642
g4
I00
sg5
(I00
I00
tp3643
sba(iModules.cell
Cell
p3644
(dp3645
g4
I00
sg5
(I00
I00
tp3646
sba(iModules.cell
Cell
p3647
(dp3648
g4
I00
sg5
(I00
I00
tp3649
sba(iModules.cell
Cell
p3650
(dp3651
g4
I00
sg5
(I00
I00
tp3652
sba(iModules.cell
Cell
p3653
(dp3654
g4
I00
sg5
(I00
I00
tp3655
sba(iModules.cell
Cell
p3656
(dp3657
g4
I00
sg5
(I00
I00
tp3658
sba(iModules.cell
Cell
p3659
(dp3660
g4
I00
sg5
(I00
I00
tp3661
sba(iModules.cell
Cell
p3662
(dp3663
g4
I00
sg5
(I00
I00
tp3664
sba(iModules.cell
Cell
p3665
(dp3666
g4
I00
sg5
(I00
I00
tp3667
sba(iModules.cell
Cell
p3668
(dp3669
g4
I00
sg5
(I00
I00
tp3670
sba(iModules.cell
Cell
p3671
(dp3672
g4
I00
sg5
(I00
I00
tp3673
sba(iModules.cell
Cell
p3674
(dp3675
g4
I00
sg5
(I00
I00
tp3676
sba(iModules.cell
Cell
p3677
(dp3678
g4
I00
sg5
(I00
I00
tp3679
sba(iModules.cell
Cell
p3680
(dp3681
g5
(I00
I00
tp3682
sbaa(lp3683
(iModules.cell
Cell
p3684
(dp3685
g4
I00
sg5
(I00
I00
tp3686
sba(iModules.cell
Cell
p3687
(dp3688
g4
I00
sg255
I01
sg5
(I00
I00
tp3689
sba(iModules.cell
Cell
p3690
(dp3691
g4
I00
sg255
I01
sg5
(I01
I01
tp3692
sba(iModules.cell
Cell
p3693
(dp3694
g4
I00
sg255
I01
sg5
(I01
I01
tp3695
sba(iModules.cell
Cell
p3696
(dp3697
g4
I00
sg255
I01
sg5
(I01
I01
tp3698
sba(iModules.cell
Cell
p3699
(dp3700
g4
I00
sg255
I01
sg5
(I01
I01
tp3701
sba(iModules.cell
Cell
p3702
(dp3703
g4
I00
sg255
I01
sg5
(I01
I01
tp3704
sba(iModules.cell
Cell
p3705
(dp3706
g4
I00
sg255
I01
sg5
(I01
I01
tp3707
sba(iModules.cell
Cell
p3708
(dp3709
g4
I00
sg255
I01
sg5
(I01
I01
tp3710
sba(iModules.cell
Cell
p3711
(dp3712
g4
I00
sg255
I01
sg5
(I01
I01
tp3713
sba(iModules.cell
Cell
p3714
(dp3715
g4
I00
sg255
I01
sg5
(I01
I01
tp3716
sba(iModules.cell
Cell
p3717
(dp3718
g4
I00
sg255
I01
sg5
(I01
I01
tp3719
sba(iModules.cell
Cell
p3720
(dp3721
g4
I00
sg255
I01
sg5
(I01
I01
tp3722
sba(iModules.cell
Cell
p3723
(dp3724
g4
I00
sg255
I01
sg5
(I01
I01
tp3725
sba(iModules.cell
Cell
p3726
(dp3727
g4
I00
sg255
I01
sg5
(I01
I01
tp3728
sba(iModules.cell
Cell
p3729
(dp3730
g4
I00
sg255
I01
sg5
(I01
I01
tp3731
sba(iModules.cell
Cell
p3732
(dp3733
g4
I00
sg255
I01
sg5
(I01
I01
tp3734
sba(iModules.cell
Cell
p3735
(dp3736
g4
I00
sg255
I01
sg5
(I01
I01
tp3737
sba(iModules.cell
Cell
p3738
(dp3739
g4
I00
sg255
I01
sg5
(I01
I01
tp3740
sba(iModules.cell
Cell
p3741
(dp3742
g4
I00
sg255
I01
sg5
(I01
I01
tp3743
sba(iModules.cell
Cell
p3744
(dp3745
g4
I00
sg255
I01
sg5
(I01
I01
tp3746
sba(iModules.cell
Cell
p3747
(dp3748
g4
I00
sg255
I01
sg5
(I01
I01
tp3749
sba(iModules.cell
Cell
p3750
(dp3751
g4
I00
sg255
I01
sg5
(I01
I01
tp3752
sba(iModules.cell
Cell
p3753
(dp3754
g4
I00
sg255
I01
sg5
(I01
I01
tp3755
sba(iModules.cell
Cell
p3756
(dp3757
g4
I00
sg255
I01
sg5
(I01
I01
tp3758
sba(iModules.cell
Cell
p3759
(dp3760
g4
I00
sg255
I01
sg5
(I01
I01
tp3761
sba(iModules.cell
Cell
p3762
(dp3763
g4
I00
sg255
I01
sg5
(I01
I01
tp3764
sba(iModules.cell
Cell
p3765
(dp3766
g4
I00
sg255
I01
sg5
(I01
I01
tp3767
sba(iModules.cell
Cell
p3768
(dp3769
g4
I00
sg255
I01
sg5
(I01
I01
tp3770
sba(iModules.cell
Cell
p3771
(dp3772
g4
I00
sg255
I01
sg5
(I01
I01
tp3773
sba(iModules.cell
Cell
p3774
(dp3775
g4
I00
sg255
I01
sg5
(I01
I01
tp3776
sba(iModules.cell
Cell
p3777
(dp3778
g4
I00
sg255
I01
sg5
(I01
I01
tp3779
sba(iModules.cell
Cell
p3780
(dp3781
g4
I00
sg255
I01
sg5
(I01
I01
tp3782
sba(iModules.cell
Cell
p3783
(dp3784
g4
I00
sg255
I01
sg5
(I01
I01
tp3785
sba(iModules.cell
Cell
p3786
(dp3787
g4
I00
sg255
I01
sg5
(I01
I01
tp3788
sba(iModules.cell
Cell
p3789
(dp3790
g4
I00
sg255
I01
sg5
(I01
I01
tp3791
sba(iModules.cell
Cell
p3792
(dp3793
g4
I00
sg255
I01
sg5
(I01
I01
tp3794
sba(iModules.cell
Cell
p3795
(dp3796
g4
I00
sg255
I01
sg5
(I01
I01
tp3797
sba(iModules.cell
Cell
p3798
(dp3799
g4
I00
sg255
I01
sg5
(I01
I01
tp3800
sba(iModules.cell
Cell
p3801
(dp3802
g4
I00
sg255
I01
sg5
(I01
I01
tp3803
sba(iModules.cell
Cell
p3804
(dp3805
g4
I00
sg255
I01
sg5
(I01
I01
tp3806
sba(iModules.cell
Cell
p3807
(dp3808
g4
I00
sg255
I01
sg5
(I01
I01
tp3809
sba(iModules.cell
Cell
p3810
(dp3811
g4
I00
sg255
I01
sg5
(I01
I01
tp3812
sba(iModules.cell
Cell
p3813
(dp3814
g4
I00
sg255
I01
sg5
(I01
I01
tp3815
sba(iModules.cell
Cell
p3816
(dp3817
g4
I00
sg255
I01
sg5
(I01
I01
tp3818
sba(iModules.cell
Cell
p3819
(dp3820
g4
I00
sg255
I01
sg5
(I01
I01
tp3821
sba(iModules.cell
Cell
p3822
(dp3823
g4
I00
sg255
I01
sg5
(I01
I01
tp3824
sba(iModules.cell
Cell
p3825
(dp3826
g4
I00
sg255
I01
sg5
(I01
I01
tp3827
sba(iModules.cell
Cell
p3828
(dp3829
g4
I00
sg255
I01
sg5
(I01
I01
tp3830
sba(iModules.cell
Cell
p3831
(dp3832
g4
I00
sg255
I01
sg5
(I01
I01
tp3833
sba(iModules.cell
Cell
p3834
(dp3835
g4
I00
sg255
I01
sg5
(I00
I00
I00
tp3836
sba(iModules.cell
Cell
p3837
(dp3838
g4
I01
sg255
I01
sg5
(I01
I01
tp3839
sba(iModules.cell
Cell
p3840
(dp3841
g4
I01
sg255
I01
sg5
(I01
I01
tp3842
sba(iModules.cell
Cell
p3843
(dp3844
g4
I01
sg255
I01
sg5
(I01
I01
tp3845
sba(iModules.cell
Cell
p3846
(dp3847
g4
I01
sg255
I01
sg5
(I01
I01
tp3848
sba(iModules.cell
Cell
p3849
(dp3850
g4
I01
sg255
I01
sg5
(I01
I01
tp3851
sba(iModules.cell
Cell
p3852
(dp3853
g4
I01
sg255
I01
sg5
(I01
I01
tp3854
sba(iModules.cell
Cell
p3855
(dp3856
g4
I01
sg255
I01
sg5
(I01
I01
tp3857
sba(iModules.cell
Cell
p3858
(dp3859
g4
I01
sg255
I01
sg5
(I01
I01
tp3860
sba(iModules.cell
Cell
p3861
(dp3862
g4
I01
sg255
I01
sg5
(I01
I01
tp3863
sba(iModules.cell
Cell
p3864
(dp3865
g4
I01
sg255
I01
sg5
(I01
I01
tp3866
sba(iModules.cell
Cell
p3867
(dp3868
g4
I01
sg255
I01
sg5
(I00
I00
tp3869
sba(iModules.cell
Cell
p3870
(dp3871
g4
I00
sg5
(I00
I00
tp3872
sba(iModules.cell
Cell
p3873
(dp3874
g4
I00
sg5
(I00
I00
tp3875
sba(iModules.cell
Cell
p3876
(dp3877
g4
I00
sg5
(I00
I00
tp3878
sba(iModules.cell
Cell
p3879
(dp3880
g4
I00
sg5
(I00
I00
tp3881
sba(iModules.cell
Cell
p3882
(dp3883
g4
I00
sg5
(I00
I00
tp3884
sba(iModules.cell
Cell
p3885
(dp3886
g4
I00
sg5
(I00
I00
tp3887
sba(iModules.cell
Cell
p3888
(dp3889
g4
I00
sg5
(I00
I00
tp3890
sba(iModules.cell
Cell
p3891
(dp3892
g4
I00
sg5
(I00
I00
tp3893
sba(iModules.cell
Cell
p3894
(dp3895
g4
I00
sg5
(I00
I00
tp3896
sba(iModules.cell
Cell
p3897
(dp3898
g4
I00
sg5
(I00
I00
tp3899
sba(iModules.cell
Cell
p3900
(dp3901
g4
I00
sg5
(I00
I00
tp3902
sba(iModules.cell
Cell
p3903
(dp3904
g4
I00
sg5
(I00
I00
tp3905
sba(iModules.cell
Cell
p3906
(dp3907
g4
I00
sg5
(I00
I00
tp3908
sba(iModules.cell
Cell
p3909
(dp3910
g4
I00
sg5
(I00
I00
tp3911
sba(iModules.cell
Cell
p3912
(dp3913
g4
I00
sg5
(I00
I00
tp3914
sba(iModules.cell
Cell
p3915
(dp3916
g4
I00
sg5
(I00
I00
tp3917
sba(iModules.cell
Cell
p3918
(dp3919
g4
I00
sg5
(I00
I00
tp3920
sba(iModules.cell
Cell
p3921
(dp3922
g4
I00
sg5
(I00
I00
tp3923
sba(iModules.cell
Cell
p3924
(dp3925
g5
(I00
I00
tp3926
sbaa(lp3927
(iModules.cell
Cell
p3928
(dp3929
g4
I00
sg5
(I00
I00
tp3930
sba(iModules.cell
Cell
p3931
(dp3932
g4
I00
sg255
I01
sg5
(I00
I00
tp3933
sba(iModules.cell
Cell
p3934
(dp3935
g4
I00
sg255
I01
sg5
(I01
I01
tp3936
sba(iModules.cell
Cell
p3937
(dp3938
g4
I00
sg255
I01
sg5
(I01
I01
tp3939
sba(iModules.cell
Cell
p3940
(dp3941
g4
I00
sg255
I01
sg5
(I01
I01
tp3942
sba(iModules.cell
Cell
p3943
(dp3944
g4
I00
sg255
I01
sg5
(I01
I01
tp3945
sba(iModules.cell
Cell
p3946
(dp3947
g4
I00
sg255
I01
sg5
(I01
I01
tp3948
sba(iModules.cell
Cell
p3949
(dp3950
g4
I00
sg255
I01
sg5
(I01
I01
tp3951
sba(iModules.cell
Cell
p3952
(dp3953
g4
I00
sg255
I01
sg5
(I01
I01
tp3954
sba(iModules.cell
Cell
p3955
(dp3956
g4
I00
sg255
I01
sg5
(I01
I01
tp3957
sba(iModules.cell
Cell
p3958
(dp3959
g4
I00
sg255
I01
sg5
(I01
I01
tp3960
sba(iModules.cell
Cell
p3961
(dp3962
g4
I00
sg255
I01
sg5
(I01
I01
tp3963
sba(iModules.cell
Cell
p3964
(dp3965
g4
I00
sg255
I01
sg5
(I01
I01
tp3966
sba(iModules.cell
Cell
p3967
(dp3968
g4
I00
sg255
I01
sg5
(I01
I01
tp3969
sba(iModules.cell
Cell
p3970
(dp3971
g4
I00
sg255
I01
sg5
(I01
I01
tp3972
sba(iModules.cell
Cell
p3973
(dp3974
g4
I00
sg255
I01
sg5
(I01
I01
tp3975
sba(iModules.cell
Cell
p3976
(dp3977
g4
I00
sg255
I01
sg5
(I01
I01
tp3978
sba(iModules.cell
Cell
p3979
(dp3980
g4
I00
sg255
I01
sg5
(I01
I01
tp3981
sba(iModules.cell
Cell
p3982
(dp3983
g4
I00
sg255
I01
sg5
(I01
I01
tp3984
sba(iModules.cell
Cell
p3985
(dp3986
g4
I00
sg255
I01
sg5
(I01
I01
tp3987
sba(iModules.cell
Cell
p3988
(dp3989
g4
I00
sg255
I01
sg5
(I01
I01
tp3990
sba(iModules.cell
Cell
p3991
(dp3992
g4
I00
sg255
I01
sg5
(I01
I01
tp3993
sba(iModules.cell
Cell
p3994
(dp3995
g4
I00
sg255
I01
sg5
(I01
I01
tp3996
sba(iModules.cell
Cell
p3997
(dp3998
g4
I00
sg255
I01
sg5
(I01
I01
tp3999
sba(iModules.cell
Cell
p4000
(dp4001
g4
I00
sg255
I01
sg5
(I01
I01
tp4002
sba(iModules.cell
Cell
p4003
(dp4004
g4
I00
sg255
I01
sg5
(I01
I01
tp4005
sba(iModules.cell
Cell
p4006
(dp4007
g4
I00
sg255
I01
sg5
(I01
I01
tp4008
sba(iModules.cell
Cell
p4009
(dp4010
g4
I00
sg255
I01
sg5
(I01
I01
tp4011
sba(iModules.cell
Cell
p4012
(dp4013
g4
I00
sg255
I01
sg5
(I01
I01
tp4014
sba(iModules.cell
Cell
p4015
(dp4016
g4
I00
sg255
I01
sg5
(I01
I01
tp4017
sba(iModules.cell
Cell
p4018
(dp4019
g4
I00
sg255
I01
sg5
(I01
I01
tp4020
sba(iModules.cell
Cell
p4021
(dp4022
g4
I00
sg255
I01
sg5
(I01
I01
tp4023
sba(iModules.cell
Cell
p4024
(dp4025
g4
I00
sg255
I01
sg5
(I01
I01
tp4026
sba(iModules.cell
Cell
p4027
(dp4028
g4
I00
sg255
I01
sg5
(I01
I01
tp4029
sba(iModules.cell
Cell
p4030
(dp4031
g4
I00
sg255
I01
sg5
(I01
I01
tp4032
sba(iModules.cell
Cell
p4033
(dp4034
g4
I00
sg255
I01
sg5
(I01
I01
tp4035
sba(iModules.cell
Cell
p4036
(dp4037
g4
I00
sg255
I01
sg5
(I01
I01
tp4038
sba(iModules.cell
Cell
p4039
(dp4040
g4
I00
sg255
I01
sg5
(I01
I01
tp4041
sba(iModules.cell
Cell
p4042
(dp4043
g4
I00
sg255
I01
sg5
(I01
I01
tp4044
sba(iModules.cell
Cell
p4045
(dp4046
g4
I00
sg255
I01
sg5
(I01
I01
tp4047
sba(iModules.cell
Cell
p4048
(dp4049
g4
I00
sg255
I01
sg5
(I01
I01
tp4050
sba(iModules.cell
Cell
p4051
(dp4052
g4
I00
sg255
I01
sg5
(I01
I01
tp4053
sba(iModules.cell
Cell
p4054
(dp4055
g4
I00
sg255
I01
sg5
(I01
I01
tp4056
sba(iModules.cell
Cell
p4057
(dp4058
g4
I00
sg255
I01
sg5
(I01
I01
tp4059
sba(iModules.cell
Cell
p4060
(dp4061
g4
I00
sg255
I01
sg5
(I01
I01
tp4062
sba(iModules.cell
Cell
p4063
(dp4064
g4
I00
sg255
I01
sg5
(I01
I01
tp4065
sba(iModules.cell
Cell
p4066
(dp4067
g4
I00
sg255
I01
sg5
(I01
I01
tp4068
sba(iModules.cell
Cell
p4069
(dp4070
g4
I00
sg255
I01
sg5
(I01
I01
tp4071
sba(iModules.cell
Cell
p4072
(dp4073
g4
I00
sg255
I01
sg5
(I01
I01
tp4074
sba(iModules.cell
Cell
p4075
(dp4076
g4
I00
sg255
I01
sg5
(I01
I01
tp4077
sba(iModules.cell
Cell
p4078
(dp4079
g4
I00
sg255
I01
sg5
(I01
I01
tp4080
sba(iModules.cell
Cell
p4081
(dp4082
g4
I01
sg255
I01
sg5
(I01
I01
tp4083
sba(iModules.cell
Cell
p4084
(dp4085
g4
I01
sg255
I01
sg5
(I01
I01
tp4086
sba(iModules.cell
Cell
p4087
(dp4088
g4
I01
sg255
I01
sg5
(I01
I01
tp4089
sba(iModules.cell
Cell
p4090
(dp4091
g4
I01
sg255
I01
sg5
(I01
I01
tp4092
sba(iModules.cell
Cell
p4093
(dp4094
g4
I01
sg255
I01
sg5
(I01
I01
tp4095
sba(iModules.cell
Cell
p4096
(dp4097
g4
I01
sg255
I01
sg5
(I01
I01
tp4098
sba(iModules.cell
Cell
p4099
(dp4100
g4
I01
sg255
I01
sg5
(I01
I01
tp4101
sba(iModules.cell
Cell
p4102
(dp4103
g4
I01
sg255
I01
sg5
(I01
I01
tp4104
sba(iModules.cell
Cell
p4105
(dp4106
g4
I01
sg255
I01
sg5
(I01
I01
tp4107
sba(iModules.cell
Cell
p4108
(dp4109
g4
I01
sg255
I01
sg5
(I01
I01
tp4110
sba(iModules.cell
Cell
p4111
(dp4112
g4
I01
sg255
I01
sg5
(I00
I00
tp4113
sba(iModules.cell
Cell
p4114
(dp4115
g4
I00
sg5
(I00
I00
tp4116
sba(iModules.cell
Cell
p4117
(dp4118
g4
I00
sg5
(I00
I00
tp4119
sba(iModules.cell
Cell
p4120
(dp4121
g4
I00
sg5
(I00
I00
tp4122
sba(iModules.cell
Cell
p4123
(dp4124
g4
I00
sg5
(I00
I00
tp4125
sba(iModules.cell
Cell
p4126
(dp4127
g4
I00
sg5
(I00
I00
tp4128
sba(iModules.cell
Cell
p4129
(dp4130
g4
I00
sg5
(I00
I00
tp4131
sba(iModules.cell
Cell
p4132
(dp4133
g4
I00
sg5
(I00
I00
tp4134
sba(iModules.cell
Cell
p4135
(dp4136
g4
I00
sg5
(I00
I00
tp4137
sba(iModules.cell
Cell
p4138
(dp4139
g4
I00
sg5
(I00
I00
tp4140
sba(iModules.cell
Cell
p4141
(dp4142
g4
I00
sg5
(I00
I00
tp4143
sba(iModules.cell
Cell
p4144
(dp4145
g4
I00
sg5
(I00
I00
tp4146
sba(iModules.cell
Cell
p4147
(dp4148
g4
I00
sg5
(I00
I00
tp4149
sba(iModules.cell
Cell
p4150
(dp4151
g4
I00
sg5
(I00
I00
tp4152
sba(iModules.cell
Cell
p4153
(dp4154
g4
I00
sg5
(I00
I00
tp4155
sba(iModules.cell
Cell
p4156
(dp4157
g4
I00
sg5
(I00
I00
tp4158
sba(iModules.cell
Cell
p4159
(dp4160
g4
I00
sg5
(I00
I00
tp4161
sba(iModules.cell
Cell
p4162
(dp4163
g4
I00
sg5
(I00
I00
tp4164
sba(iModules.cell
Cell
p4165
(dp4166
g4
I00
sg5
(I00
I00
tp4167
sba(iModules.cell
Cell
p4168
(dp4169
g5
(I00
I00
tp4170
sbaa(lp4171
(iModules.cell
Cell
p4172
(dp4173
g4
I00
sg5
(I00
I00
tp4174
sba(iModules.cell
Cell
p4175
(dp4176
g4
I00
sg255
I01
sg5
(I00
I00
tp4177
sba(iModules.cell
Cell
p4178
(dp4179
g4
I00
sg255
I01
sg5
(I01
I01
tp4180
sba(iModules.cell
Cell
p4181
(dp4182
g4
I00
sg255
I01
sg5
(I01
I01
tp4183
sba(iModules.cell
Cell
p4184
(dp4185
g4
I00
sg255
I01
sg5
(I01
I01
tp4186
sba(iModules.cell
Cell
p4187
(dp4188
g4
I00
sg255
I01
sg5
(I01
I01
tp4189
sba(iModules.cell
Cell
p4190
(dp4191
g4
I00
sg255
I01
sg5
(I01
I01
tp4192
sba(iModules.cell
Cell
p4193
(dp4194
g4
I00
sg255
I01
sg5
(I01
I01
tp4195
sba(iModules.cell
Cell
p4196
(dp4197
g4
I00
sg255
I01
sg5
(I01
I01
tp4198
sba(iModules.cell
Cell
p4199
(dp4200
g4
I00
sg255
I01
sg5
(I01
I01
tp4201
sba(iModules.cell
Cell
p4202
(dp4203
g4
I00
sg255
I01
sg5
(I01
I01
tp4204
sba(iModules.cell
Cell
p4205
(dp4206
g4
I00
sg255
I01
sg5
(I01
I01
tp4207
sba(iModules.cell
Cell
p4208
(dp4209
g4
I00
sg255
I01
sg5
(I01
I01
tp4210
sba(iModules.cell
Cell
p4211
(dp4212
g4
I00
sg255
I01
sg5
(I01
I01
tp4213
sba(iModules.cell
Cell
p4214
(dp4215
g4
I00
sg255
I01
sg5
(I01
I01
tp4216
sba(iModules.cell
Cell
p4217
(dp4218
g4
I00
sg255
I01
sg5
(I01
I01
tp4219
sba(iModules.cell
Cell
p4220
(dp4221
g4
I00
sg255
I01
sg5
(I01
I01
tp4222
sba(iModules.cell
Cell
p4223
(dp4224
g4
I00
sg255
I01
sg5
(I01
I01
tp4225
sba(iModules.cell
Cell
p4226
(dp4227
g4
I00
sg255
I01
sg5
(I01
I01
tp4228
sba(iModules.cell
Cell
p4229
(dp4230
g4
I00
sg255
I01
sg5
(I01
I01
tp4231
sba(iModules.cell
Cell
p4232
(dp4233
g4
I00
sg255
I01
sg5
(I01
I01
tp4234
sba(iModules.cell
Cell
p4235
(dp4236
g4
I00
sg255
I01
sg5
(I01
I01
tp4237
sba(iModules.cell
Cell
p4238
(dp4239
g4
I00
sg255
I01
sg5
(I01
I01
tp4240
sba(iModules.cell
Cell
p4241
(dp4242
g4
I00
sg255
I01
sg5
(I01
I01
tp4243
sba(iModules.cell
Cell
p4244
(dp4245
g4
I00
sg255
I01
sg5
(I01
I01
tp4246
sba(iModules.cell
Cell
p4247
(dp4248
g4
I00
sg255
I01
sg5
(I01
I01
tp4249
sba(iModules.cell
Cell
p4250
(dp4251
g4
I00
sg255
I01
sg5
(I01
I01
tp4252
sba(iModules.cell
Cell
p4253
(dp4254
g4
I00
sg255
I01
sg5
(I01
I01
tp4255
sba(iModules.cell
Cell
p4256
(dp4257
g4
I00
sg255
I01
sg5
(I01
I01
tp4258
sba(iModules.cell
Cell
p4259
(dp4260
g4
I00
sg255
I01
sg5
(I01
I01
tp4261
sba(iModules.cell
Cell
p4262
(dp4263
g4
I00
sg255
I01
sg5
(I01
I01
tp4264
sba(iModules.cell
Cell
p4265
(dp4266
g4
I00
sg255
I01
sg5
(I01
I01
tp4267
sba(iModules.cell
Cell
p4268
(dp4269
g4
I00
sg255
I01
sg5
(I01
I01
tp4270
sba(iModules.cell
Cell
p4271
(dp4272
g4
I00
sg255
I01
sg5
(I01
I01
tp4273
sba(iModules.cell
Cell
p4274
(dp4275
g4
I00
sg255
I01
sg5
(I01
I01
tp4276
sba(iModules.cell
Cell
p4277
(dp4278
g4
I00
sg255
I01
sg5
(I01
I01
tp4279
sba(iModules.cell
Cell
p4280
(dp4281
g4
I00
sg255
I01
sg5
(I01
I01
tp4282
sba(iModules.cell
Cell
p4283
(dp4284
g4
I00
sg255
I01
sg5
(I01
I01
tp4285
sba(iModules.cell
Cell
p4286
(dp4287
g4
I00
sg255
I01
sg5
(I01
I01
tp4288
sba(iModules.cell
Cell
p4289
(dp4290
g4
I00
sg255
I01
sg5
(I01
I01
tp4291
sba(iModules.cell
Cell
p4292
(dp4293
g4
I00
sg255
I01
sg5
(I01
I01
tp4294
sba(iModules.cell
Cell
p4295
(dp4296
g4
I00
sg255
I01
sg5
(I01
I01
tp4297
sba(iModules.cell
Cell
p4298
(dp4299
g4
I00
sg255
I01
sg5
(I01
I01
tp4300
sba(iModules.cell
Cell
p4301
(dp4302
g4
I00
sg255
I01
sg5
(I01
I01
tp4303
sba(iModules.cell
Cell
p4304
(dp4305
g4
I00
sg255
I01
sg5
(I01
I01
tp4306
sba(iModules.cell
Cell
p4307
(dp4308
g4
I00
sg255
I01
sg5
(I01
I01
tp4309
sba(iModules.cell
Cell
p4310
(dp4311
g4
I00
sg255
I01
sg5
(I01
I01
tp4312
sba(iModules.cell
Cell
p4313
(dp4314
g4
I00
sg255
I01
sg5
(I01
I01
tp4315
sba(iModules.cell
Cell
p4316
(dp4317
g4
I00
sg255
I01
sg5
(I01
I01
tp4318
sba(iModules.cell
Cell
p4319
(dp4320
g4
I00
sg255
I01
sg5
(I01
I01
tp4321
sba(iModules.cell
Cell
p4322
(dp4323
g4
I00
sg255
I01
sg5
(I01
I01
tp4324
sba(iModules.cell
Cell
p4325
(dp4326
g4
I01
sg255
I01
sg5
(I01
I01
tp4327
sba(iModules.cell
Cell
p4328
(dp4329
g4
I01
sg255
I01
sg5
(I01
I01
tp4330
sba(iModules.cell
Cell
p4331
(dp4332
g4
I01
sg255
I01
sg5
(I01
I01
tp4333
sba(iModules.cell
Cell
p4334
(dp4335
g4
I01
sg255
I01
sg5
(I01
I01
tp4336
sba(iModules.cell
Cell
p4337
(dp4338
g4
I01
sg255
I01
sg5
(I01
I01
tp4339
sba(iModules.cell
Cell
p4340
(dp4341
g4
I01
sg255
I01
sg5
(I01
I01
tp4342
sba(iModules.cell
Cell
p4343
(dp4344
g4
I01
sg255
I01
sg5
(I01
I01
tp4345
sba(iModules.cell
Cell
p4346
(dp4347
g4
I01
sg255
I01
sg5
(I01
I01
tp4348
sba(iModules.cell
Cell
p4349
(dp4350
g4
I01
sg255
I01
sg5
(I01
I01
tp4351
sba(iModules.cell
Cell
p4352
(dp4353
g4
I01
sg255
I01
sg5
(I01
I01
tp4354
sba(iModules.cell
Cell
p4355
(dp4356
g4
I01
sg255
I01
sg5
(I00
I00
tp4357
sba(iModules.cell
Cell
p4358
(dp4359
g4
I00
sg5
(I00
I00
tp4360
sba(iModules.cell
Cell
p4361
(dp4362
g4
I00
sg5
(I00
I00
tp4363
sba(iModules.cell
Cell
p4364
(dp4365
g4
I00
sg5
(I00
I00
tp4366
sba(iModules.cell
Cell
p4367
(dp4368
g4
I00
sg5
(I00
I00
tp4369
sba(iModules.cell
Cell
p4370
(dp4371
g4
I00
sg5
(I00
I00
tp4372
sba(iModules.cell
Cell
p4373
(dp4374
g4
I00
sg5
(I00
I00
tp4375
sba(iModules.cell
Cell
p4376
(dp4377
g4
I00
sg5
(I00
I00
tp4378
sba(iModules.cell
Cell
p4379
(dp4380
g4
I00
sg5
(I00
I00
tp4381
sba(iModules.cell
Cell
p4382
(dp4383
g4
I00
sg5
(I00
I00
tp4384
sba(iModules.cell
Cell
p4385
(dp4386
g4
I00
sg5
(I00
I00
tp4387
sba(iModules.cell
Cell
p4388
(dp4389
g4
I00
sg5
(I00
I00
tp4390
sba(iModules.cell
Cell
p4391
(dp4392
g4
I00
sg5
(I00
I00
tp4393
sba(iModules.cell
Cell
p4394
(dp4395
g4
I00
sg5
(I00
I00
tp4396
sba(iModules.cell
Cell
p4397
(dp4398
g4
I00
sg5
(I00
I00
tp4399
sba(iModules.cell
Cell
p4400
(dp4401
g4
I00
sg5
(I00
I00
tp4402
sba(iModules.cell
Cell
p4403
(dp4404
g4
I00
sg5
(I00
I00
tp4405
sba(iModules.cell
Cell
p4406
(dp4407
g4
I00
sg5
(I00
I00
tp4408
sba(iModules.cell
Cell
p4409
(dp4410
g4
I00
sg5
(I00
I00
tp4411
sba(iModules.cell
Cell
p4412
(dp4413
g5
(I00
I00
tp4414
sbaa(lp4415
(iModules.cell
Cell
p4416
(dp4417
g4
I00
sg5
(I00
I00
tp4418
sba(iModules.cell
Cell
p4419
(dp4420
g4
I00
sg255
I01
sg5
(I00
I00
tp4421
sba(iModules.cell
Cell
p4422
(dp4423
g4
I00
sg255
I01
sg5
(I01
I01
tp4424
sba(iModules.cell
Cell
p4425
(dp4426
g4
I00
sg255
I01
sg5
(I01
I01
tp4427
sba(iModules.cell
Cell
p4428
(dp4429
g4
I00
sg255
I01
sg5
(I01
I01
tp4430
sba(iModules.cell
Cell
p4431
(dp4432
g4
I00
sg255
I01
sg5
(I01
I01
tp4433
sba(iModules.cell
Cell
p4434
(dp4435
g4
I00
sg255
I01
sg5
(I01
I01
tp4436
sba(iModules.cell
Cell
p4437
(dp4438
g4
I00
sg255
I01
sg5
(I01
I01
tp4439
sba(iModules.cell
Cell
p4440
(dp4441
g4
I00
sg255
I01
sg5
(I01
I01
tp4442
sba(iModules.cell
Cell
p4443
(dp4444
g4
I00
sg255
I01
sg5
(I01
I01
tp4445
sba(iModules.cell
Cell
p4446
(dp4447
g4
I00
sg255
I01
sg5
(I01
I01
tp4448
sba(iModules.cell
Cell
p4449
(dp4450
g4
I00
sg255
I01
sg5
(I01
I01
tp4451
sba(iModules.cell
Cell
p4452
(dp4453
g4
I00
sg255
I01
sg5
(I01
I01
tp4454
sba(iModules.cell
Cell
p4455
(dp4456
g4
I00
sg255
I01
sg5
(I01
I01
tp4457
sba(iModules.cell
Cell
p4458
(dp4459
g4
I00
sg255
I01
sg5
(I01
I01
tp4460
sba(iModules.cell
Cell
p4461
(dp4462
g4
I00
sg255
I01
sg5
(I01
I01
tp4463
sba(iModules.cell
Cell
p4464
(dp4465
g4
I00
sg255
I01
sg5
(I01
I01
tp4466
sba(iModules.cell
Cell
p4467
(dp4468
g4
I00
sg255
I01
sg5
(I01
I01
tp4469
sba(iModules.cell
Cell
p4470
(dp4471
g4
I00
sg255
I01
sg5
(I01
I01
tp4472
sba(iModules.cell
Cell
p4473
(dp4474
g4
I00
sg255
I01
sg5
(I01
I01
tp4475
sba(iModules.cell
Cell
p4476
(dp4477
g4
I00
sg255
I01
sg5
(I01
I01
tp4478
sba(iModules.cell
Cell
p4479
(dp4480
g4
I00
sg255
I01
sg5
(I01
I01
tp4481
sba(iModules.cell
Cell
p4482
(dp4483
g4
I00
sg255
I01
sg5
(I01
I01
tp4484
sba(iModules.cell
Cell
p4485
(dp4486
g4
I00
sg255
I01
sg5
(I01
I01
tp4487
sba(iModules.cell
Cell
p4488
(dp4489
g4
I00
sg255
I01
sg5
(I01
I01
tp4490
sba(iModules.cell
Cell
p4491
(dp4492
g4
I00
sg255
I01
sg5
(I01
I01
tp4493
sba(iModules.cell
Cell
p4494
(dp4495
g4
I00
sg255
I01
sg5
(I01
I01
tp4496
sba(iModules.cell
Cell
p4497
(dp4498
g4
I00
sg255
I01
sg5
(I01
I01
tp4499
sba(iModules.cell
Cell
p4500
(dp4501
g4
I00
sg255
I01
sg5
(I01
I01
tp4502
sba(iModules.cell
Cell
p4503
(dp4504
g4
I00
sg255
I01
sg5
(I01
I01
tp4505
sba(iModules.cell
Cell
p4506
(dp4507
g4
I00
sg255
I01
sg5
(I01
I01
tp4508
sba(iModules.cell
Cell
p4509
(dp4510
g4
I00
sg255
I01
sg5
(I01
I01
tp4511
sba(iModules.cell
Cell
p4512
(dp4513
g4
I00
sg255
I01
sg5
(I01
I01
tp4514
sba(iModules.cell
Cell
p4515
(dp4516
g4
I00
sg255
I01
sg5
(I01
I01
tp4517
sba(iModules.cell
Cell
p4518
(dp4519
g4
I00
sg255
I01
sg5
(I01
I01
tp4520
sba(iModules.cell
Cell
p4521
(dp4522
g4
I00
sg255
I01
sg5
(I01
I01
tp4523
sba(iModules.cell
Cell
p4524
(dp4525
g4
I00
sg255
I01
sg5
(I01
I01
tp4526
sba(iModules.cell
Cell
p4527
(dp4528
g4
I00
sg255
I01
sg5
(I01
I01
tp4529
sba(iModules.cell
Cell
p4530
(dp4531
g4
I00
sg255
I01
sg5
(I01
I01
tp4532
sba(iModules.cell
Cell
p4533
(dp4534
g4
I00
sg255
I01
sg5
(I01
I01
tp4535
sba(iModules.cell
Cell
p4536
(dp4537
g4
I00
sg255
I01
sg5
(I01
I01
tp4538
sba(iModules.cell
Cell
p4539
(dp4540
g4
I00
sg255
I01
sg5
(I01
I01
tp4541
sba(iModules.cell
Cell
p4542
(dp4543
g4
I00
sg255
I01
sg5
(I01
I01
tp4544
sba(iModules.cell
Cell
p4545
(dp4546
g4
I00
sg255
I01
sg5
(I01
I01
tp4547
sba(iModules.cell
Cell
p4548
(dp4549
g4
I00
sg255
I01
sg5
(I01
I01
tp4550
sba(iModules.cell
Cell
p4551
(dp4552
g4
I00
sg255
I01
sg5
(I01
I01
tp4553
sba(iModules.cell
Cell
p4554
(dp4555
g4
I00
sg255
I01
sg5
(I01
I01
tp4556
sba(iModules.cell
Cell
p4557
(dp4558
g4
I00
sg255
I01
sg5
(I01
I01
tp4559
sba(iModules.cell
Cell
p4560
(dp4561
g4
I00
sg255
I01
sg5
(I01
I01
tp4562
sba(iModules.cell
Cell
p4563
(dp4564
g4
I00
sg255
I01
sg5
(I01
I01
tp4565
sba(iModules.cell
Cell
p4566
(dp4567
g4
I00
sg255
I01
sg5
(I01
I01
tp4568
sba(iModules.cell
Cell
p4569
(dp4570
g4
I01
sg255
I01
sg5
(I01
I01
tp4571
sba(iModules.cell
Cell
p4572
(dp4573
g4
I01
sg255
I01
sg5
(I01
I01
tp4574
sba(iModules.cell
Cell
p4575
(dp4576
g4
I01
sg255
I01
sg5
(I01
I01
tp4577
sba(iModules.cell
Cell
p4578
(dp4579
g4
I01
sg255
I01
sg5
(I01
I01
tp4580
sba(iModules.cell
Cell
p4581
(dp4582
g4
I01
sg255
I01
sg5
(I01
I01
tp4583
sba(iModules.cell
Cell
p4584
(dp4585
g4
I01
sg255
I01
sg5
(I01
I01
tp4586
sba(iModules.cell
Cell
p4587
(dp4588
g4
I01
sg255
I01
sg5
(I01
I01
tp4589
sba(iModules.cell
Cell
p4590
(dp4591
g4
I01
sg255
I01
sg5
(I01
I01
tp4592
sba(iModules.cell
Cell
p4593
(dp4594
g4
I01
sg255
I01
sg5
(I01
I01
tp4595
sba(iModules.cell
Cell
p4596
(dp4597
g4
I01
sg255
I01
sg5
(I01
I01
tp4598
sba(iModules.cell
Cell
p4599
(dp4600
g4
I01
sg255
I01
sg5
(I00
I00
tp4601
sba(iModules.cell
Cell
p4602
(dp4603
g4
I00
sg5
(I00
I00
tp4604
sba(iModules.cell
Cell
p4605
(dp4606
g4
I00
sg5
(I00
I00
tp4607
sba(iModules.cell
Cell
p4608
(dp4609
g4
I00
sg5
(I00
I00
tp4610
sba(iModules.cell
Cell
p4611
(dp4612
g4
I00
sg5
(I00
I00
tp4613
sba(iModules.cell
Cell
p4614
(dp4615
g4
I00
sg5
(I00
I00
tp4616
sba(iModules.cell
Cell
p4617
(dp4618
g4
I00
sg5
(I00
I00
tp4619
sba(iModules.cell
Cell
p4620
(dp4621
g4
I00
sg5
(I00
I00
tp4622
sba(iModules.cell
Cell
p4623
(dp4624
g4
I00
sg5
(I00
I00
tp4625
sba(iModules.cell
Cell
p4626
(dp4627
g4
I00
sg5
(I00
I00
tp4628
sba(iModules.cell
Cell
p4629
(dp4630
g4
I00
sg5
(I00
I00
tp4631
sba(iModules.cell
Cell
p4632
(dp4633
g4
I00
sg5
(I00
I00
tp4634
sba(iModules.cell
Cell
p4635
(dp4636
g4
I00
sg5
(I00
I00
tp4637
sba(iModules.cell
Cell
p4638
(dp4639
g4
I00
sg5
(I00
I00
tp4640
sba(iModules.cell
Cell
p4641
(dp4642
g4
I00
sg5
(I00
I00
tp4643
sba(iModules.cell
Cell
p4644
(dp4645
g4
I00
sg5
(I00
I00
tp4646
sba(iModules.cell
Cell
p4647
(dp4648
g4
I00
sg5
(I00
I00
tp4649
sba(iModules.cell
Cell
p4650
(dp4651
g4
I00
sg5
(I00
I00
tp4652
sba(iModules.cell
Cell
p4653
(dp4654
g4
I00
sg5
(I00
I00
tp4655
sba(iModules.cell
Cell
p4656
(dp4657
g5
(I00
I00
tp4658
sbaa(lp4659
(iModules.cell
Cell
p4660
(dp4661
g4
I00
sg5
(I00
I00
tp4662
sba(iModules.cell
Cell
p4663
(dp4664
g4
I00
sg255
I01
sg5
(I00
I00
tp4665
sba(iModules.cell
Cell
p4666
(dp4667
g4
I00
sg255
I01
sg5
(I01
I01
tp4668
sba(iModules.cell
Cell
p4669
(dp4670
g4
I00
sg255
I01
sg5
(I01
I01
tp4671
sba(iModules.cell
Cell
p4672
(dp4673
g4
I00
sg255
I01
sg5
(I01
I01
tp4674
sba(iModules.cell
Cell
p4675
(dp4676
g4
I00
sg255
I01
sg5
(I01
I01
tp4677
sba(iModules.cell
Cell
p4678
(dp4679
g4
I00
sg255
I01
sg5
(I01
I01
tp4680
sba(iModules.cell
Cell
p4681
(dp4682
g4
I00
sg255
I01
sg5
(I01
I01
tp4683
sba(iModules.cell
Cell
p4684
(dp4685
g4
I00
sg255
I01
sg5
(I01
I01
tp4686
sba(iModules.cell
Cell
p4687
(dp4688
g4
I00
sg255
I01
sg5
(I01
I01
tp4689
sba(iModules.cell
Cell
p4690
(dp4691
g4
I00
sg255
I01
sg5
(I01
I01
tp4692
sba(iModules.cell
Cell
p4693
(dp4694
g4
I00
sg255
I01
sg5
(I01
I01
tp4695
sba(iModules.cell
Cell
p4696
(dp4697
g4
I00
sg255
I01
sg5
(I01
I01
tp4698
sba(iModules.cell
Cell
p4699
(dp4700
g4
I00
sg255
I01
sg5
(I01
I01
tp4701
sba(iModules.cell
Cell
p4702
(dp4703
g4
I00
sg255
I01
sg5
(I01
I01
tp4704
sba(iModules.cell
Cell
p4705
(dp4706
g4
I00
sg255
I01
sg5
(I01
I01
tp4707
sba(iModules.cell
Cell
p4708
(dp4709
g4
I00
sg255
I01
sg5
(I01
I01
tp4710
sba(iModules.cell
Cell
p4711
(dp4712
g4
I00
sg255
I01
sg5
(I01
I01
tp4713
sba(iModules.cell
Cell
p4714
(dp4715
g4
I00
sg255
I01
sg5
(I01
I01
tp4716
sba(iModules.cell
Cell
p4717
(dp4718
g4
I00
sg255
I01
sg5
(I01
I01
tp4719
sba(iModules.cell
Cell
p4720
(dp4721
g4
I00
sg255
I01
sg5
(I01
I01
tp4722
sba(iModules.cell
Cell
p4723
(dp4724
g4
I00
sg255
I01
sg5
(I01
I01
tp4725
sba(iModules.cell
Cell
p4726
(dp4727
g4
I00
sg255
I01
sg5
(I01
I01
tp4728
sba(iModules.cell
Cell
p4729
(dp4730
g4
I00
sg255
I01
sg5
(I01
I01
tp4731
sba(iModules.cell
Cell
p4732
(dp4733
g4
I00
sg255
I01
sg5
(I01
I01
tp4734
sba(iModules.cell
Cell
p4735
(dp4736
g4
I00
sg255
I01
sg5
(I01
I01
tp4737
sba(iModules.cell
Cell
p4738
(dp4739
g4
I00
sg255
I01
sg5
(I01
I01
tp4740
sba(iModules.cell
Cell
p4741
(dp4742
g4
I00
sg255
I01
sg5
(I01
I01
tp4743
sba(iModules.cell
Cell
p4744
(dp4745
g4
I00
sg255
I01
sg5
(I01
I01
tp4746
sba(iModules.cell
Cell
p4747
(dp4748
g4
I00
sg255
I01
sg5
(I01
I01
tp4749
sba(iModules.cell
Cell
p4750
(dp4751
g4
I00
sg255
I01
sg5
(I01
I01
tp4752
sba(iModules.cell
Cell
p4753
(dp4754
g4
I00
sg255
I01
sg5
(I01
I01
tp4755
sba(iModules.cell
Cell
p4756
(dp4757
g4
I00
sg255
I01
sg5
(I01
I01
tp4758
sba(iModules.cell
Cell
p4759
(dp4760
g4
I00
sg255
I01
sg5
(I01
I01
tp4761
sba(iModules.cell
Cell
p4762
(dp4763
g4
I00
sg255
I01
sg5
(I01
I01
tp4764
sba(iModules.cell
Cell
p4765
(dp4766
g4
I00
sg255
I01
sg5
(I01
I01
tp4767
sba(iModules.cell
Cell
p4768
(dp4769
g4
I00
sg255
I01
sg5
(I01
I01
tp4770
sba(iModules.cell
Cell
p4771
(dp4772
g4
I00
sg255
I01
sg5
(I01
I01
tp4773
sba(iModules.cell
Cell
p4774
(dp4775
g4
I00
sg255
I01
sg5
(I01
I01
tp4776
sba(iModules.cell
Cell
p4777
(dp4778
g4
I00
sg255
I01
sg5
(I01
I01
tp4779
sba(iModules.cell
Cell
p4780
(dp4781
g4
I00
sg255
I01
sg5
(I01
I01
tp4782
sba(iModules.cell
Cell
p4783
(dp4784
g4
I00
sg255
I01
sg5
(I01
I01
tp4785
sba(iModules.cell
Cell
p4786
(dp4787
g4
I00
sg255
I01
sg5
(I01
I01
tp4788
sba(iModules.cell
Cell
p4789
(dp4790
g4
I00
sg255
I01
sg5
(I01
I01
tp4791
sba(iModules.cell
Cell
p4792
(dp4793
g4
I00
sg255
I01
sg5
(I01
I01
tp4794
sba(iModules.cell
Cell
p4795
(dp4796
g4
I00
sg255
I01
sg5
(I01
I01
tp4797
sba(iModules.cell
Cell
p4798
(dp4799
g4
I00
sg255
I01
sg5
(I01
I01
tp4800
sba(iModules.cell
Cell
p4801
(dp4802
g4
I00
sg255
I01
sg5
(I01
I01
tp4803
sba(iModules.cell
Cell
p4804
(dp4805
g4
I00
sg255
I01
sg5
(I01
I01
tp4806
sba(iModules.cell
Cell
p4807
(dp4808
g4
I00
sg255
I01
sg5
(I01
I01
tp4809
sba(iModules.cell
Cell
p4810
(dp4811
g4
I00
sg255
I01
sg5
(I01
I01
tp4812
sba(iModules.cell
Cell
p4813
(dp4814
g4
I01
sg255
I01
sg5
(I01
I01
tp4815
sba(iModules.cell
Cell
p4816
(dp4817
g4
I01
sg255
I01
sg5
(I01
I01
tp4818
sba(iModules.cell
Cell
p4819
(dp4820
g4
I01
sg255
I01
sg5
(I01
I01
tp4821
sba(iModules.cell
Cell
p4822
(dp4823
g4
I01
sg255
I01
sg5
(I01
I01
tp4824
sba(iModules.cell
Cell
p4825
(dp4826
g4
I01
sg255
I01
sg5
(I01
I01
tp4827
sba(iModules.cell
Cell
p4828
(dp4829
g4
I01
sg255
I01
sg5
(I01
I01
tp4830
sba(iModules.cell
Cell
p4831
(dp4832
g4
I01
sg255
I01
sg5
(I01
I01
tp4833
sba(iModules.cell
Cell
p4834
(dp4835
g4
I01
sg255
I01
sg5
(I01
I01
tp4836
sba(iModules.cell
Cell
p4837
(dp4838
g4
I01
sg255
I01
sg5
(I01
I01
tp4839
sba(iModules.cell
Cell
p4840
(dp4841
g4
I01
sg255
I01
sg5
(I01
I01
tp4842
sba(iModules.cell
Cell
p4843
(dp4844
g4
I01
sg255
I01
sg5
(I00
I00
tp4845
sba(iModules.cell
Cell
p4846
(dp4847
g4
I00
sg5
(I00
I00
tp4848
sba(iModules.cell
Cell
p4849
(dp4850
g4
I00
sg5
(I00
I00
tp4851
sba(iModules.cell
Cell
p4852
(dp4853
g4
I00
sg5
(I00
I00
tp4854
sba(iModules.cell
Cell
p4855
(dp4856
g4
I00
sg5
(I00
I00
tp4857
sba(iModules.cell
Cell
p4858
(dp4859
g4
I00
sg5
(I00
I00
tp4860
sba(iModules.cell
Cell
p4861
(dp4862
g4
I00
sg5
(I00
I00
tp4863
sba(iModules.cell
Cell
p4864
(dp4865
g4
I00
sg5
(I00
I00
tp4866
sba(iModules.cell
Cell
p4867
(dp4868
g4
I00
sg5
(I00
I00
tp4869
sba(iModules.cell
Cell
p4870
(dp4871
g4
I00
sg5
(I00
I00
tp4872
sba(iModules.cell
Cell
p4873
(dp4874
g4
I00
sg5
(I00
I00
tp4875
sba(iModules.cell
Cell
p4876
(dp4877
g4
I00
sg5
(I00
I00
tp4878
sba(iModules.cell
Cell
p4879
(dp4880
g4
I00
sg5
(I00
I00
tp4881
sba(iModules.cell
Cell
p4882
(dp4883
g4
I00
sg5
(I00
I00
tp4884
sba(iModules.cell
Cell
p4885
(dp4886
g4
I00
sg5
(I00
I00
tp4887
sba(iModules.cell
Cell
p4888
(dp4889
g4
I00
sg5
(I00
I00
tp4890
sba(iModules.cell
Cell
p4891
(dp4892
g4
I00
sg5
(I00
I00
tp4893
sba(iModules.cell
Cell
p4894
(dp4895
g4
I00
sg5
(I00
I00
tp4896
sba(iModules.cell
Cell
p4897
(dp4898
g4
I00
sg5
(I00
I00
tp4899
sba(iModules.cell
Cell
p4900
(dp4901
g5
(I00
I00
tp4902
sbaa(lp4903
(iModules.cell
Cell
p4904
(dp4905
g4
I00
sg5
(I00
I00
tp4906
sba(iModules.cell
Cell
p4907
(dp4908
g4
I00
sg255
I01
sg5
(I00
I00
tp4909
sba(iModules.cell
Cell
p4910
(dp4911
g4
I00
sg255
I01
sg5
(I01
I01
tp4912
sba(iModules.cell
Cell
p4913
(dp4914
g4
I00
sg255
I01
sg5
(I01
I01
tp4915
sba(iModules.cell
Cell
p4916
(dp4917
g4
I00
sg255
I01
sg5
(I01
I01
tp4918
sba(iModules.cell
Cell
p4919
(dp4920
g4
I00
sg255
I01
sg5
(I01
I01
tp4921
sba(iModules.cell
Cell
p4922
(dp4923
g4
I00
sg255
I01
sg5
(I01
I01
tp4924
sba(iModules.cell
Cell
p4925
(dp4926
g4
I00
sg255
I01
sg5
(I01
I01
tp4927
sba(iModules.cell
Cell
p4928
(dp4929
g4
I00
sg255
I01
sg5
(I01
I01
tp4930
sba(iModules.cell
Cell
p4931
(dp4932
g4
I00
sg255
I01
sg5
(I01
I01
tp4933
sba(iModules.cell
Cell
p4934
(dp4935
g4
I00
sg255
I01
sg5
(I01
I01
tp4936
sba(iModules.cell
Cell
p4937
(dp4938
g4
I00
sg255
I01
sg5
(I01
I01
tp4939
sba(iModules.cell
Cell
p4940
(dp4941
g4
I00
sg255
I01
sg5
(I01
I01
tp4942
sba(iModules.cell
Cell
p4943
(dp4944
g4
I00
sg255
I01
sg5
(I01
I01
tp4945
sba(iModules.cell
Cell
p4946
(dp4947
g4
I00
sg255
I01
sg5
(I01
I01
tp4948
sba(iModules.cell
Cell
p4949
(dp4950
g4
I00
sg255
I01
sg5
(I01
I01
tp4951
sba(iModules.cell
Cell
p4952
(dp4953
g4
I00
sg255
I01
sg5
(I01
I01
tp4954
sba(iModules.cell
Cell
p4955
(dp4956
g4
I00
sg255
I01
sg5
(I01
I01
tp4957
sba(iModules.cell
Cell
p4958
(dp4959
g4
I00
sg255
I01
sg5
(I01
I01
tp4960
sba(iModules.cell
Cell
p4961
(dp4962
g4
I00
sg255
I01
sg5
(I01
I01
tp4963
sba(iModules.cell
Cell
p4964
(dp4965
g4
I00
sg255
I01
sg5
(I01
I01
tp4966
sba(iModules.cell
Cell
p4967
(dp4968
g4
I00
sg255
I01
sg5
(I01
I01
tp4969
sba(iModules.cell
Cell
p4970
(dp4971
g4
I00
sg255
I01
sg5
(I01
I01
tp4972
sba(iModules.cell
Cell
p4973
(dp4974
g4
I00
sg255
I01
sg5
(I01
I01
tp4975
sba(iModules.cell
Cell
p4976
(dp4977
g4
I00
sg255
I01
sg5
(I01
I01
tp4978
sba(iModules.cell
Cell
p4979
(dp4980
g4
I00
sg255
I01
sg5
(I01
I01
tp4981
sba(iModules.cell
Cell
p4982
(dp4983
g4
I00
sg255
I01
sg5
(I01
I01
tp4984
sba(iModules.cell
Cell
p4985
(dp4986
g4
I00
sg255
I01
sg5
(I01
I01
tp4987
sba(iModules.cell
Cell
p4988
(dp4989
g4
I00
sg255
I01
sg5
(I01
I01
tp4990
sba(iModules.cell
Cell
p4991
(dp4992
g4
I00
sg255
I01
sg5
(I01
I01
tp4993
sba(iModules.cell
Cell
p4994
(dp4995
g4
I00
sg255
I01
sg5
(I01
I01
tp4996
sba(iModules.cell
Cell
p4997
(dp4998
g4
I00
sg255
I01
sg5
(I01
I01
tp4999
sba(iModules.cell
Cell
p5000
(dp5001
g4
I00
sg255
I01
sg5
(I01
I01
tp5002
sba(iModules.cell
Cell
p5003
(dp5004
g4
I00
sg255
I01
sg5
(I01
I01
tp5005
sba(iModules.cell
Cell
p5006
(dp5007
g4
I00
sg255
I01
sg5
(I01
I01
tp5008
sba(iModules.cell
Cell
p5009
(dp5010
g4
I00
sg255
I01
sg5
(I01
I01
tp5011
sba(iModules.cell
Cell
p5012
(dp5013
g4
I00
sg255
I01
sg5
(I01
I01
tp5014
sba(iModules.cell
Cell
p5015
(dp5016
g4
I00
sg255
I01
sg5
(I01
I01
tp5017
sba(iModules.cell
Cell
p5018
(dp5019
g4
I00
sg255
I01
sg5
(I01
I01
tp5020
sba(iModules.cell
Cell
p5021
(dp5022
g4
I00
sg255
I01
sg5
(I01
I01
tp5023
sba(iModules.cell
Cell
p5024
(dp5025
g4
I00
sg255
I01
sg5
(I01
I01
tp5026
sba(iModules.cell
Cell
p5027
(dp5028
g4
I00
sg255
I01
sg5
(I01
I01
tp5029
sba(iModules.cell
Cell
p5030
(dp5031
g4
I00
sg255
I01
sg5
(I01
I01
tp5032
sba(iModules.cell
Cell
p5033
(dp5034
g4
I00
sg255
I01
sg5
(I01
I01
tp5035
sba(iModules.cell
Cell
p5036
(dp5037
g4
I00
sg255
I01
sg5
(I01
I01
tp5038
sba(iModules.cell
Cell
p5039
(dp5040
g4
I00
sg255
I01
sg5
(I01
I01
tp5041
sba(iModules.cell
Cell
p5042
(dp5043
g4
I00
sg255
I01
sg5
(I01
I01
tp5044
sba(iModules.cell
Cell
p5045
(dp5046
g4
I00
sg255
I01
sg5
(I01
I01
tp5047
sba(iModules.cell
Cell
p5048
(dp5049
g4
I00
sg255
I01
sg5
(I01
I01
tp5050
sba(iModules.cell
Cell
p5051
(dp5052
g4
I00
sg255
I01
sg5
(I01
I01
tp5053
sba(iModules.cell
Cell
p5054
(dp5055
g4
I00
sg255
I01
sg5
(I01
I01
tp5056
sba(iModules.cell
Cell
p5057
(dp5058
g4
I01
sg255
I01
sg5
(I01
I01
tp5059
sba(iModules.cell
Cell
p5060
(dp5061
g4
I01
sg255
I01
sg5
(I01
I01
tp5062
sba(iModules.cell
Cell
p5063
(dp5064
g4
I01
sg255
I01
sg5
(I01
I01
tp5065
sba(iModules.cell
Cell
p5066
(dp5067
g4
I01
sg255
I01
sg5
(I01
I01
tp5068
sba(iModules.cell
Cell
p5069
(dp5070
g4
I01
sg255
I01
sg5
(I01
I01
tp5071
sba(iModules.cell
Cell
p5072
(dp5073
g4
I01
sg255
I01
sg5
(I01
I01
tp5074
sba(iModules.cell
Cell
p5075
(dp5076
g4
I01
sg255
I01
sg5
(I01
I01
tp5077
sba(iModules.cell
Cell
p5078
(dp5079
g4
I01
sg255
I01
sg5
(I01
I01
tp5080
sba(iModules.cell
Cell
p5081
(dp5082
g4
I01
sg255
I01
sg5
(I01
I01
tp5083
sba(iModules.cell
Cell
p5084
(dp5085
g4
I01
sg255
I01
sg5
(I01
I01
tp5086
sba(iModules.cell
Cell
p5087
(dp5088
g4
I01
sg255
I01
sg5
(I00
I00
tp5089
sba(iModules.cell
Cell
p5090
(dp5091
g4
I00
sg5
(I00
I00
tp5092
sba(iModules.cell
Cell
p5093
(dp5094
g4
I00
sg5
(I00
I00
tp5095
sba(iModules.cell
Cell
p5096
(dp5097
g4
I00
sg5
(I00
I00
tp5098
sba(iModules.cell
Cell
p5099
(dp5100
g4
I00
sg5
(I00
I00
tp5101
sba(iModules.cell
Cell
p5102
(dp5103
g4
I00
sg5
(I00
I00
tp5104
sba(iModules.cell
Cell
p5105
(dp5106
g4
I00
sg5
(I00
I00
tp5107
sba(iModules.cell
Cell
p5108
(dp5109
g4
I00
sg5
(I00
I00
tp5110
sba(iModules.cell
Cell
p5111
(dp5112
g4
I00
sg5
(I00
I00
tp5113
sba(iModules.cell
Cell
p5114
(dp5115
g4
I00
sg5
(I00
I00
tp5116
sba(iModules.cell
Cell
p5117
(dp5118
g4
I00
sg5
(I00
I00
tp5119
sba(iModules.cell
Cell
p5120
(dp5121
g4
I00
sg5
(I00
I00
tp5122
sba(iModules.cell
Cell
p5123
(dp5124
g4
I00
sg5
(I00
I00
tp5125
sba(iModules.cell
Cell
p5126
(dp5127
g4
I00
sg5
(I00
I00
tp5128
sba(iModules.cell
Cell
p5129
(dp5130
g4
I00
sg5
(I00
I00
tp5131
sba(iModules.cell
Cell
p5132
(dp5133
g4
I00
sg5
(I00
I00
tp5134
sba(iModules.cell
Cell
p5135
(dp5136
g4
I00
sg5
(I00
I00
tp5137
sba(iModules.cell
Cell
p5138
(dp5139
g4
I00
sg5
(I00
I00
tp5140
sba(iModules.cell
Cell
p5141
(dp5142
g4
I00
sg5
(I00
I00
tp5143
sba(iModules.cell
Cell
p5144
(dp5145
g5
(I00
I00
tp5146
sbaa(lp5147
(iModules.cell
Cell
p5148
(dp5149
g4
I00
sg5
(I00
I00
tp5150
sba(iModules.cell
Cell
p5151
(dp5152
g4
I00
sg255
I01
sg5
(I00
I00
tp5153
sba(iModules.cell
Cell
p5154
(dp5155
g4
I00
sg255
I01
sg5
(I01
I01
tp5156
sba(iModules.cell
Cell
p5157
(dp5158
g4
I00
sg255
I01
sg5
(I01
I01
tp5159
sba(iModules.cell
Cell
p5160
(dp5161
g4
I00
sg255
I01
sg5
(I01
I01
tp5162
sba(iModules.cell
Cell
p5163
(dp5164
g4
I00
sg255
I01
sg5
(I01
I01
tp5165
sba(iModules.cell
Cell
p5166
(dp5167
g4
I00
sg255
I01
sg5
(I01
I01
tp5168
sba(iModules.cell
Cell
p5169
(dp5170
g4
I00
sg255
I01
sg5
(I01
I01
tp5171
sba(iModules.cell
Cell
p5172
(dp5173
g4
I00
sg255
I01
sg5
(I01
I01
tp5174
sba(iModules.cell
Cell
p5175
(dp5176
g4
I00
sg255
I01
sg5
(I01
I01
tp5177
sba(iModules.cell
Cell
p5178
(dp5179
g4
I00
sg255
I01
sg5
(I01
I01
tp5180
sba(iModules.cell
Cell
p5181
(dp5182
g4
I00
sg255
I01
sg5
(I01
I01
tp5183
sba(iModules.cell
Cell
p5184
(dp5185
g4
I00
sg255
I01
sg5
(I01
I01
tp5186
sba(iModules.cell
Cell
p5187
(dp5188
g4
I00
sg255
I01
sg5
(I01
I01
tp5189
sba(iModules.cell
Cell
p5190
(dp5191
g4
I00
sg255
I01
sg5
(I01
I01
tp5192
sba(iModules.cell
Cell
p5193
(dp5194
g4
I00
sg255
I01
sg5
(I01
I01
tp5195
sba(iModules.cell
Cell
p5196
(dp5197
g4
I00
sg255
I01
sg5
(I01
I01
tp5198
sba(iModules.cell
Cell
p5199
(dp5200
g4
I00
sg255
I01
sg5
(I01
I01
tp5201
sba(iModules.cell
Cell
p5202
(dp5203
g4
I00
sg255
I01
sg5
(I01
I01
tp5204
sba(iModules.cell
Cell
p5205
(dp5206
g4
I00
sg255
I01
sg5
(I01
I01
tp5207
sba(iModules.cell
Cell
p5208
(dp5209
g4
I00
sg255
I01
sg5
(I01
I01
tp5210
sba(iModules.cell
Cell
p5211
(dp5212
g4
I00
sg255
I01
sg5
(I01
I01
tp5213
sba(iModules.cell
Cell
p5214
(dp5215
g4
I00
sg255
I01
sg5
(I01
I01
tp5216
sba(iModules.cell
Cell
p5217
(dp5218
g4
I00
sg255
I01
sg5
(I01
I01
tp5219
sba(iModules.cell
Cell
p5220
(dp5221
g4
I00
sg255
I01
sg5
(I01
I01
tp5222
sba(iModules.cell
Cell
p5223
(dp5224
g4
I00
sg255
I01
sg5
(I01
I01
tp5225
sba(iModules.cell
Cell
p5226
(dp5227
g4
I00
sg255
I01
sg5
(I01
I01
tp5228
sba(iModules.cell
Cell
p5229
(dp5230
g4
I00
sg255
I01
sg5
(I01
I01
tp5231
sba(iModules.cell
Cell
p5232
(dp5233
g4
I00
sg255
I01
sg5
(I01
I01
tp5234
sba(iModules.cell
Cell
p5235
(dp5236
g4
I00
sg255
I01
sg5
(I01
I01
tp5237
sba(iModules.cell
Cell
p5238
(dp5239
g4
I00
sg255
I01
sg5
(I01
I01
tp5240
sba(iModules.cell
Cell
p5241
(dp5242
g4
I00
sg255
I01
sg5
(I01
I01
tp5243
sba(iModules.cell
Cell
p5244
(dp5245
g4
I00
sg255
I01
sg5
(I01
I01
tp5246
sba(iModules.cell
Cell
p5247
(dp5248
g4
I00
sg255
I01
sg5
(I01
I01
tp5249
sba(iModules.cell
Cell
p5250
(dp5251
g4
I00
sg255
I01
sg5
(I01
I01
tp5252
sba(iModules.cell
Cell
p5253
(dp5254
g4
I00
sg255
I01
sg5
(I01
I01
tp5255
sba(iModules.cell
Cell
p5256
(dp5257
g4
I00
sg255
I01
sg5
(I01
I01
tp5258
sba(iModules.cell
Cell
p5259
(dp5260
g4
I00
sg255
I01
sg5
(I01
I01
tp5261
sba(iModules.cell
Cell
p5262
(dp5263
g4
I00
sg255
I01
sg5
(I01
I01
tp5264
sba(iModules.cell
Cell
p5265
(dp5266
g4
I00
sg255
I01
sg5
(I01
I01
tp5267
sba(iModules.cell
Cell
p5268
(dp5269
g4
I00
sg255
I01
sg5
(I01
I01
tp5270
sba(iModules.cell
Cell
p5271
(dp5272
g4
I00
sg255
I01
sg5
(I01
I01
tp5273
sba(iModules.cell
Cell
p5274
(dp5275
g4
I00
sg255
I01
sg5
(I01
I01
tp5276
sba(iModules.cell
Cell
p5277
(dp5278
g4
I00
sg255
I01
sg5
(I01
I01
tp5279
sba(iModules.cell
Cell
p5280
(dp5281
g4
I00
sg255
I01
sg5
(I01
I01
tp5282
sba(iModules.cell
Cell
p5283
(dp5284
g4
I00
sg255
I01
sg5
(I01
I01
tp5285
sba(iModules.cell
Cell
p5286
(dp5287
g4
I00
sg255
I01
sg5
(I01
I01
tp5288
sba(iModules.cell
Cell
p5289
(dp5290
g4
I00
sg255
I01
sg5
(I01
I01
tp5291
sba(iModules.cell
Cell
p5292
(dp5293
g4
I00
sg255
I01
sg5
(I01
I01
tp5294
sba(iModules.cell
Cell
p5295
(dp5296
g4
I00
sg255
I01
sg5
(I01
I01
tp5297
sba(iModules.cell
Cell
p5298
(dp5299
g4
I00
sg255
I01
sg5
(I01
I01
tp5300
sba(iModules.cell
Cell
p5301
(dp5302
g4
I01
sg255
I01
sg5
(I01
I01
tp5303
sba(iModules.cell
Cell
p5304
(dp5305
g4
I01
sg255
I01
sg5
(I01
I01
tp5306
sba(iModules.cell
Cell
p5307
(dp5308
g4
I01
sg255
I01
sg5
(I01
I01
tp5309
sba(iModules.cell
Cell
p5310
(dp5311
g4
I01
sg255
I01
sg5
(I01
I01
tp5312
sba(iModules.cell
Cell
p5313
(dp5314
g4
I01
sg255
I01
sg5
(I01
I01
tp5315
sba(iModules.cell
Cell
p5316
(dp5317
g4
I01
sg255
I01
sg5
(I01
I01
tp5318
sba(iModules.cell
Cell
p5319
(dp5320
g4
I01
sg255
I01
sg5
(I01
I01
tp5321
sba(iModules.cell
Cell
p5322
(dp5323
g4
I01
sg255
I01
sg5
(I01
I01
tp5324
sba(iModules.cell
Cell
p5325
(dp5326
g4
I01
sg255
I01
sg5
(I01
I01
tp5327
sba(iModules.cell
Cell
p5328
(dp5329
g4
I01
sg255
I01
sg5
(I01
I01
tp5330
sba(iModules.cell
Cell
p5331
(dp5332
g4
I01
sg255
I01
sg5
(I00
I00
tp5333
sba(iModules.cell
Cell
p5334
(dp5335
g4
I00
sg5
(I00
I00
tp5336
sba(iModules.cell
Cell
p5337
(dp5338
g4
I00
sg5
(I00
I00
tp5339
sba(iModules.cell
Cell
p5340
(dp5341
g4
I00
sg5
(I00
I00
tp5342
sba(iModules.cell
Cell
p5343
(dp5344
g4
I00
sg5
(I00
I00
tp5345
sba(iModules.cell
Cell
p5346
(dp5347
g4
I00
sg5
(I00
I00
tp5348
sba(iModules.cell
Cell
p5349
(dp5350
g4
I00
sg5
(I00
I00
tp5351
sba(iModules.cell
Cell
p5352
(dp5353
g4
I00
sg5
(I00
I00
tp5354
sba(iModules.cell
Cell
p5355
(dp5356
g4
I00
sg5
(I00
I00
tp5357
sba(iModules.cell
Cell
p5358
(dp5359
g4
I00
sg5
(I00
I00
tp5360
sba(iModules.cell
Cell
p5361
(dp5362
g4
I00
sg5
(I00
I00
tp5363
sba(iModules.cell
Cell
p5364
(dp5365
g4
I00
sg5
(I00
I00
tp5366
sba(iModules.cell
Cell
p5367
(dp5368
g4
I00
sg5
(I00
I00
tp5369
sba(iModules.cell
Cell
p5370
(dp5371
g4
I00
sg5
(I00
I00
tp5372
sba(iModules.cell
Cell
p5373
(dp5374
g4
I00
sg5
(I00
I00
tp5375
sba(iModules.cell
Cell
p5376
(dp5377
g4
I00
sg5
(I00
I00
tp5378
sba(iModules.cell
Cell
p5379
(dp5380
g4
I00
sg5
(I00
I00
tp5381
sba(iModules.cell
Cell
p5382
(dp5383
g4
I00
sg5
(I00
I00
tp5384
sba(iModules.cell
Cell
p5385
(dp5386
g4
I00
sg5
(I00
I00
tp5387
sba(iModules.cell
Cell
p5388
(dp5389
g5
(I00
I00
tp5390
sbaa(lp5391
(iModules.cell
Cell
p5392
(dp5393
g4
I00
sg5
(I00
I00
tp5394
sba(iModules.cell
Cell
p5395
(dp5396
g4
I00
sg255
I01
sg5
(I00
I00
tp5397
sba(iModules.cell
Cell
p5398
(dp5399
g4
I00
sg255
I01
sg5
(I00
I00
tp5400
sba(iModules.cell
Cell
p5401
(dp5402
g4
I00
sg255
I01
sg5
(I00
I00
tp5403
sba(iModules.cell
Cell
p5404
(dp5405
g4
I00
sg255
I01
sg5
(I00
I00
tp5406
sba(iModules.cell
Cell
p5407
(dp5408
g4
I00
sg255
I01
sg5
(I00
I00
tp5409
sba(iModules.cell
Cell
p5410
(dp5411
g4
I00
sg255
I01
sg5
(I00
I00
tp5412
sba(iModules.cell
Cell
p5413
(dp5414
g4
I00
sg255
I01
sg5
(I00
I00
tp5415
sba(iModules.cell
Cell
p5416
(dp5417
g4
I00
sg255
I01
sg5
(I00
I00
tp5418
sba(iModules.cell
Cell
p5419
(dp5420
g4
I00
sg255
I01
sg5
(I00
I00
tp5421
sba(iModules.cell
Cell
p5422
(dp5423
g4
I00
sg255
I01
sg5
(I00
I00
tp5424
sba(iModules.cell
Cell
p5425
(dp5426
g4
I00
sg255
I01
sg5
(I00
I00
tp5427
sba(iModules.cell
Cell
p5428
(dp5429
g4
I00
sg255
I01
sg5
(I00
I00
tp5430
sba(iModules.cell
Cell
p5431
(dp5432
g4
I00
sg255
I01
sg5
(I00
I00
tp5433
sba(iModules.cell
Cell
p5434
(dp5435
g4
I00
sg255
I01
sg5
(I00
I00
tp5436
sba(iModules.cell
Cell
p5437
(dp5438
g4
I00
sg255
I01
sg5
(I00
I00
tp5439
sba(iModules.cell
Cell
p5440
(dp5441
g4
I00
sg255
I01
sg5
(I00
I00
tp5442
sba(iModules.cell
Cell
p5443
(dp5444
g4
I00
sg255
I01
sg5
(I00
I00
tp5445
sba(iModules.cell
Cell
p5446
(dp5447
g4
I00
sg255
I01
sg5
(I00
I00
tp5448
sba(iModules.cell
Cell
p5449
(dp5450
g4
I00
sg255
I01
sg5
(I00
I00
tp5451
sba(iModules.cell
Cell
p5452
(dp5453
g4
I00
sg255
I01
sg5
(I00
I00
tp5454
sba(iModules.cell
Cell
p5455
(dp5456
g4
I00
sg255
I01
sg5
(I00
I00
tp5457
sba(iModules.cell
Cell
p5458
(dp5459
g4
I00
sg255
I01
sg5
(I00
I00
tp5460
sba(iModules.cell
Cell
p5461
(dp5462
g4
I00
sg255
I01
sg5
(I00
I00
tp5463
sba(iModules.cell
Cell
p5464
(dp5465
g4
I00
sg255
I01
sg5
(I00
I00
tp5466
sba(iModules.cell
Cell
p5467
(dp5468
g4
I00
sg255
I01
sg5
(I00
I00
tp5469
sba(iModules.cell
Cell
p5470
(dp5471
g4
I00
sg255
I01
sg5
(I00
I00
tp5472
sba(iModules.cell
Cell
p5473
(dp5474
g4
I00
sg255
I01
sg5
(I00
I00
tp5475
sba(iModules.cell
Cell
p5476
(dp5477
g4
I00
sg255
I01
sg5
(I00
I00
tp5478
sba(iModules.cell
Cell
p5479
(dp5480
g4
I00
sg255
I01
sg5
(I00
I00
tp5481
sba(iModules.cell
Cell
p5482
(dp5483
g4
I00
sg255
I01
sg5
(I00
I00
tp5484
sba(iModules.cell
Cell
p5485
(dp5486
g4
I00
sg255
I01
sg5
(I00
I00
tp5487
sba(iModules.cell
Cell
p5488
(dp5489
g4
I00
sg255
I01
sg5
(I00
I00
tp5490
sba(iModules.cell
Cell
p5491
(dp5492
g4
I00
sg255
I01
sg5
(I00
I00
tp5493
sba(iModules.cell
Cell
p5494
(dp5495
g4
I00
sg255
I01
sg5
(I00
I00
tp5496
sba(iModules.cell
Cell
p5497
(dp5498
g4
I00
sg255
I01
sg5
(I00
I00
tp5499
sba(iModules.cell
Cell
p5500
(dp5501
g4
I00
sg255
I01
sg5
(I00
I00
tp5502
sba(iModules.cell
Cell
p5503
(dp5504
g4
I00
sg255
I01
sg5
(I00
I00
tp5505
sba(iModules.cell
Cell
p5506
(dp5507
g4
I00
sg255
I01
sg5
(I00
I00
tp5508
sba(iModules.cell
Cell
p5509
(dp5510
g4
I00
sg255
I01
sg5
(I00
I00
tp5511
sba(iModules.cell
Cell
p5512
(dp5513
g4
I00
sg255
I01
sg5
(I00
I00
tp5514
sba(iModules.cell
Cell
p5515
(dp5516
g4
I00
sg255
I01
sg5
(I00
I00
tp5517
sba(iModules.cell
Cell
p5518
(dp5519
g4
I00
sg255
I01
sg5
(I00
I00
tp5520
sba(iModules.cell
Cell
p5521
(dp5522
g4
I00
sg255
I01
sg5
(I00
I00
tp5523
sba(iModules.cell
Cell
p5524
(dp5525
g4
I00
sg255
I01
sg5
(I00
I00
tp5526
sba(iModules.cell
Cell
p5527
(dp5528
g4
I00
sg255
I01
sg5
(I00
I00
tp5529
sba(iModules.cell
Cell
p5530
(dp5531
g4
I00
sg255
I01
sg5
(I00
I00
tp5532
sba(iModules.cell
Cell
p5533
(dp5534
g4
I00
sg255
I01
sg5
(I00
I00
tp5535
sba(iModules.cell
Cell
p5536
(dp5537
g4
I00
sg255
I01
sg5
(I00
I00
tp5538
sba(iModules.cell
Cell
p5539
(dp5540
g4
I00
sg255
I01
sg5
(I00
I00
tp5541
sba(iModules.cell
Cell
p5542
(dp5543
g4
I00
sg255
I01
sg5
(I00
I00
tp5544
sba(iModules.cell
Cell
p5545
(dp5546
g4
I01
sg255
I01
sg5
(I00
I00
tp5547
sba(iModules.cell
Cell
p5548
(dp5549
g4
I01
sg255
I01
sg5
(I00
I00
tp5550
sba(iModules.cell
Cell
p5551
(dp5552
g4
I01
sg255
I01
sg5
(I00
I00
tp5553
sba(iModules.cell
Cell
p5554
(dp5555
g4
I01
sg255
I01
sg5
(I00
I00
tp5556
sba(iModules.cell
Cell
p5557
(dp5558
g4
I01
sg255
I01
sg5
(I00
I00
tp5559
sba(iModules.cell
Cell
p5560
(dp5561
g4
I01
sg255
I01
sg5
(I00
I00
tp5562
sba(iModules.cell
Cell
p5563
(dp5564
g4
I01
sg255
I01
sg5
(I00
I00
tp5565
sba(iModules.cell
Cell
p5566
(dp5567
g4
I01
sg255
I01
sg5
(I00
I00
tp5568
sba(iModules.cell
Cell
p5569
(dp5570
g4
I01
sg255
I01
sg5
(I00
I00
tp5571
sba(iModules.cell
Cell
p5572
(dp5573
g4
I01
sg255
I01
sg5
(I00
I00
tp5574
sba(iModules.cell
Cell
p5575
(dp5576
g4
I01
sg255
I01
sg5
(I00
I00
tp5577
sba(iModules.cell
Cell
p5578
(dp5579
g4
I00
sg5
(I00
I00
tp5580
sba(iModules.cell
Cell
p5581
(dp5582
g4
I00
sg5
(I00
I00
tp5583
sba(iModules.cell
Cell
p5584
(dp5585
g4
I00
sg5
(I00
I00
tp5586
sba(iModules.cell
Cell
p5587
(dp5588
g4
I00
sg5
(I00
I00
tp5589
sba(iModules.cell
Cell
p5590
(dp5591
g4
I00
sg5
(I00
I00
tp5592
sba(iModules.cell
Cell
p5593
(dp5594
g4
I00
sg5
(I00
I00
tp5595
sba(iModules.cell
Cell
p5596
(dp5597
g4
I00
sg5
(I00
I00
tp5598
sba(iModules.cell
Cell
p5599
(dp5600
g4
I00
sg5
(I00
I00
tp5601
sba(iModules.cell
Cell
p5602
(dp5603
g4
I00
sg5
(I00
I00
tp5604
sba(iModules.cell
Cell
p5605
(dp5606
g4
I00
sg5
(I00
I00
tp5607
sba(iModules.cell
Cell
p5608
(dp5609
g4
I00
sg5
(I00
I00
tp5610
sba(iModules.cell
Cell
p5611
(dp5612
g4
I00
sg5
(I00
I00
tp5613
sba(iModules.cell
Cell
p5614
(dp5615
g4
I00
sg5
(I00
I00
tp5616
sba(iModules.cell
Cell
p5617
(dp5618
g4
I00
sg5
(I00
I00
tp5619
sba(iModules.cell
Cell
p5620
(dp5621
g4
I00
sg5
(I00
I00
tp5622
sba(iModules.cell
Cell
p5623
(dp5624
g4
I00
sg5
(I00
I00
tp5625
sba(iModules.cell
Cell
p5626
(dp5627
g4
I00
sg5
(I00
I00
tp5628
sba(iModules.cell
Cell
p5629
(dp5630
g4
I00
sg5
(I00
I00
tp5631
sba(iModules.cell
Cell
p5632
(dp5633
g5
(I00
I00
tp5634
sbaa(lp5635
(iModules.cell
Cell
p5636
(dp5637
g5
(I00
I00
tp5638
sba(iModules.cell
Cell
p5639
(dp5640
g5
(I00
I00
tp5641
sba(iModules.cell
Cell
p5642
(dp5643
g5
(I00
I00
tp5644
sba(iModules.cell
Cell
p5645
(dp5646
g5
(I00
I00
tp5647
sba(iModules.cell
Cell
p5648
(dp5649
g5
(I00
I00
tp5650
sba(iModules.cell
Cell
p5651
(dp5652
g5
(I00
I00
tp5653
sba(iModules.cell
Cell
p5654
(dp5655
g5
(I00
I00
tp5656
sba(iModules.cell
Cell
p5657
(dp5658
g5
(I00
I00
tp5659
sba(iModules.cell
Cell
p5660
(dp5661
g5
(I00
I00
tp5662
sba(iModules.cell
Cell
p5663
(dp5664
g5
(I00
I00
tp5665
sba(iModules.cell
Cell
p5666
(dp5667
g5
(I00
I00
tp5668
sba(iModules.cell
Cell
p5669
(dp5670
g5
(I00
I00
tp5671
sba(iModules.cell
Cell
p5672
(dp5673
g5
(I00
I00
tp5674
sba(iModules.cell
Cell
p5675
(dp5676
g5
(I00
I00
tp5677
sba(iModules.cell
Cell
p5678
(dp5679
g5
(I00
I00
tp5680
sba(iModules.cell
Cell
p5681
(dp5682
g5
(I00
I00
tp5683
sba(iModules.cell
Cell
p5684
(dp5685
g5
(I00
I00
tp5686
sba(iModules.cell
Cell
p5687
(dp5688
g5
(I00
I00
tp5689
sba(iModules.cell
Cell
p5690
(dp5691
g5
(I00
I00
tp5692
sba(iModules.cell
Cell
p5693
(dp5694
g5
(I00
I00
tp5695
sba(iModules.cell
Cell
p5696
(dp5697
g5
(I00
I00
tp5698
sba(iModules.cell
Cell
p5699
(dp5700
g5
(I00
I00
tp5701
sba(iModules.cell
Cell
p5702
(dp5703
g5
(I00
I00
tp5704
sba(iModules.cell
Cell
p5705
(dp5706
g5
(I00
I00
tp5707
sba(iModules.cell
Cell
p5708
(dp5709
g5
(I00
I00
tp5710
sba(iModules.cell
Cell
p5711
(dp5712
g5
(I00
I00
tp5713
sba(iModules.cell
Cell
p5714
(dp5715
g5
(I00
I00
tp5716
sba(iModules.cell
Cell
p5717
(dp5718
g5
(I00
I00
tp5719
sba(iModules.cell
Cell
p5720
(dp5721
g5
(I00
I00
tp5722
sba(iModules.cell
Cell
p5723
(dp5724
g5
(I00
I00
tp5725
sba(iModules.cell
Cell
p5726
(dp5727
g5
(I00
I00
tp5728
sba(iModules.cell
Cell
p5729
(dp5730
g5
(I00
I00
tp5731
sba(iModules.cell
Cell
p5732
(dp5733
g5
(I00
I00
tp5734
sba(iModules.cell
Cell
p5735
(dp5736
g5
(I00
I00
tp5737
sba(iModules.cell
Cell
p5738
(dp5739
g5
(I00
I00
tp5740
sba(iModules.cell
Cell
p5741
(dp5742
g5
(I00
I00
tp5743
sba(iModules.cell
Cell
p5744
(dp5745
g5
(I00
I00
tp5746
sba(iModules.cell
Cell
p5747
(dp5748
g5
(I00
I00
tp5749
sba(iModules.cell
Cell
p5750
(dp5751
g5
(I00
I00
tp5752
sba(iModules.cell
Cell
p5753
(dp5754
g5
(I00
I00
tp5755
sba(iModules.cell
Cell
p5756
(dp5757
g5
(I00
I00
tp5758
sba(iModules.cell
Cell
p5759
(dp5760
g5
(I00
I00
tp5761
sba(iModules.cell
Cell
p5762
(dp5763
g5
(I00
I00
tp5764
sba(iModules.cell
Cell
p5765
(dp5766
g5
(I00
I00
tp5767
sba(iModules.cell
Cell
p5768
(dp5769
g5
(I00
I00
tp5770
sba(iModules.cell
Cell
p5771
(dp5772
g5
(I00
I00
tp5773
sba(iModules.cell
Cell
p5774
(dp5775
g5
(I00
I00
tp5776
sba(iModules.cell
Cell
p5777
(dp5778
g5
(I00
I00
tp5779
sba(iModules.cell
Cell
p5780
(dp5781
g5
(I00
I00
tp5782
sba(iModules.cell
Cell
p5783
(dp5784
g5
(I00
I00
tp5785
sba(iModules.cell
Cell
p5786
(dp5787
g5
(I00
I00
tp5788
sba(iModules.cell
Cell
p5789
(dp5790
g5
(I00
I00
tp5791
sba(iModules.cell
Cell
p5792
(dp5793
g5
(I00
I00
tp5794
sba(iModules.cell
Cell
p5795
(dp5796
g5
(I00
I00
tp5797
sba(iModules.cell
Cell
p5798
(dp5799
g5
(I00
I00
tp5800
sba(iModules.cell
Cell
p5801
(dp5802
g5
(I00
I00
tp5803
sba(iModules.cell
Cell
p5804
(dp5805
g5
(I00
I00
tp5806
sba(iModules.cell
Cell
p5807
(dp5808
g5
(I00
I00
tp5809
sba(iModules.cell
Cell
p5810
(dp5811
g5
(I00
I00
tp5812
sba(iModules.cell
Cell
p5813
(dp5814
g5
(I00
I00
tp5815
sba(iModules.cell
Cell
p5816
(dp5817
g5
(I00
I00
tp5818
sba(iModules.cell
Cell
p5819
(dp5820
g5
(I00
I00
tp5821
sba(iModules.cell
Cell
p5822
(dp5823
g5
(I00
I00
tp5824
sba(iModules.cell
Cell
p5825
(dp5826
g5
(I00
I00
tp5827
sba(iModules.cell
Cell
p5828
(dp5829
g5
(I00
I00
tp5830
sba(iModules.cell
Cell
p5831
(dp5832
g5
(I00
I00
tp5833
sba(iModules.cell
Cell
p5834
(dp5835
g5
(I00
I00
tp5836
sba(iModules.cell
Cell
p5837
(dp5838
g5
(I00
I00
tp5839
sba(iModules.cell
Cell
p5840
(dp5841
g5
(I00
I00
tp5842
sba(iModules.cell
Cell
p5843
(dp5844
g5
(I00
I00
tp5845
sba(iModules.cell
Cell
p5846
(dp5847
g5
(I00
I00
tp5848
sba(iModules.cell
Cell
p5849
(dp5850
g5
(I00
I00
tp5851
sba(iModules.cell
Cell
p5852
(dp5853
g5
(I00
I00
tp5854
sba(iModules.cell
Cell
p5855
(dp5856
g5
(I00
I00
tp5857
sba(iModules.cell
Cell
p5858
(dp5859
g5
(I00
I00
tp5860
sba(iModules.cell
Cell
p5861
(dp5862
g5
(I00
I00
tp5863
sba(iModules.cell
Cell
p5864
(dp5865
g5
(I00
I00
tp5866
sba(iModules.cell
Cell
p5867
(dp5868
g5
(I00
I00
tp5869
sba(iModules.cell
Cell
p5870
(dp5871
g5
(I00
I00
tp5872
sba(iModules.cell
Cell
p5873
(dp5874
g5
(I00
I00
tp5875
sba(iModules.cell
Cell
p5876
(dp5877
g5
(I00
I00
tp5878
sbaa(lp5879
(iModules.cell
Cell
p5880
(dp5881
g5
(I00
I00
tp5882
sba(iModules.cell
Cell
p5883
(dp5884
g5
(I00
I00
tp5885
sba(iModules.cell
Cell
p5886
(dp5887
g5
(I00
I00
tp5888
sba(iModules.cell
Cell
p5889
(dp5890
g5
(I00
I00
tp5891
sba(iModules.cell
Cell
p5892
(dp5893
g5
(I00
I00
tp5894
sba(iModules.cell
Cell
p5895
(dp5896
g5
(I00
I00
tp5897
sba(iModules.cell
Cell
p5898
(dp5899
g5
(I00
I00
tp5900
sba(iModules.cell
Cell
p5901
(dp5902
g5
(I00
I00
tp5903
sba(iModules.cell
Cell
p5904
(dp5905
g5
(I00
I00
tp5906
sba(iModules.cell
Cell
p5907
(dp5908
g5
(I00
I00
tp5909
sba(iModules.cell
Cell
p5910
(dp5911
g5
(I00
I00
tp5912
sba(iModules.cell
Cell
p5913
(dp5914
g5
(I00
I00
tp5915
sba(iModules.cell
Cell
p5916
(dp5917
g5
(I00
I00
tp5918
sba(iModules.cell
Cell
p5919
(dp5920
g5
(I00
I00
tp5921
sba(iModules.cell
Cell
p5922
(dp5923
g5
(I00
I00
tp5924
sba(iModules.cell
Cell
p5925
(dp5926
g5
(I00
I00
tp5927
sba(iModules.cell
Cell
p5928
(dp5929
g5
(I00
I00
tp5930
sba(iModules.cell
Cell
p5931
(dp5932
g5
(I00
I00
tp5933
sba(iModules.cell
Cell
p5934
(dp5935
g5
(I00
I00
tp5936
sba(iModules.cell
Cell
p5937
(dp5938
g5
(I00
I00
tp5939
sba(iModules.cell
Cell
p5940
(dp5941
g5
(I00
I00
tp5942
sba(iModules.cell
Cell
p5943
(dp5944
g5
(I00
I00
tp5945
sba(iModules.cell
Cell
p5946
(dp5947
g5
(I00
I00
tp5948
sba(iModules.cell
Cell
p5949
(dp5950
g5
(I00
I00
tp5951
sba(iModules.cell
Cell
p5952
(dp5953
g5
(I00
I00
tp5954
sba(iModules.cell
Cell
p5955
(dp5956
g5
(I00
I00
tp5957
sba(iModules.cell
Cell
p5958
(dp5959
g5
(I00
I00
tp5960
sba(iModules.cell
Cell
p5961
(dp5962
g5
(I00
I00
tp5963
sba(iModules.cell
Cell
p5964
(dp5965
g5
(I00
I00
tp5966
sba(iModules.cell
Cell
p5967
(dp5968
g5
(I00
I00
tp5969
sba(iModules.cell
Cell
p5970
(dp5971
g5
(I00
I00
tp5972
sba(iModules.cell
Cell
p5973
(dp5974
g5
(I00
I00
tp5975
sba(iModules.cell
Cell
p5976
(dp5977
g5
(I00
I00
tp5978
sba(iModules.cell
Cell
p5979
(dp5980
g5
(I00
I00
tp5981
sba(iModules.cell
Cell
p5982
(dp5983
g5
(I00
I00
tp5984
sba(iModules.cell
Cell
p5985
(dp5986
g5
(I00
I00
tp5987
sba(iModules.cell
Cell
p5988
(dp5989
g5
(I00
I00
tp5990
sba(iModules.cell
Cell
p5991
(dp5992
g5
(I00
I00
tp5993
sba(iModules.cell
Cell
p5994
(dp5995
g5
(I00
I00
tp5996
sba(iModules.cell
Cell
p5997
(dp5998
g5
(I00
I00
tp5999
sba(iModules.cell
Cell
p6000
(dp6001
g5
(I00
I00
tp6002
sba(iModules.cell
Cell
p6003
(dp6004
g5
(I00
I00
tp6005
sba(iModules.cell
Cell
p6006
(dp6007
g5
(I00
I00
tp6008
sba(iModules.cell
Cell
p6009
(dp6010
g5
(I00
I00
tp6011
sba(iModules.cell
Cell
p6012
(dp6013
g5
(I00
I00
tp6014
sba(iModules.cell
Cell
p6015
(dp6016
g5
(I00
I00
tp6017
sba(iModules.cell
Cell
p6018
(dp6019
g5
(I00
I00
tp6020
sba(iModules.cell
Cell
p6021
(dp6022
g5
(I00
I00
tp6023
sba(iModules.cell
Cell
p6024
(dp6025
g5
(I00
I00
tp6026
sba(iModules.cell
Cell
p6027
(dp6028
g5
(I00
I00
tp6029
sba(iModules.cell
Cell
p6030
(dp6031
g5
(I00
I00
tp6032
sba(iModules.cell
Cell
p6033
(dp6034
g5
(I00
I00
tp6035
sba(iModules.cell
Cell
p6036
(dp6037
g5
(I00
I00
tp6038
sba(iModules.cell
Cell
p6039
(dp6040
g5
(I00
I00
tp6041
sba(iModules.cell
Cell
p6042
(dp6043
g5
(I00
I00
tp6044
sba(iModules.cell
Cell
p6045
(dp6046
g5
(I00
I00
tp6047
sba(iModules.cell
Cell
p6048
(dp6049
g5
(I00
I00
tp6050
sba(iModules.cell
Cell
p6051
(dp6052
g5
(I00
I00
tp6053
sba(iModules.cell
Cell
p6054
(dp6055
g5
(I00
I00
tp6056
sba(iModules.cell
Cell
p6057
(dp6058
g5
(I00
I00
tp6059
sba(iModules.cell
Cell
p6060
(dp6061
g5
(I00
I00
tp6062
sba(iModules.cell
Cell
p6063
(dp6064
g5
(I00
I00
tp6065
sba(iModules.cell
Cell
p6066
(dp6067
g5
(I00
I00
tp6068
sba(iModules.cell
Cell
p6069
(dp6070
g5
(I00
I00
tp6071
sba(iModules.cell
Cell
p6072
(dp6073
g5
(I00
I00
tp6074
sba(iModules.cell
Cell
p6075
(dp6076
g5
(I00
I00
tp6077
sba(iModules.cell
Cell
p6078
(dp6079
g5
(I00
I00
tp6080
sba(iModules.cell
Cell
p6081
(dp6082
g5
(I00
I00
tp6083
sba(iModules.cell
Cell
p6084
(dp6085
g5
(I00
I00
tp6086
sba(iModules.cell
Cell
p6087
(dp6088
g5
(I00
I00
tp6089
sba(iModules.cell
Cell
p6090
(dp6091
g5
(I00
I00
tp6092
sba(iModules.cell
Cell
p6093
(dp6094
g5
(I00
I00
tp6095
sba(iModules.cell
Cell
p6096
(dp6097
g5
(I00
I00
tp6098
sba(iModules.cell
Cell
p6099
(dp6100
g5
(I00
I00
tp6101
sba(iModules.cell
Cell
p6102
(dp6103
g5
(I00
I00
tp6104
sba(iModules.cell
Cell
p6105
(dp6106
g5
(I00
I00
tp6107
sba(iModules.cell
Cell
p6108
(dp6109
g5
(I00
I00
tp6110
sba(iModules.cell
Cell
p6111
(dp6112
g5
(I00
I00
tp6113
sba(iModules.cell
Cell
p6114
(dp6115
g5
(I00
I00
tp6116
sba(iModules.cell
Cell
p6117
(dp6118
g5
(I00
I00
tp6119
sba(iModules.cell
Cell
p6120
(dp6121
g5
(I00
I00
tp6122
sbaa.